gplink-2.2.37 (Jan 22 2024)
Listing File Generated: 2025-3-18  18:16:52
 
 
Address  Value    Disassembly              Source
-------  -----    -----------              ------
                                           ;--------------------------------------------------------
                                           ; external declarations
                                           ;--------------------------------------------------------
                                           	extern	_INDF0bits
                                           	extern	_INDF1bits
                                           	extern	_INDF2bits
                                           	extern	_HIBYTEbits
                                           	extern	_FSR0bits
                                           	extern	_FSR1bits
                                           	extern	_PCLbits
                                           	extern	_PFLAGbits
                                           	extern	_MCRbits
                                           	extern	_INDF3bits
                                           	extern	_INTEbits
                                           	extern	_INTFbits
                                           	extern	_DRVCRbits
                                           	extern	_P0KBCRbits
                                           	extern	_P1KBCRbits
                                           	extern	_P2KBCRbits
                                           	extern	_IOP0bits
                                           	extern	_OEP0bits
                                           	extern	_PUP0bits
                                           	extern	_PDP0bits
                                           	extern	_IOP1bits
                                           	extern	_OEP1bits
                                           	extern	_PUP1bits
                                           	extern	_PDP1bits
                                           	extern	_T0CRbits
                                           	extern	_T0CNTbits
                                           	extern	_T0LOADbits
                                           	extern	_T0DATAbits
                                           	extern	_T1CRbits
                                           	extern	_T1CNTbits
                                           	extern	_T1LOADbits
                                           	extern	_T1DATAbits
                                           	extern	_T2CRbits
                                           	extern	_T2CNTbits
                                           	extern	_T2LOADbits
                                           	extern	_T2DATAbits
                                           	extern	_T3CRbits
                                           	extern	_T3CNTbits
                                           	extern	_T3LOADbits
                                           	extern	_PWM0DRbits
                                           	extern	_PWM1DRbits
                                           	extern	_PWM2DRbits
                                           	extern	_PWMCR0bits
                                           	extern	_PWMCR1bits
                                           	extern	_OSCMRbits
                                           	extern	_LVDCRbits
                                           	extern	_ADCR0bits
                                           	extern	_ADCR1bits
                                           	extern	_ADCR2bits
                                           	extern	_OSADJCRbits
                                           	extern	_ADRHbits
                                           	extern	_ADRLbits
                                           	extern	_P0ADCRbits
                                           	extern	_P1ADCRbits
                                           	extern	_IOP2bits
                                           	extern	_OEP2bits
                                           	extern	_PUP2bits
                                           	extern	_PDP2bits
                                           	extern	_PMODbits
                                           	extern	_PWMCR3bits
                                           	extern	_PWMCR2bits
                                           	extern	_PFRCCRbits
                                           	extern	_PFRCCALbits
                                           	extern	_EECRbits
                                           	extern	_EEPRbits
                                           	extern	_EEARbits
                                           	extern	_EEDRHbits
                                           	extern	_EEDRLbits
                                           	extern	_DBGCRbits
                                           	extern	_DBGPRbits
                                           	extern	_HIRCCALbits
                                           	extern	_INDF0
                                           	extern	_INDF1
                                           	extern	_INDF2
                                           	extern	_HIBYTE
                                           	extern	_FSR0
                                           	extern	_FSR1
                                           	extern	_PCL
                                           	extern	_PFLAG
                                           	extern	_MCR
                                           	extern	_INDF3
                                           	extern	_INTE
                                           	extern	_INTF
                                           	extern	_DRVCR
                                           	extern	_P0KBCR
                                           	extern	_P1KBCR
                                           	extern	_P2KBCR
                                           	extern	_IOP0
                                           	extern	_OEP0
                                           	extern	_PUP0
                                           	extern	_PDP0
                                           	extern	_IOP1
                                           	extern	_OEP1
                                           	extern	_PUP1
                                           	extern	_PDP1
                                           	extern	_T0CR
                                           	extern	_T0CNT
                                           	extern	_T0LOAD
                                           	extern	_T0DATA
                                           	extern	_T1CR
                                           	extern	_T1CNT
                                           	extern	_T1LOAD
                                           	extern	_T1DATA
                                           	extern	_T2CR
                                           	extern	_T2CNT
                                           	extern	_T2LOAD
                                           	extern	_T2DATA
                                           	extern	_T3CR
                                           	extern	_T3CNT
                                           	extern	_T3LOAD
                                           	extern	_PWM0DR
                                           	extern	_PWM1DR
                                           	extern	_PWM2DR
                                           	extern	_PWMCR0
                                           	extern	_PWMCR1
                                           	extern	_OSCMR
                                           	extern	_LVDCR
                                           	extern	_ADCR0
                                           	extern	_ADCR1
                                           	extern	_ADCR2
                                           	extern	_OSADJCR
                                           	extern	_ADRH
                                           	extern	_ADRL
                                           	extern	_P0ADCR
                                           	extern	_P1ADCR
                                           	extern	_IOP2
                                           	extern	_OEP2
                                           	extern	_PUP2
                                           	extern	_PDP2
                                           	extern	_PMOD
                                           	extern	_PWMCR3
                                           	extern	_PWMCR2
                                           	extern	_PFRCCR
                                           	extern	_PFRCCAL
                                           	extern	_EECR
                                           	extern	_EEPR
                                           	extern	_EEAR
                                           	extern	_EEDRH
                                           	extern	_EEDRL
                                           	extern	_DBGCR
                                           	extern	_DBGPR
                                           	extern	_HIRCCAL
                                           	extern	__gptrget2
                                           	extern	__mulchar
                                           	extern	__gptrget1
                                           ;--------------------------------------------------------
                                           ; global declarations
                                           ;--------------------------------------------------------
                                           	global	_delay_ms
                                           	global	_delay_100us
                                           	global	_delay_200us
                                           	global	_delay_1_4ms
                                           	global	_EEPROM_Write_Byte
                                           	global	_EEPROM_Read_Byte
                                           	global	_EEPROM_Write_Data
                                           	global	_send_cmd_16bit
                                           	global	_send_cmd_16bit_without_delay
                                           	global	_CLR_RAM
                                           	global	_IO_Init
                                           	global	_TIMER2_INT_Init
                                           	global	_TIMER3_INT_Init
                                           	global	_Sys_Init
                                           	global	_main
                                           	global	_int_isr
                                           	global	_flag_is_press_speed
                                           	global	_auto_mode_info
                                           	global	_cur_led_status
                                           	global	_cur_r3c4_status
                                           	global	_abuf
                                           	global	_statusbuf
                                           	global	_flag1
                                           	global	_ir_data
                                           	global	_table_auto_in_submode
                                           	global	_table_irkey
                                           
                                           	global STK06
                                           	global STK05
                                           	global STK04
                                           	global STK03
                                           	global STK02
                                           	global STK01
                                           	global STK00
                                           
                                           sharebank udata_ovr 0x0000
                                           STK06	res 1
                                           STK05	res 1
                                           STK04	res 1
                                           STK03	res 1
                                           STK02	res 1
                                           STK01	res 1
                                           STK00	res 1
                                           
                                           ;--------------------------------------------------------
                                           ; global definitions
                                           ;--------------------------------------------------------
                                           UD_MC32F7361_0	udata
                                           _flag_is_press_speed	res	1
                                           
                                           UD_MC32F7361_1	udata
                                           _auto_mode_info	res	5
                                           
                                           UD_MC32F7361_2	udata
                                           _cur_led_status	res	1
                                           
                                           UD_MC32F7361_3	udata
                                           _cur_r3c4_status	res	1
                                           
                                           UD_MC32F7361_4	udata
                                           _abuf	res	1
                                           
                                           UD_MC32F7361_5	udata
                                           _statusbuf	res	1
                                           
                                           UD_MC32F7361_6	udata
                                           _flag1	res	1
                                           
                                           UD_MC32F7361_7	udata
                                           _ir_data	res	1
                                           
                                           ;--------------------------------------------------------
                                           ; absolute symbol definitions
                                           ;--------------------------------------------------------
                                           ;--------------------------------------------------------
                                           ; compiler-defined variables
                                           ;--------------------------------------------------------
                                           UDL_MC32F7361_0	udata
                                           r0x1016	res	1
                                           r0x1015	res	1
                                           r0x1017	res	1
                                           r0x1018	res	1
                                           r0x1019	res	1
                                           r0x101A	res	1
                                           r0x1039	res	1
                                           r0x103A	res	1
                                           r0x102A	res	1
                                           r0x102B	res	1
                                           r0x1035	res	1
                                           r0x1036	res	1
                                           r0x1038	res	1
                                           r0x1037	res	1
                                           r0x102D	res	1
                                           r0x1030	res	1
                                           r0x102F	res	1
                                           r0x102E	res	1
                                           r0x1031	res	1
                                           r0x1032	res	1
                                           r0x1034	res	1
                                           r0x1033	res	1
                                           r0x101C	res	1
                                           r0x101B	res	1
                                           r0x101D	res	1
                                           r0x101E	res	1
                                           r0x1020	res	1
                                           r0x101F	res	1
                                           r0x1021	res	1
                                           r0x1022	res	1
                                           r0x1023	res	1
                                           r0x1024	res	1
                                           r0x1025	res	1
                                           r0x1026	res	1
                                           r0x1027	res	1
                                           r0x1028	res	1
                                           r0x103B	res	1
                                           r0x103C	res	1
                                           _main_tmp_262144_57	res	2
                                           _int_isr_ir_level_cnt_196608_128	res	2
                                           _int_isr_ir_fliter_196608_128	res	1
                                           _int_isr___ir_data_196608_128	res	1
                                           _int_isr_ir_long_press_cnt_196608_128	res	2
                                           _int_isr_cnt_100us_196608_144	res	1
                                           _int_isr_auto_period_cnt_327680_146	res	2
                                           ;--------------------------------------------------------
                                           ; initialized data
                                           ;--------------------------------------------------------
                                           
                                           ID_MC32F7361_0	code
                                           _table_auto_in_submode
000574   0000     nop                      	dw 0x00
000575   0022     dw      0x22             	dw 0x22
000576   0000     nop                      	dw 0x00
000577   0044     dw      0x44             	dw 0x44
000578   0000     nop                      	dw 0x00
000579   0033     dw      0x33             	dw 0x33
00057a   0000     nop                      	dw 0x00
00057b   0055     dw      0x55             	dw 0x55
00057c   0000     nop                      	dw 0x00
00057d   0066     dw      0x66             	dw 0x66
00057e   0010     djza                     	dw 0x10
00057f   0077     dw      0x77             	dw 0x77
000580   0000     nop                      	dw 0x00
000581   0088     dw      0x88             	dw 0x88
000582   0000     nop                      	dw 0x00
000583   00aa     dw      0xaa             	dw 0xaa
000584   0000     nop                      	dw 0x00
000585   00cc     dw      0xcc             	dw 0xcc
000586   00c0     dw      0xc0             	dw 0xc0
000587   0000     nop                      	dw 0x00
000588   0000     nop                      	dw 0x00
000589   0011     deca                     	dw 0x11
00058a   0000     nop                      	dw 0x00
00058b   0022     dw      0x22             	dw 0x22
00058c   0000     nop                      	dw 0x00
00058d   0044     dw      0x44             	dw 0x44
00058e   0000     nop                      	dw 0x00
00058f   0033     dw      0x33             	dw 0x33
000590   0000     nop                      	dw 0x00
000591   0055     dw      0x55             	dw 0x55
000592   0000     nop                      	dw 0x00
000593   0066     dw      0x66             	dw 0x66
000594   0010     djza                     	dw 0x10
000595   0077     dw      0x77             	dw 0x77
000596   0000     nop                      	dw 0x00
000597   0088     dw      0x88             	dw 0x88
000598   0000     nop                      	dw 0x00
000599   00aa     dw      0xaa             	dw 0xaa
00059a   0000     nop                      	dw 0x00
00059b   00cc     dw      0xcc             	dw 0xcc
00059c   00c0     dw      0xc0             	dw 0xc0
00059d   0000     nop                      	dw 0x00
00059e   0000     nop                      	dw 0x00
00059f   0021     dw      0x21             	dw 0x21
0005a0   0010     djza                     	dw 0x10
0005a1   0074     dw      0x74             	dw 0x74
0005a2   0000     nop                      	dw 0x00
0005a3   0053     dw      0x53             	dw 0x53
0005a4   0000     nop                      	dw 0x00
0005a5   0041     dw      0x41             	dw 0x41
0005a6   0000     nop                      	dw 0x00
0005a7   0024     dw      0x24             	dw 0x24
0005a8   0000     nop                      	dw 0x00
0005a9   0045     dw      0x45             	dw 0x45
0005aa   000c     return                   	dw 0x0c
0005ab   0000     nop                      	dw 0x00
0005ac   0000     nop                      	dw 0x00
0005ad   00e0     dw      0xe0             	dw 0xe0
0005ae   0000     nop                      	dw 0x00
0005af   00a0     dw      0xa0             	dw 0xa0
0005b0   0000     nop                      	dw 0x00
0005b1   00c0     dw      0xc0             	dw 0xc0
0005b2   00c0     dw      0xc0             	dw 0xc0
0005b3   0000     nop                      	dw 0x00
0005b4   0000     nop                      	dw 0x00
0005b5   00ee     dw      0xee             	dw 0xee
0005b6   0000     nop                      	dw 0x00
0005b7   00ee     dw      0xee             	dw 0xee
0005b8   0000     nop                      	dw 0x00
0005b9   00ee     dw      0xee             	dw 0xee
0005ba   0000     nop                      	dw 0x00
0005bb   00ee     dw      0xee             	dw 0xee
0005bc   0000     nop                      	dw 0x00
0005bd   00ee     dw      0xee             	dw 0xee
0005be   0000     nop                      	dw 0x00
0005bf   00ee     dw      0xee             	dw 0xee
0005c0   0000     nop                      	dw 0x00
0005c1   00ee     dw      0xee             	dw 0xee
0005c2   0000     nop                      	dw 0x00
0005c3   00ee     dw      0xee             	dw 0xee
0005c4   0000     nop                      	dw 0x00
0005c5   00ee     dw      0xee             	dw 0xee
0005c6   0000     nop                      	dw 0x00
0005c7   00ee     dw      0xee             	dw 0xee
0005c8   0000     nop                      	dw 0x00
0005c9   00aa     dw      0xaa             	dw 0xaa
0005ca   0000     nop                      	dw 0x00
0005cb   00aa     dw      0xaa             	dw 0xaa
0005cc   0000     nop                      	dw 0x00
0005cd   00aa     dw      0xaa             	dw 0xaa
0005ce   0000     nop                      	dw 0x00
0005cf   00aa     dw      0xaa             	dw 0xaa
0005d0   0000     nop                      	dw 0x00
0005d1   00aa     dw      0xaa             	dw 0xaa
0005d2   0000     nop                      	dw 0x00
0005d3   00aa     dw      0xaa             	dw 0xaa
0005d4   0000     nop                      	dw 0x00
0005d5   00aa     dw      0xaa             	dw 0xaa
0005d6   0000     nop                      	dw 0x00
0005d7   00aa     dw      0xaa             	dw 0xaa
0005d8   0000     nop                      	dw 0x00
0005d9   00aa     dw      0xaa             	dw 0xaa
0005da   0000     nop                      	dw 0x00
0005db   00aa     dw      0xaa             	dw 0xaa
0005dc   0000     nop                      	dw 0x00
0005dd   00cc     dw      0xcc             	dw 0xcc
0005de   0000     nop                      	dw 0x00
0005df   00cc     dw      0xcc             	dw 0xcc
0005e0   0000     nop                      	dw 0x00
0005e1   00cc     dw      0xcc             	dw 0xcc
0005e2   0000     nop                      	dw 0x00
0005e3   00cc     dw      0xcc             	dw 0xcc
0005e4   0000     nop                      	dw 0x00
0005e5   00cc     dw      0xcc             	dw 0xcc
0005e6   0000     nop                      	dw 0x00
0005e7   00cc     dw      0xcc             	dw 0xcc
0005e8   0000     nop                      	dw 0x00
0005e9   00cc     dw      0xcc             	dw 0xcc
0005ea   0000     nop                      	dw 0x00
0005eb   00cc     dw      0xcc             	dw 0xcc
0005ec   0000     nop                      	dw 0x00
0005ed   00cc     dw      0xcc             	dw 0xcc
0005ee   0000     nop                      	dw 0x00
0005ef   00cc     dw      0xcc             	dw 0xcc
0005f0   000c     return                   	dw 0x0c
0005f1   0000     nop                      	dw 0x00
0005f2   0000     nop                      	dw 0x00
0005f3   0017     dw      0x17             	dw 0x17
0005f4   0000     nop                      	dw 0x00
0005f5   0027     dw      0x27             	dw 0x27
0005f6   0000     nop                      	dw 0x00
0005f7   0047     dw      0x47             	dw 0x47
0005f8   0000     nop                      	dw 0x00
0005f9   0037     dw      0x37             	dw 0x37
0005fa   0000     nop                      	dw 0x00
0005fb   0057     dw      0x57             	dw 0x57
0005fc   0000     nop                      	dw 0x00
0005fd   0067     dw      0x67             	dw 0x67
0005fe   0010     djza                     	dw 0x10
0005ff   0077     dw      0x77             	dw 0x77
000600   0000     nop                      	dw 0x00
000601   0087     dw      0x87             	dw 0x87
000602   0000     nop                      	dw 0x00
000603   00a7     dw      0xa7             	dw 0xa7
000604   0000     nop                      	dw 0x00
000605   00c7     dw      0xc7             	dw 0xc7
000606   000c     return                   	dw 0x0c
000607   0000     nop                      	dw 0x00
000608   0080     dw      0x80             	dw 0x80
000609   0011     deca                     	dw 0x11
00060a   0080     dw      0x80             	dw 0x80
00060b   0012     jza                      	dw 0x12
00060c   0080     dw      0x80             	dw 0x80
00060d   0022     dw      0x22             	dw 0x22
00060e   0080     dw      0x80             	dw 0x80
00060f   0024     dw      0x24             	dw 0x24
000610   0080     dw      0x80             	dw 0x80
000611   0044     dw      0x44             	dw 0x44
000612   0080     dw      0x80             	dw 0x80
000613   0014     rla                      	dw 0x14
000614   000c     return                   	dw 0x0c
000615   0000     nop                      	dw 0x00
000616   0000     nop                      	dw 0x00
000617   0011     deca                     	dw 0x11
                                           
                                           
                                           ID_MC32F7361_1	code
                                           _table_irkey
000618   0080     dw      0x80             	dw 0x80
000619   0096     dw      0x96             	dw 0x96
00061a   0045     dw      0x45             	dw 0x45
00061b   000f     dw      0xf              	dw 0x0f
00061c   0011     deca                     	dw 0x11
00061d   0090     dw      0x90             	dw 0x90
00061e   0000     nop                      	dw 0x00
00061f   0011     deca                     	dw 0x11
000620   00ff     dw      0xff             	dw 0xff
000621   00ff     dw      0xff             	dw 0xff
000622   00b8     dw      0xb8             	dw 0xb8
000623   0000     nop                      	dw 0x00
000624   0022     dw      0x22             	dw 0x22
000625   00ff     dw      0xff             	dw 0xff
000626   00ff     dw      0xff             	dw 0xff
000627   00f8     dw      0xf8             	dw 0xf8
000628   0000     nop                      	dw 0x00
000629   0044     dw      0x44             	dw 0x44
00062a   00ff     dw      0xff             	dw 0xff
00062b   00ff     dw      0xff             	dw 0xff
00062c   00b0     dw      0xb0             	dw 0xb0
00062d   0096     dw      0x96             	dw 0x96
00062e   0045     dw      0x45             	dw 0x45
00062f   0010     djza                     	dw 0x10
000630   0077     dw      0x77             	dw 0x77
000631   0098     dw      0x98             	dw 0x98
000632   009f     dw      0x9f             	dw 0x9f
000633   0000     nop                      	dw 0x00
000634   0010     djza                     	dw 0x10
000635   0033     dw      0x33             	dw 0x33
000636   00d8     dw      0xd8             	dw 0xd8
000637   0090     dw      0x90             	dw 0x90
000638   00f1     dw      0xf1             	dw 0xf1
000639   0010     djza                     	dw 0x10
00063a   0066     dw      0x66             	dw 0x66
00063b   0088     dw      0x88             	dw 0x88
00063c   0093     dw      0x93             	dw 0x93
00063d   000f     dw      0xf              	dw 0x0f
00063e   0010     djza                     	dw 0x10
00063f   0055     dw      0x55             	dw 0x55
000640   00e8     dw      0xe8             	dw 0xe8
000641   009f     dw      0x9f             	dw 0x9f
000642   0010     djza                     	dw 0x10
000643   0010     djza                     	dw 0x10
000644   0033     dw      0x33             	dw 0x33
000645   0048     dw      0x48             	dw 0x48
000646   0090     dw      0x90             	dw 0x90
000647   00f8     dw      0xf8             	dw 0xf8
000648   0010     djza                     	dw 0x10
000649   0066     dw      0x66             	dw 0x66
00064a   0068     dw      0x68             	dw 0x68
00064b   0098     dw      0x98             	dw 0x98
00064c   000f     dw      0xf              	dw 0x0f
00064d   0010     djza                     	dw 0x10
00064e   0055     dw      0x55             	dw 0x55
00064f   0002     dw      0x2              	dw 0x02
000650   009f     dw      0x9f             	dw 0x9f
000651   0030     dw      0x30             	dw 0x30
000652   0010     djza                     	dw 0x10
000653   0033     dw      0x33             	dw 0x33
000654   0032     dw      0x32             	dw 0x32
000655   0090     dw      0x90             	dw 0x90
000656   00fc     dw      0xfc             	dw 0xfc
000657   0010     djza                     	dw 0x10
000658   0066     dw      0x66             	dw 0x66
000659   0020     dw      0x20             	dw 0x20
00065a   009f     dw      0x9f             	dw 0x9f
00065b   000f     dw      0xf              	dw 0x0f
00065c   0010     djza                     	dw 0x10
00065d   0055     dw      0x55             	dw 0x55
00065e   0050     dw      0x50             	dw 0x50
00065f   009f     dw      0x9f             	dw 0x9f
000660   00f0     dw      0xf0             	dw 0xf0
000661   0010     djza                     	dw 0x10
000662   0033     dw      0x33             	dw 0x33
000663   0078     dw      0x78             	dw 0x78
000664   0090     dw      0x90             	dw 0x90
000665   00ff     dw      0xff             	dw 0xff
000666   0010     djza                     	dw 0x10
000667   0066     dw      0x66             	dw 0x66
000668   0070     dw      0x70             	dw 0x70
000669   009f     dw      0x9f             	dw 0x9f
00066a   0003     dw      0x3              	dw 0x03
00066b   0010     djza                     	dw 0x10
00066c   0055     dw      0x55             	dw 0x55
                                           
                                           
                                           ;@Allocation info for local variables in function 'delay_ms'
                                           ;@delay_ms delay_ms                  Allocated to registers ;size:2
                                           ;@delay_ms INDF0bits                 Allocated to registers ;size:1
                                           ;@delay_ms INDF1bits                 Allocated to registers ;size:1
                                           ;@delay_ms INDF2bits                 Allocated to registers ;size:1
                                           ;@delay_ms HIBYTEbits                Allocated to registers ;size:1
                                           ;@delay_ms FSR0bits                  Allocated to registers ;size:1
                                           ;@delay_ms FSR1bits                  Allocated to registers ;size:1
                                           ;@delay_ms PCLbits                   Allocated to registers ;size:1
                                           ;@delay_ms PFLAGbits                 Allocated to registers ;size:1
                                           ;@delay_ms MCRbits                   Allocated to registers ;size:1
                                           ;@delay_ms INDF3bits                 Allocated to registers ;size:1
                                           ;@delay_ms INTEbits                  Allocated to registers ;size:1
                                           ;@delay_ms INTFbits                  Allocated to registers ;size:1
                                           ;@delay_ms DRVCRbits                 Allocated to registers ;size:1
                                           ;@delay_ms P0KBCRbits                Allocated to registers ;size:1
                                           ;@delay_ms P1KBCRbits                Allocated to registers ;size:1
                                           ;@delay_ms P2KBCRbits                Allocated to registers ;size:1
                                           ;@delay_ms IOP0bits                  Allocated to registers ;size:1
                                           ;@delay_ms OEP0bits                  Allocated to registers ;size:1
                                           ;@delay_ms PUP0bits                  Allocated to registers ;size:1
                                           ;@delay_ms PDP0bits                  Allocated to registers ;size:1
                                           ;@delay_ms IOP1bits                  Allocated to registers ;size:1
                                           ;@delay_ms OEP1bits                  Allocated to registers ;size:1
                                           ;@delay_ms PUP1bits                  Allocated to registers ;size:1
                                           ;@delay_ms PDP1bits                  Allocated to registers ;size:1
                                           ;@delay_ms T0CRbits                  Allocated to registers ;size:1
                                           ;@delay_ms T0CNTbits                 Allocated to registers ;size:1
                                           ;@delay_ms T0LOADbits                Allocated to registers ;size:1
                                           ;@delay_ms T0DATAbits                Allocated to registers ;size:1
                                           ;@delay_ms T1CRbits                  Allocated to registers ;size:1
                                           ;@delay_ms T1CNTbits                 Allocated to registers ;size:1
                                           ;@delay_ms T1LOADbits                Allocated to registers ;size:1
                                           ;@delay_ms T1DATAbits                Allocated to registers ;size:1
                                           ;@delay_ms T2CRbits                  Allocated to registers ;size:1
                                           ;@delay_ms T2CNTbits                 Allocated to registers ;size:1
                                           ;@delay_ms T2LOADbits                Allocated to registers ;size:1
                                           ;@delay_ms T2DATAbits                Allocated to registers ;size:1
                                           ;@delay_ms T3CRbits                  Allocated to registers ;size:1
                                           ;@delay_ms T3CNTbits                 Allocated to registers ;size:1
                                           ;@delay_ms T3LOADbits                Allocated to registers ;size:1
                                           ;@delay_ms PWM0DRbits                Allocated to registers ;size:1
                                           ;@delay_ms PWM1DRbits                Allocated to registers ;size:1
                                           ;@delay_ms PWM2DRbits                Allocated to registers ;size:1
                                           ;@delay_ms PWMCR0bits                Allocated to registers ;size:1
                                           ;@delay_ms PWMCR1bits                Allocated to registers ;size:1
                                           ;@delay_ms OSCMRbits                 Allocated to registers ;size:1
                                           ;@delay_ms LVDCRbits                 Allocated to registers ;size:1
                                           ;@delay_ms ADCR0bits                 Allocated to registers ;size:1
                                           ;@delay_ms ADCR1bits                 Allocated to registers ;size:1
                                           ;@delay_ms ADCR2bits                 Allocated to registers ;size:1
                                           ;@delay_ms OSADJCRbits               Allocated to registers ;size:1
                                           ;@delay_ms ADRHbits                  Allocated to registers ;size:1
                                           ;@delay_ms ADRLbits                  Allocated to registers ;size:1
                                           ;@delay_ms P0ADCRbits                Allocated to registers ;size:1
                                           ;@delay_ms P1ADCRbits                Allocated to registers ;size:1
                                           ;@delay_ms IOP2bits                  Allocated to registers ;size:1
                                           ;@delay_ms OEP2bits                  Allocated to registers ;size:1
                                           ;@delay_ms PUP2bits                  Allocated to registers ;size:1
                                           ;@delay_ms PDP2bits                  Allocated to registers ;size:1
                                           ;@delay_ms PMODbits                  Allocated to registers ;size:1
                                           ;@delay_ms PWMCR3bits                Allocated to registers ;size:1
                                           ;@delay_ms PWMCR2bits                Allocated to registers ;size:1
                                           ;@delay_ms PFRCCRbits                Allocated to registers ;size:1
                                           ;@delay_ms PFRCCALbits               Allocated to registers ;size:1
                                           ;@delay_ms EECRbits                  Allocated to registers ;size:1
                                           ;@delay_ms EEPRbits                  Allocated to registers ;size:1
                                           ;@delay_ms EEARbits                  Allocated to registers ;size:1
                                           ;@delay_ms EEDRHbits                 Allocated to registers ;size:1
                                           ;@delay_ms EEDRLbits                 Allocated to registers ;size:1
                                           ;@delay_ms DBGCRbits                 Allocated to registers ;size:1
                                           ;@delay_ms DBGPRbits                 Allocated to registers ;size:1
                                           ;@delay_ms HIRCCALbits               Allocated to registers ;size:1
                                           ;@delay_ms flag_is_press_speed       Allocated to registers ;size:1
                                           ;@delay_ms auto_mode_info            Allocated to registers ;size:5
                                           ;@delay_ms cur_led_status            Allocated to registers ;size:1
                                           ;@delay_ms cur_r3c4_status           Allocated to registers ;size:1
                                           ;@delay_ms abuf                      Allocated to registers ;size:1
                                           ;@delay_ms statusbuf                 Allocated to registers ;size:1
                                           ;@delay_ms flag1                     Allocated to registers ;size:1
                                           ;@delay_ms ir_data                   Allocated to registers ;size:1
                                           ;@delay_ms xms                       Allocated to registers ;size:2
                                           ;@delay_ms i                         Allocated to registers r0x1017 r0x1018 ;size:2
                                           ;@delay_ms INDF0                     Allocated to registers ;size:1
                                           ;@delay_ms INDF1                     Allocated to registers ;size:1
                                           ;@delay_ms INDF2                     Allocated to registers ;size:1
                                           ;@delay_ms HIBYTE                    Allocated to registers ;size:1
                                           ;@delay_ms FSR0                      Allocated to registers ;size:1
                                           ;@delay_ms FSR1                      Allocated to registers ;size:1
                                           ;@delay_ms PCL                       Allocated to registers ;size:1
                                           ;@delay_ms PFLAG                     Allocated to registers ;size:1
                                           ;@delay_ms MCR                       Allocated to registers ;size:1
                                           ;@delay_ms INDF3                     Allocated to registers ;size:1
                                           ;@delay_ms INTE                      Allocated to registers ;size:1
                                           ;@delay_ms INTF                      Allocated to registers ;size:1
                                           ;@delay_ms DRVCR                     Allocated to registers ;size:1
                                           ;@delay_ms P0KBCR                    Allocated to registers ;size:1
                                           ;@delay_ms P1KBCR                    Allocated to registers ;size:1
                                           ;@delay_ms P2KBCR                    Allocated to registers ;size:1
                                           ;@delay_ms IOP0                      Allocated to registers ;size:1
                                           ;@delay_ms OEP0                      Allocated to registers ;size:1
                                           ;@delay_ms PUP0                      Allocated to registers ;size:1
                                           ;@delay_ms PDP0                      Allocated to registers ;size:1
                                           ;@delay_ms IOP1                      Allocated to registers ;size:1
                                           ;@delay_ms OEP1                      Allocated to registers ;size:1
                                           ;@delay_ms PUP1                      Allocated to registers ;size:1
                                           ;@delay_ms PDP1                      Allocated to registers ;size:1
                                           ;@delay_ms T0CR                      Allocated to registers ;size:1
                                           ;@delay_ms T0CNT                     Allocated to registers ;size:1
                                           ;@delay_ms T0LOAD                    Allocated to registers ;size:1
                                           ;@delay_ms T0DATA                    Allocated to registers ;size:1
                                           ;@delay_ms T1CR                      Allocated to registers ;size:1
                                           ;@delay_ms T1CNT                     Allocated to registers ;size:1
                                           ;@delay_ms T1LOAD                    Allocated to registers ;size:1
                                           ;@delay_ms T1DATA                    Allocated to registers ;size:1
                                           ;@delay_ms T2CR                      Allocated to registers ;size:1
                                           ;@delay_ms T2CNT                     Allocated to registers ;size:1
                                           ;@delay_ms T2LOAD                    Allocated to registers ;size:1
                                           ;@delay_ms T2DATA                    Allocated to registers ;size:1
                                           ;@delay_ms T3CR                      Allocated to registers ;size:1
                                           ;@delay_ms T3CNT                     Allocated to registers ;size:1
                                           ;@delay_ms T3LOAD                    Allocated to registers ;size:1
                                           ;@delay_ms PWM0DR                    Allocated to registers ;size:1
                                           ;@delay_ms PWM1DR                    Allocated to registers ;size:1
                                           ;@delay_ms PWM2DR                    Allocated to registers ;size:1
                                           ;@delay_ms PWMCR0                    Allocated to registers ;size:1
                                           ;@delay_ms PWMCR1                    Allocated to registers ;size:1
                                           ;@delay_ms OSCMR                     Allocated to registers ;size:1
                                           ;@delay_ms LVDCR                     Allocated to registers ;size:1
                                           ;@delay_ms ADCR0                     Allocated to registers ;size:1
                                           ;@delay_ms ADCR1                     Allocated to registers ;size:1
                                           ;@delay_ms ADCR2                     Allocated to registers ;size:1
                                           ;@delay_ms OSADJCR                   Allocated to registers ;size:1
                                           ;@delay_ms ADRH                      Allocated to registers ;size:1
                                           ;@delay_ms ADRL                      Allocated to registers ;size:1
                                           ;@delay_ms P0ADCR                    Allocated to registers ;size:1
                                           ;@delay_ms P1ADCR                    Allocated to registers ;size:1
                                           ;@delay_ms IOP2                      Allocated to registers ;size:1
                                           ;@delay_ms OEP2                      Allocated to registers ;size:1
                                           ;@delay_ms PUP2                      Allocated to registers ;size:1
                                           ;@delay_ms PDP2                      Allocated to registers ;size:1
                                           ;@delay_ms PMOD                      Allocated to registers ;size:1
                                           ;@delay_ms PWMCR3                    Allocated to registers ;size:1
                                           ;@delay_ms PWMCR2                    Allocated to registers ;size:1
                                           ;@delay_ms PFRCCR                    Allocated to registers ;size:1
                                           ;@delay_ms PFRCCAL                   Allocated to registers ;size:1
                                           ;@delay_ms EECR                      Allocated to registers ;size:1
                                           ;@delay_ms EEPR                      Allocated to registers ;size:1
                                           ;@delay_ms EEAR                      Allocated to registers ;size:1
                                           ;@delay_ms EEDRH                     Allocated to registers ;size:1
                                           ;@delay_ms EEDRL                     Allocated to registers ;size:1
                                           ;@delay_ms DBGCR                     Allocated to registers ;size:1
                                           ;@delay_ms DBGPR                     Allocated to registers ;size:1
                                           ;@delay_ms HIRCCAL                   Allocated to registers ;size:1
                                           ;@end Allocation info for local variables in function 'delay_ms';
                                           ;@Allocation info for local variables in function 'delay_100us'
                                           ;@delay_100us i                         Allocated to registers r0x1015 ;size:1
                                           ;@end Allocation info for local variables in function 'delay_100us';
                                           ;@Allocation info for local variables in function 'delay_200us'
                                           ;@delay_200us i                         Allocated to registers r0x1039 ;size:1
                                           ;@end Allocation info for local variables in function 'delay_200us';
                                           ;@Allocation info for local variables in function 'delay_1_4ms'
                                           ;@delay_1_4ms i                         Allocated to registers r0x1017 ;size:1
                                           ;@end Allocation info for local variables in function 'delay_1_4ms';
                                           ;@Allocation info for local variables in function 'EEPROM_Write_Byte'
                                           ;@EEPROM_Write_Byte data                      Allocated to registers r0x102A r0x1029 ;size:2
                                           ;@EEPROM_Write_Byte addr                      Allocated to registers ;size:1
                                           ;@end Allocation info for local variables in function 'EEPROM_Write_Byte';
                                           ;@Allocation info for local variables in function 'EEPROM_Read_Byte'
                                           ;@EEPROM_Read_Byte addr                      Allocated to registers ;size:1
                                           ;@EEPROM_Read_Byte EEDR                      Allocated to registers r0x1038 r0x1037 ;size:2
                                           ;@end Allocation info for local variables in function 'EEPROM_Read_Byte';
                                           ;@Allocation info for local variables in function 'EEPROM_Write_Data'
                                           ;@EEPROM_Write_Data len                       Allocated to registers ;size:1
                                           ;@EEPROM_Write_Data data                      Allocated to registers ;size:3
                                           ;@EEPROM_Write_Data addr                      Allocated to registers ;size:1
                                           ;@end Allocation info for local variables in function 'EEPROM_Write_Data';
                                           ;@Allocation info for local variables in function 'send_cmd_16bit'
                                           ;@send_cmd_16bit data                      Allocated to registers r0x101C r0x101B ;size:2
                                           ;@send_cmd_16bit i                         Allocated to registers r0x101D ;size:1
                                           ;@end Allocation info for local variables in function 'send_cmd_16bit';
                                           ;@Allocation info for local variables in function 'send_cmd_16bit_without_delay'
                                           ;@send_cmd_16bit_without_delay data                      Allocated to registers r0x101C r0x101B ;size:2
                                           ;@send_cmd_16bit_without_delay i                         Allocated to registers r0x101D ;size:1
                                           ;@end Allocation info for local variables in function 'send_cmd_16bit_without_delay';
                                           ;@Allocation info for local variables in function 'CLR_RAM'
                                           ;@end Allocation info for local variables in function 'CLR_RAM';
                                           ;@Allocation info for local variables in function 'IO_Init'
                                           ;@end Allocation info for local variables in function 'IO_Init';
                                           ;@Allocation info for local variables in function 'TIMER2_INT_Init'
                                           ;@end Allocation info for local variables in function 'TIMER2_INT_Init';
                                           ;@Allocation info for local variables in function 'TIMER3_INT_Init'
                                           ;@end Allocation info for local variables in function 'TIMER3_INT_Init';
                                           ;@Allocation info for local variables in function 'Sys_Init'
                                           ;@end Allocation info for local variables in function 'Sys_Init';
                                           ;@Allocation info for local variables in function 'main'
                                           ;@main tmp                       Allocated to registers ;size:2
                                           ;@main i                         Allocated to registers r0x1021 ;size:1
                                           ;@main tmp                       Allocated to registers r0x1024 r0x1025 ;size:2
                                           ;@main tmp                       Allocated to registers r0x1021 ;size:1
                                           ;@main index                     Allocated to registers r0x1021 ;size:1
                                           ;@main tmp                       Allocated to registers r0x1021 r0x1022 ;size:2
                                           ;@end Allocation info for local variables in function 'main';
                                           ;@Allocation info for local variables in function 'int_isr'
                                           ;@int_isr ir_fliter                 Allocated to registers ;size:1
                                           ;@int_isr ir_level_cnt              Allocated to registers ;size:2
                                           ;@int_isr __ir_data                 Allocated to registers ;size:1
                                           ;@int_isr ir_long_press_cnt         Allocated to registers ;size:2
                                           ;@int_isr cnt_100us                 Allocated to registers ;size:1
                                           ;@int_isr auto_period_cnt           Allocated to registers ;size:2
                                           ;@int_isr flag_is_period_arrive     Allocated to registers ;size:1
                                           ;@end Allocation info for local variables in function 'int_isr';
                                           
                                           ;--------------------------------------------------------
                                           ; overlayable items in internal ram 
                                           ;--------------------------------------------------------
                                           ;	udata_ovr
                                           ;--------------------------------------------------------
                                           ; reset vector 
                                           ;--------------------------------------------------------
                                           STARTUP	code 0x0000
000000   a0e0     goto    0xe0             	goto	_main
                                           ;--------------------------------------------------------
                                           ; interrupt and initialization code
                                           ;--------------------------------------------------------
                                           c_interrupt	code	0x8
                                           __sdcc_interrupt
                                           ;***
                                           ;  pBlock Stats: dbName = I
                                           ;***
                                           ;entry:  _int_isr	;Function start
                                           ; 0 exit points
                                           ;2 compiler assigned registers:
                                           ;   r0x103B
                                           ;   r0x103C
                                           ;; Starting pCode block
                                           _int_isr	;Function start
                                           ; 0 exit points
                                           ;	.line	753; "MC32F7361.c"	__endasm;
                                           	;
000008   5645     movra   0x45             	movra	_abuf;
000009   4587     swapar  0x187            	swapar	_PFLAG;
00000a   5646     movra   0x46             	movra	_statusbuf;
                                           	
                                           ;	.line	767; "MC32F7361.c"	if (T2IF & T2IE)
00000b   762b     clrr    0x2b             	CLRR	r0x103B
00000c   fb8b     jbclr   0x18b, 0x5       	JBCLR	_INTFbits,5
00000d   662b     incr    0x2b             	INCR	r0x103B
00000e   762c     clrr    0x2c             	CLRR	r0x103C
00000f   fb8a     jbclr   0x18a, 0x5       	JBCLR	_INTEbits,5
000010   662c     incr    0x2c             	INCR	r0x103C
000011   582c     movar   0x2c             	MOVAR	r0x103C
000012   7a2b     andra   0x2b             	ANDRA	r0x103B
000013   3c00     movai   0                	MOVAI	0x00
000014   5c2b     orar    0x2b             	ORAR	r0x103B
000015   f587     jbclr   0x187, 0x2       	JBCLR	PFLAG,2
000016   a0a6     goto    0xa6             	GOTO	_00869_DS_
                                           ;	.line	769; "MC32F7361.c"	T2IF = 0;
000017   db8b     bclr    0x18b, 0x5       	BCLR	_INTFbits,5
                                           ;	.line	778; "MC32F7361.c"	ir_level_cnt++;
000018   662f     incr    0x2f             	INCR	_int_isr_ir_level_cnt_196608_128
000019   f587     jbclr   0x187, 0x2       	JBCLR	PFLAG,2
00001a   6630     incr    0x30             	INCR	(_int_isr_ir_level_cnt_196608_128 + 1)
                                           ;	.line	780; "MC32F7361.c"	ir_fliter <<= 1;
00001b   5831     movar   0x31             	MOVAR	_int_isr_ir_fliter_196608_128
00001c   562b     movra   0x2b             	MOVRA	r0x103B
00001d   d187     bclr    0x187, 0         	BCLR	PFLAG,0
00001e   502b     rlar    0x2b             	RLAR	r0x103B
00001f   5631     movra   0x31             	MOVRA	_int_isr_ir_fliter_196608_128
                                           ;	.line	781; "MC32F7361.c"	if (IR_RECV_PIN)
000020   e3b8     jbset   0x1b8, 0x1       	JBSET	_IOP2bits,1
000021   a023     goto    0x23             	GOTO	_00827_DS_
                                           ;	.line	783; "MC32F7361.c"	ir_fliter |= 1;
000022   c031     bset    0x31, 0          	BSET	_int_isr_ir_fliter_196608_128,0
                                           _00827_DS_
                                           ;	.line	785; "MC32F7361.c"	ir_fliter &= 0x07;
000023   3c07     movai   0x7              	MOVAI	0x07
000024   7a31     andra   0x31             	ANDRA	_int_isr_ir_fliter_196608_128
                                           ;	.line	787; "MC32F7361.c"	if (ir_fliter == 0x07)
000025   5831     movar   0x31             	MOVAR	_int_isr_ir_fliter_196608_128
000026   3907     xorai   0x7              	XORAI	0x07
000027   e587     jbset   0x187, 0x2       	JBSET	PFLAG,2
000028   a02b     goto    0x2b             	GOTO	_00831_DS_
                                           ;	.line	788; "MC32F7361.c"	filter_level = 1;
000029   c647     bset    0x47, 0x3        	BSET	_flag1,3
00002a   a030     goto    0x30             	GOTO	_00832_DS_
                                           _00831_DS_
                                           ;	.line	789; "MC32F7361.c"	else if (ir_fliter == 0x00)
00002b   3c00     movai   0                	MOVAI	0x00
00002c   5c31     orar    0x31             	ORAR	_int_isr_ir_fliter_196608_128
00002d   e587     jbset   0x187, 0x2       	JBSET	PFLAG,2
00002e   a030     goto    0x30             	GOTO	_00832_DS_
                                           ;	.line	790; "MC32F7361.c"	filter_level = 0;
00002f   d647     bclr    0x47, 0x3        	BCLR	_flag1,3
                                           _00832_DS_
                                           ;	.line	792; "MC32F7361.c"	if (filter_level)
000030   e647     jbset   0x47, 0x3        	JBSET	_flag1,3
000031   a047     goto    0x47             	GOTO	_00861_DS_
                                           ;	.line	794; "MC32F7361.c"	last_level_in_ir_pin = 1; // 
000032   c447     bset    0x47, 0x2        	BSET	_flag1,2
                                           ;;swapping arguments (AOP_TYPEs 1/3)
                                           ;;unsigned compare: left >= lit(0x4B1=1201), size=2
                                           ;	.line	797; "MC32F7361.c"	if (ir_level_cnt > 1200) // (120000us,120ms)
000033   3c04     movai   0x4              	MOVAI	0x04
000034   4830     rsubar  0x30             	RSUBAR	(_int_isr_ir_level_cnt_196608_128 + 1)
000035   e587     jbset   0x187, 0x2       	JBSET	PFLAG,2
000036   a039     goto    0x39             	GOTO	_00974_DS_
000037   3cb1     movai   0xb1             	MOVAI	0xb1
000038   482f     rsubar  0x2f             	RSUBAR	_int_isr_ir_level_cnt_196608_128
                                           _00974_DS_
000039   e187     jbset   0x187, 0         	JBSET	PFLAG,0
00003a   a096     goto    0x96             	GOTO	_00862_DS_
                                           ;;genSkipc:3291: created from rifx:013B5EFC
                                           ;	.line	800; "MC32F7361.c"	if (__ir_data != 0) // (__ir_data)
00003b   3c00     movai   0                	MOVAI	0x00
00003c   5c32     orar    0x32             	ORAR	_int_isr___ir_data_196608_128
00003d   f587     jbclr   0x187, 0x2       	JBCLR	PFLAG,2
00003e   a045     goto    0x45             	GOTO	_00836_DS_
                                           ;	.line	809; "MC32F7361.c"	if (0 == flag_is_recved_data)
00003f   f047     jbclr   0x47, 0          	JBCLR	_flag1,0
000040   a045     goto    0x45             	GOTO	_00836_DS_
                                           ;	.line	811; "MC32F7361.c"	ir_data = ~__ir_data;
000041   7032     comar   0x32             	COMAR	_int_isr___ir_data_196608_128
000042   5648     movra   0x48             	MOVRA	_ir_data
                                           ;	.line	812; "MC32F7361.c"	__ir_data = 0;
000043   7632     clrr    0x32             	CLRR	_int_isr___ir_data_196608_128
                                           ;	.line	813; "MC32F7361.c"	flag_is_recved_data = 1;
000044   c047     bset    0x47, 0          	BSET	_flag1,0
                                           _00836_DS_
                                           ;	.line	817; "MC32F7361.c"	flag_is_recv_ir_repeat_code = 0; // 
000045   d847     bclr    0x47, 0x4        	BCLR	_flag1,4
000046   a096     goto    0x96             	GOTO	_00862_DS_
                                           _00861_DS_
                                           ;	.line	822; "MC32F7361.c"	if (last_level_in_ir_pin)
000047   e447     jbset   0x47, 0x2        	JBSET	_flag1,2
000048   a095     goto    0x95             	GOTO	_00859_DS_
                                           ;;swapping arguments (AOP_TYPEs 1/3)
                                           ;;unsigned compare: left >= lit(0x9=9), size=2
                                           ;	.line	825; "MC32F7361.c"	if (ir_level_cnt <= 8) // 800us
000049   3c00     movai   0                	MOVAI	0x00
00004a   4830     rsubar  0x30             	RSUBAR	(_int_isr_ir_level_cnt_196608_128 + 1)
00004b   e587     jbset   0x187, 0x2       	JBSET	PFLAG,2
00004c   a04f     goto    0x4f             	GOTO	_00975_DS_
00004d   3c09     movai   0x9              	MOVAI	0x09
00004e   482f     rsubar  0x2f             	RSUBAR	_int_isr_ir_level_cnt_196608_128
                                           _00975_DS_
00004f   e187     jbset   0x187, 0         	JBSET	PFLAG,0
000050   a093     goto    0x93             	GOTO	_00857_DS_
                                           ;;genSkipc:3291: created from rifx:013B5EFC
                                           ;;swapping arguments (AOP_TYPEs 1/3)
                                           ;;unsigned compare: left >= lit(0x13=19), size=2
                                           ;	.line	830; "MC32F7361.c"	else if (ir_level_cnt <= 18) // 1800us,0
000051   3c00     movai   0                	MOVAI	0x00
000052   4830     rsubar  0x30             	RSUBAR	(_int_isr_ir_level_cnt_196608_128 + 1)
000053   e587     jbset   0x187, 0x2       	JBSET	PFLAG,2
000054   a057     goto    0x57             	GOTO	_00976_DS_
000055   3c13     movai   0x13             	MOVAI	0x13
000056   482f     rsubar  0x2f             	RSUBAR	_int_isr_ir_level_cnt_196608_128
                                           _00976_DS_
000057   f187     jbclr   0x187, 0         	JBCLR	PFLAG,0
000058   a05f     goto    0x5f             	GOTO	_00853_DS_
                                           ;;genSkipc:3291: created from rifx:013B5EFC
                                           ;	.line	832; "MC32F7361.c"	__ir_data <<= 1;
000059   5832     movar   0x32             	MOVAR	_int_isr___ir_data_196608_128
00005a   562b     movra   0x2b             	MOVRA	r0x103B
00005b   d187     bclr    0x187, 0         	BCLR	PFLAG,0
00005c   502b     rlar    0x2b             	RLAR	r0x103B
00005d   5632     movra   0x32             	MOVRA	_int_isr___ir_data_196608_128
00005e   a093     goto    0x93             	GOTO	_00857_DS_
                                           ;;swapping arguments (AOP_TYPEs 1/3)
                                           ;;unsigned compare: left >= lit(0x1B=27), size=2
                                           _00853_DS_
                                           ;	.line	837; "MC32F7361.c"	else if (ir_level_cnt <= 26) // 2600us,1
00005f   3c00     movai   0                	MOVAI	0x00
000060   4830     rsubar  0x30             	RSUBAR	(_int_isr_ir_level_cnt_196608_128 + 1)
000061   e587     jbset   0x187, 0x2       	JBSET	PFLAG,2
000062   a065     goto    0x65             	GOTO	_00977_DS_
000063   3c1b     movai   0x1b             	MOVAI	0x1b
000064   482f     rsubar  0x2f             	RSUBAR	_int_isr_ir_level_cnt_196608_128
                                           _00977_DS_
000065   f187     jbclr   0x187, 0         	JBCLR	PFLAG,0
000066   a06e     goto    0x6e             	GOTO	_00850_DS_
                                           ;;genSkipc:3291: created from rifx:013B5EFC
                                           ;	.line	839; "MC32F7361.c"	__ir_data <<= 1;
000067   5832     movar   0x32             	MOVAR	_int_isr___ir_data_196608_128
000068   562b     movra   0x2b             	MOVRA	r0x103B
000069   d187     bclr    0x187, 0         	BCLR	PFLAG,0
00006a   502b     rlar    0x2b             	RLAR	r0x103B
00006b   5632     movra   0x32             	MOVRA	_int_isr___ir_data_196608_128
                                           ;	.line	840; "MC32F7361.c"	__ir_data |= 0x01;
00006c   c032     bset    0x32, 0          	BSET	_int_isr___ir_data_196608_128,0
00006d   a093     goto    0x93             	GOTO	_00857_DS_
                                           ;;swapping arguments (AOP_TYPEs 1/3)
                                           ;;unsigned compare: left >= lit(0x97=151), size=2
                                           _00850_DS_
                                           ;	.line	844; "MC32F7361.c"	else if (ir_level_cnt <= 150) // 15000us,
00006e   3c00     movai   0                	MOVAI	0x00
00006f   4830     rsubar  0x30             	RSUBAR	(_int_isr_ir_level_cnt_196608_128 + 1)
000070   e587     jbset   0x187, 0x2       	JBSET	PFLAG,2
000071   a074     goto    0x74             	GOTO	_00978_DS_
000072   3c97     movai   0x97             	MOVAI	0x97
000073   482f     rsubar  0x2f             	RSUBAR	_int_isr_ir_level_cnt_196608_128
                                           _00978_DS_
000074   e187     jbset   0x187, 0         	JBSET	PFLAG,0
000075   a093     goto    0x93             	GOTO	_00857_DS_
                                           ;;genSkipc:3291: created from rifx:013B5EFC
                                           ;;swapping arguments (AOP_TYPEs 1/3)
                                           ;;unsigned compare: left >= lit(0x1A5=421), size=2
                                           ;	.line	849; "MC32F7361.c"	else if (ir_level_cnt <= 420) // 42ms,
000076   3c01     movai   0x1              	MOVAI	0x01
000077   4830     rsubar  0x30             	RSUBAR	(_int_isr_ir_level_cnt_196608_128 + 1)
000078   e587     jbset   0x187, 0x2       	JBSET	PFLAG,2
000079   a07c     goto    0x7c             	GOTO	_00979_DS_
00007a   3ca5     movai   0xa5             	MOVAI	0xa5
00007b   482f     rsubar  0x2f             	RSUBAR	_int_isr_ir_level_cnt_196608_128
                                           _00979_DS_
00007c   f187     jbclr   0x187, 0         	JBCLR	PFLAG,0
00007d   a088     goto    0x88             	GOTO	_00844_DS_
                                           ;;genSkipc:3291: created from rifx:013B5EFC
                                           ;	.line	860; "MC32F7361.c"	if (0 == flag_is_recved_data)
00007e   f047     jbclr   0x47, 0          	JBCLR	_flag1,0
00007f   a093     goto    0x93             	GOTO	_00857_DS_
                                           ;	.line	862; "MC32F7361.c"	ir_data = ~__ir_data;
000080   7032     comar   0x32             	COMAR	_int_isr___ir_data_196608_128
000081   5648     movra   0x48             	MOVRA	_ir_data
                                           ;	.line	863; "MC32F7361.c"	__ir_data = 0;
000082   7632     clrr    0x32             	CLRR	_int_isr___ir_data_196608_128
                                           ;	.line	864; "MC32F7361.c"	flag_is_recved_data = 1;
000083   c047     bset    0x47, 0          	BSET	_flag1,0
                                           ;	.line	865; "MC32F7361.c"	flag_is_recv_ir_repeat_code = 1; //
000084   c847     bset    0x47, 0x4        	BSET	_flag1,4
                                           ;	.line	866; "MC32F7361.c"	ir_long_press_cnt = 0;
000085   7633     clrr    0x33             	CLRR	_int_isr_ir_long_press_cnt_196608_128
000086   7634     clrr    0x34             	CLRR	(_int_isr_ir_long_press_cnt_196608_128 + 1)
000087   a093     goto    0x93             	GOTO	_00857_DS_
                                           ;;swapping arguments (AOP_TYPEs 1/3)
                                           ;;unsigned compare: left >= lit(0x4B1=1201), size=2
                                           _00844_DS_
                                           ;	.line	870; "MC32F7361.c"	else if (ir_level_cnt <= 1200) // 120000,120ms,
000088   3c04     movai   0x4              	MOVAI	0x04
000089   4830     rsubar  0x30             	RSUBAR	(_int_isr_ir_level_cnt_196608_128 + 1)
00008a   e587     jbset   0x187, 0x2       	JBSET	PFLAG,2
00008b   a08e     goto    0x8e             	GOTO	_00980_DS_
00008c   3cb1     movai   0xb1             	MOVAI	0xb1
00008d   482f     rsubar  0x2f             	RSUBAR	_int_isr_ir_level_cnt_196608_128
                                           _00980_DS_
00008e   f187     jbclr   0x187, 0         	JBCLR	PFLAG,0
00008f   a093     goto    0x93             	GOTO	_00857_DS_
                                           ;;genSkipc:3291: created from rifx:013B5EFC
                                           ;	.line	872; "MC32F7361.c"	ir_long_press_cnt++;
000090   6633     incr    0x33             	INCR	_int_isr_ir_long_press_cnt_196608_128
000091   f587     jbclr   0x187, 0x2       	JBCLR	PFLAG,2
000092   6634     incr    0x34             	INCR	(_int_isr_ir_long_press_cnt_196608_128 + 1)
                                           _00857_DS_
                                           ;	.line	878; "MC32F7361.c"	ir_level_cnt = 0;
000093   762f     clrr    0x2f             	CLRR	_int_isr_ir_level_cnt_196608_128
000094   7630     clrr    0x30             	CLRR	(_int_isr_ir_level_cnt_196608_128 + 1)
                                           _00859_DS_
                                           ;	.line	881; "MC32F7361.c"	last_level_in_ir_pin = 0; // 
000095   d447     bclr    0x47, 0x2        	BCLR	_flag1,2
                                           _00862_DS_
                                           ;	.line	887; "MC32F7361.c"	cnt_100us++;
000096   6635     incr    0x35             	INCR	_int_isr_cnt_100us_196608_144
                                           ;;unsigned compare: left < lit(0xA=10), size=1
                                           ;	.line	888; "MC32F7361.c"	if (cnt_100us >= 10) //  1ms
000097   3c0a     movai   0xa              	MOVAI	0x0a
000098   4835     rsubar  0x35             	RSUBAR	_int_isr_cnt_100us_196608_144
000099   e187     jbset   0x187, 0         	JBSET	PFLAG,0
00009a   a0a6     goto    0xa6             	GOTO	_00869_DS_
                                           ;;genSkipc:3291: created from rifx:013B5EFC
                                           ;	.line	890; "MC32F7361.c"	cnt_100us = 0;
00009b   7635     clrr    0x35             	CLRR	_int_isr_cnt_100us_196608_144
                                           ;	.line	894; "MC32F7361.c"	if (cur_led_status == CUR_LED_STATUS_AUTO) //  AUTO 
00009c   5843     movar   0x43             	MOVAR	_cur_led_status
00009d   3901     xorai   0x1              	XORAI	0x01
00009e   e587     jbset   0x187, 0x2       	JBSET	PFLAG,2
00009f   a0a4     goto    0xa4             	GOTO	_00864_DS_
                                           ;	.line	897; "MC32F7361.c"	auto_period_cnt++;
0000a0   6636     incr    0x36             	INCR	_int_isr_auto_period_cnt_327680_146
0000a1   f587     jbclr   0x187, 0x2       	JBCLR	PFLAG,2
0000a2   6637     incr    0x37             	INCR	(_int_isr_auto_period_cnt_327680_146 + 1)
                                           ;	.line	910; "MC32F7361.c"	if (flag_is_period_arrive) // 
0000a3   a0a6     goto    0xa6             	GOTO	_00869_DS_
                                           _00864_DS_
                                           ;	.line	916; "MC32F7361.c"	auto_period_cnt = 0;
0000a4   7636     clrr    0x36             	CLRR	_int_isr_auto_period_cnt_327680_146
0000a5   7637     clrr    0x37             	CLRR	(_int_isr_auto_period_cnt_327680_146 + 1)
                                           _00869_DS_
                                           ;	.line	924; "MC32F7361.c"	if (T3IF & T3IE)
0000a6   762b     clrr    0x2b             	CLRR	r0x103B
0000a7   ff8b     jbclr   0x18b, 0x7       	JBCLR	_INTFbits,7
0000a8   662b     incr    0x2b             	INCR	r0x103B
0000a9   762c     clrr    0x2c             	CLRR	r0x103C
0000aa   ff8a     jbclr   0x18a, 0x7       	JBCLR	_INTEbits,7
0000ab   662c     incr    0x2c             	INCR	r0x103C
0000ac   582c     movar   0x2c             	MOVAR	r0x103C
0000ad   7a2b     andra   0x2b             	ANDRA	r0x103B
0000ae   3c00     movai   0                	MOVAI	0x00
0000af   5c2b     orar    0x2b             	ORAR	r0x103B
0000b0   f587     jbclr   0x187, 0x2       	JBCLR	PFLAG,2
0000b1   a0db     goto    0xdb             	GOTO	_00879_DS_
                                           ;	.line	926; "MC32F7361.c"	T3IF = 0;
0000b2   df8b     bclr    0x18b, 0x7       	BCLR	_INTFbits,7
                                           ;	.line	929; "MC32F7361.c"	if (CUR_LED_STATUS_AUTO == cur_led_status) // AUTO
0000b3   5843     movar   0x43             	MOVAR	_cur_led_status
0000b4   3901     xorai   0x1              	XORAI	0x01
0000b5   e587     jbset   0x187, 0x2       	JBSET	PFLAG,2
0000b6   a0db     goto    0xdb             	GOTO	_00879_DS_
                                           ;	.line	931; "MC32F7361.c"	if (CUR_SUBMODE_STATUS_STANDBY == auto_mode_info.cur_submode_status) // 
0000b7   583c     movar   0x3c             	MOVAR	(_auto_mode_info + 4)
0000b8   562b     movra   0x2b             	MOVRA	r0x103B
0000b9   582b     movar   0x2b             	MOVAR	r0x103B
0000ba   3903     xorai   0x3              	XORAI	0x03
0000bb   e587     jbset   0x187, 0x2       	JBSET	PFLAG,2
0000bc   a0db     goto    0xdb             	GOTO	_00879_DS_
                                           ;	.line	933; "MC32F7361.c"	if (auto_mode_info.delay_time > 0)
0000bd   5838     movar   0x38             	MOVAR	(_auto_mode_info + 0)
0000be   562b     movra   0x2b             	MOVRA	r0x103B
0000bf   5839     movar   0x39             	MOVAR	(_auto_mode_info + 1)
0000c0   562c     movra   0x2c             	MOVRA	r0x103C
0000c1   582b     movar   0x2b             	MOVAR	r0x103B
0000c2   5c2c     orar    0x2c             	ORAR	r0x103C
0000c3   f587     jbclr   0x187, 0x2       	JBCLR	PFLAG,2
0000c4   a0d1     goto    0xd1             	GOTO	_00871_DS_
                                           ;	.line	935; "MC32F7361.c"	auto_mode_info.delay_time--;
0000c5   5838     movar   0x38             	MOVAR	(_auto_mode_info + 0)
0000c6   562b     movra   0x2b             	MOVRA	r0x103B
0000c7   5839     movar   0x39             	MOVAR	(_auto_mode_info + 1)
0000c8   562c     movra   0x2c             	MOVRA	r0x103C
0000c9   3cff     movai   0xff             	MOVAI	0xff
0000ca   7e2b     addra   0x2b             	ADDRA	r0x103B
0000cb   e187     jbset   0x187, 0         	JBSET	PFLAG,0
0000cc   6e2c     decr    0x2c             	DECR	r0x103C
                                           ;;gen.c:6570: size=1, offset=0, AOP_TYPE(res)=8
0000cd   582b     movar   0x2b             	MOVAR	r0x103B
0000ce   5638     movra   0x38             	MOVRA	(_auto_mode_info + 0)
                                           ;;gen.c:6570: size=0, offset=1, AOP_TYPE(res)=8
0000cf   582c     movar   0x2c             	MOVAR	r0x103C
0000d0   5639     movra   0x39             	MOVRA	(_auto_mode_info + 1)
                                           _00871_DS_
                                           ;	.line	938; "MC32F7361.c"	if (auto_mode_info.delay_time == 0)
0000d1   5838     movar   0x38             	MOVAR	(_auto_mode_info + 0)
0000d2   562b     movra   0x2b             	MOVRA	r0x103B
0000d3   5839     movar   0x39             	MOVAR	(_auto_mode_info + 1)
0000d4   562c     movra   0x2c             	MOVRA	r0x103C
0000d5   582b     movar   0x2b             	MOVAR	r0x103B
0000d6   5c2c     orar    0x2c             	ORAR	r0x103C
0000d7   e587     jbset   0x187, 0x2       	JBSET	PFLAG,2
0000d8   a0db     goto    0xdb             	GOTO	_00879_DS_
                                           ;;gen.c:6570: size=0, offset=0, AOP_TYPE(res)=8
                                           ;	.line	941; "MC32F7361.c"	auto_mode_info.cur_submode_status = CUR_SUBMODE_STATUS_READY_TO_SEND;
0000d9   3c01     movai   0x1              	MOVAI	0x01
0000da   563c     movra   0x3c             	MOVRA	(_auto_mode_info + 4)
                                           _00879_DS_
                                           ;	.line	951; "MC32F7361.c"	__endasm;
                                           	;
0000db   4446     swapar  0x46             	swapar	_statusbuf;
0000dc   5787     movra   0x187            	movra	_PFLAG;
0000dd   4645     swapr   0x45             	swapr	_abuf;
0000de   4445     swapar  0x45             	swapar	_abuf;
                                           	
                                           END_OF_INTERRUPT
                                           ;	.line	952; "MC32F7361.c"	}
0000df   000d     retie                    	RETIE	
                                           
                                           ;--------------------------------------------------------
                                           ; code
                                           ;--------------------------------------------------------
                                           code_MC32F7361	code
                                           ;***
                                           ;  pBlock Stats: dbName = M
                                           ;***
                                           ;entry:  _main	;Function start
                                           ; 2 exit points
                                           ;has an exit
                                           ;functions called:
                                           ;   _Sys_Init
                                           ;   _delay_ms
                                           ;   _delay_ms
                                           ;   _delay_100us
                                           ;   _delay_100us
                                           ;   _delay_ms
                                           ;   _delay_100us
                                           ;   _delay_100us
                                           ;   _delay_ms
                                           ;   _delay_100us
                                           ;   _delay_100us
                                           ;   _delay_ms
                                           ;   _delay_100us
                                           ;   _delay_100us
                                           ;   _delay_ms
                                           ;   _send_cmd_16bit
                                           ;   _send_cmd_16bit
                                           ;   __mulchar
                                           ;   __gptrget1
                                           ;   _send_cmd_16bit
                                           ;   __gptrget1
                                           ;   __gptrget1
                                           ;   _send_cmd_16bit
                                           ;   __gptrget1
                                           ;   __gptrget1
                                           ;   _send_cmd_16bit
                                           ;   __gptrget1
                                           ;   __gptrget1
                                           ;   _send_cmd_16bit
                                           ;   _send_cmd_16bit
                                           ;   _send_cmd_16bit
                                           ;   _delay_ms
                                           ;   __gptrget1
                                           ;   __gptrget1
                                           ;   _send_cmd_16bit_without_delay
                                           ;   _Sys_Init
                                           ;   _delay_ms
                                           ;   _delay_ms
                                           ;   _delay_100us
                                           ;   _delay_100us
                                           ;   _delay_ms
                                           ;   _delay_100us
                                           ;   _delay_100us
                                           ;   _delay_ms
                                           ;   _delay_100us
                                           ;   _delay_100us
                                           ;   _delay_ms
                                           ;   _delay_100us
                                           ;   _delay_100us
                                           ;   _delay_ms
                                           ;   _send_cmd_16bit
                                           ;   _send_cmd_16bit
                                           ;   __mulchar
                                           ;   __gptrget1
                                           ;   _send_cmd_16bit
                                           ;   __gptrget1
                                           ;   __gptrget1
                                           ;   _send_cmd_16bit
                                           ;   __gptrget1
                                           ;   __gptrget1
                                           ;   _send_cmd_16bit
                                           ;   __gptrget1
                                           ;   __gptrget1
                                           ;   _send_cmd_16bit
                                           ;   _send_cmd_16bit
                                           ;   _send_cmd_16bit
                                           ;   _delay_ms
                                           ;   __gptrget1
                                           ;   __gptrget1
                                           ;   _send_cmd_16bit_without_delay
                                           ;10 compiler assigned registers:
                                           ;   STK00
                                           ;   r0x1021
                                           ;   r0x1022
                                           ;   r0x1023
                                           ;   r0x1024
                                           ;   STK01
                                           ;   r0x1025
                                           ;   r0x1026
                                           ;   r0x1027
                                           ;   r0x1028
                                           ;; Starting pCode block
                                           _main	;Function start
                                           ; 2 exit points
                                           ;	.line	261; "MC32F7361.c"	Sys_Init();
0000e0   844a     call    0x44a            	CALL	_Sys_Init
                                           ;	.line	262; "MC32F7361.c"	delay_ms(1); // 
0000e1   3c01     movai   0x1              	MOVAI	0x01
0000e2   5606     movra   0x6              	MOVRA	STK00
0000e3   3c00     movai   0                	MOVAI	0x00
0000e4   8554     call    0x554            	CALL	_delay_ms
                                           ;	.line	267; "MC32F7361.c"	P21PU = 1;
0000e5   c3ba     bset    0x1ba, 0x1       	BSET	_PUP2bits,1
                                           ;	.line	268; "MC32F7361.c"	P21OE = 0;
0000e6   d3b9     bclr    0x1b9, 0x1       	BCLR	_OEP2bits,1
                                           ;	.line	283; "MC32F7361.c"	flag_is_dev_open = 1;
0000e7   c247     bset    0x47, 0x1        	BSET	_flag1,1
                                           _00426_DS_
                                           ;	.line	290; "MC32F7361.c"	if (flag_is_recved_data)
0000e8   e047     jbset   0x47, 0          	JBSET	_flag1,0
0000e9   a1fa     goto    0x1fa            	GOTO	_00280_DS_
                                           ;	.line	292; "MC32F7361.c"	if (ir_data == IR_KEY_ON) // ON 
0000ea   5848     movar   0x48             	MOVAR	_ir_data
0000eb   3908     xorai   0x8              	XORAI	0x08
0000ec   e587     jbset   0x187, 0x2       	JBSET	PFLAG,2
0000ed   a114     goto    0x114            	GOTO	_00277_DS_
                                           ;	.line	296; "MC32F7361.c"	LED_CTL_PIN = 1;
0000ee   c5b8     bset    0x1b8, 0x2       	BSET	_IOP2bits,2
                                           ;	.line	297; "MC32F7361.c"	delay_ms(2);
0000ef   3c02     movai   0x2              	MOVAI	0x02
0000f0   5606     movra   0x6              	MOVRA	STK00
0000f1   3c00     movai   0                	MOVAI	0x00
0000f2   8554     call    0x554            	CALL	_delay_ms
                                           ;	.line	298; "MC32F7361.c"	LED_CTL_PIN = 0;
0000f3   d5b8     bclr    0x1b8, 0x2       	BCLR	_IOP2bits,2
                                           ;	.line	299; "MC32F7361.c"	delay_100us();
0000f4   8548     call    0x548            	CALL	_delay_100us
                                           ;	.line	300; "MC32F7361.c"	delay_100us();
0000f5   8548     call    0x548            	CALL	_delay_100us
                                           ;	.line	301; "MC32F7361.c"	LED_CTL_PIN = 1;
0000f6   c5b8     bset    0x1b8, 0x2       	BSET	_IOP2bits,2
                                           ;	.line	302; "MC32F7361.c"	delay_ms(3);
0000f7   3c03     movai   0x3              	MOVAI	0x03
0000f8   5606     movra   0x6              	MOVRA	STK00
0000f9   3c00     movai   0                	MOVAI	0x00
0000fa   8554     call    0x554            	CALL	_delay_ms
                                           ;	.line	303; "MC32F7361.c"	LED_CTL_PIN = 0;
0000fb   d5b8     bclr    0x1b8, 0x2       	BCLR	_IOP2bits,2
                                           ;	.line	304; "MC32F7361.c"	delay_100us();
0000fc   8548     call    0x548            	CALL	_delay_100us
                                           ;	.line	305; "MC32F7361.c"	delay_100us();
0000fd   8548     call    0x548            	CALL	_delay_100us
                                           ;	.line	306; "MC32F7361.c"	LED_CTL_PIN = 1;
0000fe   c5b8     bset    0x1b8, 0x2       	BSET	_IOP2bits,2
                                           ;	.line	307; "MC32F7361.c"	delay_ms(4);
0000ff   3c04     movai   0x4              	MOVAI	0x04
000100   5606     movra   0x6              	MOVRA	STK00
000101   3c00     movai   0                	MOVAI	0x00
000102   8554     call    0x554            	CALL	_delay_ms
                                           ;	.line	308; "MC32F7361.c"	LED_CTL_PIN = 0;
000103   d5b8     bclr    0x1b8, 0x2       	BCLR	_IOP2bits,2
                                           ;	.line	309; "MC32F7361.c"	delay_100us();
000104   8548     call    0x548            	CALL	_delay_100us
                                           ;	.line	310; "MC32F7361.c"	delay_100us();
000105   8548     call    0x548            	CALL	_delay_100us
                                           ;	.line	311; "MC32F7361.c"	LED_CTL_PIN = 1;
000106   c5b8     bset    0x1b8, 0x2       	BSET	_IOP2bits,2
                                           ;	.line	312; "MC32F7361.c"	delay_ms(5);
000107   3c05     movai   0x5              	MOVAI	0x05
000108   5606     movra   0x6              	MOVRA	STK00
000109   3c00     movai   0                	MOVAI	0x00
00010a   8554     call    0x554            	CALL	_delay_ms
                                           ;	.line	313; "MC32F7361.c"	LED_CTL_PIN = 0;
00010b   d5b8     bclr    0x1b8, 0x2       	BCLR	_IOP2bits,2
                                           ;	.line	314; "MC32F7361.c"	delay_100us();
00010c   8548     call    0x548            	CALL	_delay_100us
                                           ;	.line	315; "MC32F7361.c"	delay_100us();
00010d   8548     call    0x548            	CALL	_delay_100us
                                           ;	.line	316; "MC32F7361.c"	LED_CTL_PIN = 1;
00010e   c5b8     bset    0x1b8, 0x2       	BSET	_IOP2bits,2
                                           ;	.line	317; "MC32F7361.c"	delay_ms(51);
00010f   3c33     movai   0x33             	MOVAI	0x33
000110   5606     movra   0x6              	MOVRA	STK00
000111   3c00     movai   0                	MOVAI	0x00
000112   8554     call    0x554            	CALL	_delay_ms
000113   a1f8     goto    0x1f8            	GOTO	_00278_DS_
                                           _00277_DS_
                                           ;	.line	326; "MC32F7361.c"	else if (ir_data == IR_KEY_OFF) // OFF 
000114   5848     movar   0x48             	MOVAR	_ir_data
000115   39c0     xorai   0xc0             	XORAI	0xc0
000116   e587     jbset   0x187, 0x2       	JBSET	PFLAG,2
000117   a119     goto    0x119            	GOTO	_00787_DS_
000118   a1f8     goto    0x1f8            	GOTO	_00278_DS_
                                           _00787_DS_
                                           ;	.line	339; "MC32F7361.c"	else if (ir_data == IR_KEY_SPEED) // SPEED 
000119   5848     movar   0x48             	MOVAR	_ir_data
00011a   3960     xorai   0x60             	XORAI	0x60
00011b   e587     jbset   0x187, 0x2       	JBSET	PFLAG,2
00011c   a120     goto    0x120            	GOTO	_00271_DS_
                                           ;	.line	342; "MC32F7361.c"	flag_is_press_speed = 1;
00011d   3c01     movai   0x1              	MOVAI	0x01
00011e   5642     movra   0x42             	MOVRA	_flag_is_press_speed
00011f   a1f8     goto    0x1f8            	GOTO	_00278_DS_
                                           _00271_DS_
                                           ;	.line	344; "MC32F7361.c"	else if (ir_data == IR_KEY_R3C4) // R3C4
000120   5848     movar   0x48             	MOVAR	_ir_data
000121   39a8     xorai   0xa8             	XORAI	0xa8
000122   e587     jbset   0x187, 0x2       	JBSET	PFLAG,2
000123   a149     goto    0x149            	GOTO	_00268_DS_
                                           ;	.line	347; "MC32F7361.c"	if (cur_r3c4_status == R3C4_STATUS_1)
000124   3c00     movai   0                	MOVAI	0x00
000125   5c44     orar    0x44             	ORAR	_cur_r3c4_status
000126   e587     jbset   0x187, 0x2       	JBSET	PFLAG,2
000127   a12e     goto    0x12e            	GOTO	_00253_DS_
                                           ;	.line	349; "MC32F7361.c"	tmp = 0x00EE;
000128   3cee     movai   0xee             	MOVAI	0xee
000129   562d     movra   0x2d             	MOVRA	_main_tmp_262144_57
00012a   762e     clrr    0x2e             	CLRR	(_main_tmp_262144_57 + 1)
                                           ;	.line	350; "MC32F7361.c"	cur_r3c4_status = R3C4_STATUS_2;
00012b   3c01     movai   0x1              	MOVAI	0x01
00012c   5644     movra   0x44             	MOVRA	_cur_r3c4_status
00012d   a140     goto    0x140            	GOTO	_00254_DS_
                                           _00253_DS_
                                           ;	.line	352; "MC32F7361.c"	else if (cur_r3c4_status == R3C4_STATUS_2)
00012e   5844     movar   0x44             	MOVAR	_cur_r3c4_status
00012f   3901     xorai   0x1              	XORAI	0x01
000130   e587     jbset   0x187, 0x2       	JBSET	PFLAG,2
000131   a138     goto    0x138            	GOTO	_00250_DS_
                                           ;	.line	354; "MC32F7361.c"	tmp = 0x00AA;
000132   3caa     movai   0xaa             	MOVAI	0xaa
000133   562d     movra   0x2d             	MOVRA	_main_tmp_262144_57
000134   762e     clrr    0x2e             	CLRR	(_main_tmp_262144_57 + 1)
                                           ;	.line	355; "MC32F7361.c"	cur_r3c4_status = R3C4_STATUS_3;
000135   3c02     movai   0x2              	MOVAI	0x02
000136   5644     movra   0x44             	MOVRA	_cur_r3c4_status
000137   a140     goto    0x140            	GOTO	_00254_DS_
                                           _00250_DS_
                                           ;	.line	357; "MC32F7361.c"	else if (cur_r3c4_status == R3C4_STATUS_3)
000138   5844     movar   0x44             	MOVAR	_cur_r3c4_status
000139   3902     xorai   0x2              	XORAI	0x02
00013a   e587     jbset   0x187, 0x2       	JBSET	PFLAG,2
00013b   a140     goto    0x140            	GOTO	_00254_DS_
                                           ;	.line	359; "MC32F7361.c"	tmp = 0x00CC;
00013c   3ccc     movai   0xcc             	MOVAI	0xcc
00013d   562d     movra   0x2d             	MOVRA	_main_tmp_262144_57
00013e   762e     clrr    0x2e             	CLRR	(_main_tmp_262144_57 + 1)
                                           ;	.line	360; "MC32F7361.c"	cur_r3c4_status = R3C4_STATUS_1;
00013f   7644     clrr    0x44             	CLRR	_cur_r3c4_status
                                           _00254_DS_
                                           ;	.line	366; "MC32F7361.c"	send_cmd_16bit(0x0C00);
000140   3c00     movai   0                	MOVAI	0x00
000141   5606     movra   0x6              	MOVRA	STK00
000142   3c0c     movai   0xc              	MOVAI	0x0c
000143   84ac     call    0x4ac            	CALL	_send_cmd_16bit
                                           ;	.line	367; "MC32F7361.c"	send_cmd_16bit(tmp);
000144   582d     movar   0x2d             	MOVAR	_main_tmp_262144_57
000145   5606     movra   0x6              	MOVRA	STK00
000146   582e     movar   0x2e             	MOVAR	(_main_tmp_262144_57 + 1)
000147   84ac     call    0x4ac            	CALL	_send_cmd_16bit
000148   a1f8     goto    0x1f8            	GOTO	_00278_DS_
                                           _00268_DS_
                                           ;	.line	369; "MC32F7361.c"	else if (ir_data == IR_KEY_R4C4_FADE)
000149   5848     movar   0x48             	MOVAR	_ir_data
00014a   39b2     xorai   0xb2             	XORAI	0xb2
00014b   e587     jbset   0x187, 0x2       	JBSET	PFLAG,2
00014c   a14e     goto    0x14e            	GOTO	_00788_DS_
00014d   a1f8     goto    0x1f8            	GOTO	_00278_DS_
                                           _00788_DS_
                                           ;	.line	379; "MC32F7361.c"	if (IR_KEY_AUTO == ir_data) // AUTO 
00014e   5848     movar   0x48             	MOVAR	_ir_data
00014f   3980     xorai   0x80             	XORAI	0x80
000150   e587     jbset   0x187, 0x2       	JBSET	PFLAG,2
000151   a15a     goto    0x15a            	GOTO	_00256_DS_
                                           ;	.line	381; "MC32F7361.c"	cur_led_status = CUR_LED_STATUS_AUTO; //  AUTO 
000152   3c01     movai   0x1              	MOVAI	0x01
000153   5643     movra   0x43             	MOVRA	_cur_led_status
                                           ;;gen.c:6570: size=0, offset=0, AOP_TYPE(res)=8
                                           ;	.line	385; "MC32F7361.c"	auto_mode_info.cur_submode_index = 0;
000154   763b     clrr    0x3b             	CLRR	(_auto_mode_info + 3)
                                           ;;gen.c:6570: size=1, offset=0, AOP_TYPE(res)=8
                                           ;	.line	386; "MC32F7361.c"	auto_mode_info.delay_time = 0;
000155   7638     clrr    0x38             	CLRR	(_auto_mode_info + 0)
                                           ;;gen.c:6570: size=0, offset=1, AOP_TYPE(res)=8
000156   7639     clrr    0x39             	CLRR	(_auto_mode_info + 1)
                                           ;;gen.c:6570: size=0, offset=0, AOP_TYPE(res)=8
                                           ;	.line	387; "MC32F7361.c"	auto_mode_info.cur_submode_status = CUR_SUBMODE_STATUS_PREPARE_TO_SET_DELAY_TIME; // auto
000157   3c02     movai   0x2              	MOVAI	0x02
000158   563c     movra   0x3c             	MOVRA	(_auto_mode_info + 4)
000159   a15c     goto    0x15c            	GOTO	_00445_DS_
                                           _00256_DS_
                                           ;	.line	392; "MC32F7361.c"	cur_led_status = CUR_LED_STATUS_SINGLE_COLOR;
00015a   3c02     movai   0x2              	MOVAI	0x02
00015b   5643     movra   0x43             	MOVRA	_cur_led_status
                                           _00445_DS_
                                           ;	.line	395; "MC32F7361.c"	for (i = 0; i < sizeof(table_irkey) / sizeof(table_irkey[0]); i++)
00015c   7623     clrr    0x23             	CLRR	r0x1021
                                           _00428_DS_
                                           ;	.line	397; "MC32F7361.c"	if (table_irkey[i][0] == ir_data)
00015d   3c05     movai   0x5              	MOVAI	0x05
00015e   5606     movra   0x6              	MOVRA	STK00
00015f   5823     movar   0x23             	MOVAR	r0x1021
000160   869b     call    0x69b            	CALL	__mulchar
000161   5624     movra   0x24             	MOVRA	r0x1022
000162   5824     movar   0x24             	MOVAR	r0x1022
000163   3f18     addai   0x18             	ADDAI	(_table_irkey + 0)
000164   5625     movra   0x25             	MOVRA	r0x1023
000165   3c06     movai   0x6              	MOVAI	high (_table_irkey + 0)
000166   f187     jbclr   0x187, 0         	JBCLR	PFLAG,0
000167   3f01     addai   0x1              	ADDAI	0x01
000168   5626     movra   0x26             	MOVRA	r0x1024
000169   5825     movar   0x25             	MOVAR	r0x1023
00016a   5605     movra   0x5              	MOVRA	STK01
00016b   5826     movar   0x26             	MOVAR	r0x1024
00016c   5606     movra   0x6              	MOVRA	STK00
00016d   3c80     movai   0x80             	MOVAI	0x80
00016e   866d     call    0x66d            	CALL	__gptrget1
00016f   5627     movra   0x27             	MOVRA	r0x1025
000170   5848     movar   0x48             	MOVAR	_ir_data
000171   4027     xorar   0x27             	XORAR	r0x1025
000172   e587     jbset   0x187, 0x2       	JBSET	PFLAG,2
000173   a1f3     goto    0x1f3            	GOTO	_00429_DS_
                                           ;	.line	399; "MC32F7361.c"	send_cmd_16bit(0x0C00); // 
000174   3c00     movai   0                	MOVAI	0x00
000175   5606     movra   0x6              	MOVRA	STK00
000176   3c0c     movai   0xc              	MOVAI	0x0c
000177   84ac     call    0x4ac            	CALL	_send_cmd_16bit
                                           ;	.line	400; "MC32F7361.c"	tmp = ((u16)table_irkey[i][1] << 8) + (u16)table_irkey[i][2];
000178   5824     movar   0x24             	MOVAR	r0x1022
000179   3f18     addai   0x18             	ADDAI	(_table_irkey + 0)
00017a   5624     movra   0x24             	MOVRA	r0x1022
00017b   3c06     movai   0x6              	MOVAI	high (_table_irkey + 0)
00017c   f187     jbclr   0x187, 0         	JBCLR	PFLAG,0
00017d   3f01     addai   0x1              	ADDAI	0x01
00017e   5625     movra   0x25             	MOVRA	r0x1023
00017f   3c01     movai   0x1              	MOVAI	0x01
000180   7c24     addar   0x24             	ADDAR	r0x1022
000181   5626     movra   0x26             	MOVRA	r0x1024
000182   7627     clrr    0x27             	CLRR	r0x1025
000183   5227     rlr     0x27             	RLR	r0x1025
000184   5825     movar   0x25             	MOVAR	r0x1023
000185   7e27     addra   0x27             	ADDRA	r0x1025
000186   5826     movar   0x26             	MOVAR	r0x1024
000187   5605     movra   0x5              	MOVRA	STK01
000188   5827     movar   0x27             	MOVAR	r0x1025
000189   5606     movra   0x6              	MOVRA	STK00
00018a   3c80     movai   0x80             	MOVAI	0x80
00018b   866d     call    0x66d            	CALL	__gptrget1
00018c   5628     movra   0x28             	MOVRA	r0x1026
00018d   5828     movar   0x28             	MOVAR	r0x1026
00018e   5629     movra   0x29             	MOVRA	r0x1027
00018f   5626     movra   0x26             	MOVRA	r0x1024
000190   7627     clrr    0x27             	CLRR	r0x1025
                                           ;;113	MOVAR	r0x1024
000191   7628     clrr    0x28             	CLRR	r0x1026
000192   3c02     movai   0x2              	MOVAI	0x02
000193   7c24     addar   0x24             	ADDAR	r0x1022
000194   5626     movra   0x26             	MOVRA	r0x1024
000195   7627     clrr    0x27             	CLRR	r0x1025
000196   5227     rlr     0x27             	RLR	r0x1025
000197   5825     movar   0x25             	MOVAR	r0x1023
000198   7e27     addra   0x27             	ADDRA	r0x1025
000199   5826     movar   0x26             	MOVAR	r0x1024
00019a   5605     movra   0x5              	MOVRA	STK01
00019b   5827     movar   0x27             	MOVAR	r0x1025
00019c   5606     movra   0x6              	MOVRA	STK00
00019d   3c80     movai   0x80             	MOVAI	0x80
00019e   866d     call    0x66d            	CALL	__gptrget1
00019f   5626     movra   0x26             	MOVRA	r0x1024
0001a0   562a     movra   0x2a             	MOVRA	r0x1028
                                           ;;108	MOVAR	r0x1028
0001a1   7627     clrr    0x27             	CLRR	r0x1025
0001a2   5826     movar   0x26             	MOVAR	r0x1024
0001a3   7c28     addar   0x28             	ADDAR	r0x1026
0001a4   5626     movra   0x26             	MOVRA	r0x1024
0001a5   5829     movar   0x29             	MOVAR	r0x1027
0001a6   f187     jbclr   0x187, 0         	JBCLR	PFLAG,0
0001a7   6029     jzar    0x29             	JZAR	r0x1027
0001a8   7e27     addra   0x27             	ADDRA	r0x1025
                                           ;	.line	401; "MC32F7361.c"	send_cmd_16bit(tmp);
0001a9   5826     movar   0x26             	MOVAR	r0x1024
0001aa   5606     movra   0x6              	MOVRA	STK00
0001ab   5827     movar   0x27             	MOVAR	r0x1025
0001ac   84ac     call    0x4ac            	CALL	_send_cmd_16bit
                                           ;	.line	402; "MC32F7361.c"	if (table_irkey[i][3] != UNUSE_VAL && table_irkey[i][4] != UNUSE_VAL)
0001ad   3c03     movai   0x3              	MOVAI	0x03
0001ae   7c24     addar   0x24             	ADDAR	r0x1022
0001af   5628     movra   0x28             	MOVRA	r0x1026
0001b0   7629     clrr    0x29             	CLRR	r0x1027
0001b1   5229     rlr     0x29             	RLR	r0x1027
0001b2   5825     movar   0x25             	MOVAR	r0x1023
0001b3   7e29     addra   0x29             	ADDRA	r0x1027
0001b4   5828     movar   0x28             	MOVAR	r0x1026
0001b5   5605     movra   0x5              	MOVRA	STK01
0001b6   5829     movar   0x29             	MOVAR	r0x1027
0001b7   5606     movra   0x6              	MOVRA	STK00
0001b8   3c80     movai   0x80             	MOVAI	0x80
0001b9   866d     call    0x66d            	CALL	__gptrget1
0001ba   562a     movra   0x2a             	MOVRA	r0x1028
0001bb   582a     movar   0x2a             	MOVAR	r0x1028
0001bc   39ff     xorai   0xff             	XORAI	0xff
0001bd   e587     jbset   0x187, 0x2       	JBSET	PFLAG,2
0001be   a1c0     goto    0x1c0            	GOTO	_00789_DS_
0001bf   a1f8     goto    0x1f8            	GOTO	_00278_DS_
                                           _00789_DS_
0001c0   3c04     movai   0x4              	MOVAI	0x04
0001c1   7e24     addra   0x24             	ADDRA	r0x1022
0001c2   f187     jbclr   0x187, 0         	JBCLR	PFLAG,0
0001c3   6625     incr    0x25             	INCR	r0x1023
0001c4   5824     movar   0x24             	MOVAR	r0x1022
0001c5   5605     movra   0x5              	MOVRA	STK01
0001c6   5825     movar   0x25             	MOVAR	r0x1023
0001c7   5606     movra   0x6              	MOVRA	STK00
0001c8   3c80     movai   0x80             	MOVAI	0x80
0001c9   866d     call    0x66d            	CALL	__gptrget1
0001ca   562a     movra   0x2a             	MOVRA	r0x1028
0001cb   582a     movar   0x2a             	MOVAR	r0x1028
0001cc   39ff     xorai   0xff             	XORAI	0xff
0001cd   e587     jbset   0x187, 0x2       	JBSET	PFLAG,2
0001ce   a1d0     goto    0x1d0            	GOTO	_00790_DS_
0001cf   a1f8     goto    0x1f8            	GOTO	_00278_DS_
                                           _00790_DS_
                                           ;	.line	404; "MC32F7361.c"	send_cmd_16bit(tmp); // 4 * 16bit 2 * 16bit
0001d0   5826     movar   0x26             	MOVAR	r0x1024
0001d1   5606     movra   0x6              	MOVRA	STK00
0001d2   5827     movar   0x27             	MOVAR	r0x1025
0001d3   84ac     call    0x4ac            	CALL	_send_cmd_16bit
                                           ;	.line	405; "MC32F7361.c"	tmp = ((u16)table_irkey[i][3] << 8) + (u16)table_irkey[i][4];
0001d4   5828     movar   0x28             	MOVAR	r0x1026
0001d5   5605     movra   0x5              	MOVRA	STK01
0001d6   5829     movar   0x29             	MOVAR	r0x1027
0001d7   5606     movra   0x6              	MOVRA	STK00
0001d8   3c80     movai   0x80             	MOVAI	0x80
0001d9   866d     call    0x66d            	CALL	__gptrget1
0001da   5627     movra   0x27             	MOVRA	r0x1025
0001db   5628     movra   0x28             	MOVRA	r0x1026
0001dc   5626     movra   0x26             	MOVRA	r0x1024
                                           ;;110	MOVAR	r0x1024
0001dd   7629     clrr    0x29             	CLRR	r0x1027
                                           ;;111	MOVAR	r0x1026
0001de   7626     clrr    0x26             	CLRR	r0x1024
0001df   5824     movar   0x24             	MOVAR	r0x1022
0001e0   5605     movra   0x5              	MOVRA	STK01
0001e1   5825     movar   0x25             	MOVAR	r0x1023
0001e2   5606     movra   0x6              	MOVRA	STK00
0001e3   3c80     movai   0x80             	MOVAI	0x80
0001e4   866d     call    0x66d            	CALL	__gptrget1
0001e5   5624     movra   0x24             	MOVRA	r0x1022
0001e6   5628     movra   0x28             	MOVRA	r0x1026
                                           ;;107	MOVAR	r0x1026
0001e7   7625     clrr    0x25             	CLRR	r0x1023
0001e8   5824     movar   0x24             	MOVAR	r0x1022
0001e9   7e26     addra   0x26             	ADDRA	r0x1024
0001ea   3c00     movai   0                	MOVAI	0x00
0001eb   f187     jbclr   0x187, 0         	JBCLR	PFLAG,0
0001ec   6025     jzar    0x25             	JZAR	r0x1023
0001ed   7e27     addra   0x27             	ADDRA	r0x1025
                                           ;	.line	406; "MC32F7361.c"	send_cmd_16bit(tmp);
0001ee   5826     movar   0x26             	MOVAR	r0x1024
0001ef   5606     movra   0x6              	MOVRA	STK00
0001f0   5827     movar   0x27             	MOVAR	r0x1025
0001f1   84ac     call    0x4ac            	CALL	_send_cmd_16bit
                                           ;	.line	408; "MC32F7361.c"	break;
0001f2   a1f8     goto    0x1f8            	GOTO	_00278_DS_
                                           _00429_DS_
                                           ;	.line	395; "MC32F7361.c"	for (i = 0; i < sizeof(table_irkey) / sizeof(table_irkey[0]); i++)
0001f3   6623     incr    0x23             	INCR	r0x1021
                                           ;;unsigned compare: left < lit(0x11=17), size=1
0001f4   3c11     movai   0x11             	MOVAI	0x11
0001f5   4823     rsubar  0x23             	RSUBAR	r0x1021
0001f6   e187     jbset   0x187, 0         	JBSET	PFLAG,0
0001f7   a15d     goto    0x15d            	GOTO	_00428_DS_
                                           ;;genSkipc:3291: created from rifx:013B5EFC
                                           _00278_DS_
                                           ;	.line	413; "MC32F7361.c"	ir_data = 0;
0001f8   7648     clrr    0x48             	CLRR	_ir_data
                                           ;	.line	414; "MC32F7361.c"	flag_is_recved_data = 0;
0001f9   d047     bclr    0x47, 0          	BCLR	_flag1,0
                                           _00280_DS_
                                           ;	.line	417; "MC32F7361.c"	if (CUR_LED_STATUS_AUTO == cur_led_status) //  AUTO 
0001fa   5843     movar   0x43             	MOVAR	_cur_led_status
0001fb   3901     xorai   0x1              	XORAI	0x01
0001fc   e587     jbset   0x187, 0x2       	JBSET	PFLAG,2
0001fd   a0e8     goto    0xe8             	GOTO	_00426_DS_
                                           ;	.line	420; "MC32F7361.c"	if (flag_is_press_speed)
0001fe   3c00     movai   0                	MOVAI	0x00
0001ff   5c42     orar    0x42             	ORAR	_flag_is_press_speed
000200   f587     jbclr   0x187, 0x2       	JBCLR	PFLAG,2
000201   a242     goto    0x242            	GOTO	_00293_DS_
                                           ;	.line	422; "MC32F7361.c"	flag_is_press_speed = 0;
000202   7642     clrr    0x42             	CLRR	_flag_is_press_speed
                                           ;	.line	426; "MC32F7361.c"	send_cmd_16bit(0x0C00); // SPEED
000203   3c00     movai   0                	MOVAI	0x00
000204   5606     movra   0x6              	MOVRA	STK00
000205   3c0c     movai   0xc              	MOVAI	0x0c
000206   84ac     call    0x4ac            	CALL	_send_cmd_16bit
                                           ;	.line	427; "MC32F7361.c"	if (CUR_AUTO_SUBMODE_1 == auto_mode_info.cur_auto_submode)
000207   583a     movar   0x3a             	MOVAR	(_auto_mode_info + 2)
000208   5623     movra   0x23             	MOVRA	r0x1021
000209   3c00     movai   0                	MOVAI	0x00
00020a   5c23     orar    0x23             	ORAR	r0x1021
00020b   e587     jbset   0x187, 0x2       	JBSET	PFLAG,2
00020c   a210     goto    0x210            	GOTO	_00288_DS_
                                           ;	.line	429; "MC32F7361.c"	tmp = 0x0F;
00020d   3c0f     movai   0xf              	MOVAI	0x0f
00020e   5623     movra   0x23             	MOVRA	r0x1021
00020f   a224     goto    0x224            	GOTO	_00289_DS_
                                           _00288_DS_
                                           ;	.line	431; "MC32F7361.c"	else if (CUR_AUTO_SUBMODE_2 == auto_mode_info.cur_auto_submode)
000210   583a     movar   0x3a             	MOVAR	(_auto_mode_info + 2)
000211   5624     movra   0x24             	MOVRA	r0x1022
000212   5824     movar   0x24             	MOVAR	r0x1022
000213   3901     xorai   0x1              	XORAI	0x01
000214   e587     jbset   0x187, 0x2       	JBSET	PFLAG,2
000215   a219     goto    0x219            	GOTO	_00285_DS_
                                           ;	.line	433; "MC32F7361.c"	tmp = 0x0E;
000216   3c0e     movai   0xe              	MOVAI	0x0e
000217   5623     movra   0x23             	MOVRA	r0x1021
000218   a224     goto    0x224            	GOTO	_00289_DS_
                                           _00285_DS_
                                           ;	.line	435; "MC32F7361.c"	else if (CUR_AUTO_SUBMODE_3 == auto_mode_info.cur_auto_submode)
000219   583a     movar   0x3a             	MOVAR	(_auto_mode_info + 2)
00021a   5624     movra   0x24             	MOVRA	r0x1022
00021b   5824     movar   0x24             	MOVAR	r0x1022
00021c   3902     xorai   0x2              	XORAI	0x02
00021d   e587     jbset   0x187, 0x2       	JBSET	PFLAG,2
00021e   a222     goto    0x222            	GOTO	_00282_DS_
                                           ;	.line	437; "MC32F7361.c"	tmp = 0x0D;
00021f   3c0d     movai   0xd              	MOVAI	0x0d
000220   5623     movra   0x23             	MOVRA	r0x1021
000221   a224     goto    0x224            	GOTO	_00289_DS_
                                           _00282_DS_
                                           ;	.line	442; "MC32F7361.c"	tmp = 0x0C;
000222   3c0c     movai   0xc              	MOVAI	0x0c
000223   5623     movra   0x23             	MOVRA	r0x1021
                                           _00289_DS_
                                           ;	.line	445; "MC32F7361.c"	send_cmd_16bit(((u32)tmp << 8) | 0x11);
000224   5823     movar   0x23             	MOVAR	r0x1021
000225   5624     movra   0x24             	MOVRA	r0x1022
000226   7625     clrr    0x25             	CLRR	r0x1023
                                           ;;106	MOVAR	r0x1022
000227   7623     clrr    0x23             	CLRR	r0x1021
000228   3c11     movai   0x11             	MOVAI	0x11
000229   5e23     orra    0x23             	ORRA	r0x1021
00022a   5823     movar   0x23             	MOVAR	r0x1021
00022b   5606     movra   0x6              	MOVRA	STK00
                                           ;;105	MOVAR	r0x1024
00022c   5824     movar   0x24             	MOVAR	r0x1022
00022d   5626     movra   0x26             	MOVRA	r0x1024
00022e   84ac     call    0x4ac            	CALL	_send_cmd_16bit
                                           ;	.line	448; "MC32F7361.c"	auto_mode_info.cur_auto_submode++;
00022f   583a     movar   0x3a             	MOVAR	(_auto_mode_info + 2)
000230   5623     movra   0x23             	MOVRA	r0x1021
000231   6623     incr    0x23             	INCR	r0x1021
                                           ;;gen.c:6570: size=0, offset=0, AOP_TYPE(res)=8
000232   5823     movar   0x23             	MOVAR	r0x1021
000233   563a     movra   0x3a             	MOVRA	(_auto_mode_info + 2)
                                           ;	.line	449; "MC32F7361.c"	if (auto_mode_info.cur_auto_submode > CUR_AUTO_SUBMODE_4)
000234   583a     movar   0x3a             	MOVAR	(_auto_mode_info + 2)
000235   5623     movra   0x23             	MOVRA	r0x1021
                                           ;;swapping arguments (AOP_TYPEs 1/2)
                                           ;;unsigned compare: left >= lit(0x4=4), size=1
000236   3c04     movai   0x4              	MOVAI	0x04
000237   4823     rsubar  0x23             	RSUBAR	r0x1021
000238   e187     jbset   0x187, 0         	JBSET	PFLAG,0
000239   a23b     goto    0x23b            	GOTO	_00291_DS_
                                           ;;genSkipc:3291: created from rifx:013B5EFC
                                           ;;gen.c:6570: size=0, offset=0, AOP_TYPE(res)=8
                                           ;	.line	451; "MC32F7361.c"	auto_mode_info.cur_auto_submode = CUR_AUTO_SUBMODE_1;
00023a   763a     clrr    0x3a             	CLRR	(_auto_mode_info + 2)
                                           ;;gen.c:6570: size=0, offset=0, AOP_TYPE(res)=8
                                           _00291_DS_
                                           ;	.line	458; "MC32F7361.c"	auto_mode_info.cur_submode_index = 0;
00023b   763b     clrr    0x3b             	CLRR	(_auto_mode_info + 3)
                                           ;;gen.c:6570: size=0, offset=0, AOP_TYPE(res)=8
                                           ;	.line	460; "MC32F7361.c"	auto_mode_info.cur_submode_status = CUR_SUBMODE_STATUS_PREPARE_TO_SET_DELAY_TIME; // SPEED
00023c   3c02     movai   0x2              	MOVAI	0x02
00023d   563c     movra   0x3c             	MOVRA	(_auto_mode_info + 4)
                                           ;	.line	464; "MC32F7361.c"	delay_ms(2); // 
00023e   3c02     movai   0x2              	MOVAI	0x02
00023f   5606     movra   0x6              	MOVRA	STK00
000240   3c00     movai   0                	MOVAI	0x00
000241   8554     call    0x554            	CALL	_delay_ms
                                           _00293_DS_
                                           ;	.line	469; "MC32F7361.c"	if (CUR_SUBMODE_STATUS_PREPARE_TO_SET_DELAY_TIME == auto_mode_info.cur_submode_status)
000242   583c     movar   0x3c             	MOVAR	(_auto_mode_info + 4)
000243   5623     movra   0x23             	MOVRA	r0x1021
000244   5823     movar   0x23             	MOVAR	r0x1021
000245   3902     xorai   0x2              	XORAI	0x02
000246   e587     jbset   0x187, 0x2       	JBSET	PFLAG,2
000247   a350     goto    0x350            	GOTO	_00366_DS_
                                           ;	.line	479; "MC32F7361.c"	if (auto_mode_info.cur_submode_index > 0)
000248   583b     movar   0x3b             	MOVAR	(_auto_mode_info + 3)
000249   5623     movra   0x23             	MOVRA	r0x1021
00024a   3c00     movai   0                	MOVAI	0x00
00024b   5c23     orar    0x23             	ORAR	r0x1021
00024c   f587     jbclr   0x187, 0x2       	JBCLR	PFLAG,2
00024d   a254     goto    0x254            	GOTO	_00295_DS_
                                           ;	.line	481; "MC32F7361.c"	index = auto_mode_info.cur_submode_index - 1;
00024e   583b     movar   0x3b             	MOVAR	(_auto_mode_info + 3)
00024f   5624     movra   0x24             	MOVRA	r0x1022
000250   5623     movra   0x23             	MOVRA	r0x1021
                                           ;;112	MOVAR	r0x1021
000251   6c24     decar   0x24             	DECAR	r0x1022
000252   5623     movra   0x23             	MOVRA	r0x1021
000253   a255     goto    0x255            	GOTO	_00296_DS_
                                           _00295_DS_
                                           ;	.line	485; "MC32F7361.c"	index = 0;
000254   7623     clrr    0x23             	CLRR	r0x1021
                                           ;;swapping arguments (AOP_TYPEs 1/2)
                                           ;;unsigned compare: left >= lit(0x9=9), size=1
                                           _00296_DS_
                                           ;	.line	489; "MC32F7361.c"	if (index <= 8)
000255   3c09     movai   0x9              	MOVAI	0x09
000256   4823     rsubar  0x23             	RSUBAR	r0x1021
000257   f187     jbclr   0x187, 0         	JBCLR	PFLAG,0
000258   a27f     goto    0x27f            	GOTO	_00363_DS_
                                           ;;genSkipc:3291: created from rifx:013B5EFC
                                           ;	.line	491; "MC32F7361.c"	if (CUR_AUTO_SUBMODE_1 == auto_mode_info.cur_auto_submode)
000259   583a     movar   0x3a             	MOVAR	(_auto_mode_info + 2)
00025a   5624     movra   0x24             	MOVRA	r0x1022
00025b   3c00     movai   0                	MOVAI	0x00
00025c   5c24     orar    0x24             	ORAR	r0x1022
00025d   e587     jbset   0x187, 0x2       	JBSET	PFLAG,2
00025e   a264     goto    0x264            	GOTO	_00304_DS_
                                           ;;gen.c:6570: size=1, offset=0, AOP_TYPE(res)=8
                                           ;	.line	493; "MC32F7361.c"	auto_mode_info.delay_time = 3000;
00025f   3cb8     movai   0xb8             	MOVAI	0xb8
000260   5638     movra   0x38             	MOVRA	(_auto_mode_info + 0)
                                           ;;gen.c:6570: size=0, offset=1, AOP_TYPE(res)=8
000261   3c0b     movai   0xb              	MOVAI	0x0b
000262   5639     movra   0x39             	MOVRA	(_auto_mode_info + 1)
000263   a34e     goto    0x34e            	GOTO	_00364_DS_
                                           _00304_DS_
                                           ;	.line	495; "MC32F7361.c"	else if (CUR_AUTO_SUBMODE_2 == auto_mode_info.cur_auto_submode)
000264   583a     movar   0x3a             	MOVAR	(_auto_mode_info + 2)
000265   5624     movra   0x24             	MOVRA	r0x1022
000266   5824     movar   0x24             	MOVAR	r0x1022
000267   3901     xorai   0x1              	XORAI	0x01
000268   e587     jbset   0x187, 0x2       	JBSET	PFLAG,2
000269   a26f     goto    0x26f            	GOTO	_00301_DS_
                                           ;;gen.c:6570: size=1, offset=0, AOP_TYPE(res)=8
                                           ;	.line	497; "MC32F7361.c"	auto_mode_info.delay_time = 10000;
00026a   3c10     movai   0x10             	MOVAI	0x10
00026b   5638     movra   0x38             	MOVRA	(_auto_mode_info + 0)
                                           ;;gen.c:6570: size=0, offset=1, AOP_TYPE(res)=8
00026c   3c27     movai   0x27             	MOVAI	0x27
00026d   5639     movra   0x39             	MOVRA	(_auto_mode_info + 1)
00026e   a34e     goto    0x34e            	GOTO	_00364_DS_
                                           _00301_DS_
                                           ;	.line	499; "MC32F7361.c"	else if (CUR_AUTO_SUBMODE_3 == auto_mode_info.cur_auto_submode)
00026f   583a     movar   0x3a             	MOVAR	(_auto_mode_info + 2)
000270   5624     movra   0x24             	MOVRA	r0x1022
000271   5824     movar   0x24             	MOVAR	r0x1022
000272   3902     xorai   0x2              	XORAI	0x02
000273   e587     jbset   0x187, 0x2       	JBSET	PFLAG,2
000274   a27a     goto    0x27a            	GOTO	_00298_DS_
                                           ;;gen.c:6570: size=1, offset=0, AOP_TYPE(res)=8
                                           ;	.line	501; "MC32F7361.c"	auto_mode_info.delay_time = 7550;
000275   3c7e     movai   0x7e             	MOVAI	0x7e
000276   5638     movra   0x38             	MOVRA	(_auto_mode_info + 0)
                                           ;;gen.c:6570: size=0, offset=1, AOP_TYPE(res)=8
000277   3c1d     movai   0x1d             	MOVAI	0x1d
000278   5639     movra   0x39             	MOVRA	(_auto_mode_info + 1)
000279   a34e     goto    0x34e            	GOTO	_00364_DS_
                                           ;;gen.c:6570: size=1, offset=0, AOP_TYPE(res)=8
                                           _00298_DS_
                                           ;	.line	506; "MC32F7361.c"	auto_mode_info.delay_time = 5000;
00027a   3c88     movai   0x88             	MOVAI	0x88
00027b   5638     movra   0x38             	MOVRA	(_auto_mode_info + 0)
                                           ;;gen.c:6570: size=0, offset=1, AOP_TYPE(res)=8
00027c   3c13     movai   0x13             	MOVAI	0x13
00027d   5639     movra   0x39             	MOVRA	(_auto_mode_info + 1)
00027e   a34e     goto    0x34e            	GOTO	_00364_DS_
                                           _00363_DS_
                                           ;	.line	516; "MC32F7361.c"	else if (index == 9 ||
00027f   5823     movar   0x23             	MOVAR	r0x1021
000280   3909     xorai   0x9              	XORAI	0x09
000281   e587     jbset   0x187, 0x2       	JBSET	PFLAG,2
000282   a284     goto    0x284            	GOTO	_00794_DS_
000283   a2a1     goto    0x2a1            	GOTO	_00353_DS_
                                           _00794_DS_
                                           ;	.line	517; "MC32F7361.c"	index == 20 ||
000284   5823     movar   0x23             	MOVAR	r0x1021
000285   3914     xorai   0x14             	XORAI	0x14
000286   e587     jbset   0x187, 0x2       	JBSET	PFLAG,2
000287   a289     goto    0x289            	GOTO	_00795_DS_
000288   a2a1     goto    0x2a1            	GOTO	_00353_DS_
                                           _00795_DS_
                                           ;	.line	518; "MC32F7361.c"	index == 27 ||
000289   5823     movar   0x23             	MOVAR	r0x1021
00028a   391b     xorai   0x1b             	XORAI	0x1b
00028b   e587     jbset   0x187, 0x2       	JBSET	PFLAG,2
00028c   a28e     goto    0x28e            	GOTO	_00796_DS_
00028d   a2a1     goto    0x2a1            	GOTO	_00353_DS_
                                           _00796_DS_
                                           ;	.line	519; "MC32F7361.c"	index == 31 ||
00028e   5823     movar   0x23             	MOVAR	r0x1021
00028f   391f     xorai   0x1f             	XORAI	0x1f
000290   e587     jbset   0x187, 0x2       	JBSET	PFLAG,2
000291   a293     goto    0x293            	GOTO	_00797_DS_
000292   a2a1     goto    0x2a1            	GOTO	_00353_DS_
                                           _00797_DS_
                                           ;	.line	520; "MC32F7361.c"	index == 62 ||
000293   5823     movar   0x23             	MOVAR	r0x1021
000294   393e     xorai   0x3e             	XORAI	0x3e
000295   e587     jbset   0x187, 0x2       	JBSET	PFLAG,2
000296   a298     goto    0x298            	GOTO	_00798_DS_
000297   a2a1     goto    0x2a1            	GOTO	_00353_DS_
                                           _00798_DS_
                                           ;	.line	521; "MC32F7361.c"	index == 73 ||
000298   5823     movar   0x23             	MOVAR	r0x1021
000299   3949     xorai   0x49             	XORAI	0x49
00029a   e587     jbset   0x187, 0x2       	JBSET	PFLAG,2
00029b   a29d     goto    0x29d            	GOTO	_00799_DS_
00029c   a2a1     goto    0x2a1            	GOTO	_00353_DS_
                                           _00799_DS_
                                           ;	.line	522; "MC32F7361.c"	index == 80)
00029d   5823     movar   0x23             	MOVAR	r0x1021
00029e   3950     xorai   0x50             	XORAI	0x50
00029f   e587     jbset   0x187, 0x2       	JBSET	PFLAG,2
0002a0   a2a5     goto    0x2a5            	GOTO	_00354_DS_
                                           ;;gen.c:6570: size=1, offset=0, AOP_TYPE(res)=8
                                           _00353_DS_
                                           ;	.line	527; "MC32F7361.c"	auto_mode_info.delay_time = 33;
0002a1   3c21     movai   0x21             	MOVAI	0x21
0002a2   5638     movra   0x38             	MOVRA	(_auto_mode_info + 0)
                                           ;;gen.c:6570: size=0, offset=1, AOP_TYPE(res)=8
0002a3   7639     clrr    0x39             	CLRR	(_auto_mode_info + 1)
0002a4   a34e     goto    0x34e            	GOTO	_00364_DS_
                                           ;;unsigned compare: left < lit(0xA=10), size=1
                                           _00354_DS_
                                           ;	.line	531; "MC32F7361.c"	else if ((index >= 10 && index <= 19) ||
0002a5   3c0a     movai   0xa              	MOVAI	0x0a
0002a6   4823     rsubar  0x23             	RSUBAR	r0x1021
0002a7   e187     jbset   0x187, 0         	JBSET	PFLAG,0
0002a8   a2ad     goto    0x2ad            	GOTO	_00352_DS_
                                           ;;genSkipc:3291: created from rifx:013B5EFC
                                           ;;swapping arguments (AOP_TYPEs 1/2)
                                           ;;unsigned compare: left >= lit(0x14=20), size=1
0002a9   3c14     movai   0x14             	MOVAI	0x14
0002aa   4823     rsubar  0x23             	RSUBAR	r0x1021
0002ab   e187     jbset   0x187, 0         	JBSET	PFLAG,0
0002ac   a2b5     goto    0x2b5            	GOTO	_00347_DS_
                                           ;;genSkipc:3291: created from rifx:013B5EFC
                                           ;;unsigned compare: left < lit(0x20=32), size=1
                                           _00352_DS_
                                           ;	.line	532; "MC32F7361.c"	(index >= 32 && index <= 61))
0002ad   3c20     movai   0x20             	MOVAI	0x20
0002ae   4823     rsubar  0x23             	RSUBAR	r0x1021
0002af   e187     jbset   0x187, 0         	JBSET	PFLAG,0
0002b0   a2da     goto    0x2da            	GOTO	_00348_DS_
                                           ;;genSkipc:3291: created from rifx:013B5EFC
                                           ;;swapping arguments (AOP_TYPEs 1/2)
                                           ;;unsigned compare: left >= lit(0x3E=62), size=1
0002b1   3c3e     movai   0x3e             	MOVAI	0x3e
0002b2   4823     rsubar  0x23             	RSUBAR	r0x1021
0002b3   f187     jbclr   0x187, 0         	JBCLR	PFLAG,0
0002b4   a2da     goto    0x2da            	GOTO	_00348_DS_
                                           ;;genSkipc:3291: created from rifx:013B5EFC
                                           _00347_DS_
                                           ;	.line	541; "MC32F7361.c"	if (CUR_AUTO_SUBMODE_1 == auto_mode_info.cur_auto_submode)
0002b5   583a     movar   0x3a             	MOVAR	(_auto_mode_info + 2)
0002b6   5624     movra   0x24             	MOVRA	r0x1022
0002b7   3c00     movai   0                	MOVAI	0x00
0002b8   5c24     orar    0x24             	ORAR	r0x1022
0002b9   e587     jbset   0x187, 0x2       	JBSET	PFLAG,2
0002ba   a2bf     goto    0x2bf            	GOTO	_00313_DS_
                                           ;;gen.c:6570: size=1, offset=0, AOP_TYPE(res)=8
                                           ;	.line	543; "MC32F7361.c"	auto_mode_info.delay_time = 172;
0002bb   3cac     movai   0xac             	MOVAI	0xac
0002bc   5638     movra   0x38             	MOVRA	(_auto_mode_info + 0)
                                           ;;gen.c:6570: size=0, offset=1, AOP_TYPE(res)=8
0002bd   7639     clrr    0x39             	CLRR	(_auto_mode_info + 1)
0002be   a34e     goto    0x34e            	GOTO	_00364_DS_
                                           _00313_DS_
                                           ;	.line	545; "MC32F7361.c"	else if (CUR_AUTO_SUBMODE_2 == auto_mode_info.cur_auto_submode)
0002bf   583a     movar   0x3a             	MOVAR	(_auto_mode_info + 2)
0002c0   5624     movra   0x24             	MOVRA	r0x1022
0002c1   5824     movar   0x24             	MOVAR	r0x1022
0002c2   3901     xorai   0x1              	XORAI	0x01
0002c3   e587     jbset   0x187, 0x2       	JBSET	PFLAG,2
0002c4   a2ca     goto    0x2ca            	GOTO	_00310_DS_
                                           ;;gen.c:6570: size=1, offset=0, AOP_TYPE(res)=8
                                           ;	.line	547; "MC32F7361.c"	auto_mode_info.delay_time = 2000;
0002c5   3cd0     movai   0xd0             	MOVAI	0xd0
0002c6   5638     movra   0x38             	MOVRA	(_auto_mode_info + 0)
                                           ;;gen.c:6570: size=0, offset=1, AOP_TYPE(res)=8
0002c7   3c07     movai   0x7              	MOVAI	0x07
0002c8   5639     movra   0x39             	MOVRA	(_auto_mode_info + 1)
0002c9   a34e     goto    0x34e            	GOTO	_00364_DS_
                                           _00310_DS_
                                           ;	.line	549; "MC32F7361.c"	else if (CUR_AUTO_SUBMODE_3 == auto_mode_info.cur_auto_submode)
0002ca   583a     movar   0x3a             	MOVAR	(_auto_mode_info + 2)
0002cb   5624     movra   0x24             	MOVRA	r0x1022
0002cc   5824     movar   0x24             	MOVAR	r0x1022
0002cd   3902     xorai   0x2              	XORAI	0x02
0002ce   e587     jbset   0x187, 0x2       	JBSET	PFLAG,2
0002cf   a2d5     goto    0x2d5            	GOTO	_00307_DS_
                                           ;;gen.c:6570: size=1, offset=0, AOP_TYPE(res)=8
                                           ;	.line	551; "MC32F7361.c"	auto_mode_info.delay_time = 1000;
0002d0   3ce8     movai   0xe8             	MOVAI	0xe8
0002d1   5638     movra   0x38             	MOVRA	(_auto_mode_info + 0)
                                           ;;gen.c:6570: size=0, offset=1, AOP_TYPE(res)=8
0002d2   3c03     movai   0x3              	MOVAI	0x03
0002d3   5639     movra   0x39             	MOVRA	(_auto_mode_info + 1)
0002d4   a34e     goto    0x34e            	GOTO	_00364_DS_
                                           ;;gen.c:6570: size=1, offset=0, AOP_TYPE(res)=8
                                           _00307_DS_
                                           ;	.line	556; "MC32F7361.c"	auto_mode_info.delay_time = 470;
0002d5   3cd6     movai   0xd6             	MOVAI	0xd6
0002d6   5638     movra   0x38             	MOVRA	(_auto_mode_info + 0)
                                           ;;gen.c:6570: size=0, offset=1, AOP_TYPE(res)=8
0002d7   3c01     movai   0x1              	MOVAI	0x01
0002d8   5639     movra   0x39             	MOVRA	(_auto_mode_info + 1)
0002d9   a34e     goto    0x34e            	GOTO	_00364_DS_
                                           ;;unsigned compare: left < lit(0x15=21), size=1
                                           _00348_DS_
                                           ;	.line	562; "MC32F7361.c"	else if ((index >= 21 && index <= 26) ||
0002da   3c15     movai   0x15             	MOVAI	0x15
0002db   4823     rsubar  0x23             	RSUBAR	r0x1021
0002dc   e187     jbset   0x187, 0         	JBSET	PFLAG,0
0002dd   a2e2     goto    0x2e2            	GOTO	_00344_DS_
                                           ;;genSkipc:3291: created from rifx:013B5EFC
                                           ;;swapping arguments (AOP_TYPEs 1/2)
                                           ;;unsigned compare: left >= lit(0x1B=27), size=1
0002de   3c1b     movai   0x1b             	MOVAI	0x1b
0002df   4823     rsubar  0x23             	RSUBAR	r0x1021
0002e0   e187     jbset   0x187, 0         	JBSET	PFLAG,0
0002e1   a2f2     goto    0x2f2            	GOTO	_00339_DS_
                                           ;;genSkipc:3291: created from rifx:013B5EFC
                                           ;;unsigned compare: left < lit(0x1C=28), size=1
                                           _00344_DS_
                                           ;	.line	563; "MC32F7361.c"	(index >= 28 && index <= 30) ||
0002e2   3c1c     movai   0x1c             	MOVAI	0x1c
0002e3   4823     rsubar  0x23             	RSUBAR	r0x1021
0002e4   e187     jbset   0x187, 0         	JBSET	PFLAG,0
0002e5   a2ea     goto    0x2ea            	GOTO	_00346_DS_
                                           ;;genSkipc:3291: created from rifx:013B5EFC
                                           ;;swapping arguments (AOP_TYPEs 1/2)
                                           ;;unsigned compare: left >= lit(0x1F=31), size=1
0002e6   3c1f     movai   0x1f             	MOVAI	0x1f
0002e7   4823     rsubar  0x23             	RSUBAR	r0x1021
0002e8   e187     jbset   0x187, 0         	JBSET	PFLAG,0
0002e9   a2f2     goto    0x2f2            	GOTO	_00339_DS_
                                           ;;genSkipc:3291: created from rifx:013B5EFC
                                           ;;unsigned compare: left < lit(0x3F=63), size=1
                                           _00346_DS_
                                           ;	.line	564; "MC32F7361.c"	(index >= 63 && index <= 72))
0002ea   3c3f     movai   0x3f             	MOVAI	0x3f
0002eb   4823     rsubar  0x23             	RSUBAR	r0x1021
0002ec   e187     jbset   0x187, 0         	JBSET	PFLAG,0
0002ed   a2f7     goto    0x2f7            	GOTO	_00340_DS_
                                           ;;genSkipc:3291: created from rifx:013B5EFC
                                           ;;swapping arguments (AOP_TYPEs 1/2)
                                           ;;unsigned compare: left >= lit(0x49=73), size=1
0002ee   3c49     movai   0x49             	MOVAI	0x49
0002ef   4823     rsubar  0x23             	RSUBAR	r0x1021
0002f0   f187     jbclr   0x187, 0         	JBCLR	PFLAG,0
0002f1   a2f7     goto    0x2f7            	GOTO	_00340_DS_
                                           ;;genSkipc:3291: created from rifx:013B5EFC
                                           ;;gen.c:6570: size=1, offset=0, AOP_TYPE(res)=8
                                           _00339_DS_
                                           ;	.line	567; "MC32F7361.c"	auto_mode_info.delay_time = 5000;
0002f2   3c88     movai   0x88             	MOVAI	0x88
0002f3   5638     movra   0x38             	MOVRA	(_auto_mode_info + 0)
                                           ;;gen.c:6570: size=0, offset=1, AOP_TYPE(res)=8
0002f4   3c13     movai   0x13             	MOVAI	0x13
0002f5   5639     movra   0x39             	MOVRA	(_auto_mode_info + 1)
0002f6   a34e     goto    0x34e            	GOTO	_00364_DS_
                                           ;;unsigned compare: left < lit(0x4A=74), size=1
                                           _00340_DS_
                                           ;	.line	570; "MC32F7361.c"	else if (index >= 74 && index <= 79)
0002f7   3c4a     movai   0x4a             	MOVAI	0x4a
0002f8   4823     rsubar  0x23             	RSUBAR	r0x1021
0002f9   e187     jbset   0x187, 0         	JBSET	PFLAG,0
0002fa   a325     goto    0x325            	GOTO	_00336_DS_
                                           ;;genSkipc:3291: created from rifx:013B5EFC
                                           ;;swapping arguments (AOP_TYPEs 1/2)
                                           ;;unsigned compare: left >= lit(0x50=80), size=1
0002fb   3c50     movai   0x50             	MOVAI	0x50
0002fc   4823     rsubar  0x23             	RSUBAR	r0x1021
0002fd   f187     jbclr   0x187, 0         	JBCLR	PFLAG,0
0002fe   a325     goto    0x325            	GOTO	_00336_DS_
                                           ;;genSkipc:3291: created from rifx:013B5EFC
                                           ;	.line	579; "MC32F7361.c"	if (CUR_AUTO_SUBMODE_1 == auto_mode_info.cur_auto_submode)
0002ff   583a     movar   0x3a             	MOVAR	(_auto_mode_info + 2)
000300   5624     movra   0x24             	MOVRA	r0x1022
000301   3c00     movai   0                	MOVAI	0x00
000302   5c24     orar    0x24             	ORAR	r0x1022
000303   e587     jbset   0x187, 0x2       	JBSET	PFLAG,2
000304   a30a     goto    0x30a            	GOTO	_00322_DS_
                                           ;;gen.c:6570: size=1, offset=0, AOP_TYPE(res)=8
                                           ;	.line	581; "MC32F7361.c"	auto_mode_info.delay_time = 2000;
000305   3cd0     movai   0xd0             	MOVAI	0xd0
000306   5638     movra   0x38             	MOVRA	(_auto_mode_info + 0)
                                           ;;gen.c:6570: size=0, offset=1, AOP_TYPE(res)=8
000307   3c07     movai   0x7              	MOVAI	0x07
000308   5639     movra   0x39             	MOVRA	(_auto_mode_info + 1)
000309   a34e     goto    0x34e            	GOTO	_00364_DS_
                                           _00322_DS_
                                           ;	.line	583; "MC32F7361.c"	else if (CUR_AUTO_SUBMODE_2 == auto_mode_info.cur_auto_submode)
00030a   583a     movar   0x3a             	MOVAR	(_auto_mode_info + 2)
00030b   5624     movra   0x24             	MOVRA	r0x1022
00030c   5824     movar   0x24             	MOVAR	r0x1022
00030d   3901     xorai   0x1              	XORAI	0x01
00030e   e587     jbset   0x187, 0x2       	JBSET	PFLAG,2
00030f   a315     goto    0x315            	GOTO	_00319_DS_
                                           ;;gen.c:6570: size=1, offset=0, AOP_TYPE(res)=8
                                           ;	.line	585; "MC32F7361.c"	auto_mode_info.delay_time = 5550;
000310   3cae     movai   0xae             	MOVAI	0xae
000311   5638     movra   0x38             	MOVRA	(_auto_mode_info + 0)
                                           ;;gen.c:6570: size=0, offset=1, AOP_TYPE(res)=8
000312   3c15     movai   0x15             	MOVAI	0x15
000313   5639     movra   0x39             	MOVRA	(_auto_mode_info + 1)
000314   a34e     goto    0x34e            	GOTO	_00364_DS_
                                           _00319_DS_
                                           ;	.line	587; "MC32F7361.c"	else if (CUR_AUTO_SUBMODE_3 == auto_mode_info.cur_auto_submode)
000315   583a     movar   0x3a             	MOVAR	(_auto_mode_info + 2)
000316   5624     movra   0x24             	MOVRA	r0x1022
000317   5824     movar   0x24             	MOVAR	r0x1022
000318   3902     xorai   0x2              	XORAI	0x02
000319   e587     jbset   0x187, 0x2       	JBSET	PFLAG,2
00031a   a320     goto    0x320            	GOTO	_00316_DS_
                                           ;;gen.c:6570: size=1, offset=0, AOP_TYPE(res)=8
                                           ;	.line	589; "MC32F7361.c"	auto_mode_info.delay_time = 4560;
00031b   3cd0     movai   0xd0             	MOVAI	0xd0
00031c   5638     movra   0x38             	MOVRA	(_auto_mode_info + 0)
                                           ;;gen.c:6570: size=0, offset=1, AOP_TYPE(res)=8
00031d   3c11     movai   0x11             	MOVAI	0x11
00031e   5639     movra   0x39             	MOVRA	(_auto_mode_info + 1)
00031f   a34e     goto    0x34e            	GOTO	_00364_DS_
                                           ;;gen.c:6570: size=1, offset=0, AOP_TYPE(res)=8
                                           _00316_DS_
                                           ;	.line	594; "MC32F7361.c"	auto_mode_info.delay_time = 470;
000320   3cd6     movai   0xd6             	MOVAI	0xd6
000321   5638     movra   0x38             	MOVRA	(_auto_mode_info + 0)
                                           ;;gen.c:6570: size=0, offset=1, AOP_TYPE(res)=8
000322   3c01     movai   0x1              	MOVAI	0x01
000323   5639     movra   0x39             	MOVRA	(_auto_mode_info + 1)
000324   a34e     goto    0x34e            	GOTO	_00364_DS_
                                           _00336_DS_
                                           ;	.line	598; "MC32F7361.c"	else if (index == 81)
000325   5823     movar   0x23             	MOVAR	r0x1021
000326   3951     xorai   0x51             	XORAI	0x51
000327   e587     jbset   0x187, 0x2       	JBSET	PFLAG,2
000328   a34e     goto    0x34e            	GOTO	_00364_DS_
                                           ;	.line	607; "MC32F7361.c"	if (CUR_AUTO_SUBMODE_1 == auto_mode_info.cur_auto_submode)
000329   583a     movar   0x3a             	MOVAR	(_auto_mode_info + 2)
00032a   5623     movra   0x23             	MOVRA	r0x1021
00032b   3c00     movai   0                	MOVAI	0x00
00032c   5c23     orar    0x23             	ORAR	r0x1021
00032d   e587     jbset   0x187, 0x2       	JBSET	PFLAG,2
00032e   a334     goto    0x334            	GOTO	_00331_DS_
                                           ;;gen.c:6570: size=1, offset=0, AOP_TYPE(res)=8
                                           ;	.line	609; "MC32F7361.c"	auto_mode_info.delay_time = 3000;
00032f   3cb8     movai   0xb8             	MOVAI	0xb8
000330   5638     movra   0x38             	MOVRA	(_auto_mode_info + 0)
                                           ;;gen.c:6570: size=0, offset=1, AOP_TYPE(res)=8
000331   3c0b     movai   0xb              	MOVAI	0x0b
000332   5639     movra   0x39             	MOVRA	(_auto_mode_info + 1)
000333   a34e     goto    0x34e            	GOTO	_00364_DS_
                                           _00331_DS_
                                           ;	.line	611; "MC32F7361.c"	else if (CUR_AUTO_SUBMODE_2 == auto_mode_info.cur_auto_submode)
000334   583a     movar   0x3a             	MOVAR	(_auto_mode_info + 2)
000335   5623     movra   0x23             	MOVRA	r0x1021
000336   5823     movar   0x23             	MOVAR	r0x1021
000337   3901     xorai   0x1              	XORAI	0x01
000338   e587     jbset   0x187, 0x2       	JBSET	PFLAG,2
000339   a33f     goto    0x33f            	GOTO	_00328_DS_
                                           ;;gen.c:6570: size=1, offset=0, AOP_TYPE(res)=8
                                           ;	.line	613; "MC32F7361.c"	auto_mode_info.delay_time = 10000;
00033a   3c10     movai   0x10             	MOVAI	0x10
00033b   5638     movra   0x38             	MOVRA	(_auto_mode_info + 0)
                                           ;;gen.c:6570: size=0, offset=1, AOP_TYPE(res)=8
00033c   3c27     movai   0x27             	MOVAI	0x27
00033d   5639     movra   0x39             	MOVRA	(_auto_mode_info + 1)
00033e   a34e     goto    0x34e            	GOTO	_00364_DS_
                                           _00328_DS_
                                           ;	.line	615; "MC32F7361.c"	else if (CUR_AUTO_SUBMODE_3 == auto_mode_info.cur_auto_submode)
00033f   583a     movar   0x3a             	MOVAR	(_auto_mode_info + 2)
000340   5623     movra   0x23             	MOVRA	r0x1021
000341   5823     movar   0x23             	MOVAR	r0x1021
000342   3902     xorai   0x2              	XORAI	0x02
000343   e587     jbset   0x187, 0x2       	JBSET	PFLAG,2
000344   a34a     goto    0x34a            	GOTO	_00325_DS_
                                           ;;gen.c:6570: size=1, offset=0, AOP_TYPE(res)=8
                                           ;	.line	617; "MC32F7361.c"	auto_mode_info.delay_time = 1000;
000345   3ce8     movai   0xe8             	MOVAI	0xe8
000346   5638     movra   0x38             	MOVRA	(_auto_mode_info + 0)
                                           ;;gen.c:6570: size=0, offset=1, AOP_TYPE(res)=8
000347   3c03     movai   0x3              	MOVAI	0x03
000348   5639     movra   0x39             	MOVRA	(_auto_mode_info + 1)
000349   a34e     goto    0x34e            	GOTO	_00364_DS_
                                           ;;gen.c:6570: size=1, offset=0, AOP_TYPE(res)=8
                                           _00325_DS_
                                           ;	.line	622; "MC32F7361.c"	auto_mode_info.delay_time = 5000;
00034a   3c88     movai   0x88             	MOVAI	0x88
00034b   5638     movra   0x38             	MOVRA	(_auto_mode_info + 0)
                                           ;;gen.c:6570: size=0, offset=1, AOP_TYPE(res)=8
00034c   3c13     movai   0x13             	MOVAI	0x13
00034d   5639     movra   0x39             	MOVRA	(_auto_mode_info + 1)
                                           ;;gen.c:6570: size=0, offset=0, AOP_TYPE(res)=8
                                           _00364_DS_
                                           ;	.line	627; "MC32F7361.c"	auto_mode_info.cur_submode_status = CUR_SUBMODE_STATUS_STANDBY;
00034e   3c03     movai   0x3              	MOVAI	0x03
00034f   563c     movra   0x3c             	MOVRA	(_auto_mode_info + 4)
                                           _00366_DS_
                                           ;	.line	633; "MC32F7361.c"	if (CUR_SUBMODE_STATUS_READY_TO_SEND == auto_mode_info.cur_submode_status)
000350   583c     movar   0x3c             	MOVAR	(_auto_mode_info + 4)
000351   5623     movra   0x23             	MOVRA	r0x1021
000352   5823     movar   0x23             	MOVAR	r0x1021
000353   3901     xorai   0x1              	XORAI	0x01
000354   e587     jbset   0x187, 0x2       	JBSET	PFLAG,2
000355   a0e8     goto    0xe8             	GOTO	_00426_DS_
                                           ;	.line	635; "MC32F7361.c"	u16 tmp = ((u16)table_auto_in_submode[auto_mode_info.cur_submode_index][0] << 8) | table_auto_in_submode[auto_mode_info.cur_submode_index][1];
000356   583b     movar   0x3b             	MOVAR	(_auto_mode_info + 3)
000357   5623     movra   0x23             	MOVRA	r0x1021
000358   d187     bclr    0x187, 0         	BCLR	PFLAG,0
000359   5023     rlar    0x23             	RLAR	r0x1021
00035a   5624     movra   0x24             	MOVRA	r0x1022
00035b   5824     movar   0x24             	MOVAR	r0x1022
00035c   3f74     addai   0x74             	ADDAI	(_table_auto_in_submode + 0)
00035d   5623     movra   0x23             	MOVRA	r0x1021
00035e   3c05     movai   0x5              	MOVAI	high (_table_auto_in_submode + 0)
00035f   f187     jbclr   0x187, 0         	JBCLR	PFLAG,0
000360   3f01     addai   0x1              	ADDAI	0x01
000361   5625     movra   0x25             	MOVRA	r0x1023
000362   5823     movar   0x23             	MOVAR	r0x1021
000363   5605     movra   0x5              	MOVRA	STK01
000364   5825     movar   0x25             	MOVAR	r0x1023
000365   5606     movra   0x6              	MOVRA	STK00
000366   3c80     movai   0x80             	MOVAI	0x80
000367   866d     call    0x66d            	CALL	__gptrget1
000368   5626     movra   0x26             	MOVRA	r0x1024
000369   5623     movra   0x23             	MOVRA	r0x1021
00036a   5624     movra   0x24             	MOVRA	r0x1022
                                           ;;104	MOVAR	r0x1022
00036b   7625     clrr    0x25             	CLRR	r0x1023
                                           ;;109	MOVAR	r0x1021
00036c   7624     clrr    0x24             	CLRR	r0x1022
00036d   583b     movar   0x3b             	MOVAR	(_auto_mode_info + 3)
00036e   5623     movra   0x23             	MOVRA	r0x1021
00036f   d187     bclr    0x187, 0         	BCLR	PFLAG,0
000370   5023     rlar    0x23             	RLAR	r0x1021
000371   5625     movra   0x25             	MOVRA	r0x1023
000372   5825     movar   0x25             	MOVAR	r0x1023
000373   3f74     addai   0x74             	ADDAI	(_table_auto_in_submode + 0)
000374   5623     movra   0x23             	MOVRA	r0x1021
000375   3c05     movai   0x5              	MOVAI	high (_table_auto_in_submode + 0)
000376   f187     jbclr   0x187, 0         	JBCLR	PFLAG,0
000377   3f01     addai   0x1              	ADDAI	0x01
000378   5627     movra   0x27             	MOVRA	r0x1025
000379   6623     incr    0x23             	INCR	r0x1021
00037a   f587     jbclr   0x187, 0x2       	JBCLR	PFLAG,2
00037b   6627     incr    0x27             	INCR	r0x1025
00037c   5823     movar   0x23             	MOVAR	r0x1021
00037d   5605     movra   0x5              	MOVRA	STK01
00037e   5827     movar   0x27             	MOVAR	r0x1025
00037f   5606     movra   0x6              	MOVRA	STK00
000380   3c80     movai   0x80             	MOVAI	0x80
000381   866d     call    0x66d            	CALL	__gptrget1
000382   5625     movra   0x25             	MOVRA	r0x1023
                                           ;;103	MOVAR	r0x1023
000383   7627     clrr    0x27             	CLRR	r0x1025
                                           ;;102	MOVAR	r0x1021
000384   5825     movar   0x25             	MOVAR	r0x1023
000385   5623     movra   0x23             	MOVRA	r0x1021
000386   5c24     orar    0x24             	ORAR	r0x1022
000387   5623     movra   0x23             	MOVRA	r0x1021
000388   3c00     movai   0                	MOVAI	0x00
000389   5c26     orar    0x26             	ORAR	r0x1024
00038a   5624     movra   0x24             	MOVRA	r0x1022
                                           ;	.line	638; "MC32F7361.c"	if (auto_mode_info.cur_submode_index <= 8)
00038b   583b     movar   0x3b             	MOVAR	(_auto_mode_info + 3)
00038c   5625     movra   0x25             	MOVRA	r0x1023
                                           ;;swapping arguments (AOP_TYPEs 1/2)
                                           ;;unsigned compare: left >= lit(0x9=9), size=1
00038d   3c09     movai   0x9              	MOVAI	0x09
00038e   4825     rsubar  0x25             	RSUBAR	r0x1023
00038f   f187     jbclr   0x187, 0         	JBCLR	PFLAG,0
000390   a3af     goto    0x3af            	GOTO	_00417_DS_
                                           ;;genSkipc:3291: created from rifx:013B5EFC
                                           ;	.line	640; "MC32F7361.c"	if (CUR_AUTO_SUBMODE_1 == auto_mode_info.cur_auto_submode)
000391   583a     movar   0x3a             	MOVAR	(_auto_mode_info + 2)
000392   5625     movra   0x25             	MOVRA	r0x1023
000393   3c00     movai   0                	MOVAI	0x00
000394   5c25     orar    0x25             	ORAR	r0x1023
000395   e587     jbset   0x187, 0x2       	JBSET	PFLAG,2
000396   a39a     goto    0x39a            	GOTO	_00374_DS_
                                           ;	.line	642; "MC32F7361.c"	tmp |= (0x0C << 8);
000397   3c0c     movai   0xc              	MOVAI	0x0c
000398   5e24     orra    0x24             	ORRA	r0x1022
000399   a436     goto    0x436            	GOTO	_00418_DS_
                                           _00374_DS_
                                           ;	.line	644; "MC32F7361.c"	else if (CUR_AUTO_SUBMODE_2 == auto_mode_info.cur_auto_submode)
00039a   583a     movar   0x3a             	MOVAR	(_auto_mode_info + 2)
00039b   5625     movra   0x25             	MOVRA	r0x1023
00039c   5825     movar   0x25             	MOVAR	r0x1023
00039d   3901     xorai   0x1              	XORAI	0x01
00039e   e587     jbset   0x187, 0x2       	JBSET	PFLAG,2
00039f   a3a3     goto    0x3a3            	GOTO	_00371_DS_
                                           ;	.line	646; "MC32F7361.c"	tmp |= (0x0F << 8);
0003a0   3c0f     movai   0xf              	MOVAI	0x0f
0003a1   5e24     orra    0x24             	ORRA	r0x1022
0003a2   a436     goto    0x436            	GOTO	_00418_DS_
                                           _00371_DS_
                                           ;	.line	648; "MC32F7361.c"	else if (CUR_AUTO_SUBMODE_3 == auto_mode_info.cur_auto_submode)
0003a3   583a     movar   0x3a             	MOVAR	(_auto_mode_info + 2)
0003a4   5625     movra   0x25             	MOVRA	r0x1023
0003a5   5825     movar   0x25             	MOVAR	r0x1023
0003a6   3902     xorai   0x2              	XORAI	0x02
0003a7   e587     jbset   0x187, 0x2       	JBSET	PFLAG,2
0003a8   a3ac     goto    0x3ac            	GOTO	_00368_DS_
                                           ;	.line	650; "MC32F7361.c"	tmp |= (0x0E << 8);
0003a9   3c0e     movai   0xe              	MOVAI	0x0e
0003aa   5e24     orra    0x24             	ORRA	r0x1022
0003ab   a436     goto    0x436            	GOTO	_00418_DS_
                                           _00368_DS_
                                           ;	.line	655; "MC32F7361.c"	tmp |= (0x0D << 8);
0003ac   3c0d     movai   0xd              	MOVAI	0x0d
0003ad   5e24     orra    0x24             	ORRA	r0x1022
0003ae   a436     goto    0x436            	GOTO	_00418_DS_
                                           _00417_DS_
                                           ;	.line	658; "MC32F7361.c"	else if ((auto_mode_info.cur_submode_index >= 21 && auto_mode_info.cur_submode_index <= 26) ||
0003af   583b     movar   0x3b             	MOVAR	(_auto_mode_info + 3)
0003b0   5625     movra   0x25             	MOVRA	r0x1023
                                           ;;unsigned compare: left < lit(0x15=21), size=1
0003b1   3c15     movai   0x15             	MOVAI	0x15
0003b2   4825     rsubar  0x25             	RSUBAR	r0x1023
0003b3   e187     jbset   0x187, 0         	JBSET	PFLAG,0
0003b4   a3bb     goto    0x3bb            	GOTO	_00413_DS_
                                           ;;genSkipc:3291: created from rifx:013B5EFC
0003b5   583b     movar   0x3b             	MOVAR	(_auto_mode_info + 3)
0003b6   5625     movra   0x25             	MOVRA	r0x1023
                                           ;;swapping arguments (AOP_TYPEs 1/2)
                                           ;;unsigned compare: left >= lit(0x1B=27), size=1
0003b7   3c1b     movai   0x1b             	MOVAI	0x1b
0003b8   4825     rsubar  0x25             	RSUBAR	r0x1023
0003b9   e187     jbset   0x187, 0         	JBSET	PFLAG,0
0003ba   a3d3     goto    0x3d3            	GOTO	_00408_DS_
                                           ;;genSkipc:3291: created from rifx:013B5EFC
                                           _00413_DS_
                                           ;	.line	659; "MC32F7361.c"	(auto_mode_info.cur_submode_index >= 28 && auto_mode_info.cur_submode_index <= 30) ||
0003bb   583b     movar   0x3b             	MOVAR	(_auto_mode_info + 3)
0003bc   5625     movra   0x25             	MOVRA	r0x1023
                                           ;;unsigned compare: left < lit(0x1C=28), size=1
0003bd   3c1c     movai   0x1c             	MOVAI	0x1c
0003be   4825     rsubar  0x25             	RSUBAR	r0x1023
0003bf   e187     jbset   0x187, 0         	JBSET	PFLAG,0
0003c0   a3c7     goto    0x3c7            	GOTO	_00415_DS_
                                           ;;genSkipc:3291: created from rifx:013B5EFC
0003c1   583b     movar   0x3b             	MOVAR	(_auto_mode_info + 3)
0003c2   5625     movra   0x25             	MOVRA	r0x1023
                                           ;;swapping arguments (AOP_TYPEs 1/2)
                                           ;;unsigned compare: left >= lit(0x1F=31), size=1
0003c3   3c1f     movai   0x1f             	MOVAI	0x1f
0003c4   4825     rsubar  0x25             	RSUBAR	r0x1023
0003c5   e187     jbset   0x187, 0         	JBSET	PFLAG,0
0003c6   a3d3     goto    0x3d3            	GOTO	_00408_DS_
                                           ;;genSkipc:3291: created from rifx:013B5EFC
                                           _00415_DS_
                                           ;	.line	660; "MC32F7361.c"	(auto_mode_info.cur_submode_index >= 63 && auto_mode_info.cur_submode_index <= 72))
0003c7   583b     movar   0x3b             	MOVAR	(_auto_mode_info + 3)
0003c8   5625     movra   0x25             	MOVRA	r0x1023
                                           ;;unsigned compare: left < lit(0x3F=63), size=1
0003c9   3c3f     movai   0x3f             	MOVAI	0x3f
0003ca   4825     rsubar  0x25             	RSUBAR	r0x1023
0003cb   e187     jbset   0x187, 0         	JBSET	PFLAG,0
0003cc   a3f0     goto    0x3f0            	GOTO	_00409_DS_
                                           ;;genSkipc:3291: created from rifx:013B5EFC
0003cd   583b     movar   0x3b             	MOVAR	(_auto_mode_info + 3)
0003ce   5625     movra   0x25             	MOVRA	r0x1023
                                           ;;swapping arguments (AOP_TYPEs 1/2)
                                           ;;unsigned compare: left >= lit(0x49=73), size=1
0003cf   3c49     movai   0x49             	MOVAI	0x49
0003d0   4825     rsubar  0x25             	RSUBAR	r0x1023
0003d1   f187     jbclr   0x187, 0         	JBCLR	PFLAG,0
0003d2   a3f0     goto    0x3f0            	GOTO	_00409_DS_
                                           ;;genSkipc:3291: created from rifx:013B5EFC
                                           _00408_DS_
                                           ;	.line	662; "MC32F7361.c"	if (CUR_AUTO_SUBMODE_1 == auto_mode_info.cur_auto_submode)
0003d3   583a     movar   0x3a             	MOVAR	(_auto_mode_info + 2)
0003d4   5625     movra   0x25             	MOVRA	r0x1023
0003d5   3c00     movai   0                	MOVAI	0x00
0003d6   5c25     orar    0x25             	ORAR	r0x1023
0003d7   e587     jbset   0x187, 0x2       	JBSET	PFLAG,2
0003d8   a3dc     goto    0x3dc            	GOTO	_00383_DS_
                                           ;	.line	664; "MC32F7361.c"	tmp |= (0x0A << 8);
0003d9   3c0a     movai   0xa              	MOVAI	0x0a
0003da   5e24     orra    0x24             	ORRA	r0x1022
0003db   a436     goto    0x436            	GOTO	_00418_DS_
                                           _00383_DS_
                                           ;	.line	666; "MC32F7361.c"	else if (CUR_AUTO_SUBMODE_2 == auto_mode_info.cur_auto_submode)
0003dc   583a     movar   0x3a             	MOVAR	(_auto_mode_info + 2)
0003dd   5625     movra   0x25             	MOVRA	r0x1023
0003de   5825     movar   0x25             	MOVAR	r0x1023
0003df   3901     xorai   0x1              	XORAI	0x01
0003e0   e587     jbset   0x187, 0x2       	JBSET	PFLAG,2
0003e1   a3e5     goto    0x3e5            	GOTO	_00380_DS_
                                           ;	.line	668; "MC32F7361.c"	tmp |= (0x09 << 8);
0003e2   3c09     movai   0x9              	MOVAI	0x09
0003e3   5e24     orra    0x24             	ORRA	r0x1022
0003e4   a436     goto    0x436            	GOTO	_00418_DS_
                                           _00380_DS_
                                           ;	.line	670; "MC32F7361.c"	else if (CUR_AUTO_SUBMODE_3 == auto_mode_info.cur_auto_submode)
0003e5   583a     movar   0x3a             	MOVAR	(_auto_mode_info + 2)
0003e6   5625     movra   0x25             	MOVRA	r0x1023
0003e7   5825     movar   0x25             	MOVAR	r0x1023
0003e8   3902     xorai   0x2              	XORAI	0x02
0003e9   e587     jbset   0x187, 0x2       	JBSET	PFLAG,2
0003ea   a3ee     goto    0x3ee            	GOTO	_00377_DS_
                                           ;	.line	672; "MC32F7361.c"	tmp |= (0x0B << 8);
0003eb   3c0b     movai   0xb              	MOVAI	0x0b
0003ec   5e24     orra    0x24             	ORRA	r0x1022
0003ed   a436     goto    0x436            	GOTO	_00418_DS_
                                           _00377_DS_
                                           ;	.line	677; "MC32F7361.c"	tmp |= (0x08 << 8);
0003ee   c624     bset    0x24, 0x3        	BSET	r0x1022,3
0003ef   a436     goto    0x436            	GOTO	_00418_DS_
                                           _00409_DS_
                                           ;	.line	680; "MC32F7361.c"	else if (auto_mode_info.cur_submode_index >= 74 && auto_mode_info.cur_submode_index <= 79)
0003f0   583b     movar   0x3b             	MOVAR	(_auto_mode_info + 3)
0003f1   5625     movra   0x25             	MOVRA	r0x1023
                                           ;;unsigned compare: left < lit(0x4A=74), size=1
0003f2   3c4a     movai   0x4a             	MOVAI	0x4a
0003f3   4825     rsubar  0x25             	RSUBAR	r0x1023
0003f4   e187     jbset   0x187, 0         	JBSET	PFLAG,0
0003f5   a416     goto    0x416            	GOTO	_00405_DS_
                                           ;;genSkipc:3291: created from rifx:013B5EFC
0003f6   583b     movar   0x3b             	MOVAR	(_auto_mode_info + 3)
0003f7   5625     movra   0x25             	MOVRA	r0x1023
                                           ;;swapping arguments (AOP_TYPEs 1/2)
                                           ;;unsigned compare: left >= lit(0x50=80), size=1
0003f8   3c50     movai   0x50             	MOVAI	0x50
0003f9   4825     rsubar  0x25             	RSUBAR	r0x1023
0003fa   f187     jbclr   0x187, 0         	JBCLR	PFLAG,0
0003fb   a416     goto    0x416            	GOTO	_00405_DS_
                                           ;;genSkipc:3291: created from rifx:013B5EFC
                                           ;	.line	682; "MC32F7361.c"	if (CUR_AUTO_SUBMODE_1 == auto_mode_info.cur_auto_submode)
0003fc   583a     movar   0x3a             	MOVAR	(_auto_mode_info + 2)
0003fd   5625     movra   0x25             	MOVRA	r0x1023
0003fe   3c00     movai   0                	MOVAI	0x00
0003ff   5c25     orar    0x25             	ORAR	r0x1023
000400   e587     jbset   0x187, 0x2       	JBSET	PFLAG,2
000401   a404     goto    0x404            	GOTO	_00391_DS_
                                           ;	.line	684; "MC32F7361.c"	tmp |= (0x04 << 8);
000402   c424     bset    0x24, 0x2        	BSET	r0x1022,2
000403   a436     goto    0x436            	GOTO	_00418_DS_
                                           _00391_DS_
                                           ;	.line	686; "MC32F7361.c"	else if (CUR_AUTO_SUBMODE_2 == auto_mode_info.cur_auto_submode)
000404   583a     movar   0x3a             	MOVAR	(_auto_mode_info + 2)
000405   5625     movra   0x25             	MOVRA	r0x1023
000406   5825     movar   0x25             	MOVAR	r0x1023
000407   3901     xorai   0x1              	XORAI	0x01
000408   e587     jbset   0x187, 0x2       	JBSET	PFLAG,2
000409   a40d     goto    0x40d            	GOTO	_00388_DS_
                                           ;	.line	688; "MC32F7361.c"	tmp |= (0x07 << 8);
00040a   3c07     movai   0x7              	MOVAI	0x07
00040b   5e24     orra    0x24             	ORRA	r0x1022
00040c   a436     goto    0x436            	GOTO	_00418_DS_
                                           _00388_DS_
                                           ;	.line	690; "MC32F7361.c"	else if (CUR_AUTO_SUBMODE_3 == auto_mode_info.cur_auto_submode)
00040d   583a     movar   0x3a             	MOVAR	(_auto_mode_info + 2)
00040e   5625     movra   0x25             	MOVRA	r0x1023
00040f   5825     movar   0x25             	MOVAR	r0x1023
000410   3902     xorai   0x2              	XORAI	0x02
000411   e587     jbset   0x187, 0x2       	JBSET	PFLAG,2
000412   a436     goto    0x436            	GOTO	_00418_DS_
                                           ;	.line	692; "MC32F7361.c"	tmp |= (0x06 << 8);
000413   3c06     movai   0x6              	MOVAI	0x06
000414   5e24     orra    0x24             	ORRA	r0x1022
000415   a436     goto    0x436            	GOTO	_00418_DS_
                                           _00405_DS_
                                           ;	.line	700; "MC32F7361.c"	else if (auto_mode_info.cur_submode_index == 81)
000416   583b     movar   0x3b             	MOVAR	(_auto_mode_info + 3)
000417   5625     movra   0x25             	MOVRA	r0x1023
000418   5825     movar   0x25             	MOVAR	r0x1023
000419   3951     xorai   0x51             	XORAI	0x51
00041a   e587     jbset   0x187, 0x2       	JBSET	PFLAG,2
00041b   a436     goto    0x436            	GOTO	_00418_DS_
                                           ;	.line	702; "MC32F7361.c"	if (CUR_AUTO_SUBMODE_1 == auto_mode_info.cur_auto_submode)
00041c   583a     movar   0x3a             	MOVAR	(_auto_mode_info + 2)
00041d   5625     movra   0x25             	MOVRA	r0x1023
00041e   3c00     movai   0                	MOVAI	0x00
00041f   5c25     orar    0x25             	ORAR	r0x1023
000420   e587     jbset   0x187, 0x2       	JBSET	PFLAG,2
000421   a425     goto    0x425            	GOTO	_00400_DS_
                                           ;	.line	704; "MC32F7361.c"	tmp |= (0x0C << 8);
000422   3c0c     movai   0xc              	MOVAI	0x0c
000423   5e24     orra    0x24             	ORRA	r0x1022
000424   a436     goto    0x436            	GOTO	_00418_DS_
                                           _00400_DS_
                                           ;	.line	706; "MC32F7361.c"	else if (CUR_AUTO_SUBMODE_2 == auto_mode_info.cur_auto_submode)
000425   583a     movar   0x3a             	MOVAR	(_auto_mode_info + 2)
000426   5625     movra   0x25             	MOVRA	r0x1023
000427   5825     movar   0x25             	MOVAR	r0x1023
000428   3901     xorai   0x1              	XORAI	0x01
000429   e587     jbset   0x187, 0x2       	JBSET	PFLAG,2
00042a   a42e     goto    0x42e            	GOTO	_00397_DS_
                                           ;	.line	708; "MC32F7361.c"	tmp |= (0x0F << 8);
00042b   3c0f     movai   0xf              	MOVAI	0x0f
00042c   5e24     orra    0x24             	ORRA	r0x1022
00042d   a436     goto    0x436            	GOTO	_00418_DS_
                                           _00397_DS_
                                           ;	.line	710; "MC32F7361.c"	else if (CUR_AUTO_SUBMODE_3 == auto_mode_info.cur_auto_submode)
00042e   583a     movar   0x3a             	MOVAR	(_auto_mode_info + 2)
00042f   5625     movra   0x25             	MOVRA	r0x1023
000430   5825     movar   0x25             	MOVAR	r0x1023
000431   3902     xorai   0x2              	XORAI	0x02
000432   e587     jbset   0x187, 0x2       	JBSET	PFLAG,2
000433   a435     goto    0x435            	GOTO	_00821_DS_
000434   a436     goto    0x436            	GOTO	_00418_DS_
                                           _00821_DS_
                                           ;	.line	717; "MC32F7361.c"	tmp |= (0x08  << 8);
000435   c624     bset    0x24, 0x3        	BSET	r0x1022,3
                                           _00418_DS_
                                           ;	.line	722; "MC32F7361.c"	send_cmd_16bit_without_delay(tmp);
000436   5823     movar   0x23             	MOVAR	r0x1021
000437   5606     movra   0x6              	MOVRA	STK00
000438   5824     movar   0x24             	MOVAR	r0x1022
000439   8481     call    0x481            	CALL	_send_cmd_16bit_without_delay
                                           ;	.line	724; "MC32F7361.c"	auto_mode_info.cur_submode_index++;
00043a   583b     movar   0x3b             	MOVAR	(_auto_mode_info + 3)
00043b   5623     movra   0x23             	MOVRA	r0x1021
00043c   6623     incr    0x23             	INCR	r0x1021
                                           ;;gen.c:6570: size=0, offset=0, AOP_TYPE(res)=8
00043d   5823     movar   0x23             	MOVAR	r0x1021
00043e   563b     movra   0x3b             	MOVRA	(_auto_mode_info + 3)
                                           ;	.line	725; "MC32F7361.c"	if (auto_mode_info.cur_submode_index >= ARRAY_SIZE(table_auto_in_submode))
00043f   583b     movar   0x3b             	MOVAR	(_auto_mode_info + 3)
000440   5623     movra   0x23             	MOVRA	r0x1021
                                           ;;unsigned compare: left < lit(0x52=82), size=1
000441   3c52     movai   0x52             	MOVAI	0x52
000442   4823     rsubar  0x23             	RSUBAR	r0x1021
000443   e187     jbset   0x187, 0         	JBSET	PFLAG,0
000444   a446     goto    0x446            	GOTO	_00420_DS_
                                           ;;genSkipc:3291: created from rifx:013B5EFC
                                           ;;gen.c:6570: size=0, offset=0, AOP_TYPE(res)=8
                                           ;	.line	728; "MC32F7361.c"	auto_mode_info.cur_submode_index = 0;
000445   763b     clrr    0x3b             	CLRR	(_auto_mode_info + 3)
                                           ;;gen.c:6570: size=0, offset=0, AOP_TYPE(res)=8
                                           _00420_DS_
                                           ;	.line	732; "MC32F7361.c"	auto_mode_info.cur_submode_status = CUR_SUBMODE_STATUS_PREPARE_TO_SET_DELAY_TIME;
000446   3c02     movai   0x2              	MOVAI	0x02
000447   563c     movra   0x3c             	MOVRA	(_auto_mode_info + 4)
000448   a0e8     goto    0xe8             	GOTO	_00426_DS_
                                           ;	.line	740; "MC32F7361.c"	}
000449   000c     return                   	RETURN	
                                           ; exit point of _main
                                           
                                           ;***
                                           ;  pBlock Stats: dbName = C
                                           ;***
                                           ;entry:  _Sys_Init	;Function start
                                           ; 2 exit points
                                           ;has an exit
                                           ;functions called:
                                           ;   _CLR_RAM
                                           ;   _IO_Init
                                           ;   _TIMER2_INT_Init
                                           ;   _TIMER3_INT_Init
                                           ;   _CLR_RAM
                                           ;   _IO_Init
                                           ;   _TIMER2_INT_Init
                                           ;   _TIMER3_INT_Init
                                           ;; Starting pCode block
                                           _Sys_Init	;Function start
                                           ; 2 exit points
                                           ;	.line	243; "MC32F7361.c"	GIE = 0;
00044a   df88     bclr    0x188, 0x7       	BCLR	_MCRbits,7
                                           ;	.line	244; "MC32F7361.c"	CLR_RAM();
00044b   8475     call    0x475            	CALL	_CLR_RAM
                                           ;	.line	245; "MC32F7361.c"	IO_Init();
00044c   8460     call    0x460            	CALL	_IO_Init
                                           ;	.line	248; "MC32F7361.c"	TIMER2_INT_Init();
00044d   8457     call    0x457            	CALL	_TIMER2_INT_Init
                                           ;	.line	249; "MC32F7361.c"	TIMER3_INT_Init();
00044e   8451     call    0x451            	CALL	_TIMER3_INT_Init
                                           ;	.line	250; "MC32F7361.c"	GIE = 1;
00044f   cf88     bset    0x188, 0x7       	BSET	_MCRbits,7
                                           ;	.line	251; "MC32F7361.c"	}
000450   000c     return                   	RETURN	
                                           ; exit point of _Sys_Init
                                           
                                           ;***
                                           ;  pBlock Stats: dbName = C
                                           ;***
                                           ;entry:  _TIMER3_INT_Init	;Function start
                                           ; 2 exit points
                                           ;has an exit
                                           ;; Starting pCode block
                                           _TIMER3_INT_Init	;Function start
                                           ; 2 exit points
                                           ;	.line	231; "MC32F7361.c"	T3LOAD = 135 - 1;                               // 1ms
000451   3c86     movai   0x86             	MOVAI	0x86
000452   57a6     movra   0x1a6            	MOVRA	_T3LOAD
                                           ;	.line	232; "MC32F7361.c"	T3CR = (0x01 << 7) | (0x01 << 2) | (0x01 << 1); // FCPU64
000453   3c86     movai   0x86             	MOVAI	0x86
000454   57a4     movra   0x1a4            	MOVRA	_T3CR
                                           ;	.line	233; "MC32F7361.c"	T3IE = 1;
000455   cf8a     bset    0x18a, 0x7       	BSET	_INTEbits,7
                                           ;	.line	234; "MC32F7361.c"	}
000456   000c     return                   	RETURN	
                                           ; exit point of _TIMER3_INT_Init
                                           
                                           ;***
                                           ;  pBlock Stats: dbName = C
                                           ;***
                                           ;entry:  _TIMER2_INT_Init	;Function start
                                           ; 2 exit points
                                           ;has an exit
                                           ;; Starting pCode block
                                           _TIMER2_INT_Init	;Function start
                                           ; 2 exit points
                                           ;	.line	222; "MC32F7361.c"	T2CR = DEF_SET_BIT0 | DEF_SET_BIT1; // CPU,8
000457   3c03     movai   0x3              	MOVAI	0x03
000458   57a0     movra   0x1a0            	MOVRA	_T2CR
                                           ;	.line	223; "MC32F7361.c"	T2CNT = 100 - 1;
000459   3c63     movai   0x63             	MOVAI	0x63
00045a   57a1     movra   0x1a1            	MOVRA	_T2CNT
                                           ;	.line	224; "MC32F7361.c"	T2LOAD = 100 - 1; // 100us
00045b   3c63     movai   0x63             	MOVAI	0x63
00045c   57a2     movra   0x1a2            	MOVRA	_T2LOAD
                                           ;	.line	225; "MC32F7361.c"	T2EN = 1;
00045d   cfa0     bset    0x1a0, 0x7       	BSET	_T2CRbits,7
                                           ;	.line	226; "MC32F7361.c"	T2IE = 1;
00045e   cb8a     bset    0x18a, 0x5       	BSET	_INTEbits,5
                                           ;	.line	227; "MC32F7361.c"	}
00045f   000c     return                   	RETURN	
                                           ; exit point of _TIMER2_INT_Init
                                           
                                           ;***
                                           ;  pBlock Stats: dbName = C
                                           ;***
                                           ;entry:  _IO_Init	;Function start
                                           ; 2 exit points
                                           ;has an exit
                                           ;; Starting pCode block
                                           _IO_Init	;Function start
                                           ; 2 exit points
                                           ;	.line	193; "MC32F7361.c"	IOP0 = 0x00;   // io
000460   7790     clrr    0x190            	CLRR	_IOP0
                                           ;	.line	194; "MC32F7361.c"	OEP0 = 0x3F;   // io 1:out  0:in
000461   3c3f     movai   0x3f             	MOVAI	0x3f
000462   5791     movra   0x191            	MOVRA	_OEP0
                                           ;	.line	195; "MC32F7361.c"	PUP0 = 0x00;   // io   1:enable  0:disable
000463   7792     clrr    0x192            	CLRR	_PUP0
                                           ;	.line	196; "MC32F7361.c"	PDP0 = 0x00;   // io   1:enable  0:disable
000464   7793     clrr    0x193            	CLRR	_PDP0
                                           ;	.line	197; "MC32F7361.c"	P0ADCR = 0x00; // io  1:  0:io
000465   77b6     clrr    0x1b6            	CLRR	_P0ADCR
                                           ;	.line	199; "MC32F7361.c"	IOP1 = 0x00;   // io
000466   7794     clrr    0x194            	CLRR	_IOP1
                                           ;	.line	200; "MC32F7361.c"	OEP1 = 0xFF;   // io 1:out  0:in
000467   3cff     movai   0xff             	MOVAI	0xff
000468   5795     movra   0x195            	MOVRA	_OEP1
                                           ;	.line	201; "MC32F7361.c"	PUP1 = 0x00;   // io   1:enable  0:disable
000469   7796     clrr    0x196            	CLRR	_PUP1
                                           ;	.line	202; "MC32F7361.c"	PDP1 = 0x00;   // io   1:enable  0:disable
00046a   7797     clrr    0x197            	CLRR	_PDP1
                                           ;	.line	203; "MC32F7361.c"	P1ADCR = 0x00; // io  1:  0:io
00046b   77b7     clrr    0x1b7            	CLRR	_P1ADCR
                                           ;	.line	205; "MC32F7361.c"	IOP2 = 0x00; // io
00046c   77b8     clrr    0x1b8            	CLRR	_IOP2
                                           ;	.line	206; "MC32F7361.c"	OEP2 = 0x0F; // io 1:out  0:in
00046d   3c0f     movai   0xf              	MOVAI	0x0f
00046e   57b9     movra   0x1b9            	MOVRA	_OEP2
                                           ;	.line	207; "MC32F7361.c"	PUP2 = 0x00; // io   1:enable  0:disable
00046f   77ba     clrr    0x1ba            	CLRR	_PUP2
                                           ;	.line	208; "MC32F7361.c"	PDP2 = 0x00; // io   1:enable  0:disablea
000470   77bb     clrr    0x1bb            	CLRR	_PDP2
                                           ;	.line	210; "MC32F7361.c"	PMOD = 0x00;  // P00P01P13 io
000471   77bc     clrr    0x1bc            	CLRR	_PMOD
                                           ;	.line	211; "MC32F7361.c"	DRVCR = 0x80; // 
000472   3c80     movai   0x80             	MOVAI	0x80
000473   578c     movra   0x18c            	MOVRA	_DRVCR
                                           ;	.line	212; "MC32F7361.c"	}
000474   000c     return                   	RETURN	
                                           ; exit point of _IO_Init
                                           
                                           ;***
                                           ;  pBlock Stats: dbName = C
                                           ;***
                                           ;entry:  _CLR_RAM	;Function start
                                           ; 2 exit points
                                           ;has an exit
                                           ;; Starting pCode block
                                           _CLR_RAM	;Function start
                                           ; 2 exit points
                                           ;	.line	178; "MC32F7361.c"	for (FSR0 = 0; FSR0 < 0xff; FSR0++)
000475   7784     clrr    0x184            	CLRR	_FSR0
                                           ;;unsigned compare: left < lit(0xFF=255), size=1
                                           _00226_DS_
000476   3cff     movai   0xff             	MOVAI	0xff
000477   4984     rsubar  0x184            	RSUBAR	_FSR0
000478   f187     jbclr   0x187, 0         	JBCLR	PFLAG,0
000479   a47d     goto    0x47d            	GOTO	_00224_DS_
                                           ;;genSkipc:3291: created from rifx:013B5EFC
                                           ;	.line	180; "MC32F7361.c"	INDF0 = 0x00;
00047a   7780     clrr    0x180            	CLRR	_INDF0
                                           ;	.line	178; "MC32F7361.c"	for (FSR0 = 0; FSR0 < 0xff; FSR0++)
00047b   6784     incr    0x184            	INCR	_FSR0
00047c   a476     goto    0x476            	GOTO	_00226_DS_
                                           _00224_DS_
                                           ;	.line	182; "MC32F7361.c"	FSR0 = 0xFF;
00047d   3cff     movai   0xff             	MOVAI	0xff
00047e   5784     movra   0x184            	MOVRA	_FSR0
                                           ;	.line	183; "MC32F7361.c"	INDF0 = 0x00;
00047f   7780     clrr    0x180            	CLRR	_INDF0
                                           ;	.line	184; "MC32F7361.c"	}
000480   000c     return                   	RETURN	
                                           ; exit point of _CLR_RAM
                                           
                                           ;***
                                           ;  pBlock Stats: dbName = C
                                           ;***
                                           ;entry:  _send_cmd_16bit_without_delay	;Function start
                                           ; 2 exit points
                                           ;has an exit
                                           ;functions called:
                                           ;   _delay_100us
                                           ;   _delay_ms
                                           ;   _delay_1_4ms
                                           ;   _delay_100us
                                           ;   _delay_100us
                                           ;   _delay_ms
                                           ;   _delay_1_4ms
                                           ;   _delay_100us
                                           ;7 compiler assigned registers:
                                           ;   r0x101B
                                           ;   STK00
                                           ;   r0x101C
                                           ;   r0x101D
                                           ;   r0x101E
                                           ;   r0x101F
                                           ;   r0x1020
                                           ;; Starting pCode block
                                           _send_cmd_16bit_without_delay	;Function start
                                           ; 2 exit points
                                           ;	.line	140; "MC32F7361.c"	void send_cmd_16bit_without_delay(const u16 data)
000481   561e     movra   0x1e             	MOVRA	r0x101B
000482   5806     movar   0x6              	MOVAR	STK00
000483   561d     movra   0x1d             	MOVRA	r0x101C
                                           ;	.line	143; "MC32F7361.c"	if (0 == flag_is_dev_open)
000484   f247     jbclr   0x47, 0x1        	JBCLR	_flag1,1
000485   a487     goto    0x487            	GOTO	_00203_DS_
                                           ;	.line	145; "MC32F7361.c"	return;
000486   a4ab     goto    0x4ab            	GOTO	_00199_DS_
                                           _00203_DS_
                                           ;	.line	149; "MC32F7361.c"	for (i = 0; i < 16; i++)
000487   761f     clrr    0x1f             	CLRR	r0x101D
                                           _00197_DS_
                                           ;	.line	151; "MC32F7361.c"	LED_CTL_PIN = 0;
000488   d5b8     bclr    0x1b8, 0x2       	BCLR	_IOP2bits,2
                                           ;	.line	152; "MC32F7361.c"	delay_100us();
000489   8548     call    0x548            	CALL	_delay_100us
                                           ;	.line	153; "MC32F7361.c"	LED_CTL_PIN = 1;
00048a   c5b8     bset    0x1b8, 0x2       	BSET	_IOP2bits,2
                                           ;	.line	154; "MC32F7361.c"	if ((data >> (15 - i)) & 0x01) // 1
00048b   581f     movar   0x1f             	MOVAR	r0x101D
00048c   3a0f     isubai  0xf              	ISUBAI	0x0f
00048d   5620     movra   0x20             	MOVRA	r0x101E
00048e   581e     movar   0x1e             	MOVAR	r0x101B
00048f   5622     movra   0x22             	MOVRA	r0x101F
000490   581d     movar   0x1d             	MOVAR	r0x101C
000491   5621     movra   0x21             	MOVRA	r0x1020
000492   5820     movar   0x20             	MOVAR	r0x101E
000493   3a00     isubai  0                	ISUBAI	0x00
000494   f587     jbclr   0x187, 0x2       	JBCLR	PFLAG,2
000495   a49b     goto    0x49b            	GOTO	_00219_DS_
                                           _00218_DS_
000496   4e22     rrr     0x22             	RRR	r0x101F
000497   4e21     rrr     0x21             	RRR	r0x1020
000498   3f01     addai   0x1              	ADDAI	0x01
000499   e187     jbset   0x187, 0         	JBSET	PFLAG,0
00049a   a496     goto    0x496            	GOTO	_00218_DS_
                                           _00219_DS_
00049b   e021     jbset   0x21, 0          	JBSET	r0x1020,0
00049c   a4a2     goto    0x4a2            	GOTO	_00194_DS_
                                           ;	.line	156; "MC32F7361.c"	delay_ms(3);
00049d   3c03     movai   0x3              	MOVAI	0x03
00049e   5606     movra   0x6              	MOVRA	STK00
00049f   3c00     movai   0                	MOVAI	0x00
0004a0   8554     call    0x554            	CALL	_delay_ms
0004a1   a4a3     goto    0x4a3            	GOTO	_00198_DS_
                                           _00194_DS_
                                           ;	.line	160; "MC32F7361.c"	delay_1_4ms();
0004a2   8531     call    0x531            	CALL	_delay_1_4ms
                                           _00198_DS_
                                           ;	.line	149; "MC32F7361.c"	for (i = 0; i < 16; i++)
0004a3   661f     incr    0x1f             	INCR	r0x101D
                                           ;;unsigned compare: left < lit(0x10=16), size=1
0004a4   3c10     movai   0x10             	MOVAI	0x10
0004a5   481f     rsubar  0x1f             	RSUBAR	r0x101D
0004a6   e187     jbset   0x187, 0         	JBSET	PFLAG,0
0004a7   a488     goto    0x488            	GOTO	_00197_DS_
                                           ;;genSkipc:3291: created from rifx:013B5EFC
                                           ;	.line	164; "MC32F7361.c"	LED_CTL_PIN = 0;
0004a8   d5b8     bclr    0x1b8, 0x2       	BCLR	_IOP2bits,2
                                           ;	.line	165; "MC32F7361.c"	delay_100us();
0004a9   8548     call    0x548            	CALL	_delay_100us
                                           ;	.line	166; "MC32F7361.c"	LED_CTL_PIN = 1;
0004aa   c5b8     bset    0x1b8, 0x2       	BSET	_IOP2bits,2
                                           _00199_DS_
                                           ;	.line	168; "MC32F7361.c"	}
0004ab   000c     return                   	RETURN	
                                           ; exit point of _send_cmd_16bit_without_delay
                                           
                                           ;***
                                           ;  pBlock Stats: dbName = C
                                           ;***
                                           ;entry:  _send_cmd_16bit	;Function start
                                           ; 2 exit points
                                           ;has an exit
                                           ;functions called:
                                           ;   _delay_100us
                                           ;   _delay_ms
                                           ;   _delay_1_4ms
                                           ;   _delay_100us
                                           ;   _delay_ms
                                           ;   _delay_100us
                                           ;   _delay_ms
                                           ;   _delay_1_4ms
                                           ;   _delay_100us
                                           ;   _delay_ms
                                           ;7 compiler assigned registers:
                                           ;   r0x101B
                                           ;   STK00
                                           ;   r0x101C
                                           ;   r0x101D
                                           ;   r0x101E
                                           ;   r0x101F
                                           ;   r0x1020
                                           ;; Starting pCode block
                                           _send_cmd_16bit	;Function start
                                           ; 2 exit points
                                           ;	.line	108; "MC32F7361.c"	void send_cmd_16bit(const u16 data)
0004ac   561e     movra   0x1e             	MOVRA	r0x101B
0004ad   5806     movar   0x6              	MOVAR	STK00
0004ae   561d     movra   0x1d             	MOVRA	r0x101C
                                           ;	.line	111; "MC32F7361.c"	if (0 == flag_is_dev_open)
0004af   f247     jbclr   0x47, 0x1        	JBCLR	_flag1,1
0004b0   a4b2     goto    0x4b2            	GOTO	_00170_DS_
                                           ;	.line	113; "MC32F7361.c"	return;
0004b1   a4da     goto    0x4da            	GOTO	_00166_DS_
                                           _00170_DS_
                                           ;	.line	117; "MC32F7361.c"	for (i = 0; i < 16; i++)
0004b2   761f     clrr    0x1f             	CLRR	r0x101D
                                           _00164_DS_
                                           ;	.line	119; "MC32F7361.c"	LED_CTL_PIN = 0;
0004b3   d5b8     bclr    0x1b8, 0x2       	BCLR	_IOP2bits,2
                                           ;	.line	120; "MC32F7361.c"	delay_100us();
0004b4   8548     call    0x548            	CALL	_delay_100us
                                           ;	.line	121; "MC32F7361.c"	LED_CTL_PIN = 1;
0004b5   c5b8     bset    0x1b8, 0x2       	BSET	_IOP2bits,2
                                           ;	.line	122; "MC32F7361.c"	if ((data >> (15 - i)) & 0x01) // 1
0004b6   581f     movar   0x1f             	MOVAR	r0x101D
0004b7   3a0f     isubai  0xf              	ISUBAI	0x0f
0004b8   5620     movra   0x20             	MOVRA	r0x101E
0004b9   581e     movar   0x1e             	MOVAR	r0x101B
0004ba   5622     movra   0x22             	MOVRA	r0x101F
0004bb   581d     movar   0x1d             	MOVAR	r0x101C
0004bc   5621     movra   0x21             	MOVRA	r0x1020
0004bd   5820     movar   0x20             	MOVAR	r0x101E
0004be   3a00     isubai  0                	ISUBAI	0x00
0004bf   f587     jbclr   0x187, 0x2       	JBCLR	PFLAG,2
0004c0   a4c6     goto    0x4c6            	GOTO	_00186_DS_
                                           _00185_DS_
0004c1   4e22     rrr     0x22             	RRR	r0x101F
0004c2   4e21     rrr     0x21             	RRR	r0x1020
0004c3   3f01     addai   0x1              	ADDAI	0x01
0004c4   e187     jbset   0x187, 0         	JBSET	PFLAG,0
0004c5   a4c1     goto    0x4c1            	GOTO	_00185_DS_
                                           _00186_DS_
0004c6   e021     jbset   0x21, 0          	JBSET	r0x1020,0
0004c7   a4cd     goto    0x4cd            	GOTO	_00161_DS_
                                           ;	.line	124; "MC32F7361.c"	delay_ms(3);
0004c8   3c03     movai   0x3              	MOVAI	0x03
0004c9   5606     movra   0x6              	MOVRA	STK00
0004ca   3c00     movai   0                	MOVAI	0x00
0004cb   8554     call    0x554            	CALL	_delay_ms
0004cc   a4ce     goto    0x4ce            	GOTO	_00165_DS_
                                           _00161_DS_
                                           ;	.line	128; "MC32F7361.c"	delay_1_4ms();
0004cd   8531     call    0x531            	CALL	_delay_1_4ms
                                           _00165_DS_
                                           ;	.line	117; "MC32F7361.c"	for (i = 0; i < 16; i++)
0004ce   661f     incr    0x1f             	INCR	r0x101D
                                           ;;unsigned compare: left < lit(0x10=16), size=1
0004cf   3c10     movai   0x10             	MOVAI	0x10
0004d0   481f     rsubar  0x1f             	RSUBAR	r0x101D
0004d1   e187     jbset   0x187, 0         	JBSET	PFLAG,0
0004d2   a4b3     goto    0x4b3            	GOTO	_00164_DS_
                                           ;;genSkipc:3291: created from rifx:013B5EFC
                                           ;	.line	132; "MC32F7361.c"	LED_CTL_PIN = 0;
0004d3   d5b8     bclr    0x1b8, 0x2       	BCLR	_IOP2bits,2
                                           ;	.line	133; "MC32F7361.c"	delay_100us();
0004d4   8548     call    0x548            	CALL	_delay_100us
                                           ;	.line	134; "MC32F7361.c"	LED_CTL_PIN = 1;
0004d5   c5b8     bset    0x1b8, 0x2       	BSET	_IOP2bits,2
                                           ;	.line	135; "MC32F7361.c"	delay_ms(33);
0004d6   3c21     movai   0x21             	MOVAI	0x21
0004d7   5606     movra   0x6              	MOVRA	STK00
0004d8   3c00     movai   0                	MOVAI	0x00
0004d9   8554     call    0x554            	CALL	_delay_ms
                                           _00166_DS_
                                           ;	.line	137; "MC32F7361.c"	}
0004da   000c     return                   	RETURN	
                                           ; exit point of _send_cmd_16bit
                                           
                                           ;***
                                           ;  pBlock Stats: dbName = C
                                           ;***
                                           ;entry:  _EEPROM_Write_Data	;Function start
                                           ; 2 exit points
                                           ;has an exit
                                           ;functions called:
                                           ;   __gptrget2
                                           ;   _EEPROM_Write_Byte
                                           ;   __gptrget2
                                           ;   _EEPROM_Write_Byte
                                           ;12 compiler assigned registers:
                                           ;   r0x102D
                                           ;   STK00
                                           ;   r0x102E
                                           ;   STK01
                                           ;   r0x102F
                                           ;   STK02
                                           ;   r0x1030
                                           ;   STK03
                                           ;   r0x1031
                                           ;   r0x1032
                                           ;   r0x1033
                                           ;   r0x1034
                                           ;; Starting pCode block
                                           _EEPROM_Write_Data	;Function start
                                           ; 2 exit points
                                           ;	.line	98; "MC32F7361.c"	void EEPROM_Write_Data(u8 addr, u16 *data, u8 len)
0004db   5615     movra   0x15             	MOVRA	r0x102D
0004dc   5806     movar   0x6              	MOVAR	STK00
0004dd   5618     movra   0x18             	MOVRA	r0x102E
0004de   5805     movar   0x5              	MOVAR	STK01
0004df   5617     movra   0x17             	MOVRA	r0x102F
0004e0   5804     movar   0x4              	MOVAR	STK02
0004e1   5616     movra   0x16             	MOVRA	r0x1030
0004e2   5803     movar   0x3              	MOVAR	STK03
0004e3   5619     movra   0x19             	MOVRA	r0x1031
                                           _00150_DS_
                                           ;	.line	100; "MC32F7361.c"	while (len)
0004e4   3c00     movai   0                	MOVAI	0x00
0004e5   5c19     orar    0x19             	ORAR	r0x1031
0004e6   f587     jbclr   0x187, 0x2       	JBCLR	PFLAG,2
0004e7   a502     goto    0x502            	GOTO	_00153_DS_
                                           ;	.line	102; "MC32F7361.c"	EEPROM_Write_Byte(addr++, *data++);
0004e8   5815     movar   0x15             	MOVAR	r0x102D
0004e9   561a     movra   0x1a             	MOVRA	r0x1032
0004ea   6615     incr    0x15             	INCR	r0x102D
0004eb   5816     movar   0x16             	MOVAR	r0x1030
0004ec   5605     movra   0x5              	MOVRA	STK01
0004ed   5817     movar   0x17             	MOVAR	r0x102F
0004ee   5606     movra   0x6              	MOVRA	STK00
0004ef   5818     movar   0x18             	MOVAR	r0x102E
0004f0   867f     call    0x67f            	CALL	__gptrget2
0004f1   561c     movra   0x1c             	MOVRA	r0x1033
0004f2   5806     movar   0x6              	MOVAR	STK00
0004f3   561b     movra   0x1b             	MOVRA	r0x1034
0004f4   3c02     movai   0x2              	MOVAI	0x02
0004f5   7e16     addra   0x16             	ADDRA	r0x1030
0004f6   f187     jbclr   0x187, 0         	JBCLR	PFLAG,0
0004f7   6617     incr    0x17             	INCR	r0x102F
0004f8   f587     jbclr   0x187, 0x2       	JBCLR	PFLAG,2
0004f9   6618     incr    0x18             	INCR	r0x102E
0004fa   581b     movar   0x1b             	MOVAR	r0x1034
0004fb   5605     movra   0x5              	MOVRA	STK01
0004fc   581c     movar   0x1c             	MOVAR	r0x1033
0004fd   5606     movra   0x6              	MOVRA	STK00
0004fe   581a     movar   0x1a             	MOVAR	r0x1032
0004ff   851a     call    0x51a            	CALL	_EEPROM_Write_Byte
                                           ;	.line	103; "MC32F7361.c"	len--;
000500   6e19     decr    0x19             	DECR	r0x1031
000501   a4e4     goto    0x4e4            	GOTO	_00150_DS_
                                           _00153_DS_
                                           ;	.line	105; "MC32F7361.c"	}
000502   000c     return                   	RETURN	
                                           ; exit point of _EEPROM_Write_Data
                                           
                                           ;***
                                           ;  pBlock Stats: dbName = C
                                           ;***
                                           ;entry:  _EEPROM_Read_Byte	;Function start
                                           ; 2 exit points
                                           ;has an exit
                                           ;5 compiler assigned registers:
                                           ;   r0x1035
                                           ;   r0x1036
                                           ;   r0x1037
                                           ;   r0x1038
                                           ;   STK00
                                           ;; Starting pCode block
                                           _EEPROM_Read_Byte	;Function start
                                           ; 2 exit points
                                           ;	.line	78; "MC32F7361.c"	uint16_t EEPROM_Read_Byte(u8 addr)
000503   57c5     movra   0x1c5            	MOVRA	_EEAR
                                           ;	.line	82; "MC32F7361.c"	EECR = 0x02; //  EE 
000504   3c02     movai   0x2              	MOVAI	0x02
000505   57c3     movra   0x1c3            	MOVRA	_EECR
                                           ;	.line	83; "MC32F7361.c"	Nop();
000506   0000     nop                      	nop	
                                           ;	.line	84; "MC32F7361.c"	Nop();
000507   0000     nop                      	nop	
                                           _00145_DS_
                                           ;	.line	85; "MC32F7361.c"	while (EEREAD) //  EE 
000508   f3c3     jbclr   0x1c3, 0x1       	JBCLR	_EECRbits,1
000509   a508     goto    0x508            	GOTO	_00145_DS_
                                           ;	.line	89; "MC32F7361.c"	EEDR = (EEDRH << 8) | EEDRL;
00050a   59c6     movar   0x1c6            	MOVAR	_EEDRH
00050b   5614     movra   0x14             	MOVRA	r0x1037
00050c   5611     movra   0x11             	MOVRA	r0x1035
00050d   7612     clrr    0x12             	CLRR	r0x1036
                                           ;;101	MOVAR	r0x1035
00050e   7613     clrr    0x13             	CLRR	r0x1038
00050f   59c7     movar   0x1c7            	MOVAR	_EEDRL
000510   5611     movra   0x11             	MOVRA	r0x1035
000511   7612     clrr    0x12             	CLRR	r0x1036
000512   5811     movar   0x11             	MOVAR	r0x1035
000513   5e13     orra    0x13             	ORRA	r0x1038
000514   3c00     movai   0                	MOVAI	0x00
000515   5e14     orra    0x14             	ORRA	r0x1037
                                           ;	.line	90; "MC32F7361.c"	return EEDR;
000516   5813     movar   0x13             	MOVAR	r0x1038
000517   5606     movra   0x6              	MOVRA	STK00
000518   5814     movar   0x14             	MOVAR	r0x1037
                                           ;	.line	91; "MC32F7361.c"	}
000519   000c     return                   	RETURN	
                                           ; exit point of _EEPROM_Read_Byte
                                           
                                           ;***
                                           ;  pBlock Stats: dbName = C
                                           ;***
                                           ;entry:  _EEPROM_Write_Byte	;Function start
                                           ; 2 exit points
                                           ;has an exit
                                           ;6 compiler assigned registers:
                                           ;   STK00
                                           ;   r0x1029
                                           ;   STK01
                                           ;   r0x102A
                                           ;   r0x102B
                                           ;   r0x102C
                                           ;; Starting pCode block
                                           _EEPROM_Write_Byte	;Function start
                                           ; 2 exit points
                                           ;	.line	54; "MC32F7361.c"	void EEPROM_Write_Byte(uint8_t addr, uint16_t data)
00051a   57c5     movra   0x1c5            	MOVRA	_EEAR
00051b   5806     movar   0x6              	MOVAR	STK00
00051c   5610     movra   0x10             	MOVRA	r0x102B
                                           ;;1	MOVRA	r0x1029
00051d   5805     movar   0x5              	MOVAR	STK01
00051e   560f     movra   0xf              	MOVRA	r0x102A
                                           ;	.line	56; "MC32F7361.c"	HFEN = 1;
00051f   c1ae     bset    0x1ae, 0         	BSET	_OSCMRbits,0
                                           ;;99	MOVAR	r0x1029
                                           ;;1	CLRR	r0x102C
                                           ;	.line	58; "MC32F7361.c"	EEDRH = (data >> 8) & 0xff;
000520   5810     movar   0x10             	MOVAR	r0x102B
000521   57c6     movra   0x1c6            	MOVRA	_EEDRH
                                           ;	.line	59; "MC32F7361.c"	EEDRL = data & 0xff;
000522   580f     movar   0xf              	MOVAR	r0x102A
000523   57c7     movra   0x1c7            	MOVRA	_EEDRL
                                           ;	.line	60; "MC32F7361.c"	GIE = 0;
000524   df88     bclr    0x188, 0x7       	BCLR	_MCRbits,7
                                           ;	.line	61; "MC32F7361.c"	EEPR = 0x5A;
000525   3c5a     movai   0x5a             	MOVAI	0x5a
000526   57c4     movra   0x1c4            	MOVRA	_EEPR
                                           ;	.line	62; "MC32F7361.c"	EEPR = 0xA5; // 
000527   3ca5     movai   0xa5             	MOVAI	0xa5
000528   57c4     movra   0x1c4            	MOVRA	_EEPR
                                           ;	.line	63; "MC32F7361.c"	EECR = 0x01; // EEPROM  
000529   3c01     movai   0x1              	MOVAI	0x01
00052a   57c3     movra   0x1c3            	MOVRA	_EECR
                                           ;	.line	64; "MC32F7361.c"	Nop();
00052b   0000     nop                      	nop	
                                           ;	.line	65; "MC32F7361.c"	Nop();
00052c   0000     nop                      	nop	
                                           _00140_DS_
                                           ;	.line	66; "MC32F7361.c"	while (EEWRITE) //  EE 
00052d   f1c3     jbclr   0x1c3, 0         	JBCLR	_EECRbits,0
00052e   a52d     goto    0x52d            	GOTO	_00140_DS_
                                           ;	.line	70; "MC32F7361.c"	GIE = 1;
00052f   cf88     bset    0x188, 0x7       	BSET	_MCRbits,7
                                           ;	.line	71; "MC32F7361.c"	}
000530   000c     return                   	RETURN	
                                           ; exit point of _EEPROM_Write_Byte
                                           
                                           ;***
                                           ;  pBlock Stats: dbName = C
                                           ;***
                                           ;entry:  _delay_1_4ms	;Function start
                                           ; 2 exit points
                                           ;has an exit
                                           ;functions called:
                                           ;   _delay_100us
                                           ;   _delay_100us
                                           ;2 compiler assigned registers:
                                           ;   r0x1017
                                           ;   r0x1018
                                           ;; Starting pCode block
                                           _delay_1_4ms	;Function start
                                           ; 2 exit points
                                           ;	.line	42; "MC32F7361.c"	for (i = 0; i < 14; i++)
000531   3c0e     movai   0xe              	MOVAI	0x0e
000532   5609     movra   0x9              	MOVRA	r0x1017
                                           _00135_DS_
                                           ;	.line	44; "MC32F7361.c"	delay_100us();
000533   8548     call    0x548            	CALL	_delay_100us
000534   6c09     decar   0x9              	DECAR	r0x1017
000535   5609     movra   0x9              	MOVRA	r0x1017
000536   560a     movra   0xa              	MOVRA	r0x1018
                                           ;;100	MOVAR	r0x1018
                                           ;	.line	42; "MC32F7361.c"	for (i = 0; i < 14; i++)
000537   3c00     movai   0                	MOVAI	0x00
000538   5c0a     orar    0xa              	ORAR	r0x1018
000539   e587     jbset   0x187, 0x2       	JBSET	PFLAG,2
00053a   a533     goto    0x533            	GOTO	_00135_DS_
                                           ;	.line	46; "MC32F7361.c"	}
00053b   000c     return                   	RETURN	
                                           ; exit point of _delay_1_4ms
                                           
                                           ;***
                                           ;  pBlock Stats: dbName = C
                                           ;***
                                           ;entry:  _delay_200us	;Function start
                                           ; 2 exit points
                                           ;has an exit
                                           ;2 compiler assigned registers:
                                           ;   r0x1039
                                           ;   r0x103A
                                           ;; Starting pCode block
                                           _delay_200us	;Function start
                                           ; 2 exit points
                                           ;	.line	32; "MC32F7361.c"	while (i--)
00053c   3c96     movai   0x96             	MOVAI	0x96
00053d   560d     movra   0xd              	MOVRA	r0x1039
                                           _00124_DS_
00053e   580d     movar   0xd              	MOVAR	r0x1039
00053f   560e     movra   0xe              	MOVRA	r0x103A
000540   6e0d     decr    0xd              	DECR	r0x1039
000541   3c00     movai   0                	MOVAI	0x00
000542   5c0e     orar    0xe              	ORAR	r0x103A
000543   f587     jbclr   0x187, 0x2       	JBCLR	PFLAG,2
000544   a547     goto    0x547            	GOTO	_00127_DS_
                                           ;	.line	34; "MC32F7361.c"	Nop();
000545   0000     nop                      	nop	
000546   a53e     goto    0x53e            	GOTO	_00124_DS_
                                           _00127_DS_
                                           ;	.line	36; "MC32F7361.c"	}
000547   000c     return                   	RETURN	
                                           ; exit point of _delay_200us
                                           
                                           ;***
                                           ;  pBlock Stats: dbName = C
                                           ;***
                                           ;entry:  _delay_100us	;Function start
                                           ; 2 exit points
                                           ;has an exit
                                           ;2 compiler assigned registers:
                                           ;   r0x1015
                                           ;   r0x1016
                                           ;; Starting pCode block
                                           _delay_100us	;Function start
                                           ; 2 exit points
                                           ;	.line	22; "MC32F7361.c"	while (i--)
000548   3c4a     movai   0x4a             	MOVAI	0x4a
000549   5608     movra   0x8              	MOVRA	r0x1015
                                           _00116_DS_
00054a   5808     movar   0x8              	MOVAR	r0x1015
00054b   5607     movra   0x7              	MOVRA	r0x1016
00054c   6e08     decr    0x8              	DECR	r0x1015
00054d   3c00     movai   0                	MOVAI	0x00
00054e   5c07     orar    0x7              	ORAR	r0x1016
00054f   f587     jbclr   0x187, 0x2       	JBCLR	PFLAG,2
000550   a553     goto    0x553            	GOTO	_00119_DS_
                                           ;	.line	24; "MC32F7361.c"	Nop();
000551   0000     nop                      	nop	
000552   a54a     goto    0x54a            	GOTO	_00116_DS_
                                           _00119_DS_
                                           ;	.line	26; "MC32F7361.c"	}
000553   000c     return                   	RETURN	
                                           ; exit point of _delay_100us
                                           
                                           ;***
                                           ;  pBlock Stats: dbName = C
                                           ;***
                                           ;entry:  _delay_ms	;Function start
                                           ; 2 exit points
                                           ;has an exit
                                           ;7 compiler assigned registers:
                                           ;   r0x1015
                                           ;   STK00
                                           ;   r0x1016
                                           ;   r0x1017
                                           ;   r0x1018
                                           ;   r0x1019
                                           ;   r0x101A
                                           ;; Starting pCode block
                                           _delay_ms	;Function start
                                           ; 2 exit points
                                           ;	.line	330; "user.h"	void delay_ms(u16 xms)
000554   5608     movra   0x8              	MOVRA	r0x1015
000555   5806     movar   0x6              	MOVAR	STK00
000556   5607     movra   0x7              	MOVRA	r0x1016
                                           _00108_DS_
                                           ;	.line	332; "user.h"	while (xms)
000557   5807     movar   0x7              	MOVAR	r0x1016
000558   5c08     orar    0x8              	ORAR	r0x1015
000559   f587     jbclr   0x187, 0x2       	JBCLR	PFLAG,2
00055a   a573     goto    0x573            	GOTO	_00111_DS_
                                           ;	.line	335; "user.h"	while (i--)
00055b   3c05     movai   0x5              	MOVAI	0x05
00055c   5609     movra   0x9              	MOVRA	r0x1017
00055d   3c02     movai   0x2              	MOVAI	0x02
00055e   560a     movra   0xa              	MOVRA	r0x1018
                                           _00105_DS_
00055f   5809     movar   0x9              	MOVAR	r0x1017
000560   560b     movra   0xb              	MOVRA	r0x1019
000561   580a     movar   0xa              	MOVAR	r0x1018
000562   560c     movra   0xc              	MOVRA	r0x101A
000563   3cff     movai   0xff             	MOVAI	0xff
000564   7e09     addra   0x9              	ADDRA	r0x1017
000565   e187     jbset   0x187, 0         	JBSET	PFLAG,0
000566   6e0a     decr    0xa              	DECR	r0x1018
000567   580b     movar   0xb              	MOVAR	r0x1019
000568   5c0c     orar    0xc              	ORAR	r0x101A
000569   f587     jbclr   0x187, 0x2       	JBCLR	PFLAG,2
00056a   a56d     goto    0x56d            	GOTO	_00107_DS_
                                           ;	.line	337; "user.h"	Nop();
00056b   0000     nop                      	nop	
00056c   a55f     goto    0x55f            	GOTO	_00105_DS_
                                           _00107_DS_
                                           ;	.line	339; "user.h"	xms--; //  --while()
00056d   3cff     movai   0xff             	MOVAI	0xff
00056e   7e07     addra   0x7              	ADDRA	r0x1016
00056f   e187     jbset   0x187, 0         	JBSET	PFLAG,0
000570   6e08     decr    0x8              	DECR	r0x1015
                                           ;	.line	343; "user.h"	__endasm;
                                           	;
000571   000e     clrwdt                   	clrwdt;
                                           	
000572   a557     goto    0x557            	GOTO	_00108_DS_
                                           _00111_DS_
                                           ;	.line	345; "user.h"	}
000573   000c     return                   	RETURN	
                                           ; exit point of _delay_ms
                                           
                                           
                                           ;	code size estimation:
                                           ;	 1373+    0 =  1373 instructions ( 2746 byte)
                                           
                                           	end
                                           ;--------------------------------------------------------
                                           ; File Created by SN-SDCC : SinoMCU ANSI-C Compiler
                                           ; Version 2.0.0 (Dec 11 2019) (MINGW32)
                                           ; This file was generated Tue Mar 18 18:16:52 2025
                                           ;--------------------------------------------------------
                                           ; MC32 port for the RISC core
                                           ;--------------------------------------------------------
                                           ;	.file	"MC32F7361.c"
                                           	list	p=7361
                                           	radix dec
                                           	include "7361.inc"
                                           ;--------------------------------------------------------
                                           ; external declarations
                                           ;--------------------------------------------------------
                                           	extern	_INDF0bits
                                           	extern	_INDF1bits
                                           	extern	_INDF2bits
                                           	extern	_HIBYTEbits
                                           	extern	_FSR0bits
                                           	extern	_FSR1bits
                                           	extern	_PCLbits
                                           	extern	_PFLAGbits
                                           	extern	_MCRbits
                                           	extern	_INDF3bits
                                           	extern	_INTEbits
                                           	extern	_INTFbits
                                           	extern	_DRVCRbits
                                           	extern	_P0KBCRbits
                                           	extern	_P1KBCRbits
                                           	extern	_P2KBCRbits
                                           	extern	_IOP0bits
                                           	extern	_OEP0bits
                                           	extern	_PUP0bits
                                           	extern	_PDP0bits
                                           	extern	_IOP1bits
                                           	extern	_OEP1bits
                                           	extern	_PUP1bits
                                           	extern	_PDP1bits
                                           	extern	_T0CRbits
                                           	extern	_T0CNTbits
                                           	extern	_T0LOADbits
                                           	extern	_T0DATAbits
                                           	extern	_T1CRbits
                                           	extern	_T1CNTbits
                                           	extern	_T1LOADbits
                                           	extern	_T1DATAbits
                                           	extern	_T2CRbits
                                           	extern	_T2CNTbits
                                           	extern	_T2LOADbits
                                           	extern	_T2DATAbits
                                           	extern	_T3CRbits
                                           	extern	_T3CNTbits
                                           	extern	_T3LOADbits
                                           	extern	_PWM0DRbits
                                           	extern	_PWM1DRbits
                                           	extern	_PWM2DRbits
                                           	extern	_PWMCR0bits
                                           	extern	_PWMCR1bits
                                           	extern	_OSCMRbits
                                           	extern	_LVDCRbits
                                           	extern	_ADCR0bits
                                           	extern	_ADCR1bits
                                           	extern	_ADCR2bits
                                           	extern	_OSADJCRbits
                                           	extern	_ADRHbits
                                           	extern	_ADRLbits
                                           	extern	_P0ADCRbits
                                           	extern	_P1ADCRbits
                                           	extern	_IOP2bits
                                           	extern	_OEP2bits
                                           	extern	_PUP2bits
                                           	extern	_PDP2bits
                                           	extern	_PMODbits
                                           	extern	_PWMCR3bits
                                           	extern	_PWMCR2bits
                                           	extern	_PFRCCRbits
                                           	extern	_PFRCCALbits
                                           	extern	_EECRbits
                                           	extern	_EEPRbits
                                           	extern	_EEARbits
                                           	extern	_EEDRHbits
                                           	extern	_EEDRLbits
                                           	extern	_DBGCRbits
                                           	extern	_DBGPRbits
                                           	extern	_HIRCCALbits
                                           	extern	_INDF0
                                           	extern	_INDF1
                                           	extern	_INDF2
                                           	extern	_HIBYTE
                                           	extern	_FSR0
                                           	extern	_FSR1
                                           	extern	_PCL
                                           	extern	_PFLAG
                                           	extern	_MCR
                                           	extern	_INDF3
                                           	extern	_INTE
                                           	extern	_INTF
                                           	extern	_DRVCR
                                           	extern	_P0KBCR
                                           	extern	_P1KBCR
                                           	extern	_P2KBCR
                                           	extern	_IOP0
                                           	extern	_OEP0
                                           	extern	_PUP0
                                           	extern	_PDP0
                                           	extern	_IOP1
                                           	extern	_OEP1
                                           	extern	_PUP1
                                           	extern	_PDP1
                                           	extern	_T0CR
                                           	extern	_T0CNT
                                           	extern	_T0LOAD
                                           	extern	_T0DATA
                                           	extern	_T1CR
                                           	extern	_T1CNT
                                           	extern	_T1LOAD
                                           	extern	_T1DATA
                                           	extern	_T2CR
                                           	extern	_T2CNT
                                           	extern	_T2LOAD
                                           	extern	_T2DATA
                                           	extern	_T3CR
                                           	extern	_T3CNT
                                           	extern	_T3LOAD
                                           	extern	_PWM0DR
                                           	extern	_PWM1DR
                                           	extern	_PWM2DR
                                           	extern	_PWMCR0
                                           	extern	_PWMCR1
                                           	extern	_OSCMR
                                           	extern	_LVDCR
                                           	extern	_ADCR0
                                           	extern	_ADCR1
                                           	extern	_ADCR2
                                           	extern	_OSADJCR
                                           	extern	_ADRH
                                           	extern	_ADRL
                                           	extern	_P0ADCR
                                           	extern	_P1ADCR
                                           	extern	_IOP2
                                           	extern	_OEP2
                                           	extern	_PUP2
                                           	extern	_PDP2
                                           	extern	_PMOD
                                           	extern	_PWMCR3
                                           	extern	_PWMCR2
                                           	extern	_PFRCCR
                                           	extern	_PFRCCAL
                                           	extern	_EECR
                                           	extern	_EEPR
                                           	extern	_EEAR
                                           	extern	_EEDRH
                                           	extern	_EEDRL
                                           	extern	_DBGCR
                                           	extern	_DBGPR
                                           	extern	_HIRCCAL
                                           	extern	__gptrget2
                                           	extern	__mulchar
                                           	extern	__gptrget1
                                           ;--------------------------------------------------------
                                           ; global declarations
                                           ;--------------------------------------------------------
                                           	global	_delay_ms
                                           	global	_delay_100us
                                           	global	_delay_200us
                                           	global	_delay_1_4ms
                                           	global	_EEPROM_Write_Byte
                                           	global	_EEPROM_Read_Byte
                                           	global	_EEPROM_Write_Data
                                           	global	_send_cmd_16bit
                                           	global	_send_cmd_16bit_without_delay
                                           	global	_CLR_RAM
                                           	global	_IO_Init
                                           	global	_TIMER2_INT_Init
                                           	global	_TIMER3_INT_Init
                                           	global	_Sys_Init
                                           	global	_main
                                           	global	_int_isr
                                           	global	_flag_is_press_speed
                                           	global	_auto_mode_info
                                           	global	_cur_led_status
                                           	global	_cur_r3c4_status
                                           	global	_abuf
                                           	global	_statusbuf
                                           	global	_flag1
                                           	global	_ir_data
                                           	global	_table_auto_in_submode
                                           	global	_table_irkey
                                           
                                           	global STK06
                                           	global STK05
                                           	global STK04
                                           	global STK03
                                           	global STK02
                                           	global STK01
                                           	global STK00
                                           
                                           sharebank udata_ovr 0x0000
                                           STK06	res 1
                                           STK05	res 1
                                           STK04	res 1
                                           STK03	res 1
                                           STK02	res 1
                                           STK01	res 1
                                           STK00	res 1
                                           
                                           ;--------------------------------------------------------
                                           ; global definitions
                                           ;--------------------------------------------------------
                                           UD_MC32F7361_0	udata
                                           _flag_is_press_speed	res	1
                                           
                                           UD_MC32F7361_1	udata
                                           _auto_mode_info	res	5
                                           
                                           UD_MC32F7361_2	udata
                                           _cur_led_status	res	1
                                           
                                           UD_MC32F7361_3	udata
                                           _cur_r3c4_status	res	1
                                           
                                           UD_MC32F7361_4	udata
                                           _abuf	res	1
                                           
                                           UD_MC32F7361_5	udata
                                           _statusbuf	res	1
                                           
                                           UD_MC32F7361_6	udata
                                           _flag1	res	1
                                           
                                           UD_MC32F7361_7	udata
                                           _ir_data	res	1
                                           
                                           ;--------------------------------------------------------
                                           ; absolute symbol definitions
                                           ;--------------------------------------------------------
                                           ;--------------------------------------------------------
                                           ; compiler-defined variables
                                           ;--------------------------------------------------------
                                           UDL_MC32F7361_0	udata
                                           r0x1016	res	1
                                           r0x1015	res	1
                                           r0x1017	res	1
                                           r0x1018	res	1
                                           r0x1019	res	1
                                           r0x101A	res	1
                                           r0x1039	res	1
                                           r0x103A	res	1
                                           r0x102A	res	1
                                           r0x102B	res	1
                                           r0x1035	res	1
                                           r0x1036	res	1
                                           r0x1038	res	1
                                           r0x1037	res	1
                                           r0x102D	res	1
                                           r0x1030	res	1
                                           r0x102F	res	1
                                           r0x102E	res	1
                                           r0x1031	res	1
                                           r0x1032	res	1
                                           r0x1034	res	1
                                           r0x1033	res	1
                                           r0x101C	res	1
                                           r0x101B	res	1
                                           r0x101D	res	1
                                           r0x101E	res	1
                                           r0x1020	res	1
                                           r0x101F	res	1
                                           r0x1021	res	1
                                           r0x1022	res	1
                                           r0x1023	res	1
                                           r0x1024	res	1
                                           r0x1025	res	1
                                           r0x1026	res	1
                                           r0x1027	res	1
                                           r0x1028	res	1
                                           r0x103B	res	1
                                           r0x103C	res	1
                                           _main_tmp_262144_57	res	2
                                           _int_isr_ir_level_cnt_196608_128	res	2
                                           _int_isr_ir_fliter_196608_128	res	1
                                           _int_isr___ir_data_196608_128	res	1
                                           _int_isr_ir_long_press_cnt_196608_128	res	2
                                           _int_isr_cnt_100us_196608_144	res	1
                                           _int_isr_auto_period_cnt_327680_146	res	2
                                           ;--------------------------------------------------------
                                           ; initialized data
                                           ;--------------------------------------------------------
                                           
                                           ID_MC32F7361_0	code
                                           _table_auto_in_submode
                                           	dw 0x00
                                           	dw 0x22
                                           	dw 0x00
                                           	dw 0x44
                                           	dw 0x00
                                           	dw 0x33
                                           	dw 0x00
                                           	dw 0x55
                                           	dw 0x00
                                           	dw 0x66
                                           	dw 0x10
                                           	dw 0x77
                                           	dw 0x00
                                           	dw 0x88
                                           	dw 0x00
                                           	dw 0xaa
                                           	dw 0x00
                                           	dw 0xcc
                                           	dw 0xc0
                                           	dw 0x00
                                           	dw 0x00
                                           	dw 0x11
                                           	dw 0x00
                                           	dw 0x22
                                           	dw 0x00
                                           	dw 0x44
                                           	dw 0x00
                                           	dw 0x33
                                           	dw 0x00
                                           	dw 0x55
                                           	dw 0x00
                                           	dw 0x66
                                           	dw 0x10
                                           	dw 0x77
                                           	dw 0x00
                                           	dw 0x88
                                           	dw 0x00
                                           	dw 0xaa
                                           	dw 0x00
                                           	dw 0xcc
                                           	dw 0xc0
                                           	dw 0x00
                                           	dw 0x00
                                           	dw 0x21
                                           	dw 0x10
                                           	dw 0x74
                                           	dw 0x00
                                           	dw 0x53
                                           	dw 0x00
                                           	dw 0x41
                                           	dw 0x00
                                           	dw 0x24
                                           	dw 0x00
                                           	dw 0x45
                                           	dw 0x0c
                                           	dw 0x00
                                           	dw 0x00
                                           	dw 0xe0
                                           	dw 0x00
                                           	dw 0xa0
                                           	dw 0x00
                                           	dw 0xc0
                                           	dw 0xc0
                                           	dw 0x00
                                           	dw 0x00
                                           	dw 0xee
                                           	dw 0x00
                                           	dw 0xee
                                           	dw 0x00
                                           	dw 0xee
                                           	dw 0x00
                                           	dw 0xee
                                           	dw 0x00
                                           	dw 0xee
                                           	dw 0x00
                                           	dw 0xee
                                           	dw 0x00
                                           	dw 0xee
                                           	dw 0x00
                                           	dw 0xee
                                           	dw 0x00
                                           	dw 0xee
                                           	dw 0x00
                                           	dw 0xee
                                           	dw 0x00
                                           	dw 0xaa
                                           	dw 0x00
                                           	dw 0xaa
                                           	dw 0x00
                                           	dw 0xaa
                                           	dw 0x00
                                           	dw 0xaa
                                           	dw 0x00
                                           	dw 0xaa
                                           	dw 0x00
                                           	dw 0xaa
                                           	dw 0x00
                                           	dw 0xaa
                                           	dw 0x00
                                           	dw 0xaa
                                           	dw 0x00
                                           	dw 0xaa
                                           	dw 0x00
                                           	dw 0xaa
                                           	dw 0x00
                                           	dw 0xcc
                                           	dw 0x00
                                           	dw 0xcc
                                           	dw 0x00
                                           	dw 0xcc
                                           	dw 0x00
                                           	dw 0xcc
                                           	dw 0x00
                                           	dw 0xcc
                                           	dw 0x00
                                           	dw 0xcc
                                           	dw 0x00
                                           	dw 0xcc
                                           	dw 0x00
                                           	dw 0xcc
                                           	dw 0x00
                                           	dw 0xcc
                                           	dw 0x00
                                           	dw 0xcc
                                           	dw 0x0c
                                           	dw 0x00
                                           	dw 0x00
                                           	dw 0x17
                                           	dw 0x00
                                           	dw 0x27
                                           	dw 0x00
                                           	dw 0x47
                                           	dw 0x00
                                           	dw 0x37
                                           	dw 0x00
                                           	dw 0x57
                                           	dw 0x00
                                           	dw 0x67
                                           	dw 0x10
                                           	dw 0x77
                                           	dw 0x00
                                           	dw 0x87
                                           	dw 0x00
                                           	dw 0xa7
                                           	dw 0x00
                                           	dw 0xc7
                                           	dw 0x0c
                                           	dw 0x00
                                           	dw 0x80
                                           	dw 0x11
                                           	dw 0x80
                                           	dw 0x12
                                           	dw 0x80
                                           	dw 0x22
                                           	dw 0x80
                                           	dw 0x24
                                           	dw 0x80
                                           	dw 0x44
                                           	dw 0x80
                                           	dw 0x14
                                           	dw 0x0c
                                           	dw 0x00
                                           	dw 0x00
                                           	dw 0x11
                                           
                                           
                                           ID_MC32F7361_1	code
                                           _table_irkey
                                           	dw 0x80
                                           	dw 0x96
                                           	dw 0x45
                                           	dw 0x0f
                                           	dw 0x11
                                           	dw 0x90
                                           	dw 0x00
                                           	dw 0x11
                                           	dw 0xff
                                           	dw 0xff
                                           	dw 0xb8
                                           	dw 0x00
                                           	dw 0x22
                                           	dw 0xff
                                           	dw 0xff
                                           	dw 0xf8
                                           	dw 0x00
                                           	dw 0x44
                                           	dw 0xff
                                           	dw 0xff
                                           	dw 0xb0
                                           	dw 0x96
                                           	dw 0x45
                                           	dw 0x10
                                           	dw 0x77
                                           	dw 0x98
                                           	dw 0x9f
                                           	dw 0x00
                                           	dw 0x10
                                           	dw 0x33
                                           	dw 0xd8
                                           	dw 0x90
                                           	dw 0xf1
                                           	dw 0x10
                                           	dw 0x66
                                           	dw 0x88
                                           	dw 0x93
                                           	dw 0x0f
                                           	dw 0x10
                                           	dw 0x55
                                           	dw 0xe8
                                           	dw 0x9f
                                           	dw 0x10
                                           	dw 0x10
                                           	dw 0x33
                                           	dw 0x48
                                           	dw 0x90
                                           	dw 0xf8
                                           	dw 0x10
                                           	dw 0x66
                                           	dw 0x68
                                           	dw 0x98
                                           	dw 0x0f
                                           	dw 0x10
                                           	dw 0x55
                                           	dw 0x02
                                           	dw 0x9f
                                           	dw 0x30
                                           	dw 0x10
                                           	dw 0x33
                                           	dw 0x32
                                           	dw 0x90
                                           	dw 0xfc
                                           	dw 0x10
                                           	dw 0x66
                                           	dw 0x20
                                           	dw 0x9f
                                           	dw 0x0f
                                           	dw 0x10
                                           	dw 0x55
                                           	dw 0x50
                                           	dw 0x9f
                                           	dw 0xf0
                                           	dw 0x10
                                           	dw 0x33
                                           	dw 0x78
                                           	dw 0x90
                                           	dw 0xff
                                           	dw 0x10
                                           	dw 0x66
                                           	dw 0x70
                                           	dw 0x9f
                                           	dw 0x03
                                           	dw 0x10
                                           	dw 0x55
                                           
                                           
                                           ;@Allocation info for local variables in function 'delay_ms'
                                           ;@delay_ms delay_ms                  Allocated to registers ;size:2
                                           ;@delay_ms INDF0bits                 Allocated to registers ;size:1
                                           ;@delay_ms INDF1bits                 Allocated to registers ;size:1
                                           ;@delay_ms INDF2bits                 Allocated to registers ;size:1
                                           ;@delay_ms HIBYTEbits                Allocated to registers ;size:1
                                           ;@delay_ms FSR0bits                  Allocated to registers ;size:1
                                           ;@delay_ms FSR1bits                  Allocated to registers ;size:1
                                           ;@delay_ms PCLbits                   Allocated to registers ;size:1
                                           ;@delay_ms PFLAGbits                 Allocated to registers ;size:1
                                           ;@delay_ms MCRbits                   Allocated to registers ;size:1
                                           ;@delay_ms INDF3bits                 Allocated to registers ;size:1
                                           ;@delay_ms INTEbits                  Allocated to registers ;size:1
                                           ;@delay_ms INTFbits                  Allocated to registers ;size:1
                                           ;@delay_ms DRVCRbits                 Allocated to registers ;size:1
                                           ;@delay_ms P0KBCRbits                Allocated to registers ;size:1
                                           ;@delay_ms P1KBCRbits                Allocated to registers ;size:1
                                           ;@delay_ms P2KBCRbits                Allocated to registers ;size:1
                                           ;@delay_ms IOP0bits                  Allocated to registers ;size:1
                                           ;@delay_ms OEP0bits                  Allocated to registers ;size:1
                                           ;@delay_ms PUP0bits                  Allocated to registers ;size:1
                                           ;@delay_ms PDP0bits                  Allocated to registers ;size:1
                                           ;@delay_ms IOP1bits                  Allocated to registers ;size:1
                                           ;@delay_ms OEP1bits                  Allocated to registers ;size:1
                                           ;@delay_ms PUP1bits                  Allocated to registers ;size:1
                                           ;@delay_ms PDP1bits                  Allocated to registers ;size:1
                                           ;@delay_ms T0CRbits                  Allocated to registers ;size:1
                                           ;@delay_ms T0CNTbits                 Allocated to registers ;size:1
                                           ;@delay_ms T0LOADbits                Allocated to registers ;size:1
                                           ;@delay_ms T0DATAbits                Allocated to registers ;size:1
                                           ;@delay_ms T1CRbits                  Allocated to registers ;size:1
                                           ;@delay_ms T1CNTbits                 Allocated to registers ;size:1
                                           ;@delay_ms T1LOADbits                Allocated to registers ;size:1
                                           ;@delay_ms T1DATAbits                Allocated to registers ;size:1
                                           ;@delay_ms T2CRbits                  Allocated to registers ;size:1
                                           ;@delay_ms T2CNTbits                 Allocated to registers ;size:1
                                           ;@delay_ms T2LOADbits                Allocated to registers ;size:1
                                           ;@delay_ms T2DATAbits                Allocated to registers ;size:1
                                           ;@delay_ms T3CRbits                  Allocated to registers ;size:1
                                           ;@delay_ms T3CNTbits                 Allocated to registers ;size:1
                                           ;@delay_ms T3LOADbits                Allocated to registers ;size:1
                                           ;@delay_ms PWM0DRbits                Allocated to registers ;size:1
                                           ;@delay_ms PWM1DRbits                Allocated to registers ;size:1
                                           ;@delay_ms PWM2DRbits                Allocated to registers ;size:1
                                           ;@delay_ms PWMCR0bits                Allocated to registers ;size:1
                                           ;@delay_ms PWMCR1bits                Allocated to registers ;size:1
                                           ;@delay_ms OSCMRbits                 Allocated to registers ;size:1
                                           ;@delay_ms LVDCRbits                 Allocated to registers ;size:1
                                           ;@delay_ms ADCR0bits                 Allocated to registers ;size:1
                                           ;@delay_ms ADCR1bits                 Allocated to registers ;size:1
                                           ;@delay_ms ADCR2bits                 Allocated to registers ;size:1
                                           ;@delay_ms OSADJCRbits               Allocated to registers ;size:1
                                           ;@delay_ms ADRHbits                  Allocated to registers ;size:1
                                           ;@delay_ms ADRLbits                  Allocated to registers ;size:1
                                           ;@delay_ms P0ADCRbits                Allocated to registers ;size:1
                                           ;@delay_ms P1ADCRbits                Allocated to registers ;size:1
                                           ;@delay_ms IOP2bits                  Allocated to registers ;size:1
                                           ;@delay_ms OEP2bits                  Allocated to registers ;size:1
                                           ;@delay_ms PUP2bits                  Allocated to registers ;size:1
                                           ;@delay_ms PDP2bits                  Allocated to registers ;size:1
                                           ;@delay_ms PMODbits                  Allocated to registers ;size:1
                                           ;@delay_ms PWMCR3bits                Allocated to registers ;size:1
                                           ;@delay_ms PWMCR2bits                Allocated to registers ;size:1
                                           ;@delay_ms PFRCCRbits                Allocated to registers ;size:1
                                           ;@delay_ms PFRCCALbits               Allocated to registers ;size:1
                                           ;@delay_ms EECRbits                  Allocated to registers ;size:1
                                           ;@delay_ms EEPRbits                  Allocated to registers ;size:1
                                           ;@delay_ms EEARbits                  Allocated to registers ;size:1
                                           ;@delay_ms EEDRHbits                 Allocated to registers ;size:1
                                           ;@delay_ms EEDRLbits                 Allocated to registers ;size:1
                                           ;@delay_ms DBGCRbits                 Allocated to registers ;size:1
                                           ;@delay_ms DBGPRbits                 Allocated to registers ;size:1
                                           ;@delay_ms HIRCCALbits               Allocated to registers ;size:1
                                           ;@delay_ms flag_is_press_speed       Allocated to registers ;size:1
                                           ;@delay_ms auto_mode_info            Allocated to registers ;size:5
                                           ;@delay_ms cur_led_status            Allocated to registers ;size:1
                                           ;@delay_ms cur_r3c4_status           Allocated to registers ;size:1
                                           ;@delay_ms abuf                      Allocated to registers ;size:1
                                           ;@delay_ms statusbuf                 Allocated to registers ;size:1
                                           ;@delay_ms flag1                     Allocated to registers ;size:1
                                           ;@delay_ms ir_data                   Allocated to registers ;size:1
                                           ;@delay_ms xms                       Allocated to registers ;size:2
                                           ;@delay_ms i                         Allocated to registers r0x1017 r0x1018 ;size:2
                                           ;@delay_ms INDF0                     Allocated to registers ;size:1
                                           ;@delay_ms INDF1                     Allocated to registers ;size:1
                                           ;@delay_ms INDF2                     Allocated to registers ;size:1
                                           ;@delay_ms HIBYTE                    Allocated to registers ;size:1
                                           ;@delay_ms FSR0                      Allocated to registers ;size:1
                                           ;@delay_ms FSR1                      Allocated to registers ;size:1
                                           ;@delay_ms PCL                       Allocated to registers ;size:1
                                           ;@delay_ms PFLAG                     Allocated to registers ;size:1
                                           ;@delay_ms MCR                       Allocated to registers ;size:1
                                           ;@delay_ms INDF3                     Allocated to registers ;size:1
                                           ;@delay_ms INTE                      Allocated to registers ;size:1
                                           ;@delay_ms INTF                      Allocated to registers ;size:1
                                           ;@delay_ms DRVCR                     Allocated to registers ;size:1
                                           ;@delay_ms P0KBCR                    Allocated to registers ;size:1
                                           ;@delay_ms P1KBCR                    Allocated to registers ;size:1
                                           ;@delay_ms P2KBCR                    Allocated to registers ;size:1
                                           ;@delay_ms IOP0                      Allocated to registers ;size:1
                                           ;@delay_ms OEP0                      Allocated to registers ;size:1
                                           ;@delay_ms PUP0                      Allocated to registers ;size:1
                                           ;@delay_ms PDP0                      Allocated to registers ;size:1
                                           ;@delay_ms IOP1                      Allocated to registers ;size:1
                                           ;@delay_ms OEP1                      Allocated to registers ;size:1
                                           ;@delay_ms PUP1                      Allocated to registers ;size:1
                                           ;@delay_ms PDP1                      Allocated to registers ;size:1
                                           ;@delay_ms T0CR                      Allocated to registers ;size:1
                                           ;@delay_ms T0CNT                     Allocated to registers ;size:1
                                           ;@delay_ms T0LOAD                    Allocated to registers ;size:1
                                           ;@delay_ms T0DATA                    Allocated to registers ;size:1
                                           ;@delay_ms T1CR                      Allocated to registers ;size:1
                                           ;@delay_ms T1CNT                     Allocated to registers ;size:1
                                           ;@delay_ms T1LOAD                    Allocated to registers ;size:1
                                           ;@delay_ms T1DATA                    Allocated to registers ;size:1
                                           ;@delay_ms T2CR                      Allocated to registers ;size:1
                                           ;@delay_ms T2CNT                     Allocated to registers ;size:1
                                           ;@delay_ms T2LOAD                    Allocated to registers ;size:1
                                           ;@delay_ms T2DATA                    Allocated to registers ;size:1
                                           ;@delay_ms T3CR                      Allocated to registers ;size:1
                                           ;@delay_ms T3CNT                     Allocated to registers ;size:1
                                           ;@delay_ms T3LOAD                    Allocated to registers ;size:1
                                           ;@delay_ms PWM0DR                    Allocated to registers ;size:1
                                           ;@delay_ms PWM1DR                    Allocated to registers ;size:1
                                           ;@delay_ms PWM2DR                    Allocated to registers ;size:1
                                           ;@delay_ms PWMCR0                    Allocated to registers ;size:1
                                           ;@delay_ms PWMCR1                    Allocated to registers ;size:1
                                           ;@delay_ms OSCMR                     Allocated to registers ;size:1
                                           ;@delay_ms LVDCR                     Allocated to registers ;size:1
                                           ;@delay_ms ADCR0                     Allocated to registers ;size:1
                                           ;@delay_ms ADCR1                     Allocated to registers ;size:1
                                           ;@delay_ms ADCR2                     Allocated to registers ;size:1
                                           ;@delay_ms OSADJCR                   Allocated to registers ;size:1
                                           ;@delay_ms ADRH                      Allocated to registers ;size:1
                                           ;@delay_ms ADRL                      Allocated to registers ;size:1
                                           ;@delay_ms P0ADCR                    Allocated to registers ;size:1
                                           ;@delay_ms P1ADCR                    Allocated to registers ;size:1
                                           ;@delay_ms IOP2                      Allocated to registers ;size:1
                                           ;@delay_ms OEP2                      Allocated to registers ;size:1
                                           ;@delay_ms PUP2                      Allocated to registers ;size:1
                                           ;@delay_ms PDP2                      Allocated to registers ;size:1
                                           ;@delay_ms PMOD                      Allocated to registers ;size:1
                                           ;@delay_ms PWMCR3                    Allocated to registers ;size:1
                                           ;@delay_ms PWMCR2                    Allocated to registers ;size:1
                                           ;@delay_ms PFRCCR                    Allocated to registers ;size:1
                                           ;@delay_ms PFRCCAL                   Allocated to registers ;size:1
                                           ;@delay_ms EECR                      Allocated to registers ;size:1
                                           ;@delay_ms EEPR                      Allocated to registers ;size:1
                                           ;@delay_ms EEAR                      Allocated to registers ;size:1
                                           ;@delay_ms EEDRH                     Allocated to registers ;size:1
                                           ;@delay_ms EEDRL                     Allocated to registers ;size:1
                                           ;@delay_ms DBGCR                     Allocated to registers ;size:1
                                           ;@delay_ms DBGPR                     Allocated to registers ;size:1
                                           ;@delay_ms HIRCCAL                   Allocated to registers ;size:1
                                           ;@end Allocation info for local variables in function 'delay_ms';
                                           ;@Allocation info for local variables in function 'delay_100us'
                                           ;@delay_100us i                         Allocated to registers r0x1015 ;size:1
                                           ;@end Allocation info for local variables in function 'delay_100us';
                                           ;@Allocation info for local variables in function 'delay_200us'
                                           ;@delay_200us i                         Allocated to registers r0x1039 ;size:1
                                           ;@end Allocation info for local variables in function 'delay_200us';
                                           ;@Allocation info for local variables in function 'delay_1_4ms'
                                           ;@delay_1_4ms i                         Allocated to registers r0x1017 ;size:1
                                           ;@end Allocation info for local variables in function 'delay_1_4ms';
                                           ;@Allocation info for local variables in function 'EEPROM_Write_Byte'
                                           ;@EEPROM_Write_Byte data                      Allocated to registers r0x102A r0x1029 ;size:2
                                           ;@EEPROM_Write_Byte addr                      Allocated to registers ;size:1
                                           ;@end Allocation info for local variables in function 'EEPROM_Write_Byte';
                                           ;@Allocation info for local variables in function 'EEPROM_Read_Byte'
                                           ;@EEPROM_Read_Byte addr                      Allocated to registers ;size:1
                                           ;@EEPROM_Read_Byte EEDR                      Allocated to registers r0x1038 r0x1037 ;size:2
                                           ;@end Allocation info for local variables in function 'EEPROM_Read_Byte';
                                           ;@Allocation info for local variables in function 'EEPROM_Write_Data'
                                           ;@EEPROM_Write_Data len                       Allocated to registers ;size:1
                                           ;@EEPROM_Write_Data data                      Allocated to registers ;size:3
                                           ;@EEPROM_Write_Data addr                      Allocated to registers ;size:1
                                           ;@end Allocation info for local variables in function 'EEPROM_Write_Data';
                                           ;@Allocation info for local variables in function 'send_cmd_16bit'
                                           ;@send_cmd_16bit data                      Allocated to registers r0x101C r0x101B ;size:2
                                           ;@send_cmd_16bit i                         Allocated to registers r0x101D ;size:1
                                           ;@end Allocation info for local variables in function 'send_cmd_16bit';
                                           ;@Allocation info for local variables in function 'send_cmd_16bit_without_delay'
                                           ;@send_cmd_16bit_without_delay data                      Allocated to registers r0x101C r0x101B ;size:2
                                           ;@send_cmd_16bit_without_delay i                         Allocated to registers r0x101D ;size:1
                                           ;@end Allocation info for local variables in function 'send_cmd_16bit_without_delay';
                                           ;@Allocation info for local variables in function 'CLR_RAM'
                                           ;@end Allocation info for local variables in function 'CLR_RAM';
                                           ;@Allocation info for local variables in function 'IO_Init'
                                           ;@end Allocation info for local variables in function 'IO_Init';
                                           ;@Allocation info for local variables in function 'TIMER2_INT_Init'
                                           ;@end Allocation info for local variables in function 'TIMER2_INT_Init';
                                           ;@Allocation info for local variables in function 'TIMER3_INT_Init'
                                           ;@end Allocation info for local variables in function 'TIMER3_INT_Init';
                                           ;@Allocation info for local variables in function 'Sys_Init'
                                           ;@end Allocation info for local variables in function 'Sys_Init';
                                           ;@Allocation info for local variables in function 'main'
                                           ;@main tmp                       Allocated to registers ;size:2
                                           ;@main i                         Allocated to registers r0x1021 ;size:1
                                           ;@main tmp                       Allocated to registers r0x1024 r0x1025 ;size:2
                                           ;@main tmp                       Allocated to registers r0x1021 ;size:1
                                           ;@main index                     Allocated to registers r0x1021 ;size:1
                                           ;@main tmp                       Allocated to registers r0x1021 r0x1022 ;size:2
                                           ;@end Allocation info for local variables in function 'main';
                                           ;@Allocation info for local variables in function 'int_isr'
                                           ;@int_isr ir_fliter                 Allocated to registers ;size:1
                                           ;@int_isr ir_level_cnt              Allocated to registers ;size:2
                                           ;@int_isr __ir_data                 Allocated to registers ;size:1
                                           ;@int_isr ir_long_press_cnt         Allocated to registers ;size:2
                                           ;@int_isr cnt_100us                 Allocated to registers ;size:1
                                           ;@int_isr auto_period_cnt           Allocated to registers ;size:2
                                           ;@int_isr flag_is_period_arrive     Allocated to registers ;size:1
                                           ;@end Allocation info for local variables in function 'int_isr';
                                           
                                           ;--------------------------------------------------------
                                           ; overlayable items in internal ram 
                                           ;--------------------------------------------------------
                                           ;	udata_ovr
                                           ;--------------------------------------------------------
                                           ; reset vector 
                                           ;--------------------------------------------------------
                                           STARTUP	code 0x0000
                                           	goto	_main
                                           ;--------------------------------------------------------
                                           ; interrupt and initialization code
                                           ;--------------------------------------------------------
                                           c_interrupt	code	0x8
                                           __sdcc_interrupt
                                           ;***
                                           ;  pBlock Stats: dbName = I
                                           ;***
                                           ;entry:  _int_isr	;Function start
                                           ; 0 exit points
                                           ;2 compiler assigned registers:
                                           ;   r0x103B
                                           ;   r0x103C
                                           ;; Starting pCode block
                                           _int_isr	;Function start
                                           ; 0 exit points
                                           ;	.line	753; "MC32F7361.c"	__endasm;
                                           	;
                                           	movra	_abuf;
                                           	swapar	_PFLAG;
                                           	movra	_statusbuf;
                                           	
                                           ;	.line	767; "MC32F7361.c"	if (T2IF & T2IE)
                                           	CLRR	r0x103B
                                           	JBCLR	_INTFbits,5
                                           	INCR	r0x103B
                                           	CLRR	r0x103C
                                           	JBCLR	_INTEbits,5
                                           	INCR	r0x103C
                                           	MOVAR	r0x103C
                                           	ANDRA	r0x103B
                                           	MOVAI	0x00
                                           	ORAR	r0x103B
                                           	JBCLR	PFLAG,2
                                           	GOTO	_00869_DS_
                                           ;	.line	769; "MC32F7361.c"	T2IF = 0;
                                           	BCLR	_INTFbits,5
                                           ;	.line	778; "MC32F7361.c"	ir_level_cnt++;
                                           	INCR	_int_isr_ir_level_cnt_196608_128
                                           	JBCLR	PFLAG,2
                                           	INCR	(_int_isr_ir_level_cnt_196608_128 + 1)
                                           ;	.line	780; "MC32F7361.c"	ir_fliter <<= 1;
                                           	MOVAR	_int_isr_ir_fliter_196608_128
                                           	MOVRA	r0x103B
                                           	BCLR	PFLAG,0
                                           	RLAR	r0x103B
                                           	MOVRA	_int_isr_ir_fliter_196608_128
                                           ;	.line	781; "MC32F7361.c"	if (IR_RECV_PIN)
                                           	JBSET	_IOP2bits,1
                                           	GOTO	_00827_DS_
                                           ;	.line	783; "MC32F7361.c"	ir_fliter |= 1;
                                           	BSET	_int_isr_ir_fliter_196608_128,0
                                           _00827_DS_
                                           ;	.line	785; "MC32F7361.c"	ir_fliter &= 0x07;
                                           	MOVAI	0x07
                                           	ANDRA	_int_isr_ir_fliter_196608_128
                                           ;	.line	787; "MC32F7361.c"	if (ir_fliter == 0x07)
                                           	MOVAR	_int_isr_ir_fliter_196608_128
                                           	XORAI	0x07
                                           	JBSET	PFLAG,2
                                           	GOTO	_00831_DS_
                                           ;	.line	788; "MC32F7361.c"	filter_level = 1;
                                           	BSET	_flag1,3
                                           	GOTO	_00832_DS_
                                           _00831_DS_
                                           ;	.line	789; "MC32F7361.c"	else if (ir_fliter == 0x00)
                                           	MOVAI	0x00
                                           	ORAR	_int_isr_ir_fliter_196608_128
                                           	JBSET	PFLAG,2
                                           	GOTO	_00832_DS_
                                           ;	.line	790; "MC32F7361.c"	filter_level = 0;
                                           	BCLR	_flag1,3
                                           _00832_DS_
                                           ;	.line	792; "MC32F7361.c"	if (filter_level)
                                           	JBSET	_flag1,3
                                           	GOTO	_00861_DS_
                                           ;	.line	794; "MC32F7361.c"	last_level_in_ir_pin = 1; // 
                                           	BSET	_flag1,2
                                           ;;swapping arguments (AOP_TYPEs 1/3)
                                           ;;unsigned compare: left >= lit(0x4B1=1201), size=2
                                           ;	.line	797; "MC32F7361.c"	if (ir_level_cnt > 1200) // (120000us,120ms)
                                           	MOVAI	0x04
                                           	RSUBAR	(_int_isr_ir_level_cnt_196608_128 + 1)
                                           	JBSET	PFLAG,2
                                           	GOTO	_00974_DS_
                                           	MOVAI	0xb1
                                           	RSUBAR	_int_isr_ir_level_cnt_196608_128
                                           _00974_DS_
                                           	JBSET	PFLAG,0
                                           	GOTO	_00862_DS_
                                           ;;genSkipc:3291: created from rifx:013B5EFC
                                           ;	.line	800; "MC32F7361.c"	if (__ir_data != 0) // (__ir_data)
                                           	MOVAI	0x00
                                           	ORAR	_int_isr___ir_data_196608_128
                                           	JBCLR	PFLAG,2
                                           	GOTO	_00836_DS_
                                           ;	.line	809; "MC32F7361.c"	if (0 == flag_is_recved_data)
                                           	JBCLR	_flag1,0
                                           	GOTO	_00836_DS_
                                           ;	.line	811; "MC32F7361.c"	ir_data = ~__ir_data;
                                           	COMAR	_int_isr___ir_data_196608_128
                                           	MOVRA	_ir_data
                                           ;	.line	812; "MC32F7361.c"	__ir_data = 0;
                                           	CLRR	_int_isr___ir_data_196608_128
                                           ;	.line	813; "MC32F7361.c"	flag_is_recved_data = 1;
                                           	BSET	_flag1,0
                                           _00836_DS_
                                           ;	.line	817; "MC32F7361.c"	flag_is_recv_ir_repeat_code = 0; // 
                                           	BCLR	_flag1,4
                                           	GOTO	_00862_DS_
                                           _00861_DS_
                                           ;	.line	822; "MC32F7361.c"	if (last_level_in_ir_pin)
                                           	JBSET	_flag1,2
                                           	GOTO	_00859_DS_
                                           ;;swapping arguments (AOP_TYPEs 1/3)
                                           ;;unsigned compare: left >= lit(0x9=9), size=2
                                           ;	.line	825; "MC32F7361.c"	if (ir_level_cnt <= 8) // 800us
                                           	MOVAI	0x00
                                           	RSUBAR	(_int_isr_ir_level_cnt_196608_128 + 1)
                                           	JBSET	PFLAG,2
                                           	GOTO	_00975_DS_
                                           	MOVAI	0x09
                                           	RSUBAR	_int_isr_ir_level_cnt_196608_128
                                           _00975_DS_
                                           	JBSET	PFLAG,0
                                           	GOTO	_00857_DS_
                                           ;;genSkipc:3291: created from rifx:013B5EFC
                                           ;;swapping arguments (AOP_TYPEs 1/3)
                                           ;;unsigned compare: left >= lit(0x13=19), size=2
                                           ;	.line	830; "MC32F7361.c"	else if (ir_level_cnt <= 18) // 1800us,0
                                           	MOVAI	0x00
                                           	RSUBAR	(_int_isr_ir_level_cnt_196608_128 + 1)
                                           	JBSET	PFLAG,2
                                           	GOTO	_00976_DS_
                                           	MOVAI	0x13
                                           	RSUBAR	_int_isr_ir_level_cnt_196608_128
                                           _00976_DS_
                                           	JBCLR	PFLAG,0
                                           	GOTO	_00853_DS_
                                           ;;genSkipc:3291: created from rifx:013B5EFC
                                           ;	.line	832; "MC32F7361.c"	__ir_data <<= 1;
                                           	MOVAR	_int_isr___ir_data_196608_128
                                           	MOVRA	r0x103B
                                           	BCLR	PFLAG,0
                                           	RLAR	r0x103B
                                           	MOVRA	_int_isr___ir_data_196608_128
                                           	GOTO	_00857_DS_
                                           ;;swapping arguments (AOP_TYPEs 1/3)
                                           ;;unsigned compare: left >= lit(0x1B=27), size=2
                                           _00853_DS_
                                           ;	.line	837; "MC32F7361.c"	else if (ir_level_cnt <= 26) // 2600us,1
                                           	MOVAI	0x00
                                           	RSUBAR	(_int_isr_ir_level_cnt_196608_128 + 1)
                                           	JBSET	PFLAG,2
                                           	GOTO	_00977_DS_
                                           	MOVAI	0x1b
                                           	RSUBAR	_int_isr_ir_level_cnt_196608_128
                                           _00977_DS_
                                           	JBCLR	PFLAG,0
                                           	GOTO	_00850_DS_
                                           ;;genSkipc:3291: created from rifx:013B5EFC
                                           ;	.line	839; "MC32F7361.c"	__ir_data <<= 1;
                                           	MOVAR	_int_isr___ir_data_196608_128
                                           	MOVRA	r0x103B
                                           	BCLR	PFLAG,0
                                           	RLAR	r0x103B
                                           	MOVRA	_int_isr___ir_data_196608_128
                                           ;	.line	840; "MC32F7361.c"	__ir_data |= 0x01;
                                           	BSET	_int_isr___ir_data_196608_128,0
                                           	GOTO	_00857_DS_
                                           ;;swapping arguments (AOP_TYPEs 1/3)
                                           ;;unsigned compare: left >= lit(0x97=151), size=2
                                           _00850_DS_
                                           ;	.line	844; "MC32F7361.c"	else if (ir_level_cnt <= 150) // 15000us,
                                           	MOVAI	0x00
                                           	RSUBAR	(_int_isr_ir_level_cnt_196608_128 + 1)
                                           	JBSET	PFLAG,2
                                           	GOTO	_00978_DS_
                                           	MOVAI	0x97
                                           	RSUBAR	_int_isr_ir_level_cnt_196608_128
                                           _00978_DS_
                                           	JBSET	PFLAG,0
                                           	GOTO	_00857_DS_
                                           ;;genSkipc:3291: created from rifx:013B5EFC
                                           ;;swapping arguments (AOP_TYPEs 1/3)
                                           ;;unsigned compare: left >= lit(0x1A5=421), size=2
                                           ;	.line	849; "MC32F7361.c"	else if (ir_level_cnt <= 420) // 42ms,
                                           	MOVAI	0x01
                                           	RSUBAR	(_int_isr_ir_level_cnt_196608_128 + 1)
                                           	JBSET	PFLAG,2
                                           	GOTO	_00979_DS_
                                           	MOVAI	0xa5
                                           	RSUBAR	_int_isr_ir_level_cnt_196608_128
                                           _00979_DS_
                                           	JBCLR	PFLAG,0
                                           	GOTO	_00844_DS_
                                           ;;genSkipc:3291: created from rifx:013B5EFC
                                           ;	.line	860; "MC32F7361.c"	if (0 == flag_is_recved_data)
                                           	JBCLR	_flag1,0
                                           	GOTO	_00857_DS_
                                           ;	.line	862; "MC32F7361.c"	ir_data = ~__ir_data;
                                           	COMAR	_int_isr___ir_data_196608_128
                                           	MOVRA	_ir_data
                                           ;	.line	863; "MC32F7361.c"	__ir_data = 0;
                                           	CLRR	_int_isr___ir_data_196608_128
                                           ;	.line	864; "MC32F7361.c"	flag_is_recved_data = 1;
                                           	BSET	_flag1,0
                                           ;	.line	865; "MC32F7361.c"	flag_is_recv_ir_repeat_code = 1; //
                                           	BSET	_flag1,4
                                           ;	.line	866; "MC32F7361.c"	ir_long_press_cnt = 0;
                                           	CLRR	_int_isr_ir_long_press_cnt_196608_128
                                           	CLRR	(_int_isr_ir_long_press_cnt_196608_128 + 1)
                                           	GOTO	_00857_DS_
                                           ;;swapping arguments (AOP_TYPEs 1/3)
                                           ;;unsigned compare: left >= lit(0x4B1=1201), size=2
                                           _00844_DS_
                                           ;	.line	870; "MC32F7361.c"	else if (ir_level_cnt <= 1200) // 120000,120ms,
                                           	MOVAI	0x04
                                           	RSUBAR	(_int_isr_ir_level_cnt_196608_128 + 1)
                                           	JBSET	PFLAG,2
                                           	GOTO	_00980_DS_
                                           	MOVAI	0xb1
                                           	RSUBAR	_int_isr_ir_level_cnt_196608_128
                                           _00980_DS_
                                           	JBCLR	PFLAG,0
                                           	GOTO	_00857_DS_
                                           ;;genSkipc:3291: created from rifx:013B5EFC
                                           ;	.line	872; "MC32F7361.c"	ir_long_press_cnt++;
                                           	INCR	_int_isr_ir_long_press_cnt_196608_128
                                           	JBCLR	PFLAG,2
                                           	INCR	(_int_isr_ir_long_press_cnt_196608_128 + 1)
                                           _00857_DS_
                                           ;	.line	878; "MC32F7361.c"	ir_level_cnt = 0;
                                           	CLRR	_int_isr_ir_level_cnt_196608_128
                                           	CLRR	(_int_isr_ir_level_cnt_196608_128 + 1)
                                           _00859_DS_
                                           ;	.line	881; "MC32F7361.c"	last_level_in_ir_pin = 0; // 
                                           	BCLR	_flag1,2
                                           _00862_DS_
                                           ;	.line	887; "MC32F7361.c"	cnt_100us++;
                                           	INCR	_int_isr_cnt_100us_196608_144
                                           ;;unsigned compare: left < lit(0xA=10), size=1
                                           ;	.line	888; "MC32F7361.c"	if (cnt_100us >= 10) //  1ms
                                           	MOVAI	0x0a
                                           	RSUBAR	_int_isr_cnt_100us_196608_144
                                           	JBSET	PFLAG,0
                                           	GOTO	_00869_DS_
                                           ;;genSkipc:3291: created from rifx:013B5EFC
                                           ;	.line	890; "MC32F7361.c"	cnt_100us = 0;
                                           	CLRR	_int_isr_cnt_100us_196608_144
                                           ;	.line	894; "MC32F7361.c"	if (cur_led_status == CUR_LED_STATUS_AUTO) //  AUTO 
                                           	MOVAR	_cur_led_status
                                           	XORAI	0x01
                                           	JBSET	PFLAG,2
                                           	GOTO	_00864_DS_
                                           ;	.line	897; "MC32F7361.c"	auto_period_cnt++;
                                           	INCR	_int_isr_auto_period_cnt_327680_146
                                           	JBCLR	PFLAG,2
                                           	INCR	(_int_isr_auto_period_cnt_327680_146 + 1)
                                           ;	.line	910; "MC32F7361.c"	if (flag_is_period_arrive) // 
                                           	GOTO	_00869_DS_
                                           _00864_DS_
                                           ;	.line	916; "MC32F7361.c"	auto_period_cnt = 0;
                                           	CLRR	_int_isr_auto_period_cnt_327680_146
                                           	CLRR	(_int_isr_auto_period_cnt_327680_146 + 1)
                                           _00869_DS_
                                           ;	.line	924; "MC32F7361.c"	if (T3IF & T3IE)
                                           	CLRR	r0x103B
                                           	JBCLR	_INTFbits,7
                                           	INCR	r0x103B
                                           	CLRR	r0x103C
                                           	JBCLR	_INTEbits,7
                                           	INCR	r0x103C
                                           	MOVAR	r0x103C
                                           	ANDRA	r0x103B
                                           	MOVAI	0x00
                                           	ORAR	r0x103B
                                           	JBCLR	PFLAG,2
                                           	GOTO	_00879_DS_
                                           ;	.line	926; "MC32F7361.c"	T3IF = 0;
                                           	BCLR	_INTFbits,7
                                           ;	.line	929; "MC32F7361.c"	if (CUR_LED_STATUS_AUTO == cur_led_status) // AUTO
                                           	MOVAR	_cur_led_status
                                           	XORAI	0x01
                                           	JBSET	PFLAG,2
                                           	GOTO	_00879_DS_
                                           ;	.line	931; "MC32F7361.c"	if (CUR_SUBMODE_STATUS_STANDBY == auto_mode_info.cur_submode_status) // 
                                           	MOVAR	(_auto_mode_info + 4)
                                           	MOVRA	r0x103B
                                           	MOVAR	r0x103B
                                           	XORAI	0x03
                                           	JBSET	PFLAG,2
                                           	GOTO	_00879_DS_
                                           ;	.line	933; "MC32F7361.c"	if (auto_mode_info.delay_time > 0)
                                           	MOVAR	(_auto_mode_info + 0)
                                           	MOVRA	r0x103B
                                           	MOVAR	(_auto_mode_info + 1)
                                           	MOVRA	r0x103C
                                           	MOVAR	r0x103B
                                           	ORAR	r0x103C
                                           	JBCLR	PFLAG,2
                                           	GOTO	_00871_DS_
                                           ;	.line	935; "MC32F7361.c"	auto_mode_info.delay_time--;
                                           	MOVAR	(_auto_mode_info + 0)
                                           	MOVRA	r0x103B
                                           	MOVAR	(_auto_mode_info + 1)
                                           	MOVRA	r0x103C
                                           	MOVAI	0xff
                                           	ADDRA	r0x103B
                                           	JBSET	PFLAG,0
                                           	DECR	r0x103C
                                           ;;gen.c:6570: size=1, offset=0, AOP_TYPE(res)=8
                                           	MOVAR	r0x103B
                                           	MOVRA	(_auto_mode_info + 0)
                                           ;;gen.c:6570: size=0, offset=1, AOP_TYPE(res)=8
                                           	MOVAR	r0x103C
                                           	MOVRA	(_auto_mode_info + 1)
                                           _00871_DS_
                                           ;	.line	938; "MC32F7361.c"	if (auto_mode_info.delay_time == 0)
                                           	MOVAR	(_auto_mode_info + 0)
                                           	MOVRA	r0x103B
                                           	MOVAR	(_auto_mode_info + 1)
                                           	MOVRA	r0x103C
                                           	MOVAR	r0x103B
                                           	ORAR	r0x103C
                                           	JBSET	PFLAG,2
                                           	GOTO	_00879_DS_
                                           ;;gen.c:6570: size=0, offset=0, AOP_TYPE(res)=8
                                           ;	.line	941; "MC32F7361.c"	auto_mode_info.cur_submode_status = CUR_SUBMODE_STATUS_READY_TO_SEND;
                                           	MOVAI	0x01
                                           	MOVRA	(_auto_mode_info + 4)
                                           _00879_DS_
                                           ;	.line	951; "MC32F7361.c"	__endasm;
                                           	;
                                           	swapar	_statusbuf;
                                           	movra	_PFLAG;
                                           	swapr	_abuf;
                                           	swapar	_abuf;
                                           	
                                           END_OF_INTERRUPT
                                           ;	.line	952; "MC32F7361.c"	}
                                           	RETIE	
                                           
                                           ;--------------------------------------------------------
                                           ; code
                                           ;--------------------------------------------------------
                                           code_MC32F7361	code
                                           ;***
                                           ;  pBlock Stats: dbName = M
                                           ;***
                                           ;entry:  _main	;Function start
                                           ; 2 exit points
                                           ;has an exit
                                           ;functions called:
                                           ;   _Sys_Init
                                           ;   _delay_ms
                                           ;   _delay_ms
                                           ;   _delay_100us
                                           ;   _delay_100us
                                           ;   _delay_ms
                                           ;   _delay_100us
                                           ;   _delay_100us
                                           ;   _delay_ms
                                           ;   _delay_100us
                                           ;   _delay_100us
                                           ;   _delay_ms
                                           ;   _delay_100us
                                           ;   _delay_100us
                                           ;   _delay_ms
                                           ;   _send_cmd_16bit
                                           ;   _send_cmd_16bit
                                           ;   __mulchar
                                           ;   __gptrget1
                                           ;   _send_cmd_16bit
                                           ;   __gptrget1
                                           ;   __gptrget1
                                           ;   _send_cmd_16bit
                                           ;   __gptrget1
                                           ;   __gptrget1
                                           ;   _send_cmd_16bit
                                           ;   __gptrget1
                                           ;   __gptrget1
                                           ;   _send_cmd_16bit
                                           ;   _send_cmd_16bit
                                           ;   _send_cmd_16bit
                                           ;   _delay_ms
                                           ;   __gptrget1
                                           ;   __gptrget1
                                           ;   _send_cmd_16bit_without_delay
                                           ;   _Sys_Init
                                           ;   _delay_ms
                                           ;   _delay_ms
                                           ;   _delay_100us
                                           ;   _delay_100us
                                           ;   _delay_ms
                                           ;   _delay_100us
                                           ;   _delay_100us
                                           ;   _delay_ms
                                           ;   _delay_100us
                                           ;   _delay_100us
                                           ;   _delay_ms
                                           ;   _delay_100us
                                           ;   _delay_100us
                                           ;   _delay_ms
                                           ;   _send_cmd_16bit
                                           ;   _send_cmd_16bit
                                           ;   __mulchar
                                           ;   __gptrget1
                                           ;   _send_cmd_16bit
                                           ;   __gptrget1
                                           ;   __gptrget1
                                           ;   _send_cmd_16bit
                                           ;   __gptrget1
                                           ;   __gptrget1
                                           ;   _send_cmd_16bit
                                           ;   __gptrget1
                                           ;   __gptrget1
                                           ;   _send_cmd_16bit
                                           ;   _send_cmd_16bit
                                           ;   _send_cmd_16bit
                                           ;   _delay_ms
                                           ;   __gptrget1
                                           ;   __gptrget1
                                           ;   _send_cmd_16bit_without_delay
                                           ;10 compiler assigned registers:
                                           ;   STK00
                                           ;   r0x1021
                                           ;   r0x1022
                                           ;   r0x1023
                                           ;   r0x1024
                                           ;   STK01
                                           ;   r0x1025
                                           ;   r0x1026
                                           ;   r0x1027
                                           ;   r0x1028
                                           ;; Starting pCode block
                                           _main	;Function start
                                           ; 2 exit points
                                           ;	.line	261; "MC32F7361.c"	Sys_Init();
                                           	CALL	_Sys_Init
                                           ;	.line	262; "MC32F7361.c"	delay_ms(1); // 
                                           	MOVAI	0x01
                                           	MOVRA	STK00
                                           	MOVAI	0x00
                                           	CALL	_delay_ms
                                           ;	.line	267; "MC32F7361.c"	P21PU = 1;
                                           	BSET	_PUP2bits,1
                                           ;	.line	268; "MC32F7361.c"	P21OE = 0;
                                           	BCLR	_OEP2bits,1
                                           ;	.line	283; "MC32F7361.c"	flag_is_dev_open = 1;
                                           	BSET	_flag1,1
                                           _00426_DS_
                                           ;	.line	290; "MC32F7361.c"	if (flag_is_recved_data)
                                           	JBSET	_flag1,0
                                           	GOTO	_00280_DS_
                                           ;	.line	292; "MC32F7361.c"	if (ir_data == IR_KEY_ON) // ON 
                                           	MOVAR	_ir_data
                                           	XORAI	0x08
                                           	JBSET	PFLAG,2
                                           	GOTO	_00277_DS_
                                           ;	.line	296; "MC32F7361.c"	LED_CTL_PIN = 1;
                                           	BSET	_IOP2bits,2
                                           ;	.line	297; "MC32F7361.c"	delay_ms(2);
                                           	MOVAI	0x02
                                           	MOVRA	STK00
                                           	MOVAI	0x00
                                           	CALL	_delay_ms
                                           ;	.line	298; "MC32F7361.c"	LED_CTL_PIN = 0;
                                           	BCLR	_IOP2bits,2
                                           ;	.line	299; "MC32F7361.c"	delay_100us();
                                           	CALL	_delay_100us
                                           ;	.line	300; "MC32F7361.c"	delay_100us();
                                           	CALL	_delay_100us
                                           ;	.line	301; "MC32F7361.c"	LED_CTL_PIN = 1;
                                           	BSET	_IOP2bits,2
                                           ;	.line	302; "MC32F7361.c"	delay_ms(3);
                                           	MOVAI	0x03
                                           	MOVRA	STK00
                                           	MOVAI	0x00
                                           	CALL	_delay_ms
                                           ;	.line	303; "MC32F7361.c"	LED_CTL_PIN = 0;
                                           	BCLR	_IOP2bits,2
                                           ;	.line	304; "MC32F7361.c"	delay_100us();
                                           	CALL	_delay_100us
                                           ;	.line	305; "MC32F7361.c"	delay_100us();
                                           	CALL	_delay_100us
                                           ;	.line	306; "MC32F7361.c"	LED_CTL_PIN = 1;
                                           	BSET	_IOP2bits,2
                                           ;	.line	307; "MC32F7361.c"	delay_ms(4);
                                           	MOVAI	0x04
                                           	MOVRA	STK00
                                           	MOVAI	0x00
                                           	CALL	_delay_ms
                                           ;	.line	308; "MC32F7361.c"	LED_CTL_PIN = 0;
                                           	BCLR	_IOP2bits,2
                                           ;	.line	309; "MC32F7361.c"	delay_100us();
                                           	CALL	_delay_100us
                                           ;	.line	310; "MC32F7361.c"	delay_100us();
                                           	CALL	_delay_100us
                                           ;	.line	311; "MC32F7361.c"	LED_CTL_PIN = 1;
                                           	BSET	_IOP2bits,2
                                           ;	.line	312; "MC32F7361.c"	delay_ms(5);
                                           	MOVAI	0x05
                                           	MOVRA	STK00
                                           	MOVAI	0x00
                                           	CALL	_delay_ms
                                           ;	.line	313; "MC32F7361.c"	LED_CTL_PIN = 0;
                                           	BCLR	_IOP2bits,2
                                           ;	.line	314; "MC32F7361.c"	delay_100us();
                                           	CALL	_delay_100us
                                           ;	.line	315; "MC32F7361.c"	delay_100us();
                                           	CALL	_delay_100us
                                           ;	.line	316; "MC32F7361.c"	LED_CTL_PIN = 1;
                                           	BSET	_IOP2bits,2
                                           ;	.line	317; "MC32F7361.c"	delay_ms(51);
                                           	MOVAI	0x33
                                           	MOVRA	STK00
                                           	MOVAI	0x00
                                           	CALL	_delay_ms
                                           	GOTO	_00278_DS_
                                           _00277_DS_
                                           ;	.line	326; "MC32F7361.c"	else if (ir_data == IR_KEY_OFF) // OFF 
                                           	MOVAR	_ir_data
                                           	XORAI	0xc0
                                           	JBSET	PFLAG,2
                                           	GOTO	_00787_DS_
                                           	GOTO	_00278_DS_
                                           _00787_DS_
                                           ;	.line	339; "MC32F7361.c"	else if (ir_data == IR_KEY_SPEED) // SPEED 
                                           	MOVAR	_ir_data
                                           	XORAI	0x60
                                           	JBSET	PFLAG,2
                                           	GOTO	_00271_DS_
                                           ;	.line	342; "MC32F7361.c"	flag_is_press_speed = 1;
                                           	MOVAI	0x01
                                           	MOVRA	_flag_is_press_speed
                                           	GOTO	_00278_DS_
                                           _00271_DS_
                                           ;	.line	344; "MC32F7361.c"	else if (ir_data == IR_KEY_R3C4) // R3C4
                                           	MOVAR	_ir_data
                                           	XORAI	0xa8
                                           	JBSET	PFLAG,2
                                           	GOTO	_00268_DS_
                                           ;	.line	347; "MC32F7361.c"	if (cur_r3c4_status == R3C4_STATUS_1)
                                           	MOVAI	0x00
                                           	ORAR	_cur_r3c4_status
                                           	JBSET	PFLAG,2
                                           	GOTO	_00253_DS_
                                           ;	.line	349; "MC32F7361.c"	tmp = 0x00EE;
                                           	MOVAI	0xee
                                           	MOVRA	_main_tmp_262144_57
                                           	CLRR	(_main_tmp_262144_57 + 1)
                                           ;	.line	350; "MC32F7361.c"	cur_r3c4_status = R3C4_STATUS_2;
                                           	MOVAI	0x01
                                           	MOVRA	_cur_r3c4_status
                                           	GOTO	_00254_DS_
                                           _00253_DS_
                                           ;	.line	352; "MC32F7361.c"	else if (cur_r3c4_status == R3C4_STATUS_2)
                                           	MOVAR	_cur_r3c4_status
                                           	XORAI	0x01
                                           	JBSET	PFLAG,2
                                           	GOTO	_00250_DS_
                                           ;	.line	354; "MC32F7361.c"	tmp = 0x00AA;
                                           	MOVAI	0xaa
                                           	MOVRA	_main_tmp_262144_57
                                           	CLRR	(_main_tmp_262144_57 + 1)
                                           ;	.line	355; "MC32F7361.c"	cur_r3c4_status = R3C4_STATUS_3;
                                           	MOVAI	0x02
                                           	MOVRA	_cur_r3c4_status
                                           	GOTO	_00254_DS_
                                           _00250_DS_
                                           ;	.line	357; "MC32F7361.c"	else if (cur_r3c4_status == R3C4_STATUS_3)
                                           	MOVAR	_cur_r3c4_status
                                           	XORAI	0x02
                                           	JBSET	PFLAG,2
                                           	GOTO	_00254_DS_
                                           ;	.line	359; "MC32F7361.c"	tmp = 0x00CC;
                                           	MOVAI	0xcc
                                           	MOVRA	_main_tmp_262144_57
                                           	CLRR	(_main_tmp_262144_57 + 1)
                                           ;	.line	360; "MC32F7361.c"	cur_r3c4_status = R3C4_STATUS_1;
                                           	CLRR	_cur_r3c4_status
                                           _00254_DS_
                                           ;	.line	366; "MC32F7361.c"	send_cmd_16bit(0x0C00);
                                           	MOVAI	0x00
                                           	MOVRA	STK00
                                           	MOVAI	0x0c
                                           	CALL	_send_cmd_16bit
                                           ;	.line	367; "MC32F7361.c"	send_cmd_16bit(tmp);
                                           	MOVAR	_main_tmp_262144_57
                                           	MOVRA	STK00
                                           	MOVAR	(_main_tmp_262144_57 + 1)
                                           	CALL	_send_cmd_16bit
                                           	GOTO	_00278_DS_
                                           _00268_DS_
                                           ;	.line	369; "MC32F7361.c"	else if (ir_data == IR_KEY_R4C4_FADE)
                                           	MOVAR	_ir_data
                                           	XORAI	0xb2
                                           	JBSET	PFLAG,2
                                           	GOTO	_00788_DS_
                                           	GOTO	_00278_DS_
                                           _00788_DS_
                                           ;	.line	379; "MC32F7361.c"	if (IR_KEY_AUTO == ir_data) // AUTO 
                                           	MOVAR	_ir_data
                                           	XORAI	0x80
                                           	JBSET	PFLAG,2
                                           	GOTO	_00256_DS_
                                           ;	.line	381; "MC32F7361.c"	cur_led_status = CUR_LED_STATUS_AUTO; //  AUTO 
                                           	MOVAI	0x01
                                           	MOVRA	_cur_led_status
                                           ;;gen.c:6570: size=0, offset=0, AOP_TYPE(res)=8
                                           ;	.line	385; "MC32F7361.c"	auto_mode_info.cur_submode_index = 0;
                                           	CLRR	(_auto_mode_info + 3)
                                           ;;gen.c:6570: size=1, offset=0, AOP_TYPE(res)=8
                                           ;	.line	386; "MC32F7361.c"	auto_mode_info.delay_time = 0;
                                           	CLRR	(_auto_mode_info + 0)
                                           ;;gen.c:6570: size=0, offset=1, AOP_TYPE(res)=8
                                           	CLRR	(_auto_mode_info + 1)
                                           ;;gen.c:6570: size=0, offset=0, AOP_TYPE(res)=8
                                           ;	.line	387; "MC32F7361.c"	auto_mode_info.cur_submode_status = CUR_SUBMODE_STATUS_PREPARE_TO_SET_DELAY_TIME; // auto
                                           	MOVAI	0x02
                                           	MOVRA	(_auto_mode_info + 4)
                                           	GOTO	_00445_DS_
                                           _00256_DS_
                                           ;	.line	392; "MC32F7361.c"	cur_led_status = CUR_LED_STATUS_SINGLE_COLOR;
                                           	MOVAI	0x02
                                           	MOVRA	_cur_led_status
                                           _00445_DS_
                                           ;	.line	395; "MC32F7361.c"	for (i = 0; i < sizeof(table_irkey) / sizeof(table_irkey[0]); i++)
                                           	CLRR	r0x1021
                                           _00428_DS_
                                           ;	.line	397; "MC32F7361.c"	if (table_irkey[i][0] == ir_data)
                                           	MOVAI	0x05
                                           	MOVRA	STK00
                                           	MOVAR	r0x1021
                                           	CALL	__mulchar
                                           	MOVRA	r0x1022
                                           	MOVAR	r0x1022
                                           	ADDAI	(_table_irkey + 0)
                                           	MOVRA	r0x1023
                                           	MOVAI	high (_table_irkey + 0)
                                           	JBCLR	PFLAG,0
                                           	ADDAI	0x01
                                           	MOVRA	r0x1024
                                           	MOVAR	r0x1023
                                           	MOVRA	STK01
                                           	MOVAR	r0x1024
                                           	MOVRA	STK00
                                           	MOVAI	0x80
                                           	CALL	__gptrget1
                                           	MOVRA	r0x1025
                                           	MOVAR	_ir_data
                                           	XORAR	r0x1025
                                           	JBSET	PFLAG,2
                                           	GOTO	_00429_DS_
                                           ;	.line	399; "MC32F7361.c"	send_cmd_16bit(0x0C00); // 
                                           	MOVAI	0x00
                                           	MOVRA	STK00
                                           	MOVAI	0x0c
                                           	CALL	_send_cmd_16bit
                                           ;	.line	400; "MC32F7361.c"	tmp = ((u16)table_irkey[i][1] << 8) + (u16)table_irkey[i][2];
                                           	MOVAR	r0x1022
                                           	ADDAI	(_table_irkey + 0)
                                           	MOVRA	r0x1022
                                           	MOVAI	high (_table_irkey + 0)
                                           	JBCLR	PFLAG,0
                                           	ADDAI	0x01
                                           	MOVRA	r0x1023
                                           	MOVAI	0x01
                                           	ADDAR	r0x1022
                                           	MOVRA	r0x1024
                                           	CLRR	r0x1025
                                           	RLR	r0x1025
                                           	MOVAR	r0x1023
                                           	ADDRA	r0x1025
                                           	MOVAR	r0x1024
                                           	MOVRA	STK01
                                           	MOVAR	r0x1025
                                           	MOVRA	STK00
                                           	MOVAI	0x80
                                           	CALL	__gptrget1
                                           	MOVRA	r0x1026
                                           	MOVAR	r0x1026
                                           	MOVRA	r0x1027
                                           	MOVRA	r0x1024
                                           	CLRR	r0x1025
                                           ;;113	MOVAR	r0x1024
                                           	CLRR	r0x1026
                                           	MOVAI	0x02
                                           	ADDAR	r0x1022
                                           	MOVRA	r0x1024
                                           	CLRR	r0x1025
                                           	RLR	r0x1025
                                           	MOVAR	r0x1023
                                           	ADDRA	r0x1025
                                           	MOVAR	r0x1024
                                           	MOVRA	STK01
                                           	MOVAR	r0x1025
                                           	MOVRA	STK00
                                           	MOVAI	0x80
                                           	CALL	__gptrget1
                                           	MOVRA	r0x1024
                                           	MOVRA	r0x1028
                                           ;;108	MOVAR	r0x1028
                                           	CLRR	r0x1025
                                           	MOVAR	r0x1024
                                           	ADDAR	r0x1026
                                           	MOVRA	r0x1024
                                           	MOVAR	r0x1027
                                           	JBCLR	PFLAG,0
                                           	JZAR	r0x1027
                                           	ADDRA	r0x1025
                                           ;	.line	401; "MC32F7361.c"	send_cmd_16bit(tmp);
                                           	MOVAR	r0x1024
                                           	MOVRA	STK00
                                           	MOVAR	r0x1025
                                           	CALL	_send_cmd_16bit
                                           ;	.line	402; "MC32F7361.c"	if (table_irkey[i][3] != UNUSE_VAL && table_irkey[i][4] != UNUSE_VAL)
                                           	MOVAI	0x03
                                           	ADDAR	r0x1022
                                           	MOVRA	r0x1026
                                           	CLRR	r0x1027
                                           	RLR	r0x1027
                                           	MOVAR	r0x1023
                                           	ADDRA	r0x1027
                                           	MOVAR	r0x1026
                                           	MOVRA	STK01
                                           	MOVAR	r0x1027
                                           	MOVRA	STK00
                                           	MOVAI	0x80
                                           	CALL	__gptrget1
                                           	MOVRA	r0x1028
                                           	MOVAR	r0x1028
                                           	XORAI	0xff
                                           	JBSET	PFLAG,2
                                           	GOTO	_00789_DS_
                                           	GOTO	_00278_DS_
                                           _00789_DS_
                                           	MOVAI	0x04
                                           	ADDRA	r0x1022
                                           	JBCLR	PFLAG,0
                                           	INCR	r0x1023
                                           	MOVAR	r0x1022
                                           	MOVRA	STK01
                                           	MOVAR	r0x1023
                                           	MOVRA	STK00
                                           	MOVAI	0x80
                                           	CALL	__gptrget1
                                           	MOVRA	r0x1028
                                           	MOVAR	r0x1028
                                           	XORAI	0xff
                                           	JBSET	PFLAG,2
                                           	GOTO	_00790_DS_
                                           	GOTO	_00278_DS_
                                           _00790_DS_
                                           ;	.line	404; "MC32F7361.c"	send_cmd_16bit(tmp); // 4 * 16bit 2 * 16bit
                                           	MOVAR	r0x1024
                                           	MOVRA	STK00
                                           	MOVAR	r0x1025
                                           	CALL	_send_cmd_16bit
                                           ;	.line	405; "MC32F7361.c"	tmp = ((u16)table_irkey[i][3] << 8) + (u16)table_irkey[i][4];
                                           	MOVAR	r0x1026
                                           	MOVRA	STK01
                                           	MOVAR	r0x1027
                                           	MOVRA	STK00
                                           	MOVAI	0x80
                                           	CALL	__gptrget1
                                           	MOVRA	r0x1025
                                           	MOVRA	r0x1026
                                           	MOVRA	r0x1024
                                           ;;110	MOVAR	r0x1024
                                           	CLRR	r0x1027
                                           ;;111	MOVAR	r0x1026
                                           	CLRR	r0x1024
                                           	MOVAR	r0x1022
                                           	MOVRA	STK01
                                           	MOVAR	r0x1023
                                           	MOVRA	STK00
                                           	MOVAI	0x80
                                           	CALL	__gptrget1
                                           	MOVRA	r0x1022
                                           	MOVRA	r0x1026
                                           ;;107	MOVAR	r0x1026
                                           	CLRR	r0x1023
                                           	MOVAR	r0x1022
                                           	ADDRA	r0x1024
                                           	MOVAI	0x00
                                           	JBCLR	PFLAG,0
                                           	JZAR	r0x1023
                                           	ADDRA	r0x1025
                                           ;	.line	406; "MC32F7361.c"	send_cmd_16bit(tmp);
                                           	MOVAR	r0x1024
                                           	MOVRA	STK00
                                           	MOVAR	r0x1025
                                           	CALL	_send_cmd_16bit
                                           ;	.line	408; "MC32F7361.c"	break;
                                           	GOTO	_00278_DS_
                                           _00429_DS_
                                           ;	.line	395; "MC32F7361.c"	for (i = 0; i < sizeof(table_irkey) / sizeof(table_irkey[0]); i++)
                                           	INCR	r0x1021
                                           ;;unsigned compare: left < lit(0x11=17), size=1
                                           	MOVAI	0x11
                                           	RSUBAR	r0x1021
                                           	JBSET	PFLAG,0
                                           	GOTO	_00428_DS_
                                           ;;genSkipc:3291: created from rifx:013B5EFC
                                           _00278_DS_
                                           ;	.line	413; "MC32F7361.c"	ir_data = 0;
                                           	CLRR	_ir_data
                                           ;	.line	414; "MC32F7361.c"	flag_is_recved_data = 0;
                                           	BCLR	_flag1,0
                                           _00280_DS_
                                           ;	.line	417; "MC32F7361.c"	if (CUR_LED_STATUS_AUTO == cur_led_status) //  AUTO 
                                           	MOVAR	_cur_led_status
                                           	XORAI	0x01
                                           	JBSET	PFLAG,2
                                           	GOTO	_00426_DS_
                                           ;	.line	420; "MC32F7361.c"	if (flag_is_press_speed)
                                           	MOVAI	0x00
                                           	ORAR	_flag_is_press_speed
                                           	JBCLR	PFLAG,2
                                           	GOTO	_00293_DS_
                                           ;	.line	422; "MC32F7361.c"	flag_is_press_speed = 0;
                                           	CLRR	_flag_is_press_speed
                                           ;	.line	426; "MC32F7361.c"	send_cmd_16bit(0x0C00); // SPEED
                                           	MOVAI	0x00
                                           	MOVRA	STK00
                                           	MOVAI	0x0c
                                           	CALL	_send_cmd_16bit
                                           ;	.line	427; "MC32F7361.c"	if (CUR_AUTO_SUBMODE_1 == auto_mode_info.cur_auto_submode)
                                           	MOVAR	(_auto_mode_info + 2)
                                           	MOVRA	r0x1021
                                           	MOVAI	0x00
                                           	ORAR	r0x1021
                                           	JBSET	PFLAG,2
                                           	GOTO	_00288_DS_
                                           ;	.line	429; "MC32F7361.c"	tmp = 0x0F;
                                           	MOVAI	0x0f
                                           	MOVRA	r0x1021
                                           	GOTO	_00289_DS_
                                           _00288_DS_
                                           ;	.line	431; "MC32F7361.c"	else if (CUR_AUTO_SUBMODE_2 == auto_mode_info.cur_auto_submode)
                                           	MOVAR	(_auto_mode_info + 2)
                                           	MOVRA	r0x1022
                                           	MOVAR	r0x1022
                                           	XORAI	0x01
                                           	JBSET	PFLAG,2
                                           	GOTO	_00285_DS_
                                           ;	.line	433; "MC32F7361.c"	tmp = 0x0E;
                                           	MOVAI	0x0e
                                           	MOVRA	r0x1021
                                           	GOTO	_00289_DS_
                                           _00285_DS_
                                           ;	.line	435; "MC32F7361.c"	else if (CUR_AUTO_SUBMODE_3 == auto_mode_info.cur_auto_submode)
                                           	MOVAR	(_auto_mode_info + 2)
                                           	MOVRA	r0x1022
                                           	MOVAR	r0x1022
                                           	XORAI	0x02
                                           	JBSET	PFLAG,2
                                           	GOTO	_00282_DS_
                                           ;	.line	437; "MC32F7361.c"	tmp = 0x0D;
                                           	MOVAI	0x0d
                                           	MOVRA	r0x1021
                                           	GOTO	_00289_DS_
                                           _00282_DS_
                                           ;	.line	442; "MC32F7361.c"	tmp = 0x0C;
                                           	MOVAI	0x0c
                                           	MOVRA	r0x1021
                                           _00289_DS_
                                           ;	.line	445; "MC32F7361.c"	send_cmd_16bit(((u32)tmp << 8) | 0x11);
                                           	MOVAR	r0x1021
                                           	MOVRA	r0x1022
                                           	CLRR	r0x1023
                                           ;;106	MOVAR	r0x1022
                                           	CLRR	r0x1021
                                           	MOVAI	0x11
                                           	ORRA	r0x1021
                                           	MOVAR	r0x1021
                                           	MOVRA	STK00
                                           ;;105	MOVAR	r0x1024
                                           	MOVAR	r0x1022
                                           	MOVRA	r0x1024
                                           	CALL	_send_cmd_16bit
                                           ;	.line	448; "MC32F7361.c"	auto_mode_info.cur_auto_submode++;
                                           	MOVAR	(_auto_mode_info + 2)
                                           	MOVRA	r0x1021
                                           	INCR	r0x1021
                                           ;;gen.c:6570: size=0, offset=0, AOP_TYPE(res)=8
                                           	MOVAR	r0x1021
                                           	MOVRA	(_auto_mode_info + 2)
                                           ;	.line	449; "MC32F7361.c"	if (auto_mode_info.cur_auto_submode > CUR_AUTO_SUBMODE_4)
                                           	MOVAR	(_auto_mode_info + 2)
                                           	MOVRA	r0x1021
                                           ;;swapping arguments (AOP_TYPEs 1/2)
                                           ;;unsigned compare: left >= lit(0x4=4), size=1
                                           	MOVAI	0x04
                                           	RSUBAR	r0x1021
                                           	JBSET	PFLAG,0
                                           	GOTO	_00291_DS_
                                           ;;genSkipc:3291: created from rifx:013B5EFC
                                           ;;gen.c:6570: size=0, offset=0, AOP_TYPE(res)=8
                                           ;	.line	451; "MC32F7361.c"	auto_mode_info.cur_auto_submode = CUR_AUTO_SUBMODE_1;
                                           	CLRR	(_auto_mode_info + 2)
                                           ;;gen.c:6570: size=0, offset=0, AOP_TYPE(res)=8
                                           _00291_DS_
                                           ;	.line	458; "MC32F7361.c"	auto_mode_info.cur_submode_index = 0;
                                           	CLRR	(_auto_mode_info + 3)
                                           ;;gen.c:6570: size=0, offset=0, AOP_TYPE(res)=8
                                           ;	.line	460; "MC32F7361.c"	auto_mode_info.cur_submode_status = CUR_SUBMODE_STATUS_PREPARE_TO_SET_DELAY_TIME; // SPEED
                                           	MOVAI	0x02
                                           	MOVRA	(_auto_mode_info + 4)
                                           ;	.line	464; "MC32F7361.c"	delay_ms(2); // 
                                           	MOVAI	0x02
                                           	MOVRA	STK00
                                           	MOVAI	0x00
                                           	CALL	_delay_ms
                                           _00293_DS_
                                           ;	.line	469; "MC32F7361.c"	if (CUR_SUBMODE_STATUS_PREPARE_TO_SET_DELAY_TIME == auto_mode_info.cur_submode_status)
                                           	MOVAR	(_auto_mode_info + 4)
                                           	MOVRA	r0x1021
                                           	MOVAR	r0x1021
                                           	XORAI	0x02
                                           	JBSET	PFLAG,2
                                           	GOTO	_00366_DS_
                                           ;	.line	479; "MC32F7361.c"	if (auto_mode_info.cur_submode_index > 0)
                                           	MOVAR	(_auto_mode_info + 3)
                                           	MOVRA	r0x1021
                                           	MOVAI	0x00
                                           	ORAR	r0x1021
                                           	JBCLR	PFLAG,2
                                           	GOTO	_00295_DS_
                                           ;	.line	481; "MC32F7361.c"	index = auto_mode_info.cur_submode_index - 1;
                                           	MOVAR	(_auto_mode_info + 3)
                                           	MOVRA	r0x1022
                                           	MOVRA	r0x1021
                                           ;;112	MOVAR	r0x1021
                                           	DECAR	r0x1022
                                           	MOVRA	r0x1021
                                           	GOTO	_00296_DS_
                                           _00295_DS_
                                           ;	.line	485; "MC32F7361.c"	index = 0;
                                           	CLRR	r0x1021
                                           ;;swapping arguments (AOP_TYPEs 1/2)
                                           ;;unsigned compare: left >= lit(0x9=9), size=1
                                           _00296_DS_
                                           ;	.line	489; "MC32F7361.c"	if (index <= 8)
                                           	MOVAI	0x09
                                           	RSUBAR	r0x1021
                                           	JBCLR	PFLAG,0
                                           	GOTO	_00363_DS_
                                           ;;genSkipc:3291: created from rifx:013B5EFC
                                           ;	.line	491; "MC32F7361.c"	if (CUR_AUTO_SUBMODE_1 == auto_mode_info.cur_auto_submode)
                                           	MOVAR	(_auto_mode_info + 2)
                                           	MOVRA	r0x1022
                                           	MOVAI	0x00
                                           	ORAR	r0x1022
                                           	JBSET	PFLAG,2
                                           	GOTO	_00304_DS_
                                           ;;gen.c:6570: size=1, offset=0, AOP_TYPE(res)=8
                                           ;	.line	493; "MC32F7361.c"	auto_mode_info.delay_time = 3000;
                                           	MOVAI	0xb8
                                           	MOVRA	(_auto_mode_info + 0)
                                           ;;gen.c:6570: size=0, offset=1, AOP_TYPE(res)=8
                                           	MOVAI	0x0b
                                           	MOVRA	(_auto_mode_info + 1)
                                           	GOTO	_00364_DS_
                                           _00304_DS_
                                           ;	.line	495; "MC32F7361.c"	else if (CUR_AUTO_SUBMODE_2 == auto_mode_info.cur_auto_submode)
                                           	MOVAR	(_auto_mode_info + 2)
                                           	MOVRA	r0x1022
                                           	MOVAR	r0x1022
                                           	XORAI	0x01
                                           	JBSET	PFLAG,2
                                           	GOTO	_00301_DS_
                                           ;;gen.c:6570: size=1, offset=0, AOP_TYPE(res)=8
                                           ;	.line	497; "MC32F7361.c"	auto_mode_info.delay_time = 10000;
                                           	MOVAI	0x10
                                           	MOVRA	(_auto_mode_info + 0)
                                           ;;gen.c:6570: size=0, offset=1, AOP_TYPE(res)=8
                                           	MOVAI	0x27
                                           	MOVRA	(_auto_mode_info + 1)
                                           	GOTO	_00364_DS_
                                           _00301_DS_
                                           ;	.line	499; "MC32F7361.c"	else if (CUR_AUTO_SUBMODE_3 == auto_mode_info.cur_auto_submode)
                                           	MOVAR	(_auto_mode_info + 2)
                                           	MOVRA	r0x1022
                                           	MOVAR	r0x1022
                                           	XORAI	0x02
                                           	JBSET	PFLAG,2
                                           	GOTO	_00298_DS_
                                           ;;gen.c:6570: size=1, offset=0, AOP_TYPE(res)=8
                                           ;	.line	501; "MC32F7361.c"	auto_mode_info.delay_time = 7550;
                                           	MOVAI	0x7e
                                           	MOVRA	(_auto_mode_info + 0)
                                           ;;gen.c:6570: size=0, offset=1, AOP_TYPE(res)=8
                                           	MOVAI	0x1d
                                           	MOVRA	(_auto_mode_info + 1)
                                           	GOTO	_00364_DS_
                                           ;;gen.c:6570: size=1, offset=0, AOP_TYPE(res)=8
                                           _00298_DS_
                                           ;	.line	506; "MC32F7361.c"	auto_mode_info.delay_time = 5000;
                                           	MOVAI	0x88
                                           	MOVRA	(_auto_mode_info + 0)
                                           ;;gen.c:6570: size=0, offset=1, AOP_TYPE(res)=8
                                           	MOVAI	0x13
                                           	MOVRA	(_auto_mode_info + 1)
                                           	GOTO	_00364_DS_
                                           _00363_DS_
                                           ;	.line	516; "MC32F7361.c"	else if (index == 9 ||
                                           	MOVAR	r0x1021
                                           	XORAI	0x09
                                           	JBSET	PFLAG,2
                                           	GOTO	_00794_DS_
                                           	GOTO	_00353_DS_
                                           _00794_DS_
                                           ;	.line	517; "MC32F7361.c"	index == 20 ||
                                           	MOVAR	r0x1021
                                           	XORAI	0x14
                                           	JBSET	PFLAG,2
                                           	GOTO	_00795_DS_
                                           	GOTO	_00353_DS_
                                           _00795_DS_
                                           ;	.line	518; "MC32F7361.c"	index == 27 ||
                                           	MOVAR	r0x1021
                                           	XORAI	0x1b
                                           	JBSET	PFLAG,2
                                           	GOTO	_00796_DS_
                                           	GOTO	_00353_DS_
                                           _00796_DS_
                                           ;	.line	519; "MC32F7361.c"	index == 31 ||
                                           	MOVAR	r0x1021
                                           	XORAI	0x1f
                                           	JBSET	PFLAG,2
                                           	GOTO	_00797_DS_
                                           	GOTO	_00353_DS_
                                           _00797_DS_
                                           ;	.line	520; "MC32F7361.c"	index == 62 ||
                                           	MOVAR	r0x1021
                                           	XORAI	0x3e
                                           	JBSET	PFLAG,2
                                           	GOTO	_00798_DS_
                                           	GOTO	_00353_DS_
                                           _00798_DS_
                                           ;	.line	521; "MC32F7361.c"	index == 73 ||
                                           	MOVAR	r0x1021
                                           	XORAI	0x49
                                           	JBSET	PFLAG,2
                                           	GOTO	_00799_DS_
                                           	GOTO	_00353_DS_
                                           _00799_DS_
                                           ;	.line	522; "MC32F7361.c"	index == 80)
                                           	MOVAR	r0x1021
                                           	XORAI	0x50
                                           	JBSET	PFLAG,2
                                           	GOTO	_00354_DS_
                                           ;;gen.c:6570: size=1, offset=0, AOP_TYPE(res)=8
                                           _00353_DS_
                                           ;	.line	527; "MC32F7361.c"	auto_mode_info.delay_time = 33;
                                           	MOVAI	0x21
                                           	MOVRA	(_auto_mode_info + 0)
                                           ;;gen.c:6570: size=0, offset=1, AOP_TYPE(res)=8
                                           	CLRR	(_auto_mode_info + 1)
                                           	GOTO	_00364_DS_
                                           ;;unsigned compare: left < lit(0xA=10), size=1
                                           _00354_DS_
                                           ;	.line	531; "MC32F7361.c"	else if ((index >= 10 && index <= 19) ||
                                           	MOVAI	0x0a
                                           	RSUBAR	r0x1021
                                           	JBSET	PFLAG,0
                                           	GOTO	_00352_DS_
                                           ;;genSkipc:3291: created from rifx:013B5EFC
                                           ;;swapping arguments (AOP_TYPEs 1/2)
                                           ;;unsigned compare: left >= lit(0x14=20), size=1
                                           	MOVAI	0x14
                                           	RSUBAR	r0x1021
                                           	JBSET	PFLAG,0
                                           	GOTO	_00347_DS_
                                           ;;genSkipc:3291: created from rifx:013B5EFC
                                           ;;unsigned compare: left < lit(0x20=32), size=1
                                           _00352_DS_
                                           ;	.line	532; "MC32F7361.c"	(index >= 32 && index <= 61))
                                           	MOVAI	0x20
                                           	RSUBAR	r0x1021
                                           	JBSET	PFLAG,0
                                           	GOTO	_00348_DS_
                                           ;;genSkipc:3291: created from rifx:013B5EFC
                                           ;;swapping arguments (AOP_TYPEs 1/2)
                                           ;;unsigned compare: left >= lit(0x3E=62), size=1
                                           	MOVAI	0x3e
                                           	RSUBAR	r0x1021
                                           	JBCLR	PFLAG,0
                                           	GOTO	_00348_DS_
                                           ;;genSkipc:3291: created from rifx:013B5EFC
                                           _00347_DS_
                                           ;	.line	541; "MC32F7361.c"	if (CUR_AUTO_SUBMODE_1 == auto_mode_info.cur_auto_submode)
                                           	MOVAR	(_auto_mode_info + 2)
                                           	MOVRA	r0x1022
                                           	MOVAI	0x00
                                           	ORAR	r0x1022
                                           	JBSET	PFLAG,2
                                           	GOTO	_00313_DS_
                                           ;;gen.c:6570: size=1, offset=0, AOP_TYPE(res)=8
                                           ;	.line	543; "MC32F7361.c"	auto_mode_info.delay_time = 172;
                                           	MOVAI	0xac
                                           	MOVRA	(_auto_mode_info + 0)
                                           ;;gen.c:6570: size=0, offset=1, AOP_TYPE(res)=8
                                           	CLRR	(_auto_mode_info + 1)
                                           	GOTO	_00364_DS_
                                           _00313_DS_
                                           ;	.line	545; "MC32F7361.c"	else if (CUR_AUTO_SUBMODE_2 == auto_mode_info.cur_auto_submode)
                                           	MOVAR	(_auto_mode_info + 2)
                                           	MOVRA	r0x1022
                                           	MOVAR	r0x1022
                                           	XORAI	0x01
                                           	JBSET	PFLAG,2
                                           	GOTO	_00310_DS_
                                           ;;gen.c:6570: size=1, offset=0, AOP_TYPE(res)=8
                                           ;	.line	547; "MC32F7361.c"	auto_mode_info.delay_time = 2000;
                                           	MOVAI	0xd0
                                           	MOVRA	(_auto_mode_info + 0)
                                           ;;gen.c:6570: size=0, offset=1, AOP_TYPE(res)=8
                                           	MOVAI	0x07
                                           	MOVRA	(_auto_mode_info + 1)
                                           	GOTO	_00364_DS_
                                           _00310_DS_
                                           ;	.line	549; "MC32F7361.c"	else if (CUR_AUTO_SUBMODE_3 == auto_mode_info.cur_auto_submode)
                                           	MOVAR	(_auto_mode_info + 2)
                                           	MOVRA	r0x1022
                                           	MOVAR	r0x1022
                                           	XORAI	0x02
                                           	JBSET	PFLAG,2
                                           	GOTO	_00307_DS_
                                           ;;gen.c:6570: size=1, offset=0, AOP_TYPE(res)=8
                                           ;	.line	551; "MC32F7361.c"	auto_mode_info.delay_time = 1000;
                                           	MOVAI	0xe8
                                           	MOVRA	(_auto_mode_info + 0)
                                           ;;gen.c:6570: size=0, offset=1, AOP_TYPE(res)=8
                                           	MOVAI	0x03
                                           	MOVRA	(_auto_mode_info + 1)
                                           	GOTO	_00364_DS_
                                           ;;gen.c:6570: size=1, offset=0, AOP_TYPE(res)=8
                                           _00307_DS_
                                           ;	.line	556; "MC32F7361.c"	auto_mode_info.delay_time = 470;
                                           	MOVAI	0xd6
                                           	MOVRA	(_auto_mode_info + 0)
                                           ;;gen.c:6570: size=0, offset=1, AOP_TYPE(res)=8
                                           	MOVAI	0x01
                                           	MOVRA	(_auto_mode_info + 1)
                                           	GOTO	_00364_DS_
                                           ;;unsigned compare: left < lit(0x15=21), size=1
                                           _00348_DS_
                                           ;	.line	562; "MC32F7361.c"	else if ((index >= 21 && index <= 26) ||
                                           	MOVAI	0x15
                                           	RSUBAR	r0x1021
                                           	JBSET	PFLAG,0
                                           	GOTO	_00344_DS_
                                           ;;genSkipc:3291: created from rifx:013B5EFC
                                           ;;swapping arguments (AOP_TYPEs 1/2)
                                           ;;unsigned compare: left >= lit(0x1B=27), size=1
                                           	MOVAI	0x1b
                                           	RSUBAR	r0x1021
                                           	JBSET	PFLAG,0
                                           	GOTO	_00339_DS_
                                           ;;genSkipc:3291: created from rifx:013B5EFC
                                           ;;unsigned compare: left < lit(0x1C=28), size=1
                                           _00344_DS_
                                           ;	.line	563; "MC32F7361.c"	(index >= 28 && index <= 30) ||
                                           	MOVAI	0x1c
                                           	RSUBAR	r0x1021
                                           	JBSET	PFLAG,0
                                           	GOTO	_00346_DS_
                                           ;;genSkipc:3291: created from rifx:013B5EFC
                                           ;;swapping arguments (AOP_TYPEs 1/2)
                                           ;;unsigned compare: left >= lit(0x1F=31), size=1
                                           	MOVAI	0x1f
                                           	RSUBAR	r0x1021
                                           	JBSET	PFLAG,0
                                           	GOTO	_00339_DS_
                                           ;;genSkipc:3291: created from rifx:013B5EFC
                                           ;;unsigned compare: left < lit(0x3F=63), size=1
                                           _00346_DS_
                                           ;	.line	564; "MC32F7361.c"	(index >= 63 && index <= 72))
                                           	MOVAI	0x3f
                                           	RSUBAR	r0x1021
                                           	JBSET	PFLAG,0
                                           	GOTO	_00340_DS_
                                           ;;genSkipc:3291: created from rifx:013B5EFC
                                           ;;swapping arguments (AOP_TYPEs 1/2)
                                           ;;unsigned compare: left >= lit(0x49=73), size=1
                                           	MOVAI	0x49
                                           	RSUBAR	r0x1021
                                           	JBCLR	PFLAG,0
                                           	GOTO	_00340_DS_
                                           ;;genSkipc:3291: created from rifx:013B5EFC
                                           ;;gen.c:6570: size=1, offset=0, AOP_TYPE(res)=8
                                           _00339_DS_
                                           ;	.line	567; "MC32F7361.c"	auto_mode_info.delay_time = 5000;
                                           	MOVAI	0x88
                                           	MOVRA	(_auto_mode_info + 0)
                                           ;;gen.c:6570: size=0, offset=1, AOP_TYPE(res)=8
                                           	MOVAI	0x13
                                           	MOVRA	(_auto_mode_info + 1)
                                           	GOTO	_00364_DS_
                                           ;;unsigned compare: left < lit(0x4A=74), size=1
                                           _00340_DS_
                                           ;	.line	570; "MC32F7361.c"	else if (index >= 74 && index <= 79)
                                           	MOVAI	0x4a
                                           	RSUBAR	r0x1021
                                           	JBSET	PFLAG,0
                                           	GOTO	_00336_DS_
                                           ;;genSkipc:3291: created from rifx:013B5EFC
                                           ;;swapping arguments (AOP_TYPEs 1/2)
                                           ;;unsigned compare: left >= lit(0x50=80), size=1
                                           	MOVAI	0x50
                                           	RSUBAR	r0x1021
                                           	JBCLR	PFLAG,0
                                           	GOTO	_00336_DS_
                                           ;;genSkipc:3291: created from rifx:013B5EFC
                                           ;	.line	579; "MC32F7361.c"	if (CUR_AUTO_SUBMODE_1 == auto_mode_info.cur_auto_submode)
                                           	MOVAR	(_auto_mode_info + 2)
                                           	MOVRA	r0x1022
                                           	MOVAI	0x00
                                           	ORAR	r0x1022
                                           	JBSET	PFLAG,2
                                           	GOTO	_00322_DS_
                                           ;;gen.c:6570: size=1, offset=0, AOP_TYPE(res)=8
                                           ;	.line	581; "MC32F7361.c"	auto_mode_info.delay_time = 2000;
                                           	MOVAI	0xd0
                                           	MOVRA	(_auto_mode_info + 0)
                                           ;;gen.c:6570: size=0, offset=1, AOP_TYPE(res)=8
                                           	MOVAI	0x07
                                           	MOVRA	(_auto_mode_info + 1)
                                           	GOTO	_00364_DS_
                                           _00322_DS_
                                           ;	.line	583; "MC32F7361.c"	else if (CUR_AUTO_SUBMODE_2 == auto_mode_info.cur_auto_submode)
                                           	MOVAR	(_auto_mode_info + 2)
                                           	MOVRA	r0x1022
                                           	MOVAR	r0x1022
                                           	XORAI	0x01
                                           	JBSET	PFLAG,2
                                           	GOTO	_00319_DS_
                                           ;;gen.c:6570: size=1, offset=0, AOP_TYPE(res)=8
                                           ;	.line	585; "MC32F7361.c"	auto_mode_info.delay_time = 5550;
                                           	MOVAI	0xae
                                           	MOVRA	(_auto_mode_info + 0)
                                           ;;gen.c:6570: size=0, offset=1, AOP_TYPE(res)=8
                                           	MOVAI	0x15
                                           	MOVRA	(_auto_mode_info + 1)
                                           	GOTO	_00364_DS_
                                           _00319_DS_
                                           ;	.line	587; "MC32F7361.c"	else if (CUR_AUTO_SUBMODE_3 == auto_mode_info.cur_auto_submode)
                                           	MOVAR	(_auto_mode_info + 2)
                                           	MOVRA	r0x1022
                                           	MOVAR	r0x1022
                                           	XORAI	0x02
                                           	JBSET	PFLAG,2
                                           	GOTO	_00316_DS_
                                           ;;gen.c:6570: size=1, offset=0, AOP_TYPE(res)=8
                                           ;	.line	589; "MC32F7361.c"	auto_mode_info.delay_time = 4560;
                                           	MOVAI	0xd0
                                           	MOVRA	(_auto_mode_info + 0)
                                           ;;gen.c:6570: size=0, offset=1, AOP_TYPE(res)=8
                                           	MOVAI	0x11
                                           	MOVRA	(_auto_mode_info + 1)
                                           	GOTO	_00364_DS_
                                           ;;gen.c:6570: size=1, offset=0, AOP_TYPE(res)=8
                                           _00316_DS_
                                           ;	.line	594; "MC32F7361.c"	auto_mode_info.delay_time = 470;
                                           	MOVAI	0xd6
                                           	MOVRA	(_auto_mode_info + 0)
                                           ;;gen.c:6570: size=0, offset=1, AOP_TYPE(res)=8
                                           	MOVAI	0x01
                                           	MOVRA	(_auto_mode_info + 1)
                                           	GOTO	_00364_DS_
                                           _00336_DS_
                                           ;	.line	598; "MC32F7361.c"	else if (index == 81)
                                           	MOVAR	r0x1021
                                           	XORAI	0x51
                                           	JBSET	PFLAG,2
                                           	GOTO	_00364_DS_
                                           ;	.line	607; "MC32F7361.c"	if (CUR_AUTO_SUBMODE_1 == auto_mode_info.cur_auto_submode)
                                           	MOVAR	(_auto_mode_info + 2)
                                           	MOVRA	r0x1021
                                           	MOVAI	0x00
                                           	ORAR	r0x1021
                                           	JBSET	PFLAG,2
                                           	GOTO	_00331_DS_
                                           ;;gen.c:6570: size=1, offset=0, AOP_TYPE(res)=8
                                           ;	.line	609; "MC32F7361.c"	auto_mode_info.delay_time = 3000;
                                           	MOVAI	0xb8
                                           	MOVRA	(_auto_mode_info + 0)
                                           ;;gen.c:6570: size=0, offset=1, AOP_TYPE(res)=8
                                           	MOVAI	0x0b
                                           	MOVRA	(_auto_mode_info + 1)
                                           	GOTO	_00364_DS_
                                           _00331_DS_
                                           ;	.line	611; "MC32F7361.c"	else if (CUR_AUTO_SUBMODE_2 == auto_mode_info.cur_auto_submode)
                                           	MOVAR	(_auto_mode_info + 2)
                                           	MOVRA	r0x1021
                                           	MOVAR	r0x1021
                                           	XORAI	0x01
                                           	JBSET	PFLAG,2
                                           	GOTO	_00328_DS_
                                           ;;gen.c:6570: size=1, offset=0, AOP_TYPE(res)=8
                                           ;	.line	613; "MC32F7361.c"	auto_mode_info.delay_time = 10000;
                                           	MOVAI	0x10
                                           	MOVRA	(_auto_mode_info + 0)
                                           ;;gen.c:6570: size=0, offset=1, AOP_TYPE(res)=8
                                           	MOVAI	0x27
                                           	MOVRA	(_auto_mode_info + 1)
                                           	GOTO	_00364_DS_
                                           _00328_DS_
                                           ;	.line	615; "MC32F7361.c"	else if (CUR_AUTO_SUBMODE_3 == auto_mode_info.cur_auto_submode)
                                           	MOVAR	(_auto_mode_info + 2)
                                           	MOVRA	r0x1021
                                           	MOVAR	r0x1021
                                           	XORAI	0x02
                                           	JBSET	PFLAG,2
                                           	GOTO	_00325_DS_
                                           ;;gen.c:6570: size=1, offset=0, AOP_TYPE(res)=8
                                           ;	.line	617; "MC32F7361.c"	auto_mode_info.delay_time = 1000;
                                           	MOVAI	0xe8
                                           	MOVRA	(_auto_mode_info + 0)
                                           ;;gen.c:6570: size=0, offset=1, AOP_TYPE(res)=8
                                           	MOVAI	0x03
                                           	MOVRA	(_auto_mode_info + 1)
                                           	GOTO	_00364_DS_
                                           ;;gen.c:6570: size=1, offset=0, AOP_TYPE(res)=8
                                           _00325_DS_
                                           ;	.line	622; "MC32F7361.c"	auto_mode_info.delay_time = 5000;
                                           	MOVAI	0x88
                                           	MOVRA	(_auto_mode_info + 0)
                                           ;;gen.c:6570: size=0, offset=1, AOP_TYPE(res)=8
                                           	MOVAI	0x13
                                           	MOVRA	(_auto_mode_info + 1)
                                           ;;gen.c:6570: size=0, offset=0, AOP_TYPE(res)=8
                                           _00364_DS_
                                           ;	.line	627; "MC32F7361.c"	auto_mode_info.cur_submode_status = CUR_SUBMODE_STATUS_STANDBY;
                                           	MOVAI	0x03
                                           	MOVRA	(_auto_mode_info + 4)
                                           _00366_DS_
                                           ;	.line	633; "MC32F7361.c"	if (CUR_SUBMODE_STATUS_READY_TO_SEND == auto_mode_info.cur_submode_status)
                                           	MOVAR	(_auto_mode_info + 4)
                                           	MOVRA	r0x1021
                                           	MOVAR	r0x1021
                                           	XORAI	0x01
                                           	JBSET	PFLAG,2
                                           	GOTO	_00426_DS_
                                           ;	.line	635; "MC32F7361.c"	u16 tmp = ((u16)table_auto_in_submode[auto_mode_info.cur_submode_index][0] << 8) | table_auto_in_submode[auto_mode_info.cur_submode_index][1];
                                           	MOVAR	(_auto_mode_info + 3)
                                           	MOVRA	r0x1021
                                           	BCLR	PFLAG,0
                                           	RLAR	r0x1021
                                           	MOVRA	r0x1022
                                           	MOVAR	r0x1022
                                           	ADDAI	(_table_auto_in_submode + 0)
                                           	MOVRA	r0x1021
                                           	MOVAI	high (_table_auto_in_submode + 0)
                                           	JBCLR	PFLAG,0
                                           	ADDAI	0x01
                                           	MOVRA	r0x1023
                                           	MOVAR	r0x1021
                                           	MOVRA	STK01
                                           	MOVAR	r0x1023
                                           	MOVRA	STK00
                                           	MOVAI	0x80
                                           	CALL	__gptrget1
                                           	MOVRA	r0x1024
                                           	MOVRA	r0x1021
                                           	MOVRA	r0x1022
                                           ;;104	MOVAR	r0x1022
                                           	CLRR	r0x1023
                                           ;;109	MOVAR	r0x1021
                                           	CLRR	r0x1022
                                           	MOVAR	(_auto_mode_info + 3)
                                           	MOVRA	r0x1021
                                           	BCLR	PFLAG,0
                                           	RLAR	r0x1021
                                           	MOVRA	r0x1023
                                           	MOVAR	r0x1023
                                           	ADDAI	(_table_auto_in_submode + 0)
                                           	MOVRA	r0x1021
                                           	MOVAI	high (_table_auto_in_submode + 0)
                                           	JBCLR	PFLAG,0
                                           	ADDAI	0x01
                                           	MOVRA	r0x1025
                                           	INCR	r0x1021
                                           	JBCLR	PFLAG,2
                                           	INCR	r0x1025
                                           	MOVAR	r0x1021
                                           	MOVRA	STK01
                                           	MOVAR	r0x1025
                                           	MOVRA	STK00
                                           	MOVAI	0x80
                                           	CALL	__gptrget1
                                           	MOVRA	r0x1023
                                           ;;103	MOVAR	r0x1023
                                           	CLRR	r0x1025
                                           ;;102	MOVAR	r0x1021
                                           	MOVAR	r0x1023
                                           	MOVRA	r0x1021
                                           	ORAR	r0x1022
                                           	MOVRA	r0x1021
                                           	MOVAI	0x00
                                           	ORAR	r0x1024
                                           	MOVRA	r0x1022
                                           ;	.line	638; "MC32F7361.c"	if (auto_mode_info.cur_submode_index <= 8)
                                           	MOVAR	(_auto_mode_info + 3)
                                           	MOVRA	r0x1023
                                           ;;swapping arguments (AOP_TYPEs 1/2)
                                           ;;unsigned compare: left >= lit(0x9=9), size=1
                                           	MOVAI	0x09
                                           	RSUBAR	r0x1023
                                           	JBCLR	PFLAG,0
                                           	GOTO	_00417_DS_
                                           ;;genSkipc:3291: created from rifx:013B5EFC
                                           ;	.line	640; "MC32F7361.c"	if (CUR_AUTO_SUBMODE_1 == auto_mode_info.cur_auto_submode)
                                           	MOVAR	(_auto_mode_info + 2)
                                           	MOVRA	r0x1023
                                           	MOVAI	0x00
                                           	ORAR	r0x1023
                                           	JBSET	PFLAG,2
                                           	GOTO	_00374_DS_
                                           ;	.line	642; "MC32F7361.c"	tmp |= (0x0C << 8);
                                           	MOVAI	0x0c
                                           	ORRA	r0x1022
                                           	GOTO	_00418_DS_
                                           _00374_DS_
                                           ;	.line	644; "MC32F7361.c"	else if (CUR_AUTO_SUBMODE_2 == auto_mode_info.cur_auto_submode)
                                           	MOVAR	(_auto_mode_info + 2)
                                           	MOVRA	r0x1023
                                           	MOVAR	r0x1023
                                           	XORAI	0x01
                                           	JBSET	PFLAG,2
                                           	GOTO	_00371_DS_
                                           ;	.line	646; "MC32F7361.c"	tmp |= (0x0F << 8);
                                           	MOVAI	0x0f
                                           	ORRA	r0x1022
                                           	GOTO	_00418_DS_
                                           _00371_DS_
                                           ;	.line	648; "MC32F7361.c"	else if (CUR_AUTO_SUBMODE_3 == auto_mode_info.cur_auto_submode)
                                           	MOVAR	(_auto_mode_info + 2)
                                           	MOVRA	r0x1023
                                           	MOVAR	r0x1023
                                           	XORAI	0x02
                                           	JBSET	PFLAG,2
                                           	GOTO	_00368_DS_
                                           ;	.line	650; "MC32F7361.c"	tmp |= (0x0E << 8);
                                           	MOVAI	0x0e
                                           	ORRA	r0x1022
                                           	GOTO	_00418_DS_
                                           _00368_DS_
                                           ;	.line	655; "MC32F7361.c"	tmp |= (0x0D << 8);
                                           	MOVAI	0x0d
                                           	ORRA	r0x1022
                                           	GOTO	_00418_DS_
                                           _00417_DS_
                                           ;	.line	658; "MC32F7361.c"	else if ((auto_mode_info.cur_submode_index >= 21 && auto_mode_info.cur_submode_index <= 26) ||
                                           	MOVAR	(_auto_mode_info + 3)
                                           	MOVRA	r0x1023
                                           ;;unsigned compare: left < lit(0x15=21), size=1
                                           	MOVAI	0x15
                                           	RSUBAR	r0x1023
                                           	JBSET	PFLAG,0
                                           	GOTO	_00413_DS_
                                           ;;genSkipc:3291: created from rifx:013B5EFC
                                           	MOVAR	(_auto_mode_info + 3)
                                           	MOVRA	r0x1023
                                           ;;swapping arguments (AOP_TYPEs 1/2)
                                           ;;unsigned compare: left >= lit(0x1B=27), size=1
                                           	MOVAI	0x1b
                                           	RSUBAR	r0x1023
                                           	JBSET	PFLAG,0
                                           	GOTO	_00408_DS_
                                           ;;genSkipc:3291: created from rifx:013B5EFC
                                           _00413_DS_
                                           ;	.line	659; "MC32F7361.c"	(auto_mode_info.cur_submode_index >= 28 && auto_mode_info.cur_submode_index <= 30) ||
                                           	MOVAR	(_auto_mode_info + 3)
                                           	MOVRA	r0x1023
                                           ;;unsigned compare: left < lit(0x1C=28), size=1
                                           	MOVAI	0x1c
                                           	RSUBAR	r0x1023
                                           	JBSET	PFLAG,0
                                           	GOTO	_00415_DS_
                                           ;;genSkipc:3291: created from rifx:013B5EFC
                                           	MOVAR	(_auto_mode_info + 3)
                                           	MOVRA	r0x1023
                                           ;;swapping arguments (AOP_TYPEs 1/2)
                                           ;;unsigned compare: left >= lit(0x1F=31), size=1
                                           	MOVAI	0x1f
                                           	RSUBAR	r0x1023
                                           	JBSET	PFLAG,0
                                           	GOTO	_00408_DS_
                                           ;;genSkipc:3291: created from rifx:013B5EFC
                                           _00415_DS_
                                           ;	.line	660; "MC32F7361.c"	(auto_mode_info.cur_submode_index >= 63 && auto_mode_info.cur_submode_index <= 72))
                                           	MOVAR	(_auto_mode_info + 3)
                                           	MOVRA	r0x1023
                                           ;;unsigned compare: left < lit(0x3F=63), size=1
                                           	MOVAI	0x3f
                                           	RSUBAR	r0x1023
                                           	JBSET	PFLAG,0
                                           	GOTO	_00409_DS_
                                           ;;genSkipc:3291: created from rifx:013B5EFC
                                           	MOVAR	(_auto_mode_info + 3)
                                           	MOVRA	r0x1023
                                           ;;swapping arguments (AOP_TYPEs 1/2)
                                           ;;unsigned compare: left >= lit(0x49=73), size=1
                                           	MOVAI	0x49
                                           	RSUBAR	r0x1023
                                           	JBCLR	PFLAG,0
                                           	GOTO	_00409_DS_
                                           ;;genSkipc:3291: created from rifx:013B5EFC
                                           _00408_DS_
                                           ;	.line	662; "MC32F7361.c"	if (CUR_AUTO_SUBMODE_1 == auto_mode_info.cur_auto_submode)
                                           	MOVAR	(_auto_mode_info + 2)
                                           	MOVRA	r0x1023
                                           	MOVAI	0x00
                                           	ORAR	r0x1023
                                           	JBSET	PFLAG,2
                                           	GOTO	_00383_DS_
                                           ;	.line	664; "MC32F7361.c"	tmp |= (0x0A << 8);
                                           	MOVAI	0x0a
                                           	ORRA	r0x1022
                                           	GOTO	_00418_DS_
                                           _00383_DS_
                                           ;	.line	666; "MC32F7361.c"	else if (CUR_AUTO_SUBMODE_2 == auto_mode_info.cur_auto_submode)
                                           	MOVAR	(_auto_mode_info + 2)
                                           	MOVRA	r0x1023
                                           	MOVAR	r0x1023
                                           	XORAI	0x01
                                           	JBSET	PFLAG,2
                                           	GOTO	_00380_DS_
                                           ;	.line	668; "MC32F7361.c"	tmp |= (0x09 << 8);
                                           	MOVAI	0x09
                                           	ORRA	r0x1022
                                           	GOTO	_00418_DS_
                                           _00380_DS_
                                           ;	.line	670; "MC32F7361.c"	else if (CUR_AUTO_SUBMODE_3 == auto_mode_info.cur_auto_submode)
                                           	MOVAR	(_auto_mode_info + 2)
                                           	MOVRA	r0x1023
                                           	MOVAR	r0x1023
                                           	XORAI	0x02
                                           	JBSET	PFLAG,2
                                           	GOTO	_00377_DS_
                                           ;	.line	672; "MC32F7361.c"	tmp |= (0x0B << 8);
                                           	MOVAI	0x0b
                                           	ORRA	r0x1022
                                           	GOTO	_00418_DS_
                                           _00377_DS_
                                           ;	.line	677; "MC32F7361.c"	tmp |= (0x08 << 8);
                                           	BSET	r0x1022,3
                                           	GOTO	_00418_DS_
                                           _00409_DS_
                                           ;	.line	680; "MC32F7361.c"	else if (auto_mode_info.cur_submode_index >= 74 && auto_mode_info.cur_submode_index <= 79)
                                           	MOVAR	(_auto_mode_info + 3)
                                           	MOVRA	r0x1023
                                           ;;unsigned compare: left < lit(0x4A=74), size=1
                                           	MOVAI	0x4a
                                           	RSUBAR	r0x1023
                                           	JBSET	PFLAG,0
                                           	GOTO	_00405_DS_
                                           ;;genSkipc:3291: created from rifx:013B5EFC
                                           	MOVAR	(_auto_mode_info + 3)
                                           	MOVRA	r0x1023
                                           ;;swapping arguments (AOP_TYPEs 1/2)
                                           ;;unsigned compare: left >= lit(0x50=80), size=1
                                           	MOVAI	0x50
                                           	RSUBAR	r0x1023
                                           	JBCLR	PFLAG,0
                                           	GOTO	_00405_DS_
                                           ;;genSkipc:3291: created from rifx:013B5EFC
                                           ;	.line	682; "MC32F7361.c"	if (CUR_AUTO_SUBMODE_1 == auto_mode_info.cur_auto_submode)
                                           	MOVAR	(_auto_mode_info + 2)
                                           	MOVRA	r0x1023
                                           	MOVAI	0x00
                                           	ORAR	r0x1023
                                           	JBSET	PFLAG,2
                                           	GOTO	_00391_DS_
                                           ;	.line	684; "MC32F7361.c"	tmp |= (0x04 << 8);
                                           	BSET	r0x1022,2
                                           	GOTO	_00418_DS_
                                           _00391_DS_
                                           ;	.line	686; "MC32F7361.c"	else if (CUR_AUTO_SUBMODE_2 == auto_mode_info.cur_auto_submode)
                                           	MOVAR	(_auto_mode_info + 2)
                                           	MOVRA	r0x1023
                                           	MOVAR	r0x1023
                                           	XORAI	0x01
                                           	JBSET	PFLAG,2
                                           	GOTO	_00388_DS_
                                           ;	.line	688; "MC32F7361.c"	tmp |= (0x07 << 8);
                                           	MOVAI	0x07
                                           	ORRA	r0x1022
                                           	GOTO	_00418_DS_
                                           _00388_DS_
                                           ;	.line	690; "MC32F7361.c"	else if (CUR_AUTO_SUBMODE_3 == auto_mode_info.cur_auto_submode)
                                           	MOVAR	(_auto_mode_info + 2)
                                           	MOVRA	r0x1023
                                           	MOVAR	r0x1023
                                           	XORAI	0x02
                                           	JBSET	PFLAG,2
                                           	GOTO	_00418_DS_
                                           ;	.line	692; "MC32F7361.c"	tmp |= (0x06 << 8);
                                           	MOVAI	0x06
                                           	ORRA	r0x1022
                                           	GOTO	_00418_DS_
                                           _00405_DS_
                                           ;	.line	700; "MC32F7361.c"	else if (auto_mode_info.cur_submode_index == 81)
                                           	MOVAR	(_auto_mode_info + 3)
                                           	MOVRA	r0x1023
                                           	MOVAR	r0x1023
                                           	XORAI	0x51
                                           	JBSET	PFLAG,2
                                           	GOTO	_00418_DS_
                                           ;	.line	702; "MC32F7361.c"	if (CUR_AUTO_SUBMODE_1 == auto_mode_info.cur_auto_submode)
                                           	MOVAR	(_auto_mode_info + 2)
                                           	MOVRA	r0x1023
                                           	MOVAI	0x00
                                           	ORAR	r0x1023
                                           	JBSET	PFLAG,2
                                           	GOTO	_00400_DS_
                                           ;	.line	704; "MC32F7361.c"	tmp |= (0x0C << 8);
                                           	MOVAI	0x0c
                                           	ORRA	r0x1022
                                           	GOTO	_00418_DS_
                                           _00400_DS_
                                           ;	.line	706; "MC32F7361.c"	else if (CUR_AUTO_SUBMODE_2 == auto_mode_info.cur_auto_submode)
                                           	MOVAR	(_auto_mode_info + 2)
                                           	MOVRA	r0x1023
                                           	MOVAR	r0x1023
                                           	XORAI	0x01
                                           	JBSET	PFLAG,2
                                           	GOTO	_00397_DS_
                                           ;	.line	708; "MC32F7361.c"	tmp |= (0x0F << 8);
                                           	MOVAI	0x0f
                                           	ORRA	r0x1022
                                           	GOTO	_00418_DS_
                                           _00397_DS_
                                           ;	.line	710; "MC32F7361.c"	else if (CUR_AUTO_SUBMODE_3 == auto_mode_info.cur_auto_submode)
                                           	MOVAR	(_auto_mode_info + 2)
                                           	MOVRA	r0x1023
                                           	MOVAR	r0x1023
                                           	XORAI	0x02
                                           	JBSET	PFLAG,2
                                           	GOTO	_00821_DS_
                                           	GOTO	_00418_DS_
                                           _00821_DS_
                                           ;	.line	717; "MC32F7361.c"	tmp |= (0x08  << 8);
                                           	BSET	r0x1022,3
                                           _00418_DS_
                                           ;	.line	722; "MC32F7361.c"	send_cmd_16bit_without_delay(tmp);
                                           	MOVAR	r0x1021
                                           	MOVRA	STK00
                                           	MOVAR	r0x1022
                                           	CALL	_send_cmd_16bit_without_delay
                                           ;	.line	724; "MC32F7361.c"	auto_mode_info.cur_submode_index++;
                                           	MOVAR	(_auto_mode_info + 3)
                                           	MOVRA	r0x1021
                                           	INCR	r0x1021
                                           ;;gen.c:6570: size=0, offset=0, AOP_TYPE(res)=8
                                           	MOVAR	r0x1021
                                           	MOVRA	(_auto_mode_info + 3)
                                           ;	.line	725; "MC32F7361.c"	if (auto_mode_info.cur_submode_index >= ARRAY_SIZE(table_auto_in_submode))
                                           	MOVAR	(_auto_mode_info + 3)
                                           	MOVRA	r0x1021
                                           ;;unsigned compare: left < lit(0x52=82), size=1
                                           	MOVAI	0x52
                                           	RSUBAR	r0x1021
                                           	JBSET	PFLAG,0
                                           	GOTO	_00420_DS_
                                           ;;genSkipc:3291: created from rifx:013B5EFC
                                           ;;gen.c:6570: size=0, offset=0, AOP_TYPE(res)=8
                                           ;	.line	728; "MC32F7361.c"	auto_mode_info.cur_submode_index = 0;
                                           	CLRR	(_auto_mode_info + 3)
                                           ;;gen.c:6570: size=0, offset=0, AOP_TYPE(res)=8
                                           _00420_DS_
                                           ;	.line	732; "MC32F7361.c"	auto_mode_info.cur_submode_status = CUR_SUBMODE_STATUS_PREPARE_TO_SET_DELAY_TIME;
                                           	MOVAI	0x02
                                           	MOVRA	(_auto_mode_info + 4)
                                           	GOTO	_00426_DS_
                                           ;	.line	740; "MC32F7361.c"	}
                                           	RETURN	
                                           ; exit point of _main
                                           
                                           ;***
                                           ;  pBlock Stats: dbName = C
                                           ;***
                                           ;entry:  _Sys_Init	;Function start
                                           ; 2 exit points
                                           ;has an exit
                                           ;functions called:
                                           ;   _CLR_RAM
                                           ;   _IO_Init
                                           ;   _TIMER2_INT_Init
                                           ;   _TIMER3_INT_Init
                                           ;   _CLR_RAM
                                           ;   _IO_Init
                                           ;   _TIMER2_INT_Init
                                           ;   _TIMER3_INT_Init
                                           ;; Starting pCode block
                                           _Sys_Init	;Function start
                                           ; 2 exit points
                                           ;	.line	243; "MC32F7361.c"	GIE = 0;
                                           	BCLR	_MCRbits,7
                                           ;	.line	244; "MC32F7361.c"	CLR_RAM();
                                           	CALL	_CLR_RAM
                                           ;	.line	245; "MC32F7361.c"	IO_Init();
                                           	CALL	_IO_Init
                                           ;	.line	248; "MC32F7361.c"	TIMER2_INT_Init();
                                           	CALL	_TIMER2_INT_Init
                                           ;	.line	249; "MC32F7361.c"	TIMER3_INT_Init();
                                           	CALL	_TIMER3_INT_Init
                                           ;	.line	250; "MC32F7361.c"	GIE = 1;
                                           	BSET	_MCRbits,7
                                           ;	.line	251; "MC32F7361.c"	}
                                           	RETURN	
                                           ; exit point of _Sys_Init
                                           
                                           ;***
                                           ;  pBlock Stats: dbName = C
                                           ;***
                                           ;entry:  _TIMER3_INT_Init	;Function start
                                           ; 2 exit points
                                           ;has an exit
                                           ;; Starting pCode block
                                           _TIMER3_INT_Init	;Function start
                                           ; 2 exit points
                                           ;	.line	231; "MC32F7361.c"	T3LOAD = 135 - 1;                               // 1ms
                                           	MOVAI	0x86
                                           	MOVRA	_T3LOAD
                                           ;	.line	232; "MC32F7361.c"	T3CR = (0x01 << 7) | (0x01 << 2) | (0x01 << 1); // FCPU64
                                           	MOVAI	0x86
                                           	MOVRA	_T3CR
                                           ;	.line	233; "MC32F7361.c"	T3IE = 1;
                                           	BSET	_INTEbits,7
                                           ;	.line	234; "MC32F7361.c"	}
                                           	RETURN	
                                           ; exit point of _TIMER3_INT_Init
                                           
                                           ;***
                                           ;  pBlock Stats: dbName = C
                                           ;***
                                           ;entry:  _TIMER2_INT_Init	;Function start
                                           ; 2 exit points
                                           ;has an exit
                                           ;; Starting pCode block
                                           _TIMER2_INT_Init	;Function start
                                           ; 2 exit points
                                           ;	.line	222; "MC32F7361.c"	T2CR = DEF_SET_BIT0 | DEF_SET_BIT1; // CPU,8
                                           	MOVAI	0x03
                                           	MOVRA	_T2CR
                                           ;	.line	223; "MC32F7361.c"	T2CNT = 100 - 1;
                                           	MOVAI	0x63
                                           	MOVRA	_T2CNT
                                           ;	.line	224; "MC32F7361.c"	T2LOAD = 100 - 1; // 100us
                                           	MOVAI	0x63
                                           	MOVRA	_T2LOAD
                                           ;	.line	225; "MC32F7361.c"	T2EN = 1;
                                           	BSET	_T2CRbits,7
                                           ;	.line	226; "MC32F7361.c"	T2IE = 1;
                                           	BSET	_INTEbits,5
                                           ;	.line	227; "MC32F7361.c"	}
                                           	RETURN	
                                           ; exit point of _TIMER2_INT_Init
                                           
                                           ;***
                                           ;  pBlock Stats: dbName = C
                                           ;***
                                           ;entry:  _IO_Init	;Function start
                                           ; 2 exit points
                                           ;has an exit
                                           ;; Starting pCode block
                                           _IO_Init	;Function start
                                           ; 2 exit points
                                           ;	.line	193; "MC32F7361.c"	IOP0 = 0x00;   // io
                                           	CLRR	_IOP0
                                           ;	.line	194; "MC32F7361.c"	OEP0 = 0x3F;   // io 1:out  0:in
                                           	MOVAI	0x3f
                                           	MOVRA	_OEP0
                                           ;	.line	195; "MC32F7361.c"	PUP0 = 0x00;   // io   1:enable  0:disable
                                           	CLRR	_PUP0
                                           ;	.line	196; "MC32F7361.c"	PDP0 = 0x00;   // io   1:enable  0:disable
                                           	CLRR	_PDP0
                                           ;	.line	197; "MC32F7361.c"	P0ADCR = 0x00; // io  1:  0:io
                                           	CLRR	_P0ADCR
                                           ;	.line	199; "MC32F7361.c"	IOP1 = 0x00;   // io
                                           	CLRR	_IOP1
                                           ;	.line	200; "MC32F7361.c"	OEP1 = 0xFF;   // io 1:out  0:in
                                           	MOVAI	0xff
                                           	MOVRA	_OEP1
                                           ;	.line	201; "MC32F7361.c"	PUP1 = 0x00;   // io   1:enable  0:disable
                                           	CLRR	_PUP1
                                           ;	.line	202; "MC32F7361.c"	PDP1 = 0x00;   // io   1:enable  0:disable
                                           	CLRR	_PDP1
                                           ;	.line	203; "MC32F7361.c"	P1ADCR = 0x00; // io  1:  0:io
                                           	CLRR	_P1ADCR
                                           ;	.line	205; "MC32F7361.c"	IOP2 = 0x00; // io
                                           	CLRR	_IOP2
                                           ;	.line	206; "MC32F7361.c"	OEP2 = 0x0F; // io 1:out  0:in
                                           	MOVAI	0x0f
                                           	MOVRA	_OEP2
                                           ;	.line	207; "MC32F7361.c"	PUP2 = 0x00; // io   1:enable  0:disable
                                           	CLRR	_PUP2
                                           ;	.line	208; "MC32F7361.c"	PDP2 = 0x00; // io   1:enable  0:disablea
                                           	CLRR	_PDP2
                                           ;	.line	210; "MC32F7361.c"	PMOD = 0x00;  // P00P01P13 io
                                           	CLRR	_PMOD
                                           ;	.line	211; "MC32F7361.c"	DRVCR = 0x80; // 
                                           	MOVAI	0x80
                                           	MOVRA	_DRVCR
                                           ;	.line	212; "MC32F7361.c"	}
                                           	RETURN	
                                           ; exit point of _IO_Init
                                           
                                           ;***
                                           ;  pBlock Stats: dbName = C
                                           ;***
                                           ;entry:  _CLR_RAM	;Function start
                                           ; 2 exit points
                                           ;has an exit
                                           ;; Starting pCode block
                                           _CLR_RAM	;Function start
                                           ; 2 exit points
                                           ;	.line	178; "MC32F7361.c"	for (FSR0 = 0; FSR0 < 0xff; FSR0++)
                                           	CLRR	_FSR0
                                           ;;unsigned compare: left < lit(0xFF=255), size=1
                                           _00226_DS_
                                           	MOVAI	0xff
                                           	RSUBAR	_FSR0
                                           	JBCLR	PFLAG,0
                                           	GOTO	_00224_DS_
                                           ;;genSkipc:3291: created from rifx:013B5EFC
                                           ;	.line	180; "MC32F7361.c"	INDF0 = 0x00;
                                           	CLRR	_INDF0
                                           ;	.line	178; "MC32F7361.c"	for (FSR0 = 0; FSR0 < 0xff; FSR0++)
                                           	INCR	_FSR0
                                           	GOTO	_00226_DS_
                                           _00224_DS_
                                           ;	.line	182; "MC32F7361.c"	FSR0 = 0xFF;
                                           	MOVAI	0xff
                                           	MOVRA	_FSR0
                                           ;	.line	183; "MC32F7361.c"	INDF0 = 0x00;
                                           	CLRR	_INDF0
                                           ;	.line	184; "MC32F7361.c"	}
                                           	RETURN	
                                           ; exit point of _CLR_RAM
                                           
                                           ;***
                                           ;  pBlock Stats: dbName = C
                                           ;***
                                           ;entry:  _send_cmd_16bit_without_delay	;Function start
                                           ; 2 exit points
                                           ;has an exit
                                           ;functions called:
                                           ;   _delay_100us
                                           ;   _delay_ms
                                           ;   _delay_1_4ms
                                           ;   _delay_100us
                                           ;   _delay_100us
                                           ;   _delay_ms
                                           ;   _delay_1_4ms
                                           ;   _delay_100us
                                           ;7 compiler assigned registers:
                                           ;   r0x101B
                                           ;   STK00
                                           ;   r0x101C
                                           ;   r0x101D
                                           ;   r0x101E
                                           ;   r0x101F
                                           ;   r0x1020
                                           ;; Starting pCode block
                                           _send_cmd_16bit_without_delay	;Function start
                                           ; 2 exit points
                                           ;	.line	140; "MC32F7361.c"	void send_cmd_16bit_without_delay(const u16 data)
                                           	MOVRA	r0x101B
                                           	MOVAR	STK00
                                           	MOVRA	r0x101C
                                           ;	.line	143; "MC32F7361.c"	if (0 == flag_is_dev_open)
                                           	JBCLR	_flag1,1
                                           	GOTO	_00203_DS_
                                           ;	.line	145; "MC32F7361.c"	return;
                                           	GOTO	_00199_DS_
                                           _00203_DS_
                                           ;	.line	149; "MC32F7361.c"	for (i = 0; i < 16; i++)
                                           	CLRR	r0x101D
                                           _00197_DS_
                                           ;	.line	151; "MC32F7361.c"	LED_CTL_PIN = 0;
                                           	BCLR	_IOP2bits,2
                                           ;	.line	152; "MC32F7361.c"	delay_100us();
                                           	CALL	_delay_100us
                                           ;	.line	153; "MC32F7361.c"	LED_CTL_PIN = 1;
                                           	BSET	_IOP2bits,2
                                           ;	.line	154; "MC32F7361.c"	if ((data >> (15 - i)) & 0x01) // 1
                                           	MOVAR	r0x101D
                                           	ISUBAI	0x0f
                                           	MOVRA	r0x101E
                                           	MOVAR	r0x101B
                                           	MOVRA	r0x101F
                                           	MOVAR	r0x101C
                                           	MOVRA	r0x1020
                                           	MOVAR	r0x101E
                                           	ISUBAI	0x00
                                           	JBCLR	PFLAG,2
                                           	GOTO	_00219_DS_
                                           _00218_DS_
                                           	RRR	r0x101F
                                           	RRR	r0x1020
                                           	ADDAI	0x01
                                           	JBSET	PFLAG,0
                                           	GOTO	_00218_DS_
                                           _00219_DS_
                                           	JBSET	r0x1020,0
                                           	GOTO	_00194_DS_
                                           ;	.line	156; "MC32F7361.c"	delay_ms(3);
                                           	MOVAI	0x03
                                           	MOVRA	STK00
                                           	MOVAI	0x00
                                           	CALL	_delay_ms
                                           	GOTO	_00198_DS_
                                           _00194_DS_
                                           ;	.line	160; "MC32F7361.c"	delay_1_4ms();
                                           	CALL	_delay_1_4ms
                                           _00198_DS_
                                           ;	.line	149; "MC32F7361.c"	for (i = 0; i < 16; i++)
                                           	INCR	r0x101D
                                           ;;unsigned compare: left < lit(0x10=16), size=1
                                           	MOVAI	0x10
                                           	RSUBAR	r0x101D
                                           	JBSET	PFLAG,0
                                           	GOTO	_00197_DS_
                                           ;;genSkipc:3291: created from rifx:013B5EFC
                                           ;	.line	164; "MC32F7361.c"	LED_CTL_PIN = 0;
                                           	BCLR	_IOP2bits,2
                                           ;	.line	165; "MC32F7361.c"	delay_100us();
                                           	CALL	_delay_100us
                                           ;	.line	166; "MC32F7361.c"	LED_CTL_PIN = 1;
                                           	BSET	_IOP2bits,2
                                           _00199_DS_
                                           ;	.line	168; "MC32F7361.c"	}
                                           	RETURN	
                                           ; exit point of _send_cmd_16bit_without_delay
                                           
                                           ;***
                                           ;  pBlock Stats: dbName = C
                                           ;***
                                           ;entry:  _send_cmd_16bit	;Function start
                                           ; 2 exit points
                                           ;has an exit
                                           ;functions called:
                                           ;   _delay_100us
                                           ;   _delay_ms
                                           ;   _delay_1_4ms
                                           ;   _delay_100us
                                           ;   _delay_ms
                                           ;   _delay_100us
                                           ;   _delay_ms
                                           ;   _delay_1_4ms
                                           ;   _delay_100us
                                           ;   _delay_ms
                                           ;7 compiler assigned registers:
                                           ;   r0x101B
                                           ;   STK00
                                           ;   r0x101C
                                           ;   r0x101D
                                           ;   r0x101E
                                           ;   r0x101F
                                           ;   r0x1020
                                           ;; Starting pCode block
                                           _send_cmd_16bit	;Function start
                                           ; 2 exit points
                                           ;	.line	108; "MC32F7361.c"	void send_cmd_16bit(const u16 data)
                                           	MOVRA	r0x101B
                                           	MOVAR	STK00
                                           	MOVRA	r0x101C
                                           ;	.line	111; "MC32F7361.c"	if (0 == flag_is_dev_open)
                                           	JBCLR	_flag1,1
                                           	GOTO	_00170_DS_
                                           ;	.line	113; "MC32F7361.c"	return;
                                           	GOTO	_00166_DS_
                                           _00170_DS_
                                           ;	.line	117; "MC32F7361.c"	for (i = 0; i < 16; i++)
                                           	CLRR	r0x101D
                                           _00164_DS_
                                           ;	.line	119; "MC32F7361.c"	LED_CTL_PIN = 0;
                                           	BCLR	_IOP2bits,2
                                           ;	.line	120; "MC32F7361.c"	delay_100us();
                                           	CALL	_delay_100us
                                           ;	.line	121; "MC32F7361.c"	LED_CTL_PIN = 1;
                                           	BSET	_IOP2bits,2
                                           ;	.line	122; "MC32F7361.c"	if ((data >> (15 - i)) & 0x01) // 1
                                           	MOVAR	r0x101D
                                           	ISUBAI	0x0f
                                           	MOVRA	r0x101E
                                           	MOVAR	r0x101B
                                           	MOVRA	r0x101F
                                           	MOVAR	r0x101C
                                           	MOVRA	r0x1020
                                           	MOVAR	r0x101E
                                           	ISUBAI	0x00
                                           	JBCLR	PFLAG,2
                                           	GOTO	_00186_DS_
                                           _00185_DS_
                                           	RRR	r0x101F
                                           	RRR	r0x1020
                                           	ADDAI	0x01
                                           	JBSET	PFLAG,0
                                           	GOTO	_00185_DS_
                                           _00186_DS_
                                           	JBSET	r0x1020,0
                                           	GOTO	_00161_DS_
                                           ;	.line	124; "MC32F7361.c"	delay_ms(3);
                                           	MOVAI	0x03
                                           	MOVRA	STK00
                                           	MOVAI	0x00
                                           	CALL	_delay_ms
                                           	GOTO	_00165_DS_
                                           _00161_DS_
                                           ;	.line	128; "MC32F7361.c"	delay_1_4ms();
                                           	CALL	_delay_1_4ms
                                           _00165_DS_
                                           ;	.line	117; "MC32F7361.c"	for (i = 0; i < 16; i++)
                                           	INCR	r0x101D
                                           ;;unsigned compare: left < lit(0x10=16), size=1
                                           	MOVAI	0x10
                                           	RSUBAR	r0x101D
                                           	JBSET	PFLAG,0
                                           	GOTO	_00164_DS_
                                           ;;genSkipc:3291: created from rifx:013B5EFC
                                           ;	.line	132; "MC32F7361.c"	LED_CTL_PIN = 0;
                                           	BCLR	_IOP2bits,2
                                           ;	.line	133; "MC32F7361.c"	delay_100us();
                                           	CALL	_delay_100us
                                           ;	.line	134; "MC32F7361.c"	LED_CTL_PIN = 1;
                                           	BSET	_IOP2bits,2
                                           ;	.line	135; "MC32F7361.c"	delay_ms(33);
                                           	MOVAI	0x21
                                           	MOVRA	STK00
                                           	MOVAI	0x00
                                           	CALL	_delay_ms
                                           _00166_DS_
                                           ;	.line	137; "MC32F7361.c"	}
                                           	RETURN	
                                           ; exit point of _send_cmd_16bit
                                           
                                           ;***
                                           ;  pBlock Stats: dbName = C
                                           ;***
                                           ;entry:  _EEPROM_Write_Data	;Function start
                                           ; 2 exit points
                                           ;has an exit
                                           ;functions called:
                                           ;   __gptrget2
                                           ;   _EEPROM_Write_Byte
                                           ;   __gptrget2
                                           ;   _EEPROM_Write_Byte
                                           ;12 compiler assigned registers:
                                           ;   r0x102D
                                           ;   STK00
                                           ;   r0x102E
                                           ;   STK01
                                           ;   r0x102F
                                           ;   STK02
                                           ;   r0x1030
                                           ;   STK03
                                           ;   r0x1031
                                           ;   r0x1032
                                           ;   r0x1033
                                           ;   r0x1034
                                           ;; Starting pCode block
                                           _EEPROM_Write_Data	;Function start
                                           ; 2 exit points
                                           ;	.line	98; "MC32F7361.c"	void EEPROM_Write_Data(u8 addr, u16 *data, u8 len)
                                           	MOVRA	r0x102D
                                           	MOVAR	STK00
                                           	MOVRA	r0x102E
                                           	MOVAR	STK01
                                           	MOVRA	r0x102F
                                           	MOVAR	STK02
                                           	MOVRA	r0x1030
                                           	MOVAR	STK03
                                           	MOVRA	r0x1031
                                           _00150_DS_
                                           ;	.line	100; "MC32F7361.c"	while (len)
                                           	MOVAI	0x00
                                           	ORAR	r0x1031
                                           	JBCLR	PFLAG,2
                                           	GOTO	_00153_DS_
                                           ;	.line	102; "MC32F7361.c"	EEPROM_Write_Byte(addr++, *data++);
                                           	MOVAR	r0x102D
                                           	MOVRA	r0x1032
                                           	INCR	r0x102D
                                           	MOVAR	r0x1030
                                           	MOVRA	STK01
                                           	MOVAR	r0x102F
                                           	MOVRA	STK00
                                           	MOVAR	r0x102E
                                           	CALL	__gptrget2
                                           	MOVRA	r0x1033
                                           	MOVAR	STK00
                                           	MOVRA	r0x1034
                                           	MOVAI	0x02
                                           	ADDRA	r0x1030
                                           	JBCLR	PFLAG,0
                                           	INCR	r0x102F
                                           	JBCLR	PFLAG,2
                                           	INCR	r0x102E
                                           	MOVAR	r0x1034
                                           	MOVRA	STK01
                                           	MOVAR	r0x1033
                                           	MOVRA	STK00
                                           	MOVAR	r0x1032
                                           	CALL	_EEPROM_Write_Byte
                                           ;	.line	103; "MC32F7361.c"	len--;
                                           	DECR	r0x1031
                                           	GOTO	_00150_DS_
                                           _00153_DS_
                                           ;	.line	105; "MC32F7361.c"	}
                                           	RETURN	
                                           ; exit point of _EEPROM_Write_Data
                                           
                                           ;***
                                           ;  pBlock Stats: dbName = C
                                           ;***
                                           ;entry:  _EEPROM_Read_Byte	;Function start
                                           ; 2 exit points
                                           ;has an exit
                                           ;5 compiler assigned registers:
                                           ;   r0x1035
                                           ;   r0x1036
                                           ;   r0x1037
                                           ;   r0x1038
                                           ;   STK00
                                           ;; Starting pCode block
                                           _EEPROM_Read_Byte	;Function start
                                           ; 2 exit points
                                           ;	.line	78; "MC32F7361.c"	uint16_t EEPROM_Read_Byte(u8 addr)
                                           	MOVRA	_EEAR
                                           ;	.line	82; "MC32F7361.c"	EECR = 0x02; //  EE 
                                           	MOVAI	0x02
                                           	MOVRA	_EECR
                                           ;	.line	83; "MC32F7361.c"	Nop();
                                           	nop	
                                           ;	.line	84; "MC32F7361.c"	Nop();
                                           	nop	
                                           _00145_DS_
                                           ;	.line	85; "MC32F7361.c"	while (EEREAD) //  EE 
                                           	JBCLR	_EECRbits,1
                                           	GOTO	_00145_DS_
                                           ;	.line	89; "MC32F7361.c"	EEDR = (EEDRH << 8) | EEDRL;
                                           	MOVAR	_EEDRH
                                           	MOVRA	r0x1037
                                           	MOVRA	r0x1035
                                           	CLRR	r0x1036
                                           ;;101	MOVAR	r0x1035
                                           	CLRR	r0x1038
                                           	MOVAR	_EEDRL
                                           	MOVRA	r0x1035
                                           	CLRR	r0x1036
                                           	MOVAR	r0x1035
                                           	ORRA	r0x1038
                                           	MOVAI	0x00
                                           	ORRA	r0x1037
                                           ;	.line	90; "MC32F7361.c"	return EEDR;
                                           	MOVAR	r0x1038
                                           	MOVRA	STK00
                                           	MOVAR	r0x1037
                                           ;	.line	91; "MC32F7361.c"	}
                                           	RETURN	
                                           ; exit point of _EEPROM_Read_Byte
                                           
                                           ;***
                                           ;  pBlock Stats: dbName = C
                                           ;***
                                           ;entry:  _EEPROM_Write_Byte	;Function start
                                           ; 2 exit points
                                           ;has an exit
                                           ;6 compiler assigned registers:
                                           ;   STK00
                                           ;   r0x1029
                                           ;   STK01
                                           ;   r0x102A
                                           ;   r0x102B
                                           ;   r0x102C
                                           ;; Starting pCode block
                                           _EEPROM_Write_Byte	;Function start
                                           ; 2 exit points
                                           ;	.line	54; "MC32F7361.c"	void EEPROM_Write_Byte(uint8_t addr, uint16_t data)
                                           	MOVRA	_EEAR
                                           	MOVAR	STK00
                                           	MOVRA	r0x102B
                                           ;;1	MOVRA	r0x1029
                                           	MOVAR	STK01
                                           	MOVRA	r0x102A
                                           ;	.line	56; "MC32F7361.c"	HFEN = 1;
                                           	BSET	_OSCMRbits,0
                                           ;;99	MOVAR	r0x1029
                                           ;;1	CLRR	r0x102C
                                           ;	.line	58; "MC32F7361.c"	EEDRH = (data >> 8) & 0xff;
                                           	MOVAR	r0x102B
                                           	MOVRA	_EEDRH
                                           ;	.line	59; "MC32F7361.c"	EEDRL = data & 0xff;
                                           	MOVAR	r0x102A
                                           	MOVRA	_EEDRL
                                           ;	.line	60; "MC32F7361.c"	GIE = 0;
                                           	BCLR	_MCRbits,7
                                           ;	.line	61; "MC32F7361.c"	EEPR = 0x5A;
                                           	MOVAI	0x5a
                                           	MOVRA	_EEPR
                                           ;	.line	62; "MC32F7361.c"	EEPR = 0xA5; // 
                                           	MOVAI	0xa5
                                           	MOVRA	_EEPR
                                           ;	.line	63; "MC32F7361.c"	EECR = 0x01; // EEPROM  
                                           	MOVAI	0x01
                                           	MOVRA	_EECR
                                           ;	.line	64; "MC32F7361.c"	Nop();
                                           	nop	
                                           ;	.line	65; "MC32F7361.c"	Nop();
                                           	nop	
                                           _00140_DS_
                                           ;	.line	66; "MC32F7361.c"	while (EEWRITE) //  EE 
                                           	JBCLR	_EECRbits,0
                                           	GOTO	_00140_DS_
                                           ;	.line	70; "MC32F7361.c"	GIE = 1;
                                           	BSET	_MCRbits,7
                                           ;	.line	71; "MC32F7361.c"	}
                                           	RETURN	
                                           ; exit point of _EEPROM_Write_Byte
                                           
                                           ;***
                                           ;  pBlock Stats: dbName = C
                                           ;***
                                           ;entry:  _delay_1_4ms	;Function start
                                           ; 2 exit points
                                           ;has an exit
                                           ;functions called:
                                           ;   _delay_100us
                                           ;   _delay_100us
                                           ;2 compiler assigned registers:
                                           ;   r0x1017
                                           ;   r0x1018
                                           ;; Starting pCode block
                                           _delay_1_4ms	;Function start
                                           ; 2 exit points
                                           ;	.line	42; "MC32F7361.c"	for (i = 0; i < 14; i++)
                                           	MOVAI	0x0e
                                           	MOVRA	r0x1017
                                           _00135_DS_
                                           ;	.line	44; "MC32F7361.c"	delay_100us();
                                           	CALL	_delay_100us
                                           	DECAR	r0x1017
                                           	MOVRA	r0x1017
                                           	MOVRA	r0x1018
                                           ;;100	MOVAR	r0x1018
                                           ;	.line	42; "MC32F7361.c"	for (i = 0; i < 14; i++)
                                           	MOVAI	0x00
                                           	ORAR	r0x1018
                                           	JBSET	PFLAG,2
                                           	GOTO	_00135_DS_
                                           ;	.line	46; "MC32F7361.c"	}
                                           	RETURN	
                                           ; exit point of _delay_1_4ms
                                           
                                           ;***
                                           ;  pBlock Stats: dbName = C
                                           ;***
                                           ;entry:  _delay_200us	;Function start
                                           ; 2 exit points
                                           ;has an exit
                                           ;2 compiler assigned registers:
                                           ;   r0x1039
                                           ;   r0x103A
                                           ;; Starting pCode block
                                           _delay_200us	;Function start
                                           ; 2 exit points
                                           ;	.line	32; "MC32F7361.c"	while (i--)
                                           	MOVAI	0x96
                                           	MOVRA	r0x1039
                                           _00124_DS_
                                           	MOVAR	r0x1039
                                           	MOVRA	r0x103A
                                           	DECR	r0x1039
                                           	MOVAI	0x00
                                           	ORAR	r0x103A
                                           	JBCLR	PFLAG,2
                                           	GOTO	_00127_DS_
                                           ;	.line	34; "MC32F7361.c"	Nop();
                                           	nop	
                                           	GOTO	_00124_DS_
                                           _00127_DS_
                                           ;	.line	36; "MC32F7361.c"	}
                                           	RETURN	
                                           ; exit point of _delay_200us
                                           
                                           ;***
                                           ;  pBlock Stats: dbName = C
                                           ;***
                                           ;entry:  _delay_100us	;Function start
                                           ; 2 exit points
                                           ;has an exit
                                           ;2 compiler assigned registers:
                                           ;   r0x1015
                                           ;   r0x1016
                                           ;; Starting pCode block
                                           _delay_100us	;Function start
                                           ; 2 exit points
                                           ;	.line	22; "MC32F7361.c"	while (i--)
                                           	MOVAI	0x4a
                                           	MOVRA	r0x1015
                                           _00116_DS_
                                           	MOVAR	r0x1015
                                           	MOVRA	r0x1016
                                           	DECR	r0x1015
                                           	MOVAI	0x00
                                           	ORAR	r0x1016
                                           	JBCLR	PFLAG,2
                                           	GOTO	_00119_DS_
                                           ;	.line	24; "MC32F7361.c"	Nop();
                                           	nop	
                                           	GOTO	_00116_DS_
                                           _00119_DS_
                                           ;	.line	26; "MC32F7361.c"	}
                                           	RETURN	
                                           ; exit point of _delay_100us
                                           
                                           ;***
                                           ;  pBlock Stats: dbName = C
                                           ;***
                                           ;entry:  _delay_ms	;Function start
                                           ; 2 exit points
                                           ;has an exit
                                           ;7 compiler assigned registers:
                                           ;   r0x1015
                                           ;   STK00
                                           ;   r0x1016
                                           ;   r0x1017
                                           ;   r0x1018
                                           ;   r0x1019
                                           ;   r0x101A
                                           ;; Starting pCode block
                                           _delay_ms	;Function start
                                           ; 2 exit points
                                           ;	.line	330; "user.h"	void delay_ms(u16 xms)
                                           	MOVRA	r0x1015
                                           	MOVAR	STK00
                                           	MOVRA	r0x1016
                                           _00108_DS_
                                           ;	.line	332; "user.h"	while (xms)
                                           	MOVAR	r0x1016
                                           	ORAR	r0x1015
                                           	JBCLR	PFLAG,2
                                           	GOTO	_00111_DS_
                                           ;	.line	335; "user.h"	while (i--)
                                           	MOVAI	0x05
                                           	MOVRA	r0x1017
                                           	MOVAI	0x02
                                           	MOVRA	r0x1018
                                           _00105_DS_
                                           	MOVAR	r0x1017
                                           	MOVRA	r0x1019
                                           	MOVAR	r0x1018
                                           	MOVRA	r0x101A
                                           	MOVAI	0xff
                                           	ADDRA	r0x1017
                                           	JBSET	PFLAG,0
                                           	DECR	r0x1018
                                           	MOVAR	r0x1019
                                           	ORAR	r0x101A
                                           	JBCLR	PFLAG,2
                                           	GOTO	_00107_DS_
                                           ;	.line	337; "user.h"	Nop();
                                           	nop	
                                           	GOTO	_00105_DS_
                                           _00107_DS_
                                           ;	.line	339; "user.h"	xms--; //  --while()
                                           	MOVAI	0xff
                                           	ADDRA	r0x1016
                                           	JBSET	PFLAG,0
                                           	DECR	r0x1015
                                           ;	.line	343; "user.h"	__endasm;
                                           	;
                                           	clrwdt;
                                           	
                                           	GOTO	_00108_DS_
                                           _00111_DS_
                                           ;	.line	345; "user.h"	}
                                           	RETURN	
                                           ; exit point of _delay_ms
                                           
                                           
                                           ;	code size estimation:
                                           ;	 1373+    0 =  1373 instructions ( 2746 byte)
                                           
                                           	end


MEMORY USAGE MAP ('X' = Used,  '-' = Unused)

0000 : XX-------------- XXXXXXXXXXXXXXXX XXXXXXXXXXXXXXXX XXXXXXXXXXXXXXXX
0040 : XXXXXXXXXXXXXXXX XXXXXXXXXXXXXXXX XXXXXXXXXXXXXXXX XXXXXXXXXXXXXXXX
0080 : XXXXXXXXXXXXXXXX XXXXXXXXXXXXXXXX XXXXXXXXXXXXXXXX XXXXXXXXXXXXXXXX
00C0 : XXXXXXXXXXXXXXXX XXXXXXXXXXXXXXXX XXXXXXXXXXXXXXXX XXXXXXXXXXXXXXXX
0100 : XXXXXXXXXXXXXXXX XXXXXXXXXXXXXXXX XXXXXXXXXXXXXXXX XXXXXXXXXXXXXXXX
0140 : XXXXXXXXXXXXXXXX XXXXXXXXXXXXXXXX XXXXXXXXXXXXXXXX XXXXXXXXXXXXXXXX
0180 : XXXXXXXXXXXXXXXX XXXXXXXXXXXXXXXX XXXXXXXXXXXXXXXX XXXXXXXXXXXXXXXX
01C0 : XXXXXXXXXXXXXXXX XXXXXXXXXXXXXXXX XXXXXXXXXXXXXXXX XXXXXXXXXXXXXXXX
0200 : XXXXXXXXXXXXXXXX XXXXXXXXXXXXXXXX XXXXXXXXXXXXXXXX XXXXXXXXXXXXXXXX
0240 : XXXXXXXXXXXXXXXX XXXXXXXXXXXXXXXX XXXXXXXXXXXXXXXX XXXXXXXXXXXXXXXX
0280 : XXXXXXXXXXXXXXXX XXXXXXXXXXXXXXXX XXXXXXXXXXXXXXXX XXXXXXXXXXXXXXXX
02C0 : XXXXXXXXXXXXXXXX XXXXXXXXXXXXXXXX XXXXXXXXXXXXXXXX XXXXXXXXXXXXXXXX
0300 : XXXXXXXXXXXXXXXX XXXXXXXXXXXXXXXX XXXXXXXXXXXXXXXX XXXXXXXXXXXXXXXX
0340 : XXXXXXXXXXXXXXXX XXXXXXXXXXXXXXXX XXXXXXXXXXXXXXXX XXXXXXXXXXXXXXXX
0380 : XXXXXXXXXXXXXXXX XXXXXXXXXXXXXXXX XXXXXXXXXXXXXXXX XXXXXXXXXXXXXXXX
03C0 : XXXXXXXXXXXXXXXX XXXXXXXXXXXXXXXX XXXXXXXXXXXXXXXX XXXXXXXXXXXXXXXX
0400 : XXXXXXXXXXXXXXXX XXXXXXXXXXXXXXXX XXXXXXXXXXXXXXXX XXXXXXXXXXXXXXXX
0440 : XXXXXXXXXXXXXXXX XXXXXXXXXXXXXXXX XXXXXXXXXXXXXXXX XXXXXXXXXXXXXXXX
0480 : XXXXXXXXXXXXXXXX XXXXXXXXXXXXXXXX XXXXXXXXXXXXXXXX XXXXXXXXXXXXXXXX
04C0 : XXXXXXXXXXXXXXXX XXXXXXXXXXXXXXXX XXXXXXXXXXXXXXXX XXXXXXXXXXXXXXXX
0500 : XXXXXXXXXXXXXXXX XXXXXXXXXXXXXXXX XXXXXXXXXXXXXXXX XXXXXXXXXXXXXXXX
0540 : XXXXXXXXXXXXXXXX XXXXXXXXXXXXXXXX XXXXXXXXXXXXXXXX XXXXXXXXXXXXXXXX
0580 : XXXXXXXXXXXXXXXX XXXXXXXXXXXXXXXX XXXXXXXXXXXXXXXX XXXXXXXXXXXXXXXX
05C0 : XXXXXXXXXXXXXXXX XXXXXXXXXXXXXXXX XXXXXXXXXXXXXXXX XXXXXXXXXXXXXXXX
0600 : XXXXXXXXXXXXXXXX XXXXXXXXXXXXXXXX XXXXXXXXXXXXXXXX XXXXXXXXXXXXXXXX
0640 : XXXXXXXXXXXXXXXX XXXXXXXXXXXXXXXX XXXXXXXXXXXXXXXX XXXXXXXXXXXXXXXX
0680 : XXXXXXXXXXXXXXXX XXXXXXXXXXXXXXXX XXXXXXXXXXXXXXXX XXXXXXXXXXXXXXXX
06C0 : XXXXXXXXXXXXXXXX XXXXXXXXXXXXXXXX XXXXXXXXXXXXXXXX XXXXXXXXXXXXXXXX
0700 : XXXXXXXXXXXXXXXX XXXXXXXXXXXXXXXX XXXXXXXXXXXXXXXX XXXXXXXXXXXXXXXX
0740 : XXXXXXXXXXXXXXXX XXXXXXXXXXXXXXXX XXXXXXXXXXXXXXXX XXXXXXXXXXXXXXXX
0780 : XXXXXXXXXXXXXXXX XXXXXXXXXXXXXXXX XXXXXXXXXXXXXXXX XXXXXXXXXXXXXXXX
07C0 : XXXXXXXXXXXXXXXX XXXXXXXXXXXXXXXX XXXXXXXXXXXXXXXX XXXXXXXXXXXXXXXX
0800 : XXXXXXXXXXXXXXXX XXXXXXXXXXXXXXXX XXXXXXXXXXXXXXXX XXXXXXXXXXXXXXXX
0840 : XXXXXXXXXXXXXXXX XXXXXXXXXXXXXXXX XXXXXXXXXXXXXXXX XXXXXXXXXXXXXXXX
0880 : XXXXXXXXXXXXXXXX XXXXXXXXXXXXXXXX XXXXXXXXXXXXXXXX XXXXXXXXXXXXXXXX
08C0 : XXXXXXXXXXXXXXXX XXXXXXXXXXXXXXXX XXXXXXXXXXXXXXXX XXXXXXXXXXXXXXXX
0900 : XXXXXXXXXXXXXXXX XXXXXXXXXXXXXXXX XXXXXXXXXXXXXXXX XXXXXXXXXXXXXXXX
0940 : XXXXXXXXXXXXXXXX XXXXXXXXXXXXXXXX XXXXXXXXXXXXXXXX XXXXXXXXXXXXXXXX
0980 : XXXXXXXXXXXXXXXX XXXXXXXXXXXXXXXX XXXXXXXXXXXXXXXX XXXXXXXXXXXXXXXX
09C0 : XXXXXXXXXXXXXXXX XXXXXXXXXXXXXXXX XXXXXXXXXXXXXXXX XXXXXXXXXXXXXXXX
0A00 : XXXXXXXXXXXXXXXX XXXXXXXXXXXXXXXX XXXXXXXXXXXXXXXX XXXXXXXXXXXXXXXX
0A40 : XXXXXXXXXXXXXXXX XXXXXXXXXXXXXXXX XXXXXXXXXXXXXXXX XXXXXXXXXXXXXXXX
0A80 : XXXXXXXXXXXXXXXX XXXXXXXXXXXXXXXX XXXXXXXXXXXXXXXX XXXXXXXXXXXXXXXX
0AC0 : XXXXXXXXXXXXXXXX XXXXXXXXXXXXXXXX XXXXXXXXXXXXXXXX XXXXXXXXXXXXXXXX
0B00 : XXXXXXXXXXXXXXXX XXXXXXXXXXXXXXXX XXXXXXXXXXXXXXXX XXXXXXXXXXXXXXXX
0B40 : XXXXXXXXXXXXXXXX XXXXXXXXXXXXXXXX XXXXXXXXXXXXXXXX XXXXXXXXXXXXXXXX
0B80 : XXXXXXXXXXXXXXXX XXXXXXXXXXXXXXXX XXXXXXXXXXXXXXXX XXXXXXXXXXXXXXXX
0BC0 : XXXXXXXXXXXXXXXX XXXXXXXXXXXXXXXX XXXXXXXXXXXXXXXX XXXXXXXXXXXXXXXX
0C00 : XXXXXXXXXXXXXXXX XXXXXXXXXXXXXXXX XXXXXXXXXXXXXXXX XXXXXXXXXXXXXXXX
0C40 : XXXXXXXXXXXXXXXX XXXXXXXXXXXXXXXX XXXXXXXXXXXXXXXX XXXXXXXXXXXXXXXX
0C80 : XXXXXXXXXXXXXXXX XXXXXXXXXXXXXXXX XXXXXXXXXXXXXXXX XXXXXXXXXXXXXXXX
0CC0 : XXXXXXXXXXXXXXXX XXXXXXXXXXXXXXXX XXXXXXXXXXXXXXXX XXXXXXXXXXXXXXXX
0D00 : XXXXXXXXXXXXXXXX XXXXXXXXXXXXXXXX XXXXXXXXXXXXXXXX XXXXXXXXXXXXXXXX
0D40 : XXXXXXXXXXXXXXXX XXXXXXXXXXXXXXXX XXXX------------ ----------------

All other memory blocks unused.

Program Memory Words Used:  1707

