gplink-2.2.37 (Jan 22 2024)
Listing File Generated: 2025-3-14  17:11:32
 
 
Address  Value    Disassembly              Source
-------  -----    -----------              ------
                                           ;--------------------------------------------------------
                                           ; external declarations
                                           ;--------------------------------------------------------
                                           	extern	_TIMER0_INT_Init
                                           	extern	_TIMER1_INT_Init
                                           	extern	_TIMER3_INT_Init
                                           	extern	_INDF0bits
                                           	extern	_INDF1bits
                                           	extern	_INDF2bits
                                           	extern	_HIBYTEbits
                                           	extern	_FSR0bits
                                           	extern	_FSR1bits
                                           	extern	_PCLbits
                                           	extern	_PFLAGbits
                                           	extern	_MCRbits
                                           	extern	_INDF3bits
                                           	extern	_INTEbits
                                           	extern	_INTFbits
                                           	extern	_DRVCRbits
                                           	extern	_P0KBCRbits
                                           	extern	_P1KBCRbits
                                           	extern	_P2KBCRbits
                                           	extern	_IOP0bits
                                           	extern	_OEP0bits
                                           	extern	_PUP0bits
                                           	extern	_PDP0bits
                                           	extern	_IOP1bits
                                           	extern	_OEP1bits
                                           	extern	_PUP1bits
                                           	extern	_PDP1bits
                                           	extern	_T0CRbits
                                           	extern	_T0CNTbits
                                           	extern	_T0LOADbits
                                           	extern	_T0DATAbits
                                           	extern	_T1CRbits
                                           	extern	_T1CNTbits
                                           	extern	_T1LOADbits
                                           	extern	_T1DATAbits
                                           	extern	_T2CRbits
                                           	extern	_T2CNTbits
                                           	extern	_T2LOADbits
                                           	extern	_T2DATAbits
                                           	extern	_T3CRbits
                                           	extern	_T3CNTbits
                                           	extern	_T3LOADbits
                                           	extern	_PWM0DRbits
                                           	extern	_PWM1DRbits
                                           	extern	_PWM2DRbits
                                           	extern	_PWMCR0bits
                                           	extern	_PWMCR1bits
                                           	extern	_OSCMRbits
                                           	extern	_LVDCRbits
                                           	extern	_ADCR0bits
                                           	extern	_ADCR1bits
                                           	extern	_ADCR2bits
                                           	extern	_OSADJCRbits
                                           	extern	_ADRHbits
                                           	extern	_ADRLbits
                                           	extern	_P0ADCRbits
                                           	extern	_P1ADCRbits
                                           	extern	_IOP2bits
                                           	extern	_OEP2bits
                                           	extern	_PUP2bits
                                           	extern	_PDP2bits
                                           	extern	_PMODbits
                                           	extern	_PWMCR3bits
                                           	extern	_PWMCR2bits
                                           	extern	_PFRCCRbits
                                           	extern	_PFRCCALbits
                                           	extern	_EECRbits
                                           	extern	_EEPRbits
                                           	extern	_EEARbits
                                           	extern	_EEDRHbits
                                           	extern	_EEDRLbits
                                           	extern	_DBGCRbits
                                           	extern	_DBGPRbits
                                           	extern	_HIRCCALbits
                                           	extern	_INDF0
                                           	extern	_INDF1
                                           	extern	_INDF2
                                           	extern	_HIBYTE
                                           	extern	_FSR0
                                           	extern	_FSR1
                                           	extern	_PCL
                                           	extern	_PFLAG
                                           	extern	_MCR
                                           	extern	_INDF3
                                           	extern	_INTE
                                           	extern	_INTF
                                           	extern	_DRVCR
                                           	extern	_P0KBCR
                                           	extern	_P1KBCR
                                           	extern	_P2KBCR
                                           	extern	_IOP0
                                           	extern	_OEP0
                                           	extern	_PUP0
                                           	extern	_PDP0
                                           	extern	_IOP1
                                           	extern	_OEP1
                                           	extern	_PUP1
                                           	extern	_PDP1
                                           	extern	_T0CR
                                           	extern	_T0CNT
                                           	extern	_T0LOAD
                                           	extern	_T0DATA
                                           	extern	_T1CR
                                           	extern	_T1CNT
                                           	extern	_T1LOAD
                                           	extern	_T1DATA
                                           	extern	_T2CR
                                           	extern	_T2CNT
                                           	extern	_T2LOAD
                                           	extern	_T2DATA
                                           	extern	_T3CR
                                           	extern	_T3CNT
                                           	extern	_T3LOAD
                                           	extern	_PWM0DR
                                           	extern	_PWM1DR
                                           	extern	_PWM2DR
                                           	extern	_PWMCR0
                                           	extern	_PWMCR1
                                           	extern	_OSCMR
                                           	extern	_LVDCR
                                           	extern	_ADCR0
                                           	extern	_ADCR1
                                           	extern	_ADCR2
                                           	extern	_OSADJCR
                                           	extern	_ADRH
                                           	extern	_ADRL
                                           	extern	_P0ADCR
                                           	extern	_P1ADCR
                                           	extern	_IOP2
                                           	extern	_OEP2
                                           	extern	_PUP2
                                           	extern	_PDP2
                                           	extern	_PMOD
                                           	extern	_PWMCR3
                                           	extern	_PWMCR2
                                           	extern	_PFRCCR
                                           	extern	_PFRCCAL
                                           	extern	_EECR
                                           	extern	_EEPR
                                           	extern	_EEAR
                                           	extern	_EEDRH
                                           	extern	_EEDRL
                                           	extern	_DBGCR
                                           	extern	_DBGPR
                                           	extern	_HIRCCAL
                                           	extern	__mulchar
                                           	extern	__gptrget1
                                           ;--------------------------------------------------------
                                           ; global declarations
                                           ;--------------------------------------------------------
                                           	global	_Sys_Init
                                           	global	_TIMER2_INT_Init
                                           	global	_IO_Init
                                           	global	_CLR_RAM
                                           	global	_delay_ms
                                           	global	_send_data_msb
                                           	global	_delay_100us
                                           	global	_delay_200us
                                           	global	_delay_1_4ms
                                           	global	_send_cmd_16bit
                                           	global	_main
                                           	global	_int_isr
                                           	global	_cur_led_status
                                           	global	_abuf
                                           	global	_statusbuf
                                           	global	_flag1
                                           	global	_ir_data
                                           	global	_table
                                           
                                           	global STK06
                                           	global STK05
                                           	global STK04
                                           	global STK03
                                           	global STK02
                                           	global STK01
                                           	global STK00
                                           
                                           sharebank udata_ovr 0x0000
                                           STK06	res 1
                                           STK05	res 1
                                           STK04	res 1
                                           STK03	res 1
                                           STK02	res 1
                                           STK01	res 1
                                           STK00	res 1
                                           
                                           ;--------------------------------------------------------
                                           ; global definitions
                                           ;--------------------------------------------------------
                                           UD_MC32F7361_0	udata
                                           _cur_led_status	res	1
                                           
                                           UD_MC32F7361_1	udata
                                           _abuf	res	1
                                           
                                           UD_MC32F7361_2	udata
                                           _statusbuf	res	1
                                           
                                           UD_MC32F7361_3	udata
                                           _flag1	res	1
                                           
                                           UD_MC32F7361_4	udata
                                           _ir_data	res	1
                                           
                                           ;--------------------------------------------------------
                                           ; absolute symbol definitions
                                           ;--------------------------------------------------------
                                           ;--------------------------------------------------------
                                           ; compiler-defined variables
                                           ;--------------------------------------------------------
                                           UDL_MC32F7361_0	udata
                                           r0x1009	res	1
                                           r0x1008	res	1
                                           r0x100A	res	1
                                           r0x100B	res	1
                                           r0x100C	res	1
                                           r0x100D	res	1
                                           r0x1021	res	1
                                           r0x1020	res	1
                                           r0x101F	res	1
                                           r0x101E	res	1
                                           r0x1022	res	1
                                           r0x1023	res	1
                                           r0x1027	res	1
                                           r0x1026	res	1
                                           r0x1025	res	1
                                           r0x1024	res	1
                                           r0x101C	res	1
                                           r0x101D	res	1
                                           r0x100F	res	1
                                           r0x100E	res	1
                                           r0x1010	res	1
                                           r0x1011	res	1
                                           r0x1013	res	1
                                           r0x1012	res	1
                                           r0x1014	res	1
                                           r0x1015	res	1
                                           r0x1016	res	1
                                           r0x1017	res	1
                                           r0x1018	res	1
                                           r0x1019	res	1
                                           r0x101A	res	1
                                           r0x101B	res	1
                                           r0x1028	res	1
                                           r0x1029	res	1
                                           _int_isr_ir_level_cnt_131073_63	res	2
                                           _int_isr_ir_fliter_131073_63	res	1
                                           _int_isr___ir_data_131073_63	res	1
                                           _int_isr_ir_long_press_cnt_131073_63	res	2
                                           ;--------------------------------------------------------
                                           ; initialized data
                                           ;--------------------------------------------------------
                                           
                                           ID_MC32F7361_0	code
                                           _table
0002b0   0090     dw      0x90             	dw 0x90
0002b1   0000     nop                      	dw 0x00
0002b2   0011     deca                     	dw 0x11
0002b3   00ff     dw      0xff             	dw 0xff
0002b4   00ff     dw      0xff             	dw 0xff
0002b5   00b8     dw      0xb8             	dw 0xb8
0002b6   0000     nop                      	dw 0x00
0002b7   0022     dw      0x22             	dw 0x22
0002b8   00ff     dw      0xff             	dw 0xff
0002b9   00ff     dw      0xff             	dw 0xff
0002ba   00f8     dw      0xf8             	dw 0xf8
0002bb   0000     nop                      	dw 0x00
0002bc   0044     dw      0x44             	dw 0x44
0002bd   00ff     dw      0xff             	dw 0xff
0002be   00ff     dw      0xff             	dw 0xff
0002bf   00b0     dw      0xb0             	dw 0xb0
0002c0   0096     dw      0x96             	dw 0x96
0002c1   0045     dw      0x45             	dw 0x45
0002c2   0010     djza                     	dw 0x10
0002c3   0077     dw      0x77             	dw 0x77
0002c4   0098     dw      0x98             	dw 0x98
0002c5   009f     dw      0x9f             	dw 0x9f
0002c6   0000     nop                      	dw 0x00
0002c7   0010     djza                     	dw 0x10
0002c8   0033     dw      0x33             	dw 0x33
0002c9   00d8     dw      0xd8             	dw 0xd8
0002ca   0090     dw      0x90             	dw 0x90
0002cb   00f1     dw      0xf1             	dw 0xf1
0002cc   0010     djza                     	dw 0x10
0002cd   0066     dw      0x66             	dw 0x66
0002ce   0088     dw      0x88             	dw 0x88
0002cf   0093     dw      0x93             	dw 0x93
0002d0   000f     dw      0xf              	dw 0x0f
0002d1   0010     djza                     	dw 0x10
0002d2   0055     dw      0x55             	dw 0x55
0002d3   00e8     dw      0xe8             	dw 0xe8
0002d4   009f     dw      0x9f             	dw 0x9f
0002d5   0010     djza                     	dw 0x10
0002d6   0010     djza                     	dw 0x10
0002d7   0033     dw      0x33             	dw 0x33
0002d8   0048     dw      0x48             	dw 0x48
0002d9   0090     dw      0x90             	dw 0x90
0002da   00f8     dw      0xf8             	dw 0xf8
0002db   0010     djza                     	dw 0x10
0002dc   0066     dw      0x66             	dw 0x66
0002dd   0068     dw      0x68             	dw 0x68
0002de   0098     dw      0x98             	dw 0x98
0002df   000f     dw      0xf              	dw 0x0f
0002e0   0010     djza                     	dw 0x10
0002e1   0055     dw      0x55             	dw 0x55
0002e2   0002     dw      0x2              	dw 0x02
0002e3   009f     dw      0x9f             	dw 0x9f
0002e4   0030     dw      0x30             	dw 0x30
0002e5   0010     djza                     	dw 0x10
0002e6   0033     dw      0x33             	dw 0x33
0002e7   0032     dw      0x32             	dw 0x32
0002e8   0090     dw      0x90             	dw 0x90
0002e9   00fc     dw      0xfc             	dw 0xfc
0002ea   0010     djza                     	dw 0x10
0002eb   0066     dw      0x66             	dw 0x66
0002ec   0020     dw      0x20             	dw 0x20
0002ed   009f     dw      0x9f             	dw 0x9f
0002ee   000f     dw      0xf              	dw 0x0f
0002ef   0010     djza                     	dw 0x10
0002f0   0055     dw      0x55             	dw 0x55
                                           
                                           
                                           ;@Allocation info for local variables in function 'delay_ms'
                                           ;@delay_ms Sys_Init                  Allocated to registers ;size:2
                                           ;@delay_ms CLR_RAM                   Allocated to registers ;size:2
                                           ;@delay_ms IO_Init                   Allocated to registers ;size:2
                                           ;@delay_ms TIMER0_INT_Init           Allocated to registers ;size:2
                                           ;@delay_ms TIMER1_INT_Init           Allocated to registers ;size:2
                                           ;@delay_ms TIMER2_INT_Init           Allocated to registers ;size:2
                                           ;@delay_ms TIMER3_INT_Init           Allocated to registers ;size:2
                                           ;@delay_ms delay_ms                  Allocated to registers ;size:2
                                           ;@delay_ms INDF0bits                 Allocated to registers ;size:1
                                           ;@delay_ms INDF1bits                 Allocated to registers ;size:1
                                           ;@delay_ms INDF2bits                 Allocated to registers ;size:1
                                           ;@delay_ms HIBYTEbits                Allocated to registers ;size:1
                                           ;@delay_ms FSR0bits                  Allocated to registers ;size:1
                                           ;@delay_ms FSR1bits                  Allocated to registers ;size:1
                                           ;@delay_ms PCLbits                   Allocated to registers ;size:1
                                           ;@delay_ms PFLAGbits                 Allocated to registers ;size:1
                                           ;@delay_ms MCRbits                   Allocated to registers ;size:1
                                           ;@delay_ms INDF3bits                 Allocated to registers ;size:1
                                           ;@delay_ms INTEbits                  Allocated to registers ;size:1
                                           ;@delay_ms INTFbits                  Allocated to registers ;size:1
                                           ;@delay_ms DRVCRbits                 Allocated to registers ;size:1
                                           ;@delay_ms P0KBCRbits                Allocated to registers ;size:1
                                           ;@delay_ms P1KBCRbits                Allocated to registers ;size:1
                                           ;@delay_ms P2KBCRbits                Allocated to registers ;size:1
                                           ;@delay_ms IOP0bits                  Allocated to registers ;size:1
                                           ;@delay_ms OEP0bits                  Allocated to registers ;size:1
                                           ;@delay_ms PUP0bits                  Allocated to registers ;size:1
                                           ;@delay_ms PDP0bits                  Allocated to registers ;size:1
                                           ;@delay_ms IOP1bits                  Allocated to registers ;size:1
                                           ;@delay_ms OEP1bits                  Allocated to registers ;size:1
                                           ;@delay_ms PUP1bits                  Allocated to registers ;size:1
                                           ;@delay_ms PDP1bits                  Allocated to registers ;size:1
                                           ;@delay_ms T0CRbits                  Allocated to registers ;size:1
                                           ;@delay_ms T0CNTbits                 Allocated to registers ;size:1
                                           ;@delay_ms T0LOADbits                Allocated to registers ;size:1
                                           ;@delay_ms T0DATAbits                Allocated to registers ;size:1
                                           ;@delay_ms T1CRbits                  Allocated to registers ;size:1
                                           ;@delay_ms T1CNTbits                 Allocated to registers ;size:1
                                           ;@delay_ms T1LOADbits                Allocated to registers ;size:1
                                           ;@delay_ms T1DATAbits                Allocated to registers ;size:1
                                           ;@delay_ms T2CRbits                  Allocated to registers ;size:1
                                           ;@delay_ms T2CNTbits                 Allocated to registers ;size:1
                                           ;@delay_ms T2LOADbits                Allocated to registers ;size:1
                                           ;@delay_ms T2DATAbits                Allocated to registers ;size:1
                                           ;@delay_ms T3CRbits                  Allocated to registers ;size:1
                                           ;@delay_ms T3CNTbits                 Allocated to registers ;size:1
                                           ;@delay_ms T3LOADbits                Allocated to registers ;size:1
                                           ;@delay_ms PWM0DRbits                Allocated to registers ;size:1
                                           ;@delay_ms PWM1DRbits                Allocated to registers ;size:1
                                           ;@delay_ms PWM2DRbits                Allocated to registers ;size:1
                                           ;@delay_ms PWMCR0bits                Allocated to registers ;size:1
                                           ;@delay_ms PWMCR1bits                Allocated to registers ;size:1
                                           ;@delay_ms OSCMRbits                 Allocated to registers ;size:1
                                           ;@delay_ms LVDCRbits                 Allocated to registers ;size:1
                                           ;@delay_ms ADCR0bits                 Allocated to registers ;size:1
                                           ;@delay_ms ADCR1bits                 Allocated to registers ;size:1
                                           ;@delay_ms ADCR2bits                 Allocated to registers ;size:1
                                           ;@delay_ms OSADJCRbits               Allocated to registers ;size:1
                                           ;@delay_ms ADRHbits                  Allocated to registers ;size:1
                                           ;@delay_ms ADRLbits                  Allocated to registers ;size:1
                                           ;@delay_ms P0ADCRbits                Allocated to registers ;size:1
                                           ;@delay_ms P1ADCRbits                Allocated to registers ;size:1
                                           ;@delay_ms IOP2bits                  Allocated to registers ;size:1
                                           ;@delay_ms OEP2bits                  Allocated to registers ;size:1
                                           ;@delay_ms PUP2bits                  Allocated to registers ;size:1
                                           ;@delay_ms PDP2bits                  Allocated to registers ;size:1
                                           ;@delay_ms PMODbits                  Allocated to registers ;size:1
                                           ;@delay_ms PWMCR3bits                Allocated to registers ;size:1
                                           ;@delay_ms PWMCR2bits                Allocated to registers ;size:1
                                           ;@delay_ms PFRCCRbits                Allocated to registers ;size:1
                                           ;@delay_ms PFRCCALbits               Allocated to registers ;size:1
                                           ;@delay_ms EECRbits                  Allocated to registers ;size:1
                                           ;@delay_ms EEPRbits                  Allocated to registers ;size:1
                                           ;@delay_ms EEARbits                  Allocated to registers ;size:1
                                           ;@delay_ms EEDRHbits                 Allocated to registers ;size:1
                                           ;@delay_ms EEDRLbits                 Allocated to registers ;size:1
                                           ;@delay_ms DBGCRbits                 Allocated to registers ;size:1
                                           ;@delay_ms DBGPRbits                 Allocated to registers ;size:1
                                           ;@delay_ms HIRCCALbits               Allocated to registers ;size:1
                                           ;@delay_ms cur_led_status            Allocated to registers ;size:1
                                           ;@delay_ms abuf                      Allocated to registers ;size:1
                                           ;@delay_ms statusbuf                 Allocated to registers ;size:1
                                           ;@delay_ms flag1                     Allocated to registers ;size:1
                                           ;@delay_ms ir_data                   Allocated to registers ;size:1
                                           ;@delay_ms xms                       Allocated to registers ;size:2
                                           ;@delay_ms i                         Allocated to registers r0x100A r0x100B ;size:2
                                           ;@delay_ms INDF0                     Allocated to registers ;size:1
                                           ;@delay_ms INDF1                     Allocated to registers ;size:1
                                           ;@delay_ms INDF2                     Allocated to registers ;size:1
                                           ;@delay_ms HIBYTE                    Allocated to registers ;size:1
                                           ;@delay_ms FSR0                      Allocated to registers ;size:1
                                           ;@delay_ms FSR1                      Allocated to registers ;size:1
                                           ;@delay_ms PCL                       Allocated to registers ;size:1
                                           ;@delay_ms PFLAG                     Allocated to registers ;size:1
                                           ;@delay_ms MCR                       Allocated to registers ;size:1
                                           ;@delay_ms INDF3                     Allocated to registers ;size:1
                                           ;@delay_ms INTE                      Allocated to registers ;size:1
                                           ;@delay_ms INTF                      Allocated to registers ;size:1
                                           ;@delay_ms DRVCR                     Allocated to registers ;size:1
                                           ;@delay_ms P0KBCR                    Allocated to registers ;size:1
                                           ;@delay_ms P1KBCR                    Allocated to registers ;size:1
                                           ;@delay_ms P2KBCR                    Allocated to registers ;size:1
                                           ;@delay_ms IOP0                      Allocated to registers ;size:1
                                           ;@delay_ms OEP0                      Allocated to registers ;size:1
                                           ;@delay_ms PUP0                      Allocated to registers ;size:1
                                           ;@delay_ms PDP0                      Allocated to registers ;size:1
                                           ;@delay_ms IOP1                      Allocated to registers ;size:1
                                           ;@delay_ms OEP1                      Allocated to registers ;size:1
                                           ;@delay_ms PUP1                      Allocated to registers ;size:1
                                           ;@delay_ms PDP1                      Allocated to registers ;size:1
                                           ;@delay_ms T0CR                      Allocated to registers ;size:1
                                           ;@delay_ms T0CNT                     Allocated to registers ;size:1
                                           ;@delay_ms T0LOAD                    Allocated to registers ;size:1
                                           ;@delay_ms T0DATA                    Allocated to registers ;size:1
                                           ;@delay_ms T1CR                      Allocated to registers ;size:1
                                           ;@delay_ms T1CNT                     Allocated to registers ;size:1
                                           ;@delay_ms T1LOAD                    Allocated to registers ;size:1
                                           ;@delay_ms T1DATA                    Allocated to registers ;size:1
                                           ;@delay_ms T2CR                      Allocated to registers ;size:1
                                           ;@delay_ms T2CNT                     Allocated to registers ;size:1
                                           ;@delay_ms T2LOAD                    Allocated to registers ;size:1
                                           ;@delay_ms T2DATA                    Allocated to registers ;size:1
                                           ;@delay_ms T3CR                      Allocated to registers ;size:1
                                           ;@delay_ms T3CNT                     Allocated to registers ;size:1
                                           ;@delay_ms T3LOAD                    Allocated to registers ;size:1
                                           ;@delay_ms PWM0DR                    Allocated to registers ;size:1
                                           ;@delay_ms PWM1DR                    Allocated to registers ;size:1
                                           ;@delay_ms PWM2DR                    Allocated to registers ;size:1
                                           ;@delay_ms PWMCR0                    Allocated to registers ;size:1
                                           ;@delay_ms PWMCR1                    Allocated to registers ;size:1
                                           ;@delay_ms OSCMR                     Allocated to registers ;size:1
                                           ;@delay_ms LVDCR                     Allocated to registers ;size:1
                                           ;@delay_ms ADCR0                     Allocated to registers ;size:1
                                           ;@delay_ms ADCR1                     Allocated to registers ;size:1
                                           ;@delay_ms ADCR2                     Allocated to registers ;size:1
                                           ;@delay_ms OSADJCR                   Allocated to registers ;size:1
                                           ;@delay_ms ADRH                      Allocated to registers ;size:1
                                           ;@delay_ms ADRL                      Allocated to registers ;size:1
                                           ;@delay_ms P0ADCR                    Allocated to registers ;size:1
                                           ;@delay_ms P1ADCR                    Allocated to registers ;size:1
                                           ;@delay_ms IOP2                      Allocated to registers ;size:1
                                           ;@delay_ms OEP2                      Allocated to registers ;size:1
                                           ;@delay_ms PUP2                      Allocated to registers ;size:1
                                           ;@delay_ms PDP2                      Allocated to registers ;size:1
                                           ;@delay_ms PMOD                      Allocated to registers ;size:1
                                           ;@delay_ms PWMCR3                    Allocated to registers ;size:1
                                           ;@delay_ms PWMCR2                    Allocated to registers ;size:1
                                           ;@delay_ms PFRCCR                    Allocated to registers ;size:1
                                           ;@delay_ms PFRCCAL                   Allocated to registers ;size:1
                                           ;@delay_ms EECR                      Allocated to registers ;size:1
                                           ;@delay_ms EEPR                      Allocated to registers ;size:1
                                           ;@delay_ms EEAR                      Allocated to registers ;size:1
                                           ;@delay_ms EEDRH                     Allocated to registers ;size:1
                                           ;@delay_ms EEDRL                     Allocated to registers ;size:1
                                           ;@delay_ms DBGCR                     Allocated to registers ;size:1
                                           ;@delay_ms DBGPR                     Allocated to registers ;size:1
                                           ;@delay_ms HIRCCAL                   Allocated to registers ;size:1
                                           ;@end Allocation info for local variables in function 'delay_ms';
                                           ;@Allocation info for local variables in function 'send_data_msb'
                                           ;@send_data_msb send_data                 Allocated to registers r0x1021 r0x1020 r0x101F r0x101E ;size:4
                                           ;@send_data_msb i                         Allocated to registers r0x1022 ;size:1
                                           ;@end Allocation info for local variables in function 'send_data_msb';
                                           ;@Allocation info for local variables in function 'delay_100us'
                                           ;@delay_100us i                         Allocated to registers r0x1008 ;size:1
                                           ;@end Allocation info for local variables in function 'delay_100us';
                                           ;@Allocation info for local variables in function 'delay_200us'
                                           ;@delay_200us i                         Allocated to registers r0x101C ;size:1
                                           ;@end Allocation info for local variables in function 'delay_200us';
                                           ;@Allocation info for local variables in function 'delay_1_4ms'
                                           ;@delay_1_4ms i                         Allocated to registers r0x100A ;size:1
                                           ;@end Allocation info for local variables in function 'delay_1_4ms';
                                           ;@Allocation info for local variables in function 'send_cmd_16bit'
                                           ;@send_cmd_16bit data                      Allocated to registers r0x100F r0x100E ;size:2
                                           ;@send_cmd_16bit i                         Allocated to registers r0x1010 ;size:1
                                           ;@end Allocation info for local variables in function 'send_cmd_16bit';
                                           ;@Allocation info for local variables in function 'CLR_RAM'
                                           ;@end Allocation info for local variables in function 'CLR_RAM';
                                           ;@Allocation info for local variables in function 'IO_Init'
                                           ;@end Allocation info for local variables in function 'IO_Init';
                                           ;@Allocation info for local variables in function 'TIMER2_INT_Init'
                                           ;@end Allocation info for local variables in function 'TIMER2_INT_Init';
                                           ;@Allocation info for local variables in function 'Sys_Init'
                                           ;@end Allocation info for local variables in function 'Sys_Init';
                                           ;@Allocation info for local variables in function 'main'
                                           ;@main i                         Allocated to registers r0x1014 ;size:1
                                           ;@main tmp                       Allocated to registers r0x1017 r0x1018 ;size:2
                                           ;@end Allocation info for local variables in function 'main';
                                           ;@Allocation info for local variables in function 'int_isr'
                                           ;@int_isr ir_fliter                 Allocated to registers ;size:1
                                           ;@int_isr ir_level_cnt              Allocated to registers ;size:2
                                           ;@int_isr __ir_data                 Allocated to registers ;size:1
                                           ;@int_isr ir_long_press_cnt         Allocated to registers ;size:2
                                           ;@end Allocation info for local variables in function 'int_isr';
                                           
                                           ;--------------------------------------------------------
                                           ; overlayable items in internal ram 
                                           ;--------------------------------------------------------
                                           ;	udata_ovr
                                           ;--------------------------------------------------------
                                           ; reset vector 
                                           ;--------------------------------------------------------
                                           STARTUP	code 0x0000
000000   a0de     goto    0xde             	goto	_main
                                           ;--------------------------------------------------------
                                           ; interrupt and initialization code
                                           ;--------------------------------------------------------
                                           c_interrupt	code	0x8
                                           __sdcc_interrupt
                                           ;***
                                           ;  pBlock Stats: dbName = I
                                           ;***
                                           ;entry:  _int_isr	;Function start
                                           ; 0 exit points
                                           ;2 compiler assigned registers:
                                           ;   r0x1028
                                           ;   r0x1029
                                           ;; Starting pCode block
                                           _int_isr	;Function start
                                           ; 0 exit points
                                           ;	.line	290; "MC32F7361.c"	__endasm;
                                           	;
000008   5635     movra   0x35             	movra	_abuf;
000009   4587     swapar  0x187            	swapar	_PFLAG;
00000a   5636     movra   0x36             	movra	_statusbuf;
                                           	
                                           ;	.line	292; "MC32F7361.c"	if (T0IF & T0IE)
00000b   7627     clrr    0x27             	CLRR	r0x1028
00000c   f18b     jbclr   0x18b, 0         	JBCLR	_INTFbits,0
00000d   6627     incr    0x27             	INCR	r0x1028
00000e   7628     clrr    0x28             	CLRR	r0x1029
00000f   f18a     jbclr   0x18a, 0         	JBCLR	_INTEbits,0
000010   6628     incr    0x28             	INCR	r0x1029
000011   5828     movar   0x28             	MOVAR	r0x1029
000012   7a27     andra   0x27             	ANDRA	r0x1028
000013   3c00     movai   0                	MOVAI	0x00
000014   5c27     orar    0x27             	ORAR	r0x1028
000015   f587     jbclr   0x187, 0x2       	JBCLR	PFLAG,2
000016   a026     goto    0x26             	GOTO	_00308_DS_
                                           ;	.line	294; "MC32F7361.c"	P10D = !P10D;
000017   7627     clrr    0x27             	CLRR	r0x1028
000018   f194     jbclr   0x194, 0         	JBCLR	_IOP1bits,0
000019   6627     incr    0x27             	INCR	r0x1028
00001a   5827     movar   0x27             	MOVAR	r0x1028
00001b   3c00     movai   0                	MOVAI	0x00
00001c   f587     jbclr   0x187, 0x2       	JBCLR	PFLAG,2
00001d   3c01     movai   0x1              	MOVAI	0x01
00001e   5627     movra   0x27             	MOVRA	r0x1028
00001f   5628     movra   0x28             	MOVRA	r0x1029
                                           ;;107	MOVAR	r0x1029
000020   4c27     rrar    0x27             	RRAR	r0x1028
000021   e187     jbset   0x187, 0         	JBSET	PFLAG,0
000022   d194     bclr    0x194, 0         	BCLR	_IOP1bits,0
000023   f187     jbclr   0x187, 0         	JBCLR	PFLAG,0
000024   c194     bset    0x194, 0         	BSET	_IOP1bits,0
                                           ;	.line	295; "MC32F7361.c"	T0IF = 0;
000025   d18b     bclr    0x18b, 0         	BCLR	_INTFbits,0
                                           _00308_DS_
                                           ;	.line	298; "MC32F7361.c"	if (T1IF & T1IE)
000026   7627     clrr    0x27             	CLRR	r0x1028
000027   f38b     jbclr   0x18b, 0x1       	JBCLR	_INTFbits,1
000028   6627     incr    0x27             	INCR	r0x1028
000029   7628     clrr    0x28             	CLRR	r0x1029
00002a   f38a     jbclr   0x18a, 0x1       	JBCLR	_INTEbits,1
00002b   6628     incr    0x28             	INCR	r0x1029
00002c   5828     movar   0x28             	MOVAR	r0x1029
00002d   7a27     andra   0x27             	ANDRA	r0x1028
00002e   3c00     movai   0                	MOVAI	0x00
00002f   5c27     orar    0x27             	ORAR	r0x1028
000030   f587     jbclr   0x187, 0x2       	JBCLR	PFLAG,2
000031   a041     goto    0x41             	GOTO	_00310_DS_
                                           ;	.line	300; "MC32F7361.c"	P11D = !P11D;
000032   7627     clrr    0x27             	CLRR	r0x1028
000033   f394     jbclr   0x194, 0x1       	JBCLR	_IOP1bits,1
000034   6627     incr    0x27             	INCR	r0x1028
000035   5827     movar   0x27             	MOVAR	r0x1028
000036   3c00     movai   0                	MOVAI	0x00
000037   f587     jbclr   0x187, 0x2       	JBCLR	PFLAG,2
000038   3c01     movai   0x1              	MOVAI	0x01
000039   5627     movra   0x27             	MOVRA	r0x1028
00003a   5628     movra   0x28             	MOVRA	r0x1029
                                           ;;105	MOVAR	r0x1029
00003b   4c27     rrar    0x27             	RRAR	r0x1028
00003c   e187     jbset   0x187, 0         	JBSET	PFLAG,0
00003d   d394     bclr    0x194, 0x1       	BCLR	_IOP1bits,1
00003e   f187     jbclr   0x187, 0         	JBCLR	PFLAG,0
00003f   c394     bset    0x194, 0x1       	BSET	_IOP1bits,1
                                           ;	.line	301; "MC32F7361.c"	T1IF = 0;
000040   d38b     bclr    0x18b, 0x1       	BCLR	_INTFbits,1
                                           _00310_DS_
                                           ;	.line	304; "MC32F7361.c"	if (T2IF & T2IE)
000041   7627     clrr    0x27             	CLRR	r0x1028
000042   fb8b     jbclr   0x18b, 0x5       	JBCLR	_INTFbits,5
000043   6627     incr    0x27             	INCR	r0x1028
000044   7628     clrr    0x28             	CLRR	r0x1029
000045   fb8a     jbclr   0x18a, 0x5       	JBCLR	_INTEbits,5
000046   6628     incr    0x28             	INCR	r0x1029
000047   5828     movar   0x28             	MOVAR	r0x1029
000048   7a27     andra   0x27             	ANDRA	r0x1028
000049   3c00     movai   0                	MOVAI	0x00
00004a   5c27     orar    0x27             	ORAR	r0x1028
00004b   f587     jbclr   0x187, 0x2       	JBCLR	PFLAG,2
00004c   a0cc     goto    0xcc             	GOTO	_00349_DS_
                                           ;	.line	306; "MC32F7361.c"	T2IF = 0;
00004d   db8b     bclr    0x18b, 0x5       	BCLR	_INTFbits,5
                                           ;	.line	314; "MC32F7361.c"	ir_level_cnt++;
00004e   6629     incr    0x29             	INCR	_int_isr_ir_level_cnt_131073_63
00004f   f587     jbclr   0x187, 0x2       	JBCLR	PFLAG,2
000050   662a     incr    0x2a             	INCR	(_int_isr_ir_level_cnt_131073_63 + 1)
                                           ;	.line	316; "MC32F7361.c"	ir_fliter <<= 1;
000051   582b     movar   0x2b             	MOVAR	_int_isr_ir_fliter_131073_63
000052   5627     movra   0x27             	MOVRA	r0x1028
000053   d187     bclr    0x187, 0         	BCLR	PFLAG,0
000054   5027     rlar    0x27             	RLAR	r0x1028
000055   562b     movra   0x2b             	MOVRA	_int_isr_ir_fliter_131073_63
                                           ;	.line	317; "MC32F7361.c"	if (IR_RECV_PIN)
000056   eb94     jbset   0x194, 0x5       	JBSET	_IOP1bits,5
000057   a059     goto    0x59             	GOTO	_00312_DS_
                                           ;	.line	319; "MC32F7361.c"	ir_fliter |= 1;
000058   c02b     bset    0x2b, 0          	BSET	_int_isr_ir_fliter_131073_63,0
                                           _00312_DS_
                                           ;	.line	321; "MC32F7361.c"	ir_fliter &= 0x07;
000059   3c07     movai   0x7              	MOVAI	0x07
00005a   7a2b     andra   0x2b             	ANDRA	_int_isr_ir_fliter_131073_63
                                           ;	.line	323; "MC32F7361.c"	if (ir_fliter == 0x07)
00005b   582b     movar   0x2b             	MOVAR	_int_isr_ir_fliter_131073_63
00005c   3907     xorai   0x7              	XORAI	0x07
00005d   e587     jbset   0x187, 0x2       	JBSET	PFLAG,2
00005e   a061     goto    0x61             	GOTO	_00316_DS_
                                           ;	.line	324; "MC32F7361.c"	filter_level = 1;
00005f   c637     bset    0x37, 0x3        	BSET	_flag1,3
000060   a066     goto    0x66             	GOTO	_00317_DS_
                                           _00316_DS_
                                           ;	.line	325; "MC32F7361.c"	else if (ir_fliter == 0x00)
000061   3c00     movai   0                	MOVAI	0x00
000062   5c2b     orar    0x2b             	ORAR	_int_isr_ir_fliter_131073_63
000063   e587     jbset   0x187, 0x2       	JBSET	PFLAG,2
000064   a066     goto    0x66             	GOTO	_00317_DS_
                                           ;	.line	326; "MC32F7361.c"	filter_level = 0;
000065   d637     bclr    0x37, 0x3        	BCLR	_flag1,3
                                           _00317_DS_
                                           ;	.line	328; "MC32F7361.c"	if (filter_level)
000066   e637     jbset   0x37, 0x3        	JBSET	_flag1,3
000067   a07d     goto    0x7d             	GOTO	_00346_DS_
                                           ;	.line	330; "MC32F7361.c"	last_level_in_ir_pin = 1; // 
000068   c437     bset    0x37, 0x2        	BSET	_flag1,2
                                           ;;swapping arguments (AOP_TYPEs 1/3)
                                           ;;unsigned compare: left >= lit(0x4B1=1201), size=2
                                           ;	.line	333; "MC32F7361.c"	if (ir_level_cnt > 1200) // (120000us,120ms)
000069   3c04     movai   0x4              	MOVAI	0x04
00006a   482a     rsubar  0x2a             	RSUBAR	(_int_isr_ir_level_cnt_131073_63 + 1)
00006b   e587     jbset   0x187, 0x2       	JBSET	PFLAG,2
00006c   a06f     goto    0x6f             	GOTO	_00430_DS_
00006d   3cb1     movai   0xb1             	MOVAI	0xb1
00006e   4829     rsubar  0x29             	RSUBAR	_int_isr_ir_level_cnt_131073_63
                                           _00430_DS_
00006f   e187     jbset   0x187, 0         	JBSET	PFLAG,0
000070   a0cc     goto    0xcc             	GOTO	_00349_DS_
                                           ;;genSkipc:3291: created from rifx:013B5EFC
                                           ;	.line	336; "MC32F7361.c"	if (__ir_data != 0) // (__ir_data)
000071   3c00     movai   0                	MOVAI	0x00
000072   5c2c     orar    0x2c             	ORAR	_int_isr___ir_data_131073_63
000073   f587     jbclr   0x187, 0x2       	JBCLR	PFLAG,2
000074   a07b     goto    0x7b             	GOTO	_00321_DS_
                                           ;	.line	345; "MC32F7361.c"	if (0 == flag_is_recved_data)
000075   f037     jbclr   0x37, 0          	JBCLR	_flag1,0
000076   a07b     goto    0x7b             	GOTO	_00321_DS_
                                           ;	.line	347; "MC32F7361.c"	ir_data = ~__ir_data;
000077   702c     comar   0x2c             	COMAR	_int_isr___ir_data_131073_63
000078   5638     movra   0x38             	MOVRA	_ir_data
                                           ;	.line	348; "MC32F7361.c"	__ir_data = 0;
000079   762c     clrr    0x2c             	CLRR	_int_isr___ir_data_131073_63
                                           ;	.line	349; "MC32F7361.c"	flag_is_recved_data = 1;
00007a   c037     bset    0x37, 0          	BSET	_flag1,0
                                           _00321_DS_
                                           ;	.line	353; "MC32F7361.c"	flag_is_recv_ir_repeat_code = 0; // 
00007b   d837     bclr    0x37, 0x4        	BCLR	_flag1,4
00007c   a0cc     goto    0xcc             	GOTO	_00349_DS_
                                           _00346_DS_
                                           ;	.line	358; "MC32F7361.c"	if (last_level_in_ir_pin)
00007d   e437     jbset   0x37, 0x2        	JBSET	_flag1,2
00007e   a0cb     goto    0xcb             	GOTO	_00344_DS_
                                           ;;swapping arguments (AOP_TYPEs 1/3)
                                           ;;unsigned compare: left >= lit(0x9=9), size=2
                                           ;	.line	361; "MC32F7361.c"	if (ir_level_cnt <= 8) // 800us
00007f   3c00     movai   0                	MOVAI	0x00
000080   482a     rsubar  0x2a             	RSUBAR	(_int_isr_ir_level_cnt_131073_63 + 1)
000081   e587     jbset   0x187, 0x2       	JBSET	PFLAG,2
000082   a085     goto    0x85             	GOTO	_00431_DS_
000083   3c09     movai   0x9              	MOVAI	0x09
000084   4829     rsubar  0x29             	RSUBAR	_int_isr_ir_level_cnt_131073_63
                                           _00431_DS_
000085   e187     jbset   0x187, 0         	JBSET	PFLAG,0
000086   a0c9     goto    0xc9             	GOTO	_00342_DS_
                                           ;;genSkipc:3291: created from rifx:013B5EFC
                                           ;;swapping arguments (AOP_TYPEs 1/3)
                                           ;;unsigned compare: left >= lit(0x13=19), size=2
                                           ;	.line	366; "MC32F7361.c"	else if (ir_level_cnt <= 18) // 1800us,0
000087   3c00     movai   0                	MOVAI	0x00
000088   482a     rsubar  0x2a             	RSUBAR	(_int_isr_ir_level_cnt_131073_63 + 1)
000089   e587     jbset   0x187, 0x2       	JBSET	PFLAG,2
00008a   a08d     goto    0x8d             	GOTO	_00432_DS_
00008b   3c13     movai   0x13             	MOVAI	0x13
00008c   4829     rsubar  0x29             	RSUBAR	_int_isr_ir_level_cnt_131073_63
                                           _00432_DS_
00008d   f187     jbclr   0x187, 0         	JBCLR	PFLAG,0
00008e   a095     goto    0x95             	GOTO	_00338_DS_
                                           ;;genSkipc:3291: created from rifx:013B5EFC
                                           ;	.line	368; "MC32F7361.c"	__ir_data <<= 1;
00008f   582c     movar   0x2c             	MOVAR	_int_isr___ir_data_131073_63
000090   5627     movra   0x27             	MOVRA	r0x1028
000091   d187     bclr    0x187, 0         	BCLR	PFLAG,0
000092   5027     rlar    0x27             	RLAR	r0x1028
000093   562c     movra   0x2c             	MOVRA	_int_isr___ir_data_131073_63
000094   a0c9     goto    0xc9             	GOTO	_00342_DS_
                                           ;;swapping arguments (AOP_TYPEs 1/3)
                                           ;;unsigned compare: left >= lit(0x1B=27), size=2
                                           _00338_DS_
                                           ;	.line	373; "MC32F7361.c"	else if (ir_level_cnt <= 26) // 2600us,1
000095   3c00     movai   0                	MOVAI	0x00
000096   482a     rsubar  0x2a             	RSUBAR	(_int_isr_ir_level_cnt_131073_63 + 1)
000097   e587     jbset   0x187, 0x2       	JBSET	PFLAG,2
000098   a09b     goto    0x9b             	GOTO	_00433_DS_
000099   3c1b     movai   0x1b             	MOVAI	0x1b
00009a   4829     rsubar  0x29             	RSUBAR	_int_isr_ir_level_cnt_131073_63
                                           _00433_DS_
00009b   f187     jbclr   0x187, 0         	JBCLR	PFLAG,0
00009c   a0a4     goto    0xa4             	GOTO	_00335_DS_
                                           ;;genSkipc:3291: created from rifx:013B5EFC
                                           ;	.line	375; "MC32F7361.c"	__ir_data <<= 1;
00009d   582c     movar   0x2c             	MOVAR	_int_isr___ir_data_131073_63
00009e   5627     movra   0x27             	MOVRA	r0x1028
00009f   d187     bclr    0x187, 0         	BCLR	PFLAG,0
0000a0   5027     rlar    0x27             	RLAR	r0x1028
0000a1   562c     movra   0x2c             	MOVRA	_int_isr___ir_data_131073_63
                                           ;	.line	376; "MC32F7361.c"	__ir_data |= 0x01;
0000a2   c02c     bset    0x2c, 0          	BSET	_int_isr___ir_data_131073_63,0
0000a3   a0c9     goto    0xc9             	GOTO	_00342_DS_
                                           ;;swapping arguments (AOP_TYPEs 1/3)
                                           ;;unsigned compare: left >= lit(0x97=151), size=2
                                           _00335_DS_
                                           ;	.line	380; "MC32F7361.c"	else if (ir_level_cnt <= 150) // 15000us,
0000a4   3c00     movai   0                	MOVAI	0x00
0000a5   482a     rsubar  0x2a             	RSUBAR	(_int_isr_ir_level_cnt_131073_63 + 1)
0000a6   e587     jbset   0x187, 0x2       	JBSET	PFLAG,2
0000a7   a0aa     goto    0xaa             	GOTO	_00434_DS_
0000a8   3c97     movai   0x97             	MOVAI	0x97
0000a9   4829     rsubar  0x29             	RSUBAR	_int_isr_ir_level_cnt_131073_63
                                           _00434_DS_
0000aa   e187     jbset   0x187, 0         	JBSET	PFLAG,0
0000ab   a0c9     goto    0xc9             	GOTO	_00342_DS_
                                           ;;genSkipc:3291: created from rifx:013B5EFC
                                           ;;swapping arguments (AOP_TYPEs 1/3)
                                           ;;unsigned compare: left >= lit(0x1A5=421), size=2
                                           ;	.line	385; "MC32F7361.c"	else if (ir_level_cnt <= 420) // 42ms,
0000ac   3c01     movai   0x1              	MOVAI	0x01
0000ad   482a     rsubar  0x2a             	RSUBAR	(_int_isr_ir_level_cnt_131073_63 + 1)
0000ae   e587     jbset   0x187, 0x2       	JBSET	PFLAG,2
0000af   a0b2     goto    0xb2             	GOTO	_00435_DS_
0000b0   3ca5     movai   0xa5             	MOVAI	0xa5
0000b1   4829     rsubar  0x29             	RSUBAR	_int_isr_ir_level_cnt_131073_63
                                           _00435_DS_
0000b2   f187     jbclr   0x187, 0         	JBCLR	PFLAG,0
0000b3   a0be     goto    0xbe             	GOTO	_00329_DS_
                                           ;;genSkipc:3291: created from rifx:013B5EFC
                                           ;	.line	396; "MC32F7361.c"	if (0 == flag_is_recved_data)
0000b4   f037     jbclr   0x37, 0          	JBCLR	_flag1,0
0000b5   a0c9     goto    0xc9             	GOTO	_00342_DS_
                                           ;	.line	398; "MC32F7361.c"	ir_data = ~__ir_data;
0000b6   702c     comar   0x2c             	COMAR	_int_isr___ir_data_131073_63
0000b7   5638     movra   0x38             	MOVRA	_ir_data
                                           ;	.line	399; "MC32F7361.c"	__ir_data = 0;
0000b8   762c     clrr    0x2c             	CLRR	_int_isr___ir_data_131073_63
                                           ;	.line	400; "MC32F7361.c"	flag_is_recved_data = 1;
0000b9   c037     bset    0x37, 0          	BSET	_flag1,0
                                           ;	.line	401; "MC32F7361.c"	flag_is_recv_ir_repeat_code = 1; //
0000ba   c837     bset    0x37, 0x4        	BSET	_flag1,4
                                           ;	.line	402; "MC32F7361.c"	ir_long_press_cnt = 0;
0000bb   762d     clrr    0x2d             	CLRR	_int_isr_ir_long_press_cnt_131073_63
0000bc   762e     clrr    0x2e             	CLRR	(_int_isr_ir_long_press_cnt_131073_63 + 1)
0000bd   a0c9     goto    0xc9             	GOTO	_00342_DS_
                                           ;;swapping arguments (AOP_TYPEs 1/3)
                                           ;;unsigned compare: left >= lit(0x4B1=1201), size=2
                                           _00329_DS_
                                           ;	.line	406; "MC32F7361.c"	else if (ir_level_cnt <= 1200) // 120000,120ms,
0000be   3c04     movai   0x4              	MOVAI	0x04
0000bf   482a     rsubar  0x2a             	RSUBAR	(_int_isr_ir_level_cnt_131073_63 + 1)
0000c0   e587     jbset   0x187, 0x2       	JBSET	PFLAG,2
0000c1   a0c4     goto    0xc4             	GOTO	_00436_DS_
0000c2   3cb1     movai   0xb1             	MOVAI	0xb1
0000c3   4829     rsubar  0x29             	RSUBAR	_int_isr_ir_level_cnt_131073_63
                                           _00436_DS_
0000c4   f187     jbclr   0x187, 0         	JBCLR	PFLAG,0
0000c5   a0c9     goto    0xc9             	GOTO	_00342_DS_
                                           ;;genSkipc:3291: created from rifx:013B5EFC
                                           ;	.line	408; "MC32F7361.c"	ir_long_press_cnt++;
0000c6   662d     incr    0x2d             	INCR	_int_isr_ir_long_press_cnt_131073_63
0000c7   f587     jbclr   0x187, 0x2       	JBCLR	PFLAG,2
0000c8   662e     incr    0x2e             	INCR	(_int_isr_ir_long_press_cnt_131073_63 + 1)
                                           _00342_DS_
                                           ;	.line	414; "MC32F7361.c"	ir_level_cnt = 0;
0000c9   7629     clrr    0x29             	CLRR	_int_isr_ir_level_cnt_131073_63
0000ca   762a     clrr    0x2a             	CLRR	(_int_isr_ir_level_cnt_131073_63 + 1)
                                           _00344_DS_
                                           ;	.line	417; "MC32F7361.c"	last_level_in_ir_pin = 0; // 
0000cb   d437     bclr    0x37, 0x2        	BCLR	_flag1,2
                                           _00349_DS_
                                           ;	.line	421; "MC32F7361.c"	if (T3IF & T3IE)
0000cc   7627     clrr    0x27             	CLRR	r0x1028
0000cd   ff8b     jbclr   0x18b, 0x7       	JBCLR	_INTFbits,7
0000ce   6627     incr    0x27             	INCR	r0x1028
0000cf   7628     clrr    0x28             	CLRR	r0x1029
0000d0   ff8a     jbclr   0x18a, 0x7       	JBCLR	_INTEbits,7
0000d1   6628     incr    0x28             	INCR	r0x1029
0000d2   5828     movar   0x28             	MOVAR	r0x1029
0000d3   7a27     andra   0x27             	ANDRA	r0x1028
0000d4   3c00     movai   0                	MOVAI	0x00
0000d5   5c27     orar    0x27             	ORAR	r0x1028
0000d6   f587     jbclr   0x187, 0x2       	JBCLR	PFLAG,2
0000d7   a0d9     goto    0xd9             	GOTO	_00351_DS_
                                           ;	.line	423; "MC32F7361.c"	T3IF = 0;
0000d8   df8b     bclr    0x18b, 0x7       	BCLR	_INTFbits,7
                                           _00351_DS_
                                           ;	.line	430; "MC32F7361.c"	__endasm;
                                           	;
0000d9   4436     swapar  0x36             	swapar	_statusbuf;
0000da   5787     movra   0x187            	movra	_PFLAG;
0000db   4635     swapr   0x35             	swapr	_abuf;
0000dc   4435     swapar  0x35             	swapar	_abuf;
                                           	
                                           END_OF_INTERRUPT
                                           ;	.line	431; "MC32F7361.c"	}
0000dd   000d     retie                    	RETIE	
                                           
                                           ;--------------------------------------------------------
                                           ; code
                                           ;--------------------------------------------------------
                                           code_MC32F7361	code
                                           ;***
                                           ;  pBlock Stats: dbName = M
                                           ;***
                                           ;entry:  _main	;Function start
                                           ; 2 exit points
                                           ;has an exit
                                           ;functions called:
                                           ;   _Sys_Init
                                           ;   _delay_ms
                                           ;   _delay_100us
                                           ;   _delay_100us
                                           ;   _delay_ms
                                           ;   _delay_100us
                                           ;   _delay_100us
                                           ;   _delay_ms
                                           ;   _delay_100us
                                           ;   _delay_100us
                                           ;   _delay_ms
                                           ;   _delay_100us
                                           ;   _delay_100us
                                           ;   _delay_ms
                                           ;   __mulchar
                                           ;   __gptrget1
                                           ;   _send_cmd_16bit
                                           ;   __gptrget1
                                           ;   __gptrget1
                                           ;   _send_cmd_16bit
                                           ;   __gptrget1
                                           ;   __gptrget1
                                           ;   _send_cmd_16bit
                                           ;   __gptrget1
                                           ;   __gptrget1
                                           ;   _send_cmd_16bit
                                           ;   _Sys_Init
                                           ;   _delay_ms
                                           ;   _delay_100us
                                           ;   _delay_100us
                                           ;   _delay_ms
                                           ;   _delay_100us
                                           ;   _delay_100us
                                           ;   _delay_ms
                                           ;   _delay_100us
                                           ;   _delay_100us
                                           ;   _delay_ms
                                           ;   _delay_100us
                                           ;   _delay_100us
                                           ;   _delay_ms
                                           ;   __mulchar
                                           ;   __gptrget1
                                           ;   _send_cmd_16bit
                                           ;   __gptrget1
                                           ;   __gptrget1
                                           ;   _send_cmd_16bit
                                           ;   __gptrget1
                                           ;   __gptrget1
                                           ;   _send_cmd_16bit
                                           ;   __gptrget1
                                           ;   __gptrget1
                                           ;   _send_cmd_16bit
                                           ;10 compiler assigned registers:
                                           ;   STK00
                                           ;   r0x1014
                                           ;   r0x1015
                                           ;   r0x1016
                                           ;   r0x1017
                                           ;   STK01
                                           ;   r0x1018
                                           ;   r0x1019
                                           ;   r0x101A
                                           ;   r0x101B
                                           ;; Starting pCode block
                                           _main	;Function start
                                           ; 2 exit points
                                           ;	.line	164; "MC32F7361.c"	Sys_Init();
0000de   81bd     call    0x1bd            	CALL	_Sys_Init
                                           ;	.line	178; "MC32F7361.c"	P15PU = 1; // 
0000df   cb96     bset    0x196, 0x5       	BSET	_PUP1bits,5
                                           ;	.line	179; "MC32F7361.c"	P15OE = 0; // 
0000e0   db95     bclr    0x195, 0x5       	BCLR	_OEP1bits,5
                                           ;	.line	185; "MC32F7361.c"	flag_is_dev_open = 1;
0000e1   c237     bset    0x37, 0x1        	BSET	_flag1,1
                                           _00242_DS_
                                           ;	.line	198; "MC32F7361.c"	if (flag_is_recved_data)
0000e2   e037     jbset   0x37, 0          	JBSET	_flag1,0
0000e3   a0e2     goto    0xe2             	GOTO	_00242_DS_
                                           ;	.line	200; "MC32F7361.c"	if (ir_data == 0x08) // ON 
0000e4   5838     movar   0x38             	MOVAR	_ir_data
0000e5   3908     xorai   0x8              	XORAI	0x08
0000e6   e587     jbset   0x187, 0x2       	JBSET	PFLAG,2
0000e7   a10e     goto    0x10e            	GOTO	_00237_DS_
                                           ;	.line	204; "MC32F7361.c"	LED_CTL_PIN = 1;
0000e8   c990     bset    0x190, 0x4       	BSET	_IOP0bits,4
                                           ;	.line	205; "MC32F7361.c"	delay_ms(2);
0000e9   3c02     movai   0x2              	MOVAI	0x02
0000ea   5606     movra   0x6              	MOVRA	STK00
0000eb   3c00     movai   0                	MOVAI	0x00
0000ec   8290     call    0x290            	CALL	_delay_ms
                                           ;	.line	206; "MC32F7361.c"	LED_CTL_PIN = 0;
0000ed   d990     bclr    0x190, 0x4       	BCLR	_IOP0bits,4
                                           ;	.line	207; "MC32F7361.c"	delay_100us();
0000ee   8233     call    0x233            	CALL	_delay_100us
                                           ;	.line	208; "MC32F7361.c"	delay_100us();
0000ef   8233     call    0x233            	CALL	_delay_100us
                                           ;	.line	209; "MC32F7361.c"	LED_CTL_PIN = 1;
0000f0   c990     bset    0x190, 0x4       	BSET	_IOP0bits,4
                                           ;	.line	210; "MC32F7361.c"	delay_ms(3);
0000f1   3c03     movai   0x3              	MOVAI	0x03
0000f2   5606     movra   0x6              	MOVRA	STK00
0000f3   3c00     movai   0                	MOVAI	0x00
0000f4   8290     call    0x290            	CALL	_delay_ms
                                           ;	.line	211; "MC32F7361.c"	LED_CTL_PIN = 0;
0000f5   d990     bclr    0x190, 0x4       	BCLR	_IOP0bits,4
                                           ;	.line	212; "MC32F7361.c"	delay_100us();
0000f6   8233     call    0x233            	CALL	_delay_100us
                                           ;	.line	213; "MC32F7361.c"	delay_100us();
0000f7   8233     call    0x233            	CALL	_delay_100us
                                           ;	.line	214; "MC32F7361.c"	LED_CTL_PIN = 1;
0000f8   c990     bset    0x190, 0x4       	BSET	_IOP0bits,4
                                           ;	.line	215; "MC32F7361.c"	delay_ms(4);
0000f9   3c04     movai   0x4              	MOVAI	0x04
0000fa   5606     movra   0x6              	MOVRA	STK00
0000fb   3c00     movai   0                	MOVAI	0x00
0000fc   8290     call    0x290            	CALL	_delay_ms
                                           ;	.line	216; "MC32F7361.c"	LED_CTL_PIN = 0;
0000fd   d990     bclr    0x190, 0x4       	BCLR	_IOP0bits,4
                                           ;	.line	217; "MC32F7361.c"	delay_100us();
0000fe   8233     call    0x233            	CALL	_delay_100us
                                           ;	.line	218; "MC32F7361.c"	delay_100us();
0000ff   8233     call    0x233            	CALL	_delay_100us
                                           ;	.line	219; "MC32F7361.c"	LED_CTL_PIN = 1;
000100   c990     bset    0x190, 0x4       	BSET	_IOP0bits,4
                                           ;	.line	220; "MC32F7361.c"	delay_ms(5);
000101   3c05     movai   0x5              	MOVAI	0x05
000102   5606     movra   0x6              	MOVRA	STK00
000103   3c00     movai   0                	MOVAI	0x00
000104   8290     call    0x290            	CALL	_delay_ms
                                           ;	.line	221; "MC32F7361.c"	LED_CTL_PIN = 0;
000105   d990     bclr    0x190, 0x4       	BCLR	_IOP0bits,4
                                           ;	.line	222; "MC32F7361.c"	delay_100us();
000106   8233     call    0x233            	CALL	_delay_100us
                                           ;	.line	223; "MC32F7361.c"	delay_100us();
000107   8233     call    0x233            	CALL	_delay_100us
                                           ;	.line	224; "MC32F7361.c"	LED_CTL_PIN = 1;
000108   c990     bset    0x190, 0x4       	BSET	_IOP0bits,4
                                           ;	.line	225; "MC32F7361.c"	delay_ms(51);
000109   3c33     movai   0x33             	MOVAI	0x33
00010a   5606     movra   0x6              	MOVRA	STK00
00010b   3c00     movai   0                	MOVAI	0x00
00010c   8290     call    0x290            	CALL	_delay_ms
00010d   a1b9     goto    0x1b9            	GOTO	_00238_DS_
                                           _00237_DS_
                                           ;	.line	234; "MC32F7361.c"	else if (ir_data == 0xC0) // OFF 
00010e   5838     movar   0x38             	MOVAR	_ir_data
00010f   39c0     xorai   0xc0             	XORAI	0xc0
000110   e587     jbset   0x187, 0x2       	JBSET	PFLAG,2
000111   a113     goto    0x113            	GOTO	_00298_DS_
000112   a1b9     goto    0x1b9            	GOTO	_00238_DS_
                                           _00298_DS_
                                           ;	.line	240; "MC32F7361.c"	else if (ir_data == 0x80) // AUTO 
000113   5838     movar   0x38             	MOVAR	_ir_data
000114   3980     xorai   0x80             	XORAI	0x80
000115   e587     jbset   0x187, 0x2       	JBSET	PFLAG,2
000116   a118     goto    0x118            	GOTO	_00299_DS_
000117   a1b9     goto    0x1b9            	GOTO	_00238_DS_
                                           _00299_DS_
                                           ;	.line	247; "MC32F7361.c"	else if (ir_data == 0x60) // SPEED 
000118   5838     movar   0x38             	MOVAR	_ir_data
000119   3960     xorai   0x60             	XORAI	0x60
00011a   e587     jbset   0x187, 0x2       	JBSET	PFLAG,2
00011b   a11d     goto    0x11d            	GOTO	_00300_DS_
00011c   a1b9     goto    0x1b9            	GOTO	_00238_DS_
                                           _00300_DS_
                                           ;	.line	255; "MC32F7361.c"	for (i = 0; i < sizeof(table) / sizeof(table[0]); i++)
00011d   761f     clrr    0x1f             	CLRR	r0x1014
                                           _00244_DS_
                                           ;	.line	257; "MC32F7361.c"	if (table[i][0] == ir_data)
00011e   3c05     movai   0x5              	MOVAI	0x05
00011f   5606     movra   0x6              	MOVRA	STK00
000120   581f     movar   0x1f             	MOVAR	r0x1014
000121   82f1     call    0x2f1            	CALL	__mulchar
000122   5620     movra   0x20             	MOVRA	r0x1015
000123   5820     movar   0x20             	MOVAR	r0x1015
000124   3fb0     addai   0xb0             	ADDAI	(_table + 0)
000125   5621     movra   0x21             	MOVRA	r0x1016
000126   3c02     movai   0x2              	MOVAI	high (_table + 0)
000127   f187     jbclr   0x187, 0         	JBCLR	PFLAG,0
000128   3f01     addai   0x1              	ADDAI	0x01
000129   5622     movra   0x22             	MOVRA	r0x1017
00012a   5821     movar   0x21             	MOVAR	r0x1016
00012b   5605     movra   0x5              	MOVRA	STK01
00012c   5822     movar   0x22             	MOVAR	r0x1017
00012d   5606     movra   0x6              	MOVRA	STK00
00012e   3c80     movai   0x80             	MOVAI	0x80
00012f   8308     call    0x308            	CALL	__gptrget1
000130   5623     movra   0x23             	MOVRA	r0x1018
000131   5838     movar   0x38             	MOVAR	_ir_data
000132   4023     xorar   0x23             	XORAR	r0x1018
000133   e587     jbset   0x187, 0x2       	JBSET	PFLAG,2
000134   a1b4     goto    0x1b4            	GOTO	_00245_DS_
                                           ;	.line	259; "MC32F7361.c"	send_cmd_16bit(0x0C00); // 
000135   3c00     movai   0                	MOVAI	0x00
000136   5606     movra   0x6              	MOVRA	STK00
000137   3c0c     movai   0xc              	MOVAI	0x0c
000138   81ed     call    0x1ed            	CALL	_send_cmd_16bit
                                           ;	.line	260; "MC32F7361.c"	tmp = ((u16)table[i][1] << 8) + (u16)table[i][2];
000139   5820     movar   0x20             	MOVAR	r0x1015
00013a   3fb0     addai   0xb0             	ADDAI	(_table + 0)
00013b   5620     movra   0x20             	MOVRA	r0x1015
00013c   3c02     movai   0x2              	MOVAI	high (_table + 0)
00013d   f187     jbclr   0x187, 0         	JBCLR	PFLAG,0
00013e   3f01     addai   0x1              	ADDAI	0x01
00013f   5621     movra   0x21             	MOVRA	r0x1016
000140   3c01     movai   0x1              	MOVAI	0x01
000141   7c20     addar   0x20             	ADDAR	r0x1015
000142   5622     movra   0x22             	MOVRA	r0x1017
000143   7623     clrr    0x23             	CLRR	r0x1018
000144   5223     rlr     0x23             	RLR	r0x1018
000145   5821     movar   0x21             	MOVAR	r0x1016
000146   7e23     addra   0x23             	ADDRA	r0x1018
000147   5822     movar   0x22             	MOVAR	r0x1017
000148   5605     movra   0x5              	MOVRA	STK01
000149   5823     movar   0x23             	MOVAR	r0x1018
00014a   5606     movra   0x6              	MOVRA	STK00
00014b   3c80     movai   0x80             	MOVAI	0x80
00014c   8308     call    0x308            	CALL	__gptrget1
00014d   5624     movra   0x24             	MOVRA	r0x1019
00014e   5824     movar   0x24             	MOVAR	r0x1019
00014f   5625     movra   0x25             	MOVRA	r0x101A
000150   5622     movra   0x22             	MOVRA	r0x1017
000151   7623     clrr    0x23             	CLRR	r0x1018
                                           ;;106	MOVAR	r0x1017
000152   7624     clrr    0x24             	CLRR	r0x1019
000153   3c02     movai   0x2              	MOVAI	0x02
000154   7c20     addar   0x20             	ADDAR	r0x1015
000155   5622     movra   0x22             	MOVRA	r0x1017
000156   7623     clrr    0x23             	CLRR	r0x1018
000157   5223     rlr     0x23             	RLR	r0x1018
000158   5821     movar   0x21             	MOVAR	r0x1016
000159   7e23     addra   0x23             	ADDRA	r0x1018
00015a   5822     movar   0x22             	MOVAR	r0x1017
00015b   5605     movra   0x5              	MOVRA	STK01
00015c   5823     movar   0x23             	MOVAR	r0x1018
00015d   5606     movra   0x6              	MOVRA	STK00
00015e   3c80     movai   0x80             	MOVAI	0x80
00015f   8308     call    0x308            	CALL	__gptrget1
000160   5622     movra   0x22             	MOVRA	r0x1017
000161   5626     movra   0x26             	MOVRA	r0x101B
                                           ;;104	MOVAR	r0x101B
000162   7623     clrr    0x23             	CLRR	r0x1018
000163   5822     movar   0x22             	MOVAR	r0x1017
000164   7c24     addar   0x24             	ADDAR	r0x1019
000165   5622     movra   0x22             	MOVRA	r0x1017
000166   5825     movar   0x25             	MOVAR	r0x101A
000167   f187     jbclr   0x187, 0         	JBCLR	PFLAG,0
000168   6025     jzar    0x25             	JZAR	r0x101A
000169   7e23     addra   0x23             	ADDRA	r0x1018
                                           ;	.line	261; "MC32F7361.c"	send_cmd_16bit(tmp);
00016a   5822     movar   0x22             	MOVAR	r0x1017
00016b   5606     movra   0x6              	MOVRA	STK00
00016c   5823     movar   0x23             	MOVAR	r0x1018
00016d   81ed     call    0x1ed            	CALL	_send_cmd_16bit
                                           ;	.line	262; "MC32F7361.c"	if (table[i][3] != UNUSE_VAL && table[i][4] != UNUSE_VAL)
00016e   3c03     movai   0x3              	MOVAI	0x03
00016f   7c20     addar   0x20             	ADDAR	r0x1015
000170   5624     movra   0x24             	MOVRA	r0x1019
000171   7625     clrr    0x25             	CLRR	r0x101A
000172   5225     rlr     0x25             	RLR	r0x101A
000173   5821     movar   0x21             	MOVAR	r0x1016
000174   7e25     addra   0x25             	ADDRA	r0x101A
000175   5824     movar   0x24             	MOVAR	r0x1019
000176   5605     movra   0x5              	MOVRA	STK01
000177   5825     movar   0x25             	MOVAR	r0x101A
000178   5606     movra   0x6              	MOVRA	STK00
000179   3c80     movai   0x80             	MOVAI	0x80
00017a   8308     call    0x308            	CALL	__gptrget1
00017b   5626     movra   0x26             	MOVRA	r0x101B
00017c   5826     movar   0x26             	MOVAR	r0x101B
00017d   39ff     xorai   0xff             	XORAI	0xff
00017e   e587     jbset   0x187, 0x2       	JBSET	PFLAG,2
00017f   a181     goto    0x181            	GOTO	_00301_DS_
000180   a1b9     goto    0x1b9            	GOTO	_00238_DS_
                                           _00301_DS_
000181   3c04     movai   0x4              	MOVAI	0x04
000182   7e20     addra   0x20             	ADDRA	r0x1015
000183   f187     jbclr   0x187, 0         	JBCLR	PFLAG,0
000184   6621     incr    0x21             	INCR	r0x1016
000185   5820     movar   0x20             	MOVAR	r0x1015
000186   5605     movra   0x5              	MOVRA	STK01
000187   5821     movar   0x21             	MOVAR	r0x1016
000188   5606     movra   0x6              	MOVRA	STK00
000189   3c80     movai   0x80             	MOVAI	0x80
00018a   8308     call    0x308            	CALL	__gptrget1
00018b   5626     movra   0x26             	MOVRA	r0x101B
00018c   5826     movar   0x26             	MOVAR	r0x101B
00018d   39ff     xorai   0xff             	XORAI	0xff
00018e   e587     jbset   0x187, 0x2       	JBSET	PFLAG,2
00018f   a191     goto    0x191            	GOTO	_00302_DS_
000190   a1b9     goto    0x1b9            	GOTO	_00238_DS_
                                           _00302_DS_
                                           ;	.line	264; "MC32F7361.c"	send_cmd_16bit(tmp); // 4 * 16bit 2 * 16bit
000191   5822     movar   0x22             	MOVAR	r0x1017
000192   5606     movra   0x6              	MOVRA	STK00
000193   5823     movar   0x23             	MOVAR	r0x1018
000194   81ed     call    0x1ed            	CALL	_send_cmd_16bit
                                           ;	.line	265; "MC32F7361.c"	tmp = ((u16)table[i][3] << 8) + (u16)table[i][4];
000195   5824     movar   0x24             	MOVAR	r0x1019
000196   5605     movra   0x5              	MOVRA	STK01
000197   5825     movar   0x25             	MOVAR	r0x101A
000198   5606     movra   0x6              	MOVRA	STK00
000199   3c80     movai   0x80             	MOVAI	0x80
00019a   8308     call    0x308            	CALL	__gptrget1
00019b   5623     movra   0x23             	MOVRA	r0x1018
00019c   5624     movra   0x24             	MOVRA	r0x1019
00019d   5622     movra   0x22             	MOVRA	r0x1017
                                           ;;102	MOVAR	r0x1017
00019e   7625     clrr    0x25             	CLRR	r0x101A
                                           ;;103	MOVAR	r0x1019
00019f   7622     clrr    0x22             	CLRR	r0x1017
0001a0   5820     movar   0x20             	MOVAR	r0x1015
0001a1   5605     movra   0x5              	MOVRA	STK01
0001a2   5821     movar   0x21             	MOVAR	r0x1016
0001a3   5606     movra   0x6              	MOVRA	STK00
0001a4   3c80     movai   0x80             	MOVAI	0x80
0001a5   8308     call    0x308            	CALL	__gptrget1
0001a6   5624     movra   0x24             	MOVRA	r0x1019
                                           ;;101	MOVAR	r0x1019
0001a7   7621     clrr    0x21             	CLRR	r0x1016
                                           ;;100	MOVAR	r0x1015
0001a8   5824     movar   0x24             	MOVAR	r0x1019
0001a9   5620     movra   0x20             	MOVRA	r0x1015
0001aa   7e22     addra   0x22             	ADDRA	r0x1017
0001ab   3c00     movai   0                	MOVAI	0x00
0001ac   f187     jbclr   0x187, 0         	JBCLR	PFLAG,0
0001ad   6021     jzar    0x21             	JZAR	r0x1016
0001ae   7e23     addra   0x23             	ADDRA	r0x1018
                                           ;	.line	266; "MC32F7361.c"	send_cmd_16bit(tmp);
0001af   5822     movar   0x22             	MOVAR	r0x1017
0001b0   5606     movra   0x6              	MOVRA	STK00
0001b1   5823     movar   0x23             	MOVAR	r0x1018
0001b2   81ed     call    0x1ed            	CALL	_send_cmd_16bit
                                           ;	.line	268; "MC32F7361.c"	break;
0001b3   a1b9     goto    0x1b9            	GOTO	_00238_DS_
                                           _00245_DS_
                                           ;	.line	255; "MC32F7361.c"	for (i = 0; i < sizeof(table) / sizeof(table[0]); i++)
0001b4   661f     incr    0x1f             	INCR	r0x1014
                                           ;;unsigned compare: left < lit(0xD=13), size=1
0001b5   3c0d     movai   0xd              	MOVAI	0x0d
0001b6   481f     rsubar  0x1f             	RSUBAR	r0x1014
0001b7   e187     jbset   0x187, 0         	JBSET	PFLAG,0
0001b8   a11e     goto    0x11e            	GOTO	_00244_DS_
                                           ;;genSkipc:3291: created from rifx:013B5EFC
                                           _00238_DS_
                                           ;	.line	273; "MC32F7361.c"	ir_data = 0;
0001b9   7638     clrr    0x38             	CLRR	_ir_data
                                           ;	.line	274; "MC32F7361.c"	flag_is_recved_data = 0;
0001ba   d037     bclr    0x37, 0          	BCLR	_flag1,0
0001bb   a0e2     goto    0xe2             	GOTO	_00242_DS_
                                           ;	.line	277; "MC32F7361.c"	}
0001bc   000c     return                   	RETURN	
                                           ; exit point of _main
                                           
                                           ;***
                                           ;  pBlock Stats: dbName = C
                                           ;***
                                           ;entry:  _Sys_Init	;Function start
                                           ; 2 exit points
                                           ;has an exit
                                           ;functions called:
                                           ;   _CLR_RAM
                                           ;   _IO_Init
                                           ;   _TIMER2_INT_Init
                                           ;   _CLR_RAM
                                           ;   _IO_Init
                                           ;   _TIMER2_INT_Init
                                           ;; Starting pCode block
                                           _Sys_Init	;Function start
                                           ; 2 exit points
                                           ;	.line	146; "MC32F7361.c"	GIE = 0;
0001bd   df88     bclr    0x188, 0x7       	BCLR	_MCRbits,7
                                           ;	.line	147; "MC32F7361.c"	CLR_RAM();
0001be   81e1     call    0x1e1            	CALL	_CLR_RAM
                                           ;	.line	148; "MC32F7361.c"	IO_Init();
0001bf   81cc     call    0x1cc            	CALL	_IO_Init
                                           ;	.line	151; "MC32F7361.c"	TIMER2_INT_Init();
0001c0   81c3     call    0x1c3            	CALL	_TIMER2_INT_Init
                                           ;	.line	153; "MC32F7361.c"	GIE = 1;
0001c1   cf88     bset    0x188, 0x7       	BSET	_MCRbits,7
                                           ;	.line	154; "MC32F7361.c"	}
0001c2   000c     return                   	RETURN	
                                           ; exit point of _Sys_Init
                                           
                                           ;***
                                           ;  pBlock Stats: dbName = C
                                           ;***
                                           ;entry:  _TIMER2_INT_Init	;Function start
                                           ; 2 exit points
                                           ;has an exit
                                           ;; Starting pCode block
                                           _TIMER2_INT_Init	;Function start
                                           ; 2 exit points
                                           ;	.line	132; "MC32F7361.c"	T2CR = DEF_SET_BIT0 | DEF_SET_BIT1; // CPU,8
0001c3   3c03     movai   0x3              	MOVAI	0x03
0001c4   57a0     movra   0x1a0            	MOVRA	_T2CR
                                           ;	.line	133; "MC32F7361.c"	T2CNT = 100 - 1;
0001c5   3c63     movai   0x63             	MOVAI	0x63
0001c6   57a1     movra   0x1a1            	MOVRA	_T2CNT
                                           ;	.line	134; "MC32F7361.c"	T2LOAD = 100 - 1; // 100us
0001c7   3c63     movai   0x63             	MOVAI	0x63
0001c8   57a2     movra   0x1a2            	MOVRA	_T2LOAD
                                           ;	.line	135; "MC32F7361.c"	T2EN = 1;
0001c9   cfa0     bset    0x1a0, 0x7       	BSET	_T2CRbits,7
                                           ;	.line	136; "MC32F7361.c"	T2IE = 1;
0001ca   cb8a     bset    0x18a, 0x5       	BSET	_INTEbits,5
                                           ;	.line	137; "MC32F7361.c"	}
0001cb   000c     return                   	RETURN	
                                           ; exit point of _TIMER2_INT_Init
                                           
                                           ;***
                                           ;  pBlock Stats: dbName = C
                                           ;***
                                           ;entry:  _IO_Init	;Function start
                                           ; 2 exit points
                                           ;has an exit
                                           ;; Starting pCode block
                                           _IO_Init	;Function start
                                           ; 2 exit points
                                           ;	.line	103; "MC32F7361.c"	IOP0 = 0x00;   // io
0001cc   7790     clrr    0x190            	CLRR	_IOP0
                                           ;	.line	104; "MC32F7361.c"	OEP0 = 0x3F;   // io 1:out  0:in
0001cd   3c3f     movai   0x3f             	MOVAI	0x3f
0001ce   5791     movra   0x191            	MOVRA	_OEP0
                                           ;	.line	105; "MC32F7361.c"	PUP0 = 0x00;   // io   1:enable  0:disable
0001cf   7792     clrr    0x192            	CLRR	_PUP0
                                           ;	.line	106; "MC32F7361.c"	PDP0 = 0x00;   // io   1:enable  0:disable
0001d0   7793     clrr    0x193            	CLRR	_PDP0
                                           ;	.line	107; "MC32F7361.c"	P0ADCR = 0x00; // io  1:  0:io
0001d1   77b6     clrr    0x1b6            	CLRR	_P0ADCR
                                           ;	.line	109; "MC32F7361.c"	IOP1 = 0x00;   // io
0001d2   7794     clrr    0x194            	CLRR	_IOP1
                                           ;	.line	110; "MC32F7361.c"	OEP1 = 0xFF;   // io 1:out  0:in
0001d3   3cff     movai   0xff             	MOVAI	0xff
0001d4   5795     movra   0x195            	MOVRA	_OEP1
                                           ;	.line	111; "MC32F7361.c"	PUP1 = 0x00;   // io   1:enable  0:disable
0001d5   7796     clrr    0x196            	CLRR	_PUP1
                                           ;	.line	112; "MC32F7361.c"	PDP1 = 0x00;   // io   1:enable  0:disable
0001d6   7797     clrr    0x197            	CLRR	_PDP1
                                           ;	.line	113; "MC32F7361.c"	P1ADCR = 0x00; // io  1:  0:io
0001d7   77b7     clrr    0x1b7            	CLRR	_P1ADCR
                                           ;	.line	115; "MC32F7361.c"	IOP2 = 0x00; // io
0001d8   77b8     clrr    0x1b8            	CLRR	_IOP2
                                           ;	.line	116; "MC32F7361.c"	OEP2 = 0x0F; // io 1:out  0:in
0001d9   3c0f     movai   0xf              	MOVAI	0x0f
0001da   57b9     movra   0x1b9            	MOVRA	_OEP2
                                           ;	.line	117; "MC32F7361.c"	PUP2 = 0x00; // io   1:enable  0:disable
0001db   77ba     clrr    0x1ba            	CLRR	_PUP2
                                           ;	.line	118; "MC32F7361.c"	PDP2 = 0x00; // io   1:enable  0:disablea
0001dc   77bb     clrr    0x1bb            	CLRR	_PDP2
                                           ;	.line	120; "MC32F7361.c"	PMOD = 0x00;  // P00P01P13 io
0001dd   77bc     clrr    0x1bc            	CLRR	_PMOD
                                           ;	.line	121; "MC32F7361.c"	DRVCR = 0x80; // 
0001de   3c80     movai   0x80             	MOVAI	0x80
0001df   578c     movra   0x18c            	MOVRA	_DRVCR
                                           ;	.line	122; "MC32F7361.c"	}
0001e0   000c     return                   	RETURN	
                                           ; exit point of _IO_Init
                                           
                                           ;***
                                           ;  pBlock Stats: dbName = C
                                           ;***
                                           ;entry:  _CLR_RAM	;Function start
                                           ; 2 exit points
                                           ;has an exit
                                           ;; Starting pCode block
                                           _CLR_RAM	;Function start
                                           ; 2 exit points
                                           ;	.line	88; "MC32F7361.c"	for (FSR0 = 0; FSR0 < 0xff; FSR0++)
0001e1   7784     clrr    0x184            	CLRR	_FSR0
                                           ;;unsigned compare: left < lit(0xFF=255), size=1
                                           _00204_DS_
0001e2   3cff     movai   0xff             	MOVAI	0xff
0001e3   4984     rsubar  0x184            	RSUBAR	_FSR0
0001e4   f187     jbclr   0x187, 0         	JBCLR	PFLAG,0
0001e5   a1e9     goto    0x1e9            	GOTO	_00202_DS_
                                           ;;genSkipc:3291: created from rifx:013B5EFC
                                           ;	.line	90; "MC32F7361.c"	INDF0 = 0x00;
0001e6   7780     clrr    0x180            	CLRR	_INDF0
                                           ;	.line	88; "MC32F7361.c"	for (FSR0 = 0; FSR0 < 0xff; FSR0++)
0001e7   6784     incr    0x184            	INCR	_FSR0
0001e8   a1e2     goto    0x1e2            	GOTO	_00204_DS_
                                           _00202_DS_
                                           ;	.line	92; "MC32F7361.c"	FSR0 = 0xFF;
0001e9   3cff     movai   0xff             	MOVAI	0xff
0001ea   5784     movra   0x184            	MOVRA	_FSR0
                                           ;	.line	93; "MC32F7361.c"	INDF0 = 0x00;
0001eb   7780     clrr    0x180            	CLRR	_INDF0
                                           ;	.line	94; "MC32F7361.c"	}
0001ec   000c     return                   	RETURN	
                                           ; exit point of _CLR_RAM
                                           
                                           ;***
                                           ;  pBlock Stats: dbName = C
                                           ;***
                                           ;entry:  _send_cmd_16bit	;Function start
                                           ; 2 exit points
                                           ;has an exit
                                           ;functions called:
                                           ;   _delay_100us
                                           ;   _delay_ms
                                           ;   _delay_1_4ms
                                           ;   _delay_100us
                                           ;   _delay_ms
                                           ;   _delay_100us
                                           ;   _delay_ms
                                           ;   _delay_1_4ms
                                           ;   _delay_100us
                                           ;   _delay_ms
                                           ;7 compiler assigned registers:
                                           ;   r0x100E
                                           ;   STK00
                                           ;   r0x100F
                                           ;   r0x1010
                                           ;   r0x1011
                                           ;   r0x1012
                                           ;   r0x1013
                                           ;; Starting pCode block
                                           _send_cmd_16bit	;Function start
                                           ; 2 exit points
                                           ;	.line	49; "MC32F7361.c"	void send_cmd_16bit(const u16 data)
0001ed   561a     movra   0x1a             	MOVRA	r0x100E
0001ee   5806     movar   0x6              	MOVAR	STK00
0001ef   5619     movra   0x19             	MOVRA	r0x100F
                                           ;	.line	52; "MC32F7361.c"	if (0 == flag_is_dev_open)
0001f0   f237     jbclr   0x37, 0x1        	JBCLR	_flag1,1
0001f1   a1f3     goto    0x1f3            	GOTO	_00181_DS_
                                           ;	.line	54; "MC32F7361.c"	return;
0001f2   a21b     goto    0x21b            	GOTO	_00177_DS_
                                           _00181_DS_
                                           ;	.line	58; "MC32F7361.c"	for (i = 0; i < 16; i++)
0001f3   761b     clrr    0x1b             	CLRR	r0x1010
                                           _00175_DS_
                                           ;	.line	60; "MC32F7361.c"	LED_CTL_PIN = 0;
0001f4   d990     bclr    0x190, 0x4       	BCLR	_IOP0bits,4
                                           ;	.line	61; "MC32F7361.c"	delay_100us();
0001f5   8233     call    0x233            	CALL	_delay_100us
                                           ;	.line	62; "MC32F7361.c"	LED_CTL_PIN = 1;
0001f6   c990     bset    0x190, 0x4       	BSET	_IOP0bits,4
                                           ;	.line	63; "MC32F7361.c"	if ((data >> (15 - i)) & 0x01) // 1
0001f7   581b     movar   0x1b             	MOVAR	r0x1010
0001f8   3a0f     isubai  0xf              	ISUBAI	0x0f
0001f9   561c     movra   0x1c             	MOVRA	r0x1011
0001fa   581a     movar   0x1a             	MOVAR	r0x100E
0001fb   561e     movra   0x1e             	MOVRA	r0x1012
0001fc   5819     movar   0x19             	MOVAR	r0x100F
0001fd   561d     movra   0x1d             	MOVRA	r0x1013
0001fe   581c     movar   0x1c             	MOVAR	r0x1011
0001ff   3a00     isubai  0                	ISUBAI	0x00
000200   f587     jbclr   0x187, 0x2       	JBCLR	PFLAG,2
000201   a207     goto    0x207            	GOTO	_00197_DS_
                                           _00196_DS_
000202   4e1e     rrr     0x1e             	RRR	r0x1012
000203   4e1d     rrr     0x1d             	RRR	r0x1013
000204   3f01     addai   0x1              	ADDAI	0x01
000205   e187     jbset   0x187, 0         	JBSET	PFLAG,0
000206   a202     goto    0x202            	GOTO	_00196_DS_
                                           _00197_DS_
000207   e01d     jbset   0x1d, 0          	JBSET	r0x1013,0
000208   a20e     goto    0x20e            	GOTO	_00172_DS_
                                           ;	.line	65; "MC32F7361.c"	delay_ms(3);
000209   3c03     movai   0x3              	MOVAI	0x03
00020a   5606     movra   0x6              	MOVRA	STK00
00020b   3c00     movai   0                	MOVAI	0x00
00020c   8290     call    0x290            	CALL	_delay_ms
00020d   a20f     goto    0x20f            	GOTO	_00176_DS_
                                           _00172_DS_
                                           ;	.line	69; "MC32F7361.c"	delay_1_4ms();
00020e   821c     call    0x21c            	CALL	_delay_1_4ms
                                           _00176_DS_
                                           ;	.line	58; "MC32F7361.c"	for (i = 0; i < 16; i++)
00020f   661b     incr    0x1b             	INCR	r0x1010
                                           ;;unsigned compare: left < lit(0x10=16), size=1
000210   3c10     movai   0x10             	MOVAI	0x10
000211   481b     rsubar  0x1b             	RSUBAR	r0x1010
000212   e187     jbset   0x187, 0         	JBSET	PFLAG,0
000213   a1f4     goto    0x1f4            	GOTO	_00175_DS_
                                           ;;genSkipc:3291: created from rifx:013B5EFC
                                           ;	.line	73; "MC32F7361.c"	LED_CTL_PIN = 0;
000214   d990     bclr    0x190, 0x4       	BCLR	_IOP0bits,4
                                           ;	.line	74; "MC32F7361.c"	delay_100us();
000215   8233     call    0x233            	CALL	_delay_100us
                                           ;	.line	75; "MC32F7361.c"	LED_CTL_PIN = 1;
000216   c990     bset    0x190, 0x4       	BSET	_IOP0bits,4
                                           ;	.line	76; "MC32F7361.c"	delay_ms(33);
000217   3c21     movai   0x21             	MOVAI	0x21
000218   5606     movra   0x6              	MOVRA	STK00
000219   3c00     movai   0                	MOVAI	0x00
00021a   8290     call    0x290            	CALL	_delay_ms
                                           _00177_DS_
                                           ;	.line	78; "MC32F7361.c"	}
00021b   000c     return                   	RETURN	
                                           ; exit point of _send_cmd_16bit
                                           
                                           ;***
                                           ;  pBlock Stats: dbName = C
                                           ;***
                                           ;entry:  _delay_1_4ms	;Function start
                                           ; 2 exit points
                                           ;has an exit
                                           ;functions called:
                                           ;   _delay_100us
                                           ;   _delay_100us
                                           ;2 compiler assigned registers:
                                           ;   r0x100A
                                           ;   r0x100B
                                           ;; Starting pCode block
                                           _delay_1_4ms	;Function start
                                           ; 2 exit points
                                           ;	.line	42; "MC32F7361.c"	for (i = 0; i < 14; i++)
00021c   3c0e     movai   0xe              	MOVAI	0x0e
00021d   5609     movra   0x9              	MOVRA	r0x100A
                                           _00164_DS_
                                           ;	.line	44; "MC32F7361.c"	delay_100us();
00021e   8233     call    0x233            	CALL	_delay_100us
00021f   6c09     decar   0x9              	DECAR	r0x100A
000220   5609     movra   0x9              	MOVRA	r0x100A
000221   560a     movra   0xa              	MOVRA	r0x100B
                                           ;;99	MOVAR	r0x100B
                                           ;	.line	42; "MC32F7361.c"	for (i = 0; i < 14; i++)
000222   3c00     movai   0                	MOVAI	0x00
000223   5c0a     orar    0xa              	ORAR	r0x100B
000224   e587     jbset   0x187, 0x2       	JBSET	PFLAG,2
000225   a21e     goto    0x21e            	GOTO	_00164_DS_
                                           ;	.line	46; "MC32F7361.c"	}
000226   000c     return                   	RETURN	
                                           ; exit point of _delay_1_4ms
                                           
                                           ;***
                                           ;  pBlock Stats: dbName = C
                                           ;***
                                           ;entry:  _delay_200us	;Function start
                                           ; 2 exit points
                                           ;has an exit
                                           ;2 compiler assigned registers:
                                           ;   r0x101C
                                           ;   r0x101D
                                           ;; Starting pCode block
                                           _delay_200us	;Function start
                                           ; 2 exit points
                                           ;	.line	32; "MC32F7361.c"	while (i--)
000227   3c96     movai   0x96             	MOVAI	0x96
000228   5617     movra   0x17             	MOVRA	r0x101C
                                           _00153_DS_
000229   5817     movar   0x17             	MOVAR	r0x101C
00022a   5618     movra   0x18             	MOVRA	r0x101D
00022b   6e17     decr    0x17             	DECR	r0x101C
00022c   3c00     movai   0                	MOVAI	0x00
00022d   5c18     orar    0x18             	ORAR	r0x101D
00022e   f587     jbclr   0x187, 0x2       	JBCLR	PFLAG,2
00022f   a232     goto    0x232            	GOTO	_00156_DS_
                                           ;	.line	34; "MC32F7361.c"	Nop();
000230   0000     nop                      	nop	
000231   a229     goto    0x229            	GOTO	_00153_DS_
                                           _00156_DS_
                                           ;	.line	36; "MC32F7361.c"	}
000232   000c     return                   	RETURN	
                                           ; exit point of _delay_200us
                                           
                                           ;***
                                           ;  pBlock Stats: dbName = C
                                           ;***
                                           ;entry:  _delay_100us	;Function start
                                           ; 2 exit points
                                           ;has an exit
                                           ;2 compiler assigned registers:
                                           ;   r0x1008
                                           ;   r0x1009
                                           ;; Starting pCode block
                                           _delay_100us	;Function start
                                           ; 2 exit points
                                           ;	.line	22; "MC32F7361.c"	while (i--)
000233   3c4a     movai   0x4a             	MOVAI	0x4a
000234   5608     movra   0x8              	MOVRA	r0x1008
                                           _00145_DS_
000235   5808     movar   0x8              	MOVAR	r0x1008
000236   5607     movra   0x7              	MOVRA	r0x1009
000237   6e08     decr    0x8              	DECR	r0x1008
000238   3c00     movai   0                	MOVAI	0x00
000239   5c07     orar    0x7              	ORAR	r0x1009
00023a   f587     jbclr   0x187, 0x2       	JBCLR	PFLAG,2
00023b   a23e     goto    0x23e            	GOTO	_00148_DS_
                                           ;	.line	24; "MC32F7361.c"	Nop();
00023c   0000     nop                      	nop	
00023d   a235     goto    0x235            	GOTO	_00145_DS_
                                           _00148_DS_
                                           ;	.line	26; "MC32F7361.c"	}
00023e   000c     return                   	RETURN	
                                           ; exit point of _delay_100us
                                           
                                           ;***
                                           ;  pBlock Stats: dbName = C
                                           ;***
                                           ;entry:  _send_data_msb	;Function start
                                           ; 2 exit points
                                           ;has an exit
                                           ;functions called:
                                           ;   _delay_ms
                                           ;   _delay_ms
                                           ;   _delay_ms
                                           ;   _delay_ms
                                           ;   _delay_ms
                                           ;   _delay_ms
                                           ;   _delay_ms
                                           ;   _delay_ms
                                           ;   _delay_ms
                                           ;   _delay_ms
                                           ;   _delay_ms
                                           ;   _delay_ms
                                           ;   _delay_ms
                                           ;   _delay_ms
                                           ;   _delay_ms
                                           ;   _delay_ms
                                           ;13 compiler assigned registers:
                                           ;   r0x101E
                                           ;   STK00
                                           ;   r0x101F
                                           ;   STK01
                                           ;   r0x1020
                                           ;   STK02
                                           ;   r0x1021
                                           ;   r0x1022
                                           ;   r0x1023
                                           ;   r0x1024
                                           ;   r0x1025
                                           ;   r0x1026
                                           ;   r0x1027
                                           ;; Starting pCode block
                                           _send_data_msb	;Function start
                                           ; 2 exit points
                                           ;	.line	179; "user.h"	void send_data_msb(u32 send_data)
00023f   5610     movra   0x10             	MOVRA	r0x101E
000240   5806     movar   0x6              	MOVAR	STK00
000241   560f     movra   0xf              	MOVRA	r0x101F
000242   5805     movar   0x5              	MOVAR	STK01
000243   560e     movra   0xe              	MOVRA	r0x1020
000244   5804     movar   0x4              	MOVAR	STK02
000245   560d     movra   0xd              	MOVRA	r0x1021
                                           ;	.line	183; "user.h"	DEBUG_PIN = 1;
000246   c5b8     bset    0x1b8, 0x2       	BSET	_IOP2bits,2
                                           ;	.line	184; "user.h"	delay_ms(15);
000247   3c0f     movai   0xf              	MOVAI	0x0f
000248   5606     movra   0x6              	MOVRA	STK00
000249   3c00     movai   0                	MOVAI	0x00
00024a   8290     call    0x290            	CALL	_delay_ms
                                           ;	.line	186; "user.h"	DEBUG_PIN = 0;
00024b   d5b8     bclr    0x1b8, 0x2       	BCLR	_IOP2bits,2
                                           ;	.line	187; "user.h"	delay_ms(7); //
00024c   3c07     movai   0x7              	MOVAI	0x07
00024d   5606     movra   0x6              	MOVRA	STK00
00024e   3c00     movai   0                	MOVAI	0x00
00024f   8290     call    0x290            	CALL	_delay_ms
                                           ;	.line	189; "user.h"	for (u8 i = 0; i < 32; i++)
000250   7611     clrr    0x11             	CLRR	r0x1022
                                           ;;unsigned compare: left < lit(0x20=32), size=1
                                           _00121_DS_
000251   3c20     movai   0x20             	MOVAI	0x20
000252   4811     rsubar  0x11             	RSUBAR	r0x1022
000253   f187     jbclr   0x187, 0         	JBCLR	PFLAG,0
000254   a284     goto    0x284            	GOTO	_00119_DS_
                                           ;;genSkipc:3291: created from rifx:013B5EFC
                                           ;	.line	191; "user.h"	if ((send_data >> (32 - 1 - i)) & 0x01)
000255   5811     movar   0x11             	MOVAR	r0x1022
000256   3a1f     isubai  0x1f             	ISUBAI	0x1f
000257   5612     movra   0x12             	MOVRA	r0x1023
000258   5810     movar   0x10             	MOVAR	r0x101E
000259   5616     movra   0x16             	MOVRA	r0x1024
00025a   580f     movar   0xf              	MOVAR	r0x101F
00025b   5615     movra   0x15             	MOVRA	r0x1025
00025c   580e     movar   0xe              	MOVAR	r0x1020
00025d   5614     movra   0x14             	MOVRA	r0x1026
00025e   580d     movar   0xd              	MOVAR	r0x1021
00025f   5613     movra   0x13             	MOVRA	r0x1027
000260   5812     movar   0x12             	MOVAR	r0x1023
000261   3a00     isubai  0                	ISUBAI	0x00
000262   f587     jbclr   0x187, 0x2       	JBCLR	PFLAG,2
000263   a26b     goto    0x26b            	GOTO	_00140_DS_
                                           _00139_DS_
000264   4e16     rrr     0x16             	RRR	r0x1024
000265   4e15     rrr     0x15             	RRR	r0x1025
000266   4e14     rrr     0x14             	RRR	r0x1026
000267   4e13     rrr     0x13             	RRR	r0x1027
000268   3f01     addai   0x1              	ADDAI	0x01
000269   e187     jbset   0x187, 0         	JBSET	PFLAG,0
00026a   a264     goto    0x264            	GOTO	_00139_DS_
                                           _00140_DS_
00026b   e013     jbset   0x13, 0          	JBSET	r0x1027,0
00026c   a278     goto    0x278            	GOTO	_00117_DS_
                                           ;	.line	195; "user.h"	DEBUG_PIN = 1;
00026d   c5b8     bset    0x1b8, 0x2       	BSET	_IOP2bits,2
                                           ;	.line	196; "user.h"	delay_ms(5); //
00026e   3c05     movai   0x5              	MOVAI	0x05
00026f   5606     movra   0x6              	MOVRA	STK00
000270   3c00     movai   0                	MOVAI	0x00
000271   8290     call    0x290            	CALL	_delay_ms
                                           ;	.line	198; "user.h"	DEBUG_PIN = 0;
000272   d5b8     bclr    0x1b8, 0x2       	BCLR	_IOP2bits,2
                                           ;	.line	199; "user.h"	delay_ms(10); //
000273   3c0a     movai   0xa              	MOVAI	0x0a
000274   5606     movra   0x6              	MOVRA	STK00
000275   3c00     movai   0                	MOVAI	0x00
000276   8290     call    0x290            	CALL	_delay_ms
000277   a282     goto    0x282            	GOTO	_00122_DS_
                                           _00117_DS_
                                           ;	.line	205; "user.h"	DEBUG_PIN = 1;
000278   c5b8     bset    0x1b8, 0x2       	BSET	_IOP2bits,2
                                           ;	.line	206; "user.h"	delay_ms(5); //
000279   3c05     movai   0x5              	MOVAI	0x05
00027a   5606     movra   0x6              	MOVRA	STK00
00027b   3c00     movai   0                	MOVAI	0x00
00027c   8290     call    0x290            	CALL	_delay_ms
                                           ;	.line	208; "user.h"	DEBUG_PIN = 0;
00027d   d5b8     bclr    0x1b8, 0x2       	BCLR	_IOP2bits,2
                                           ;	.line	209; "user.h"	delay_ms(5); //
00027e   3c05     movai   0x5              	MOVAI	0x05
00027f   5606     movra   0x6              	MOVRA	STK00
000280   3c00     movai   0                	MOVAI	0x00
000281   8290     call    0x290            	CALL	_delay_ms
                                           _00122_DS_
                                           ;	.line	189; "user.h"	for (u8 i = 0; i < 32; i++)
000282   6611     incr    0x11             	INCR	r0x1022
000283   a251     goto    0x251            	GOTO	_00121_DS_
                                           _00119_DS_
                                           ;	.line	215; "user.h"	DEBUG_PIN = 0;
000284   d5b8     bclr    0x1b8, 0x2       	BCLR	_IOP2bits,2
                                           ;	.line	216; "user.h"	delay_ms(1);
000285   3c01     movai   0x1              	MOVAI	0x01
000286   5606     movra   0x6              	MOVRA	STK00
000287   3c00     movai   0                	MOVAI	0x00
000288   8290     call    0x290            	CALL	_delay_ms
                                           ;	.line	217; "user.h"	DEBUG_PIN = 1;
000289   c5b8     bset    0x1b8, 0x2       	BSET	_IOP2bits,2
                                           ;	.line	218; "user.h"	delay_ms(1);
00028a   3c01     movai   0x1              	MOVAI	0x01
00028b   5606     movra   0x6              	MOVRA	STK00
00028c   3c00     movai   0                	MOVAI	0x00
00028d   8290     call    0x290            	CALL	_delay_ms
                                           ;	.line	219; "user.h"	DEBUG_PIN = 0;
00028e   d5b8     bclr    0x1b8, 0x2       	BCLR	_IOP2bits,2
                                           ;	.line	220; "user.h"	}
00028f   000c     return                   	RETURN	
                                           ; exit point of _send_data_msb
                                           
                                           ;***
                                           ;  pBlock Stats: dbName = C
                                           ;***
                                           ;entry:  _delay_ms	;Function start
                                           ; 2 exit points
                                           ;has an exit
                                           ;7 compiler assigned registers:
                                           ;   r0x1008
                                           ;   STK00
                                           ;   r0x1009
                                           ;   r0x100A
                                           ;   r0x100B
                                           ;   r0x100C
                                           ;   r0x100D
                                           ;; Starting pCode block
                                           _delay_ms	;Function start
                                           ; 2 exit points
                                           ;	.line	157; "user.h"	void delay_ms(u16 xms)
000290   5608     movra   0x8              	MOVRA	r0x1008
000291   5806     movar   0x6              	MOVAR	STK00
000292   5607     movra   0x7              	MOVRA	r0x1009
                                           _00108_DS_
                                           ;	.line	159; "user.h"	while (xms)
000293   5807     movar   0x7              	MOVAR	r0x1009
000294   5c08     orar    0x8              	ORAR	r0x1008
000295   f587     jbclr   0x187, 0x2       	JBCLR	PFLAG,2
000296   a2af     goto    0x2af            	GOTO	_00111_DS_
                                           ;	.line	162; "user.h"	while (i--)
000297   3c05     movai   0x5              	MOVAI	0x05
000298   5609     movra   0x9              	MOVRA	r0x100A
000299   3c02     movai   0x2              	MOVAI	0x02
00029a   560a     movra   0xa              	MOVRA	r0x100B
                                           _00105_DS_
00029b   5809     movar   0x9              	MOVAR	r0x100A
00029c   560b     movra   0xb              	MOVRA	r0x100C
00029d   580a     movar   0xa              	MOVAR	r0x100B
00029e   560c     movra   0xc              	MOVRA	r0x100D
00029f   3cff     movai   0xff             	MOVAI	0xff
0002a0   7e09     addra   0x9              	ADDRA	r0x100A
0002a1   e187     jbset   0x187, 0         	JBSET	PFLAG,0
0002a2   6e0a     decr    0xa              	DECR	r0x100B
0002a3   580b     movar   0xb              	MOVAR	r0x100C
0002a4   5c0c     orar    0xc              	ORAR	r0x100D
0002a5   f587     jbclr   0x187, 0x2       	JBCLR	PFLAG,2
0002a6   a2a9     goto    0x2a9            	GOTO	_00107_DS_
                                           ;	.line	164; "user.h"	Nop();
0002a7   0000     nop                      	nop	
0002a8   a29b     goto    0x29b            	GOTO	_00105_DS_
                                           _00107_DS_
                                           ;	.line	166; "user.h"	xms--; //  --while()
0002a9   3cff     movai   0xff             	MOVAI	0xff
0002aa   7e07     addra   0x7              	ADDRA	r0x1009
0002ab   e187     jbset   0x187, 0         	JBSET	PFLAG,0
0002ac   6e08     decr    0x8              	DECR	r0x1008
                                           ;	.line	170; "user.h"	__endasm;
                                           	;
0002ad   000e     clrwdt                   	clrwdt;
                                           	
0002ae   a293     goto    0x293            	GOTO	_00108_DS_
                                           _00111_DS_
                                           ;	.line	172; "user.h"	}
0002af   000c     return                   	RETURN	
                                           ; exit point of _delay_ms
                                           
                                           
                                           ;	code size estimation:
                                           ;	  669+    0 =   669 instructions ( 1338 byte)
                                           
                                           	end
                                           ;--------------------------------------------------------
                                           ; File Created by SN-SDCC : SinoMCU ANSI-C Compiler
                                           ; Version 2.0.0 (Dec 11 2019) (MINGW32)
                                           ; This file was generated Fri Mar 14 17:11:32 2025
                                           ;--------------------------------------------------------
                                           ; MC32 port for the RISC core
                                           ;--------------------------------------------------------
                                           ;	.file	"MC32F7361.c"
                                           	list	p=7361
                                           	radix dec
                                           	include "7361.inc"
                                           ;--------------------------------------------------------
                                           ; external declarations
                                           ;--------------------------------------------------------
                                           	extern	_TIMER0_INT_Init
                                           	extern	_TIMER1_INT_Init
                                           	extern	_TIMER3_INT_Init
                                           	extern	_INDF0bits
                                           	extern	_INDF1bits
                                           	extern	_INDF2bits
                                           	extern	_HIBYTEbits
                                           	extern	_FSR0bits
                                           	extern	_FSR1bits
                                           	extern	_PCLbits
                                           	extern	_PFLAGbits
                                           	extern	_MCRbits
                                           	extern	_INDF3bits
                                           	extern	_INTEbits
                                           	extern	_INTFbits
                                           	extern	_DRVCRbits
                                           	extern	_P0KBCRbits
                                           	extern	_P1KBCRbits
                                           	extern	_P2KBCRbits
                                           	extern	_IOP0bits
                                           	extern	_OEP0bits
                                           	extern	_PUP0bits
                                           	extern	_PDP0bits
                                           	extern	_IOP1bits
                                           	extern	_OEP1bits
                                           	extern	_PUP1bits
                                           	extern	_PDP1bits
                                           	extern	_T0CRbits
                                           	extern	_T0CNTbits
                                           	extern	_T0LOADbits
                                           	extern	_T0DATAbits
                                           	extern	_T1CRbits
                                           	extern	_T1CNTbits
                                           	extern	_T1LOADbits
                                           	extern	_T1DATAbits
                                           	extern	_T2CRbits
                                           	extern	_T2CNTbits
                                           	extern	_T2LOADbits
                                           	extern	_T2DATAbits
                                           	extern	_T3CRbits
                                           	extern	_T3CNTbits
                                           	extern	_T3LOADbits
                                           	extern	_PWM0DRbits
                                           	extern	_PWM1DRbits
                                           	extern	_PWM2DRbits
                                           	extern	_PWMCR0bits
                                           	extern	_PWMCR1bits
                                           	extern	_OSCMRbits
                                           	extern	_LVDCRbits
                                           	extern	_ADCR0bits
                                           	extern	_ADCR1bits
                                           	extern	_ADCR2bits
                                           	extern	_OSADJCRbits
                                           	extern	_ADRHbits
                                           	extern	_ADRLbits
                                           	extern	_P0ADCRbits
                                           	extern	_P1ADCRbits
                                           	extern	_IOP2bits
                                           	extern	_OEP2bits
                                           	extern	_PUP2bits
                                           	extern	_PDP2bits
                                           	extern	_PMODbits
                                           	extern	_PWMCR3bits
                                           	extern	_PWMCR2bits
                                           	extern	_PFRCCRbits
                                           	extern	_PFRCCALbits
                                           	extern	_EECRbits
                                           	extern	_EEPRbits
                                           	extern	_EEARbits
                                           	extern	_EEDRHbits
                                           	extern	_EEDRLbits
                                           	extern	_DBGCRbits
                                           	extern	_DBGPRbits
                                           	extern	_HIRCCALbits
                                           	extern	_INDF0
                                           	extern	_INDF1
                                           	extern	_INDF2
                                           	extern	_HIBYTE
                                           	extern	_FSR0
                                           	extern	_FSR1
                                           	extern	_PCL
                                           	extern	_PFLAG
                                           	extern	_MCR
                                           	extern	_INDF3
                                           	extern	_INTE
                                           	extern	_INTF
                                           	extern	_DRVCR
                                           	extern	_P0KBCR
                                           	extern	_P1KBCR
                                           	extern	_P2KBCR
                                           	extern	_IOP0
                                           	extern	_OEP0
                                           	extern	_PUP0
                                           	extern	_PDP0
                                           	extern	_IOP1
                                           	extern	_OEP1
                                           	extern	_PUP1
                                           	extern	_PDP1
                                           	extern	_T0CR
                                           	extern	_T0CNT
                                           	extern	_T0LOAD
                                           	extern	_T0DATA
                                           	extern	_T1CR
                                           	extern	_T1CNT
                                           	extern	_T1LOAD
                                           	extern	_T1DATA
                                           	extern	_T2CR
                                           	extern	_T2CNT
                                           	extern	_T2LOAD
                                           	extern	_T2DATA
                                           	extern	_T3CR
                                           	extern	_T3CNT
                                           	extern	_T3LOAD
                                           	extern	_PWM0DR
                                           	extern	_PWM1DR
                                           	extern	_PWM2DR
                                           	extern	_PWMCR0
                                           	extern	_PWMCR1
                                           	extern	_OSCMR
                                           	extern	_LVDCR
                                           	extern	_ADCR0
                                           	extern	_ADCR1
                                           	extern	_ADCR2
                                           	extern	_OSADJCR
                                           	extern	_ADRH
                                           	extern	_ADRL
                                           	extern	_P0ADCR
                                           	extern	_P1ADCR
                                           	extern	_IOP2
                                           	extern	_OEP2
                                           	extern	_PUP2
                                           	extern	_PDP2
                                           	extern	_PMOD
                                           	extern	_PWMCR3
                                           	extern	_PWMCR2
                                           	extern	_PFRCCR
                                           	extern	_PFRCCAL
                                           	extern	_EECR
                                           	extern	_EEPR
                                           	extern	_EEAR
                                           	extern	_EEDRH
                                           	extern	_EEDRL
                                           	extern	_DBGCR
                                           	extern	_DBGPR
                                           	extern	_HIRCCAL
                                           	extern	__mulchar
                                           	extern	__gptrget1
                                           ;--------------------------------------------------------
                                           ; global declarations
                                           ;--------------------------------------------------------
                                           	global	_Sys_Init
                                           	global	_TIMER2_INT_Init
                                           	global	_IO_Init
                                           	global	_CLR_RAM
                                           	global	_delay_ms
                                           	global	_send_data_msb
                                           	global	_delay_100us
                                           	global	_delay_200us
                                           	global	_delay_1_4ms
                                           	global	_send_cmd_16bit
                                           	global	_main
                                           	global	_int_isr
                                           	global	_cur_led_status
                                           	global	_abuf
                                           	global	_statusbuf
                                           	global	_flag1
                                           	global	_ir_data
                                           	global	_table
                                           
                                           	global STK06
                                           	global STK05
                                           	global STK04
                                           	global STK03
                                           	global STK02
                                           	global STK01
                                           	global STK00
                                           
                                           sharebank udata_ovr 0x0000
                                           STK06	res 1
                                           STK05	res 1
                                           STK04	res 1
                                           STK03	res 1
                                           STK02	res 1
                                           STK01	res 1
                                           STK00	res 1
                                           
                                           ;--------------------------------------------------------
                                           ; global definitions
                                           ;--------------------------------------------------------
                                           UD_MC32F7361_0	udata
                                           _cur_led_status	res	1
                                           
                                           UD_MC32F7361_1	udata
                                           _abuf	res	1
                                           
                                           UD_MC32F7361_2	udata
                                           _statusbuf	res	1
                                           
                                           UD_MC32F7361_3	udata
                                           _flag1	res	1
                                           
                                           UD_MC32F7361_4	udata
                                           _ir_data	res	1
                                           
                                           ;--------------------------------------------------------
                                           ; absolute symbol definitions
                                           ;--------------------------------------------------------
                                           ;--------------------------------------------------------
                                           ; compiler-defined variables
                                           ;--------------------------------------------------------
                                           UDL_MC32F7361_0	udata
                                           r0x1009	res	1
                                           r0x1008	res	1
                                           r0x100A	res	1
                                           r0x100B	res	1
                                           r0x100C	res	1
                                           r0x100D	res	1
                                           r0x1021	res	1
                                           r0x1020	res	1
                                           r0x101F	res	1
                                           r0x101E	res	1
                                           r0x1022	res	1
                                           r0x1023	res	1
                                           r0x1027	res	1
                                           r0x1026	res	1
                                           r0x1025	res	1
                                           r0x1024	res	1
                                           r0x101C	res	1
                                           r0x101D	res	1
                                           r0x100F	res	1
                                           r0x100E	res	1
                                           r0x1010	res	1
                                           r0x1011	res	1
                                           r0x1013	res	1
                                           r0x1012	res	1
                                           r0x1014	res	1
                                           r0x1015	res	1
                                           r0x1016	res	1
                                           r0x1017	res	1
                                           r0x1018	res	1
                                           r0x1019	res	1
                                           r0x101A	res	1
                                           r0x101B	res	1
                                           r0x1028	res	1
                                           r0x1029	res	1
                                           _int_isr_ir_level_cnt_131073_63	res	2
                                           _int_isr_ir_fliter_131073_63	res	1
                                           _int_isr___ir_data_131073_63	res	1
                                           _int_isr_ir_long_press_cnt_131073_63	res	2
                                           ;--------------------------------------------------------
                                           ; initialized data
                                           ;--------------------------------------------------------
                                           
                                           ID_MC32F7361_0	code
                                           _table
                                           	dw 0x90
                                           	dw 0x00
                                           	dw 0x11
                                           	dw 0xff
                                           	dw 0xff
                                           	dw 0xb8
                                           	dw 0x00
                                           	dw 0x22
                                           	dw 0xff
                                           	dw 0xff
                                           	dw 0xf8
                                           	dw 0x00
                                           	dw 0x44
                                           	dw 0xff
                                           	dw 0xff
                                           	dw 0xb0
                                           	dw 0x96
                                           	dw 0x45
                                           	dw 0x10
                                           	dw 0x77
                                           	dw 0x98
                                           	dw 0x9f
                                           	dw 0x00
                                           	dw 0x10
                                           	dw 0x33
                                           	dw 0xd8
                                           	dw 0x90
                                           	dw 0xf1
                                           	dw 0x10
                                           	dw 0x66
                                           	dw 0x88
                                           	dw 0x93
                                           	dw 0x0f
                                           	dw 0x10
                                           	dw 0x55
                                           	dw 0xe8
                                           	dw 0x9f
                                           	dw 0x10
                                           	dw 0x10
                                           	dw 0x33
                                           	dw 0x48
                                           	dw 0x90
                                           	dw 0xf8
                                           	dw 0x10
                                           	dw 0x66
                                           	dw 0x68
                                           	dw 0x98
                                           	dw 0x0f
                                           	dw 0x10
                                           	dw 0x55
                                           	dw 0x02
                                           	dw 0x9f
                                           	dw 0x30
                                           	dw 0x10
                                           	dw 0x33
                                           	dw 0x32
                                           	dw 0x90
                                           	dw 0xfc
                                           	dw 0x10
                                           	dw 0x66
                                           	dw 0x20
                                           	dw 0x9f
                                           	dw 0x0f
                                           	dw 0x10
                                           	dw 0x55
                                           
                                           
                                           ;@Allocation info for local variables in function 'delay_ms'
                                           ;@delay_ms Sys_Init                  Allocated to registers ;size:2
                                           ;@delay_ms CLR_RAM                   Allocated to registers ;size:2
                                           ;@delay_ms IO_Init                   Allocated to registers ;size:2
                                           ;@delay_ms TIMER0_INT_Init           Allocated to registers ;size:2
                                           ;@delay_ms TIMER1_INT_Init           Allocated to registers ;size:2
                                           ;@delay_ms TIMER2_INT_Init           Allocated to registers ;size:2
                                           ;@delay_ms TIMER3_INT_Init           Allocated to registers ;size:2
                                           ;@delay_ms delay_ms                  Allocated to registers ;size:2
                                           ;@delay_ms INDF0bits                 Allocated to registers ;size:1
                                           ;@delay_ms INDF1bits                 Allocated to registers ;size:1
                                           ;@delay_ms INDF2bits                 Allocated to registers ;size:1
                                           ;@delay_ms HIBYTEbits                Allocated to registers ;size:1
                                           ;@delay_ms FSR0bits                  Allocated to registers ;size:1
                                           ;@delay_ms FSR1bits                  Allocated to registers ;size:1
                                           ;@delay_ms PCLbits                   Allocated to registers ;size:1
                                           ;@delay_ms PFLAGbits                 Allocated to registers ;size:1
                                           ;@delay_ms MCRbits                   Allocated to registers ;size:1
                                           ;@delay_ms INDF3bits                 Allocated to registers ;size:1
                                           ;@delay_ms INTEbits                  Allocated to registers ;size:1
                                           ;@delay_ms INTFbits                  Allocated to registers ;size:1
                                           ;@delay_ms DRVCRbits                 Allocated to registers ;size:1
                                           ;@delay_ms P0KBCRbits                Allocated to registers ;size:1
                                           ;@delay_ms P1KBCRbits                Allocated to registers ;size:1
                                           ;@delay_ms P2KBCRbits                Allocated to registers ;size:1
                                           ;@delay_ms IOP0bits                  Allocated to registers ;size:1
                                           ;@delay_ms OEP0bits                  Allocated to registers ;size:1
                                           ;@delay_ms PUP0bits                  Allocated to registers ;size:1
                                           ;@delay_ms PDP0bits                  Allocated to registers ;size:1
                                           ;@delay_ms IOP1bits                  Allocated to registers ;size:1
                                           ;@delay_ms OEP1bits                  Allocated to registers ;size:1
                                           ;@delay_ms PUP1bits                  Allocated to registers ;size:1
                                           ;@delay_ms PDP1bits                  Allocated to registers ;size:1
                                           ;@delay_ms T0CRbits                  Allocated to registers ;size:1
                                           ;@delay_ms T0CNTbits                 Allocated to registers ;size:1
                                           ;@delay_ms T0LOADbits                Allocated to registers ;size:1
                                           ;@delay_ms T0DATAbits                Allocated to registers ;size:1
                                           ;@delay_ms T1CRbits                  Allocated to registers ;size:1
                                           ;@delay_ms T1CNTbits                 Allocated to registers ;size:1
                                           ;@delay_ms T1LOADbits                Allocated to registers ;size:1
                                           ;@delay_ms T1DATAbits                Allocated to registers ;size:1
                                           ;@delay_ms T2CRbits                  Allocated to registers ;size:1
                                           ;@delay_ms T2CNTbits                 Allocated to registers ;size:1
                                           ;@delay_ms T2LOADbits                Allocated to registers ;size:1
                                           ;@delay_ms T2DATAbits                Allocated to registers ;size:1
                                           ;@delay_ms T3CRbits                  Allocated to registers ;size:1
                                           ;@delay_ms T3CNTbits                 Allocated to registers ;size:1
                                           ;@delay_ms T3LOADbits                Allocated to registers ;size:1
                                           ;@delay_ms PWM0DRbits                Allocated to registers ;size:1
                                           ;@delay_ms PWM1DRbits                Allocated to registers ;size:1
                                           ;@delay_ms PWM2DRbits                Allocated to registers ;size:1
                                           ;@delay_ms PWMCR0bits                Allocated to registers ;size:1
                                           ;@delay_ms PWMCR1bits                Allocated to registers ;size:1
                                           ;@delay_ms OSCMRbits                 Allocated to registers ;size:1
                                           ;@delay_ms LVDCRbits                 Allocated to registers ;size:1
                                           ;@delay_ms ADCR0bits                 Allocated to registers ;size:1
                                           ;@delay_ms ADCR1bits                 Allocated to registers ;size:1
                                           ;@delay_ms ADCR2bits                 Allocated to registers ;size:1
                                           ;@delay_ms OSADJCRbits               Allocated to registers ;size:1
                                           ;@delay_ms ADRHbits                  Allocated to registers ;size:1
                                           ;@delay_ms ADRLbits                  Allocated to registers ;size:1
                                           ;@delay_ms P0ADCRbits                Allocated to registers ;size:1
                                           ;@delay_ms P1ADCRbits                Allocated to registers ;size:1
                                           ;@delay_ms IOP2bits                  Allocated to registers ;size:1
                                           ;@delay_ms OEP2bits                  Allocated to registers ;size:1
                                           ;@delay_ms PUP2bits                  Allocated to registers ;size:1
                                           ;@delay_ms PDP2bits                  Allocated to registers ;size:1
                                           ;@delay_ms PMODbits                  Allocated to registers ;size:1
                                           ;@delay_ms PWMCR3bits                Allocated to registers ;size:1
                                           ;@delay_ms PWMCR2bits                Allocated to registers ;size:1
                                           ;@delay_ms PFRCCRbits                Allocated to registers ;size:1
                                           ;@delay_ms PFRCCALbits               Allocated to registers ;size:1
                                           ;@delay_ms EECRbits                  Allocated to registers ;size:1
                                           ;@delay_ms EEPRbits                  Allocated to registers ;size:1
                                           ;@delay_ms EEARbits                  Allocated to registers ;size:1
                                           ;@delay_ms EEDRHbits                 Allocated to registers ;size:1
                                           ;@delay_ms EEDRLbits                 Allocated to registers ;size:1
                                           ;@delay_ms DBGCRbits                 Allocated to registers ;size:1
                                           ;@delay_ms DBGPRbits                 Allocated to registers ;size:1
                                           ;@delay_ms HIRCCALbits               Allocated to registers ;size:1
                                           ;@delay_ms cur_led_status            Allocated to registers ;size:1
                                           ;@delay_ms abuf                      Allocated to registers ;size:1
                                           ;@delay_ms statusbuf                 Allocated to registers ;size:1
                                           ;@delay_ms flag1                     Allocated to registers ;size:1
                                           ;@delay_ms ir_data                   Allocated to registers ;size:1
                                           ;@delay_ms xms                       Allocated to registers ;size:2
                                           ;@delay_ms i                         Allocated to registers r0x100A r0x100B ;size:2
                                           ;@delay_ms INDF0                     Allocated to registers ;size:1
                                           ;@delay_ms INDF1                     Allocated to registers ;size:1
                                           ;@delay_ms INDF2                     Allocated to registers ;size:1
                                           ;@delay_ms HIBYTE                    Allocated to registers ;size:1
                                           ;@delay_ms FSR0                      Allocated to registers ;size:1
                                           ;@delay_ms FSR1                      Allocated to registers ;size:1
                                           ;@delay_ms PCL                       Allocated to registers ;size:1
                                           ;@delay_ms PFLAG                     Allocated to registers ;size:1
                                           ;@delay_ms MCR                       Allocated to registers ;size:1
                                           ;@delay_ms INDF3                     Allocated to registers ;size:1
                                           ;@delay_ms INTE                      Allocated to registers ;size:1
                                           ;@delay_ms INTF                      Allocated to registers ;size:1
                                           ;@delay_ms DRVCR                     Allocated to registers ;size:1
                                           ;@delay_ms P0KBCR                    Allocated to registers ;size:1
                                           ;@delay_ms P1KBCR                    Allocated to registers ;size:1
                                           ;@delay_ms P2KBCR                    Allocated to registers ;size:1
                                           ;@delay_ms IOP0                      Allocated to registers ;size:1
                                           ;@delay_ms OEP0                      Allocated to registers ;size:1
                                           ;@delay_ms PUP0                      Allocated to registers ;size:1
                                           ;@delay_ms PDP0                      Allocated to registers ;size:1
                                           ;@delay_ms IOP1                      Allocated to registers ;size:1
                                           ;@delay_ms OEP1                      Allocated to registers ;size:1
                                           ;@delay_ms PUP1                      Allocated to registers ;size:1
                                           ;@delay_ms PDP1                      Allocated to registers ;size:1
                                           ;@delay_ms T0CR                      Allocated to registers ;size:1
                                           ;@delay_ms T0CNT                     Allocated to registers ;size:1
                                           ;@delay_ms T0LOAD                    Allocated to registers ;size:1
                                           ;@delay_ms T0DATA                    Allocated to registers ;size:1
                                           ;@delay_ms T1CR                      Allocated to registers ;size:1
                                           ;@delay_ms T1CNT                     Allocated to registers ;size:1
                                           ;@delay_ms T1LOAD                    Allocated to registers ;size:1
                                           ;@delay_ms T1DATA                    Allocated to registers ;size:1
                                           ;@delay_ms T2CR                      Allocated to registers ;size:1
                                           ;@delay_ms T2CNT                     Allocated to registers ;size:1
                                           ;@delay_ms T2LOAD                    Allocated to registers ;size:1
                                           ;@delay_ms T2DATA                    Allocated to registers ;size:1
                                           ;@delay_ms T3CR                      Allocated to registers ;size:1
                                           ;@delay_ms T3CNT                     Allocated to registers ;size:1
                                           ;@delay_ms T3LOAD                    Allocated to registers ;size:1
                                           ;@delay_ms PWM0DR                    Allocated to registers ;size:1
                                           ;@delay_ms PWM1DR                    Allocated to registers ;size:1
                                           ;@delay_ms PWM2DR                    Allocated to registers ;size:1
                                           ;@delay_ms PWMCR0                    Allocated to registers ;size:1
                                           ;@delay_ms PWMCR1                    Allocated to registers ;size:1
                                           ;@delay_ms OSCMR                     Allocated to registers ;size:1
                                           ;@delay_ms LVDCR                     Allocated to registers ;size:1
                                           ;@delay_ms ADCR0                     Allocated to registers ;size:1
                                           ;@delay_ms ADCR1                     Allocated to registers ;size:1
                                           ;@delay_ms ADCR2                     Allocated to registers ;size:1
                                           ;@delay_ms OSADJCR                   Allocated to registers ;size:1
                                           ;@delay_ms ADRH                      Allocated to registers ;size:1
                                           ;@delay_ms ADRL                      Allocated to registers ;size:1
                                           ;@delay_ms P0ADCR                    Allocated to registers ;size:1
                                           ;@delay_ms P1ADCR                    Allocated to registers ;size:1
                                           ;@delay_ms IOP2                      Allocated to registers ;size:1
                                           ;@delay_ms OEP2                      Allocated to registers ;size:1
                                           ;@delay_ms PUP2                      Allocated to registers ;size:1
                                           ;@delay_ms PDP2                      Allocated to registers ;size:1
                                           ;@delay_ms PMOD                      Allocated to registers ;size:1
                                           ;@delay_ms PWMCR3                    Allocated to registers ;size:1
                                           ;@delay_ms PWMCR2                    Allocated to registers ;size:1
                                           ;@delay_ms PFRCCR                    Allocated to registers ;size:1
                                           ;@delay_ms PFRCCAL                   Allocated to registers ;size:1
                                           ;@delay_ms EECR                      Allocated to registers ;size:1
                                           ;@delay_ms EEPR                      Allocated to registers ;size:1
                                           ;@delay_ms EEAR                      Allocated to registers ;size:1
                                           ;@delay_ms EEDRH                     Allocated to registers ;size:1
                                           ;@delay_ms EEDRL                     Allocated to registers ;size:1
                                           ;@delay_ms DBGCR                     Allocated to registers ;size:1
                                           ;@delay_ms DBGPR                     Allocated to registers ;size:1
                                           ;@delay_ms HIRCCAL                   Allocated to registers ;size:1
                                           ;@end Allocation info for local variables in function 'delay_ms';
                                           ;@Allocation info for local variables in function 'send_data_msb'
                                           ;@send_data_msb send_data                 Allocated to registers r0x1021 r0x1020 r0x101F r0x101E ;size:4
                                           ;@send_data_msb i                         Allocated to registers r0x1022 ;size:1
                                           ;@end Allocation info for local variables in function 'send_data_msb';
                                           ;@Allocation info for local variables in function 'delay_100us'
                                           ;@delay_100us i                         Allocated to registers r0x1008 ;size:1
                                           ;@end Allocation info for local variables in function 'delay_100us';
                                           ;@Allocation info for local variables in function 'delay_200us'
                                           ;@delay_200us i                         Allocated to registers r0x101C ;size:1
                                           ;@end Allocation info for local variables in function 'delay_200us';
                                           ;@Allocation info for local variables in function 'delay_1_4ms'
                                           ;@delay_1_4ms i                         Allocated to registers r0x100A ;size:1
                                           ;@end Allocation info for local variables in function 'delay_1_4ms';
                                           ;@Allocation info for local variables in function 'send_cmd_16bit'
                                           ;@send_cmd_16bit data                      Allocated to registers r0x100F r0x100E ;size:2
                                           ;@send_cmd_16bit i                         Allocated to registers r0x1010 ;size:1
                                           ;@end Allocation info for local variables in function 'send_cmd_16bit';
                                           ;@Allocation info for local variables in function 'CLR_RAM'
                                           ;@end Allocation info for local variables in function 'CLR_RAM';
                                           ;@Allocation info for local variables in function 'IO_Init'
                                           ;@end Allocation info for local variables in function 'IO_Init';
                                           ;@Allocation info for local variables in function 'TIMER2_INT_Init'
                                           ;@end Allocation info for local variables in function 'TIMER2_INT_Init';
                                           ;@Allocation info for local variables in function 'Sys_Init'
                                           ;@end Allocation info for local variables in function 'Sys_Init';
                                           ;@Allocation info for local variables in function 'main'
                                           ;@main i                         Allocated to registers r0x1014 ;size:1
                                           ;@main tmp                       Allocated to registers r0x1017 r0x1018 ;size:2
                                           ;@end Allocation info for local variables in function 'main';
                                           ;@Allocation info for local variables in function 'int_isr'
                                           ;@int_isr ir_fliter                 Allocated to registers ;size:1
                                           ;@int_isr ir_level_cnt              Allocated to registers ;size:2
                                           ;@int_isr __ir_data                 Allocated to registers ;size:1
                                           ;@int_isr ir_long_press_cnt         Allocated to registers ;size:2
                                           ;@end Allocation info for local variables in function 'int_isr';
                                           
                                           ;--------------------------------------------------------
                                           ; overlayable items in internal ram 
                                           ;--------------------------------------------------------
                                           ;	udata_ovr
                                           ;--------------------------------------------------------
                                           ; reset vector 
                                           ;--------------------------------------------------------
                                           STARTUP	code 0x0000
                                           	goto	_main
                                           ;--------------------------------------------------------
                                           ; interrupt and initialization code
                                           ;--------------------------------------------------------
                                           c_interrupt	code	0x8
                                           __sdcc_interrupt
                                           ;***
                                           ;  pBlock Stats: dbName = I
                                           ;***
                                           ;entry:  _int_isr	;Function start
                                           ; 0 exit points
                                           ;2 compiler assigned registers:
                                           ;   r0x1028
                                           ;   r0x1029
                                           ;; Starting pCode block
                                           _int_isr	;Function start
                                           ; 0 exit points
                                           ;	.line	290; "MC32F7361.c"	__endasm;
                                           	;
                                           	movra	_abuf;
                                           	swapar	_PFLAG;
                                           	movra	_statusbuf;
                                           	
                                           ;	.line	292; "MC32F7361.c"	if (T0IF & T0IE)
                                           	CLRR	r0x1028
                                           	JBCLR	_INTFbits,0
                                           	INCR	r0x1028
                                           	CLRR	r0x1029
                                           	JBCLR	_INTEbits,0
                                           	INCR	r0x1029
                                           	MOVAR	r0x1029
                                           	ANDRA	r0x1028
                                           	MOVAI	0x00
                                           	ORAR	r0x1028
                                           	JBCLR	PFLAG,2
                                           	GOTO	_00308_DS_
                                           ;	.line	294; "MC32F7361.c"	P10D = !P10D;
                                           	CLRR	r0x1028
                                           	JBCLR	_IOP1bits,0
                                           	INCR	r0x1028
                                           	MOVAR	r0x1028
                                           	MOVAI	0x00
                                           	JBCLR	PFLAG,2
                                           	MOVAI	0x01
                                           	MOVRA	r0x1028
                                           	MOVRA	r0x1029
                                           ;;107	MOVAR	r0x1029
                                           	RRAR	r0x1028
                                           	JBSET	PFLAG,0
                                           	BCLR	_IOP1bits,0
                                           	JBCLR	PFLAG,0
                                           	BSET	_IOP1bits,0
                                           ;	.line	295; "MC32F7361.c"	T0IF = 0;
                                           	BCLR	_INTFbits,0
                                           _00308_DS_
                                           ;	.line	298; "MC32F7361.c"	if (T1IF & T1IE)
                                           	CLRR	r0x1028
                                           	JBCLR	_INTFbits,1
                                           	INCR	r0x1028
                                           	CLRR	r0x1029
                                           	JBCLR	_INTEbits,1
                                           	INCR	r0x1029
                                           	MOVAR	r0x1029
                                           	ANDRA	r0x1028
                                           	MOVAI	0x00
                                           	ORAR	r0x1028
                                           	JBCLR	PFLAG,2
                                           	GOTO	_00310_DS_
                                           ;	.line	300; "MC32F7361.c"	P11D = !P11D;
                                           	CLRR	r0x1028
                                           	JBCLR	_IOP1bits,1
                                           	INCR	r0x1028
                                           	MOVAR	r0x1028
                                           	MOVAI	0x00
                                           	JBCLR	PFLAG,2
                                           	MOVAI	0x01
                                           	MOVRA	r0x1028
                                           	MOVRA	r0x1029
                                           ;;105	MOVAR	r0x1029
                                           	RRAR	r0x1028
                                           	JBSET	PFLAG,0
                                           	BCLR	_IOP1bits,1
                                           	JBCLR	PFLAG,0
                                           	BSET	_IOP1bits,1
                                           ;	.line	301; "MC32F7361.c"	T1IF = 0;
                                           	BCLR	_INTFbits,1
                                           _00310_DS_
                                           ;	.line	304; "MC32F7361.c"	if (T2IF & T2IE)
                                           	CLRR	r0x1028
                                           	JBCLR	_INTFbits,5
                                           	INCR	r0x1028
                                           	CLRR	r0x1029
                                           	JBCLR	_INTEbits,5
                                           	INCR	r0x1029
                                           	MOVAR	r0x1029
                                           	ANDRA	r0x1028
                                           	MOVAI	0x00
                                           	ORAR	r0x1028
                                           	JBCLR	PFLAG,2
                                           	GOTO	_00349_DS_
                                           ;	.line	306; "MC32F7361.c"	T2IF = 0;
                                           	BCLR	_INTFbits,5
                                           ;	.line	314; "MC32F7361.c"	ir_level_cnt++;
                                           	INCR	_int_isr_ir_level_cnt_131073_63
                                           	JBCLR	PFLAG,2
                                           	INCR	(_int_isr_ir_level_cnt_131073_63 + 1)
                                           ;	.line	316; "MC32F7361.c"	ir_fliter <<= 1;
                                           	MOVAR	_int_isr_ir_fliter_131073_63
                                           	MOVRA	r0x1028
                                           	BCLR	PFLAG,0
                                           	RLAR	r0x1028
                                           	MOVRA	_int_isr_ir_fliter_131073_63
                                           ;	.line	317; "MC32F7361.c"	if (IR_RECV_PIN)
                                           	JBSET	_IOP1bits,5
                                           	GOTO	_00312_DS_
                                           ;	.line	319; "MC32F7361.c"	ir_fliter |= 1;
                                           	BSET	_int_isr_ir_fliter_131073_63,0
                                           _00312_DS_
                                           ;	.line	321; "MC32F7361.c"	ir_fliter &= 0x07;
                                           	MOVAI	0x07
                                           	ANDRA	_int_isr_ir_fliter_131073_63
                                           ;	.line	323; "MC32F7361.c"	if (ir_fliter == 0x07)
                                           	MOVAR	_int_isr_ir_fliter_131073_63
                                           	XORAI	0x07
                                           	JBSET	PFLAG,2
                                           	GOTO	_00316_DS_
                                           ;	.line	324; "MC32F7361.c"	filter_level = 1;
                                           	BSET	_flag1,3
                                           	GOTO	_00317_DS_
                                           _00316_DS_
                                           ;	.line	325; "MC32F7361.c"	else if (ir_fliter == 0x00)
                                           	MOVAI	0x00
                                           	ORAR	_int_isr_ir_fliter_131073_63
                                           	JBSET	PFLAG,2
                                           	GOTO	_00317_DS_
                                           ;	.line	326; "MC32F7361.c"	filter_level = 0;
                                           	BCLR	_flag1,3
                                           _00317_DS_
                                           ;	.line	328; "MC32F7361.c"	if (filter_level)
                                           	JBSET	_flag1,3
                                           	GOTO	_00346_DS_
                                           ;	.line	330; "MC32F7361.c"	last_level_in_ir_pin = 1; // 
                                           	BSET	_flag1,2
                                           ;;swapping arguments (AOP_TYPEs 1/3)
                                           ;;unsigned compare: left >= lit(0x4B1=1201), size=2
                                           ;	.line	333; "MC32F7361.c"	if (ir_level_cnt > 1200) // (120000us,120ms)
                                           	MOVAI	0x04
                                           	RSUBAR	(_int_isr_ir_level_cnt_131073_63 + 1)
                                           	JBSET	PFLAG,2
                                           	GOTO	_00430_DS_
                                           	MOVAI	0xb1
                                           	RSUBAR	_int_isr_ir_level_cnt_131073_63
                                           _00430_DS_
                                           	JBSET	PFLAG,0
                                           	GOTO	_00349_DS_
                                           ;;genSkipc:3291: created from rifx:013B5EFC
                                           ;	.line	336; "MC32F7361.c"	if (__ir_data != 0) // (__ir_data)
                                           	MOVAI	0x00
                                           	ORAR	_int_isr___ir_data_131073_63
                                           	JBCLR	PFLAG,2
                                           	GOTO	_00321_DS_
                                           ;	.line	345; "MC32F7361.c"	if (0 == flag_is_recved_data)
                                           	JBCLR	_flag1,0
                                           	GOTO	_00321_DS_
                                           ;	.line	347; "MC32F7361.c"	ir_data = ~__ir_data;
                                           	COMAR	_int_isr___ir_data_131073_63
                                           	MOVRA	_ir_data
                                           ;	.line	348; "MC32F7361.c"	__ir_data = 0;
                                           	CLRR	_int_isr___ir_data_131073_63
                                           ;	.line	349; "MC32F7361.c"	flag_is_recved_data = 1;
                                           	BSET	_flag1,0
                                           _00321_DS_
                                           ;	.line	353; "MC32F7361.c"	flag_is_recv_ir_repeat_code = 0; // 
                                           	BCLR	_flag1,4
                                           	GOTO	_00349_DS_
                                           _00346_DS_
                                           ;	.line	358; "MC32F7361.c"	if (last_level_in_ir_pin)
                                           	JBSET	_flag1,2
                                           	GOTO	_00344_DS_
                                           ;;swapping arguments (AOP_TYPEs 1/3)
                                           ;;unsigned compare: left >= lit(0x9=9), size=2
                                           ;	.line	361; "MC32F7361.c"	if (ir_level_cnt <= 8) // 800us
                                           	MOVAI	0x00
                                           	RSUBAR	(_int_isr_ir_level_cnt_131073_63 + 1)
                                           	JBSET	PFLAG,2
                                           	GOTO	_00431_DS_
                                           	MOVAI	0x09
                                           	RSUBAR	_int_isr_ir_level_cnt_131073_63
                                           _00431_DS_
                                           	JBSET	PFLAG,0
                                           	GOTO	_00342_DS_
                                           ;;genSkipc:3291: created from rifx:013B5EFC
                                           ;;swapping arguments (AOP_TYPEs 1/3)
                                           ;;unsigned compare: left >= lit(0x13=19), size=2
                                           ;	.line	366; "MC32F7361.c"	else if (ir_level_cnt <= 18) // 1800us,0
                                           	MOVAI	0x00
                                           	RSUBAR	(_int_isr_ir_level_cnt_131073_63 + 1)
                                           	JBSET	PFLAG,2
                                           	GOTO	_00432_DS_
                                           	MOVAI	0x13
                                           	RSUBAR	_int_isr_ir_level_cnt_131073_63
                                           _00432_DS_
                                           	JBCLR	PFLAG,0
                                           	GOTO	_00338_DS_
                                           ;;genSkipc:3291: created from rifx:013B5EFC
                                           ;	.line	368; "MC32F7361.c"	__ir_data <<= 1;
                                           	MOVAR	_int_isr___ir_data_131073_63
                                           	MOVRA	r0x1028
                                           	BCLR	PFLAG,0
                                           	RLAR	r0x1028
                                           	MOVRA	_int_isr___ir_data_131073_63
                                           	GOTO	_00342_DS_
                                           ;;swapping arguments (AOP_TYPEs 1/3)
                                           ;;unsigned compare: left >= lit(0x1B=27), size=2
                                           _00338_DS_
                                           ;	.line	373; "MC32F7361.c"	else if (ir_level_cnt <= 26) // 2600us,1
                                           	MOVAI	0x00
                                           	RSUBAR	(_int_isr_ir_level_cnt_131073_63 + 1)
                                           	JBSET	PFLAG,2
                                           	GOTO	_00433_DS_
                                           	MOVAI	0x1b
                                           	RSUBAR	_int_isr_ir_level_cnt_131073_63
                                           _00433_DS_
                                           	JBCLR	PFLAG,0
                                           	GOTO	_00335_DS_
                                           ;;genSkipc:3291: created from rifx:013B5EFC
                                           ;	.line	375; "MC32F7361.c"	__ir_data <<= 1;
                                           	MOVAR	_int_isr___ir_data_131073_63
                                           	MOVRA	r0x1028
                                           	BCLR	PFLAG,0
                                           	RLAR	r0x1028
                                           	MOVRA	_int_isr___ir_data_131073_63
                                           ;	.line	376; "MC32F7361.c"	__ir_data |= 0x01;
                                           	BSET	_int_isr___ir_data_131073_63,0
                                           	GOTO	_00342_DS_
                                           ;;swapping arguments (AOP_TYPEs 1/3)
                                           ;;unsigned compare: left >= lit(0x97=151), size=2
                                           _00335_DS_
                                           ;	.line	380; "MC32F7361.c"	else if (ir_level_cnt <= 150) // 15000us,
                                           	MOVAI	0x00
                                           	RSUBAR	(_int_isr_ir_level_cnt_131073_63 + 1)
                                           	JBSET	PFLAG,2
                                           	GOTO	_00434_DS_
                                           	MOVAI	0x97
                                           	RSUBAR	_int_isr_ir_level_cnt_131073_63
                                           _00434_DS_
                                           	JBSET	PFLAG,0
                                           	GOTO	_00342_DS_
                                           ;;genSkipc:3291: created from rifx:013B5EFC
                                           ;;swapping arguments (AOP_TYPEs 1/3)
                                           ;;unsigned compare: left >= lit(0x1A5=421), size=2
                                           ;	.line	385; "MC32F7361.c"	else if (ir_level_cnt <= 420) // 42ms,
                                           	MOVAI	0x01
                                           	RSUBAR	(_int_isr_ir_level_cnt_131073_63 + 1)
                                           	JBSET	PFLAG,2
                                           	GOTO	_00435_DS_
                                           	MOVAI	0xa5
                                           	RSUBAR	_int_isr_ir_level_cnt_131073_63
                                           _00435_DS_
                                           	JBCLR	PFLAG,0
                                           	GOTO	_00329_DS_
                                           ;;genSkipc:3291: created from rifx:013B5EFC
                                           ;	.line	396; "MC32F7361.c"	if (0 == flag_is_recved_data)
                                           	JBCLR	_flag1,0
                                           	GOTO	_00342_DS_
                                           ;	.line	398; "MC32F7361.c"	ir_data = ~__ir_data;
                                           	COMAR	_int_isr___ir_data_131073_63
                                           	MOVRA	_ir_data
                                           ;	.line	399; "MC32F7361.c"	__ir_data = 0;
                                           	CLRR	_int_isr___ir_data_131073_63
                                           ;	.line	400; "MC32F7361.c"	flag_is_recved_data = 1;
                                           	BSET	_flag1,0
                                           ;	.line	401; "MC32F7361.c"	flag_is_recv_ir_repeat_code = 1; //
                                           	BSET	_flag1,4
                                           ;	.line	402; "MC32F7361.c"	ir_long_press_cnt = 0;
                                           	CLRR	_int_isr_ir_long_press_cnt_131073_63
                                           	CLRR	(_int_isr_ir_long_press_cnt_131073_63 + 1)
                                           	GOTO	_00342_DS_
                                           ;;swapping arguments (AOP_TYPEs 1/3)
                                           ;;unsigned compare: left >= lit(0x4B1=1201), size=2
                                           _00329_DS_
                                           ;	.line	406; "MC32F7361.c"	else if (ir_level_cnt <= 1200) // 120000,120ms,
                                           	MOVAI	0x04
                                           	RSUBAR	(_int_isr_ir_level_cnt_131073_63 + 1)
                                           	JBSET	PFLAG,2
                                           	GOTO	_00436_DS_
                                           	MOVAI	0xb1
                                           	RSUBAR	_int_isr_ir_level_cnt_131073_63
                                           _00436_DS_
                                           	JBCLR	PFLAG,0
                                           	GOTO	_00342_DS_
                                           ;;genSkipc:3291: created from rifx:013B5EFC
                                           ;	.line	408; "MC32F7361.c"	ir_long_press_cnt++;
                                           	INCR	_int_isr_ir_long_press_cnt_131073_63
                                           	JBCLR	PFLAG,2
                                           	INCR	(_int_isr_ir_long_press_cnt_131073_63 + 1)
                                           _00342_DS_
                                           ;	.line	414; "MC32F7361.c"	ir_level_cnt = 0;
                                           	CLRR	_int_isr_ir_level_cnt_131073_63
                                           	CLRR	(_int_isr_ir_level_cnt_131073_63 + 1)
                                           _00344_DS_
                                           ;	.line	417; "MC32F7361.c"	last_level_in_ir_pin = 0; // 
                                           	BCLR	_flag1,2
                                           _00349_DS_
                                           ;	.line	421; "MC32F7361.c"	if (T3IF & T3IE)
                                           	CLRR	r0x1028
                                           	JBCLR	_INTFbits,7
                                           	INCR	r0x1028
                                           	CLRR	r0x1029
                                           	JBCLR	_INTEbits,7
                                           	INCR	r0x1029
                                           	MOVAR	r0x1029
                                           	ANDRA	r0x1028
                                           	MOVAI	0x00
                                           	ORAR	r0x1028
                                           	JBCLR	PFLAG,2
                                           	GOTO	_00351_DS_
                                           ;	.line	423; "MC32F7361.c"	T3IF = 0;
                                           	BCLR	_INTFbits,7
                                           _00351_DS_
                                           ;	.line	430; "MC32F7361.c"	__endasm;
                                           	;
                                           	swapar	_statusbuf;
                                           	movra	_PFLAG;
                                           	swapr	_abuf;
                                           	swapar	_abuf;
                                           	
                                           END_OF_INTERRUPT
                                           ;	.line	431; "MC32F7361.c"	}
                                           	RETIE	
                                           
                                           ;--------------------------------------------------------
                                           ; code
                                           ;--------------------------------------------------------
                                           code_MC32F7361	code
                                           ;***
                                           ;  pBlock Stats: dbName = M
                                           ;***
                                           ;entry:  _main	;Function start
                                           ; 2 exit points
                                           ;has an exit
                                           ;functions called:
                                           ;   _Sys_Init
                                           ;   _delay_ms
                                           ;   _delay_100us
                                           ;   _delay_100us
                                           ;   _delay_ms
                                           ;   _delay_100us
                                           ;   _delay_100us
                                           ;   _delay_ms
                                           ;   _delay_100us
                                           ;   _delay_100us
                                           ;   _delay_ms
                                           ;   _delay_100us
                                           ;   _delay_100us
                                           ;   _delay_ms
                                           ;   __mulchar
                                           ;   __gptrget1
                                           ;   _send_cmd_16bit
                                           ;   __gptrget1
                                           ;   __gptrget1
                                           ;   _send_cmd_16bit
                                           ;   __gptrget1
                                           ;   __gptrget1
                                           ;   _send_cmd_16bit
                                           ;   __gptrget1
                                           ;   __gptrget1
                                           ;   _send_cmd_16bit
                                           ;   _Sys_Init
                                           ;   _delay_ms
                                           ;   _delay_100us
                                           ;   _delay_100us
                                           ;   _delay_ms
                                           ;   _delay_100us
                                           ;   _delay_100us
                                           ;   _delay_ms
                                           ;   _delay_100us
                                           ;   _delay_100us
                                           ;   _delay_ms
                                           ;   _delay_100us
                                           ;   _delay_100us
                                           ;   _delay_ms
                                           ;   __mulchar
                                           ;   __gptrget1
                                           ;   _send_cmd_16bit
                                           ;   __gptrget1
                                           ;   __gptrget1
                                           ;   _send_cmd_16bit
                                           ;   __gptrget1
                                           ;   __gptrget1
                                           ;   _send_cmd_16bit
                                           ;   __gptrget1
                                           ;   __gptrget1
                                           ;   _send_cmd_16bit
                                           ;10 compiler assigned registers:
                                           ;   STK00
                                           ;   r0x1014
                                           ;   r0x1015
                                           ;   r0x1016
                                           ;   r0x1017
                                           ;   STK01
                                           ;   r0x1018
                                           ;   r0x1019
                                           ;   r0x101A
                                           ;   r0x101B
                                           ;; Starting pCode block
                                           _main	;Function start
                                           ; 2 exit points
                                           ;	.line	164; "MC32F7361.c"	Sys_Init();
                                           	CALL	_Sys_Init
                                           ;	.line	178; "MC32F7361.c"	P15PU = 1; // 
                                           	BSET	_PUP1bits,5
                                           ;	.line	179; "MC32F7361.c"	P15OE = 0; // 
                                           	BCLR	_OEP1bits,5
                                           ;	.line	185; "MC32F7361.c"	flag_is_dev_open = 1;
                                           	BSET	_flag1,1
                                           _00242_DS_
                                           ;	.line	198; "MC32F7361.c"	if (flag_is_recved_data)
                                           	JBSET	_flag1,0
                                           	GOTO	_00242_DS_
                                           ;	.line	200; "MC32F7361.c"	if (ir_data == 0x08) // ON 
                                           	MOVAR	_ir_data
                                           	XORAI	0x08
                                           	JBSET	PFLAG,2
                                           	GOTO	_00237_DS_
                                           ;	.line	204; "MC32F7361.c"	LED_CTL_PIN = 1;
                                           	BSET	_IOP0bits,4
                                           ;	.line	205; "MC32F7361.c"	delay_ms(2);
                                           	MOVAI	0x02
                                           	MOVRA	STK00
                                           	MOVAI	0x00
                                           	CALL	_delay_ms
                                           ;	.line	206; "MC32F7361.c"	LED_CTL_PIN = 0;
                                           	BCLR	_IOP0bits,4
                                           ;	.line	207; "MC32F7361.c"	delay_100us();
                                           	CALL	_delay_100us
                                           ;	.line	208; "MC32F7361.c"	delay_100us();
                                           	CALL	_delay_100us
                                           ;	.line	209; "MC32F7361.c"	LED_CTL_PIN = 1;
                                           	BSET	_IOP0bits,4
                                           ;	.line	210; "MC32F7361.c"	delay_ms(3);
                                           	MOVAI	0x03
                                           	MOVRA	STK00
                                           	MOVAI	0x00
                                           	CALL	_delay_ms
                                           ;	.line	211; "MC32F7361.c"	LED_CTL_PIN = 0;
                                           	BCLR	_IOP0bits,4
                                           ;	.line	212; "MC32F7361.c"	delay_100us();
                                           	CALL	_delay_100us
                                           ;	.line	213; "MC32F7361.c"	delay_100us();
                                           	CALL	_delay_100us
                                           ;	.line	214; "MC32F7361.c"	LED_CTL_PIN = 1;
                                           	BSET	_IOP0bits,4
                                           ;	.line	215; "MC32F7361.c"	delay_ms(4);
                                           	MOVAI	0x04
                                           	MOVRA	STK00
                                           	MOVAI	0x00
                                           	CALL	_delay_ms
                                           ;	.line	216; "MC32F7361.c"	LED_CTL_PIN = 0;
                                           	BCLR	_IOP0bits,4
                                           ;	.line	217; "MC32F7361.c"	delay_100us();
                                           	CALL	_delay_100us
                                           ;	.line	218; "MC32F7361.c"	delay_100us();
                                           	CALL	_delay_100us
                                           ;	.line	219; "MC32F7361.c"	LED_CTL_PIN = 1;
                                           	BSET	_IOP0bits,4
                                           ;	.line	220; "MC32F7361.c"	delay_ms(5);
                                           	MOVAI	0x05
                                           	MOVRA	STK00
                                           	MOVAI	0x00
                                           	CALL	_delay_ms
                                           ;	.line	221; "MC32F7361.c"	LED_CTL_PIN = 0;
                                           	BCLR	_IOP0bits,4
                                           ;	.line	222; "MC32F7361.c"	delay_100us();
                                           	CALL	_delay_100us
                                           ;	.line	223; "MC32F7361.c"	delay_100us();
                                           	CALL	_delay_100us
                                           ;	.line	224; "MC32F7361.c"	LED_CTL_PIN = 1;
                                           	BSET	_IOP0bits,4
                                           ;	.line	225; "MC32F7361.c"	delay_ms(51);
                                           	MOVAI	0x33
                                           	MOVRA	STK00
                                           	MOVAI	0x00
                                           	CALL	_delay_ms
                                           	GOTO	_00238_DS_
                                           _00237_DS_
                                           ;	.line	234; "MC32F7361.c"	else if (ir_data == 0xC0) // OFF 
                                           	MOVAR	_ir_data
                                           	XORAI	0xc0
                                           	JBSET	PFLAG,2
                                           	GOTO	_00298_DS_
                                           	GOTO	_00238_DS_
                                           _00298_DS_
                                           ;	.line	240; "MC32F7361.c"	else if (ir_data == 0x80) // AUTO 
                                           	MOVAR	_ir_data
                                           	XORAI	0x80
                                           	JBSET	PFLAG,2
                                           	GOTO	_00299_DS_
                                           	GOTO	_00238_DS_
                                           _00299_DS_
                                           ;	.line	247; "MC32F7361.c"	else if (ir_data == 0x60) // SPEED 
                                           	MOVAR	_ir_data
                                           	XORAI	0x60
                                           	JBSET	PFLAG,2
                                           	GOTO	_00300_DS_
                                           	GOTO	_00238_DS_
                                           _00300_DS_
                                           ;	.line	255; "MC32F7361.c"	for (i = 0; i < sizeof(table) / sizeof(table[0]); i++)
                                           	CLRR	r0x1014
                                           _00244_DS_
                                           ;	.line	257; "MC32F7361.c"	if (table[i][0] == ir_data)
                                           	MOVAI	0x05
                                           	MOVRA	STK00
                                           	MOVAR	r0x1014
                                           	CALL	__mulchar
                                           	MOVRA	r0x1015
                                           	MOVAR	r0x1015
                                           	ADDAI	(_table + 0)
                                           	MOVRA	r0x1016
                                           	MOVAI	high (_table + 0)
                                           	JBCLR	PFLAG,0
                                           	ADDAI	0x01
                                           	MOVRA	r0x1017
                                           	MOVAR	r0x1016
                                           	MOVRA	STK01
                                           	MOVAR	r0x1017
                                           	MOVRA	STK00
                                           	MOVAI	0x80
                                           	CALL	__gptrget1
                                           	MOVRA	r0x1018
                                           	MOVAR	_ir_data
                                           	XORAR	r0x1018
                                           	JBSET	PFLAG,2
                                           	GOTO	_00245_DS_
                                           ;	.line	259; "MC32F7361.c"	send_cmd_16bit(0x0C00); // 
                                           	MOVAI	0x00
                                           	MOVRA	STK00
                                           	MOVAI	0x0c
                                           	CALL	_send_cmd_16bit
                                           ;	.line	260; "MC32F7361.c"	tmp = ((u16)table[i][1] << 8) + (u16)table[i][2];
                                           	MOVAR	r0x1015
                                           	ADDAI	(_table + 0)
                                           	MOVRA	r0x1015
                                           	MOVAI	high (_table + 0)
                                           	JBCLR	PFLAG,0
                                           	ADDAI	0x01
                                           	MOVRA	r0x1016
                                           	MOVAI	0x01
                                           	ADDAR	r0x1015
                                           	MOVRA	r0x1017
                                           	CLRR	r0x1018
                                           	RLR	r0x1018
                                           	MOVAR	r0x1016
                                           	ADDRA	r0x1018
                                           	MOVAR	r0x1017
                                           	MOVRA	STK01
                                           	MOVAR	r0x1018
                                           	MOVRA	STK00
                                           	MOVAI	0x80
                                           	CALL	__gptrget1
                                           	MOVRA	r0x1019
                                           	MOVAR	r0x1019
                                           	MOVRA	r0x101A
                                           	MOVRA	r0x1017
                                           	CLRR	r0x1018
                                           ;;106	MOVAR	r0x1017
                                           	CLRR	r0x1019
                                           	MOVAI	0x02
                                           	ADDAR	r0x1015
                                           	MOVRA	r0x1017
                                           	CLRR	r0x1018
                                           	RLR	r0x1018
                                           	MOVAR	r0x1016
                                           	ADDRA	r0x1018
                                           	MOVAR	r0x1017
                                           	MOVRA	STK01
                                           	MOVAR	r0x1018
                                           	MOVRA	STK00
                                           	MOVAI	0x80
                                           	CALL	__gptrget1
                                           	MOVRA	r0x1017
                                           	MOVRA	r0x101B
                                           ;;104	MOVAR	r0x101B
                                           	CLRR	r0x1018
                                           	MOVAR	r0x1017
                                           	ADDAR	r0x1019
                                           	MOVRA	r0x1017
                                           	MOVAR	r0x101A
                                           	JBCLR	PFLAG,0
                                           	JZAR	r0x101A
                                           	ADDRA	r0x1018
                                           ;	.line	261; "MC32F7361.c"	send_cmd_16bit(tmp);
                                           	MOVAR	r0x1017
                                           	MOVRA	STK00
                                           	MOVAR	r0x1018
                                           	CALL	_send_cmd_16bit
                                           ;	.line	262; "MC32F7361.c"	if (table[i][3] != UNUSE_VAL && table[i][4] != UNUSE_VAL)
                                           	MOVAI	0x03
                                           	ADDAR	r0x1015
                                           	MOVRA	r0x1019
                                           	CLRR	r0x101A
                                           	RLR	r0x101A
                                           	MOVAR	r0x1016
                                           	ADDRA	r0x101A
                                           	MOVAR	r0x1019
                                           	MOVRA	STK01
                                           	MOVAR	r0x101A
                                           	MOVRA	STK00
                                           	MOVAI	0x80
                                           	CALL	__gptrget1
                                           	MOVRA	r0x101B
                                           	MOVAR	r0x101B
                                           	XORAI	0xff
                                           	JBSET	PFLAG,2
                                           	GOTO	_00301_DS_
                                           	GOTO	_00238_DS_
                                           _00301_DS_
                                           	MOVAI	0x04
                                           	ADDRA	r0x1015
                                           	JBCLR	PFLAG,0
                                           	INCR	r0x1016
                                           	MOVAR	r0x1015
                                           	MOVRA	STK01
                                           	MOVAR	r0x1016
                                           	MOVRA	STK00
                                           	MOVAI	0x80
                                           	CALL	__gptrget1
                                           	MOVRA	r0x101B
                                           	MOVAR	r0x101B
                                           	XORAI	0xff
                                           	JBSET	PFLAG,2
                                           	GOTO	_00302_DS_
                                           	GOTO	_00238_DS_
                                           _00302_DS_
                                           ;	.line	264; "MC32F7361.c"	send_cmd_16bit(tmp); // 4 * 16bit 2 * 16bit
                                           	MOVAR	r0x1017
                                           	MOVRA	STK00
                                           	MOVAR	r0x1018
                                           	CALL	_send_cmd_16bit
                                           ;	.line	265; "MC32F7361.c"	tmp = ((u16)table[i][3] << 8) + (u16)table[i][4];
                                           	MOVAR	r0x1019
                                           	MOVRA	STK01
                                           	MOVAR	r0x101A
                                           	MOVRA	STK00
                                           	MOVAI	0x80
                                           	CALL	__gptrget1
                                           	MOVRA	r0x1018
                                           	MOVRA	r0x1019
                                           	MOVRA	r0x1017
                                           ;;102	MOVAR	r0x1017
                                           	CLRR	r0x101A
                                           ;;103	MOVAR	r0x1019
                                           	CLRR	r0x1017
                                           	MOVAR	r0x1015
                                           	MOVRA	STK01
                                           	MOVAR	r0x1016
                                           	MOVRA	STK00
                                           	MOVAI	0x80
                                           	CALL	__gptrget1
                                           	MOVRA	r0x1019
                                           ;;101	MOVAR	r0x1019
                                           	CLRR	r0x1016
                                           ;;100	MOVAR	r0x1015
                                           	MOVAR	r0x1019
                                           	MOVRA	r0x1015
                                           	ADDRA	r0x1017
                                           	MOVAI	0x00
                                           	JBCLR	PFLAG,0
                                           	JZAR	r0x1016
                                           	ADDRA	r0x1018
                                           ;	.line	266; "MC32F7361.c"	send_cmd_16bit(tmp);
                                           	MOVAR	r0x1017
                                           	MOVRA	STK00
                                           	MOVAR	r0x1018
                                           	CALL	_send_cmd_16bit
                                           ;	.line	268; "MC32F7361.c"	break;
                                           	GOTO	_00238_DS_
                                           _00245_DS_
                                           ;	.line	255; "MC32F7361.c"	for (i = 0; i < sizeof(table) / sizeof(table[0]); i++)
                                           	INCR	r0x1014
                                           ;;unsigned compare: left < lit(0xD=13), size=1
                                           	MOVAI	0x0d
                                           	RSUBAR	r0x1014
                                           	JBSET	PFLAG,0
                                           	GOTO	_00244_DS_
                                           ;;genSkipc:3291: created from rifx:013B5EFC
                                           _00238_DS_
                                           ;	.line	273; "MC32F7361.c"	ir_data = 0;
                                           	CLRR	_ir_data
                                           ;	.line	274; "MC32F7361.c"	flag_is_recved_data = 0;
                                           	BCLR	_flag1,0
                                           	GOTO	_00242_DS_
                                           ;	.line	277; "MC32F7361.c"	}
                                           	RETURN	
                                           ; exit point of _main
                                           
                                           ;***
                                           ;  pBlock Stats: dbName = C
                                           ;***
                                           ;entry:  _Sys_Init	;Function start
                                           ; 2 exit points
                                           ;has an exit
                                           ;functions called:
                                           ;   _CLR_RAM
                                           ;   _IO_Init
                                           ;   _TIMER2_INT_Init
                                           ;   _CLR_RAM
                                           ;   _IO_Init
                                           ;   _TIMER2_INT_Init
                                           ;; Starting pCode block
                                           _Sys_Init	;Function start
                                           ; 2 exit points
                                           ;	.line	146; "MC32F7361.c"	GIE = 0;
                                           	BCLR	_MCRbits,7
                                           ;	.line	147; "MC32F7361.c"	CLR_RAM();
                                           	CALL	_CLR_RAM
                                           ;	.line	148; "MC32F7361.c"	IO_Init();
                                           	CALL	_IO_Init
                                           ;	.line	151; "MC32F7361.c"	TIMER2_INT_Init();
                                           	CALL	_TIMER2_INT_Init
                                           ;	.line	153; "MC32F7361.c"	GIE = 1;
                                           	BSET	_MCRbits,7
                                           ;	.line	154; "MC32F7361.c"	}
                                           	RETURN	
                                           ; exit point of _Sys_Init
                                           
                                           ;***
                                           ;  pBlock Stats: dbName = C
                                           ;***
                                           ;entry:  _TIMER2_INT_Init	;Function start
                                           ; 2 exit points
                                           ;has an exit
                                           ;; Starting pCode block
                                           _TIMER2_INT_Init	;Function start
                                           ; 2 exit points
                                           ;	.line	132; "MC32F7361.c"	T2CR = DEF_SET_BIT0 | DEF_SET_BIT1; // CPU,8
                                           	MOVAI	0x03
                                           	MOVRA	_T2CR
                                           ;	.line	133; "MC32F7361.c"	T2CNT = 100 - 1;
                                           	MOVAI	0x63
                                           	MOVRA	_T2CNT
                                           ;	.line	134; "MC32F7361.c"	T2LOAD = 100 - 1; // 100us
                                           	MOVAI	0x63
                                           	MOVRA	_T2LOAD
                                           ;	.line	135; "MC32F7361.c"	T2EN = 1;
                                           	BSET	_T2CRbits,7
                                           ;	.line	136; "MC32F7361.c"	T2IE = 1;
                                           	BSET	_INTEbits,5
                                           ;	.line	137; "MC32F7361.c"	}
                                           	RETURN	
                                           ; exit point of _TIMER2_INT_Init
                                           
                                           ;***
                                           ;  pBlock Stats: dbName = C
                                           ;***
                                           ;entry:  _IO_Init	;Function start
                                           ; 2 exit points
                                           ;has an exit
                                           ;; Starting pCode block
                                           _IO_Init	;Function start
                                           ; 2 exit points
                                           ;	.line	103; "MC32F7361.c"	IOP0 = 0x00;   // io
                                           	CLRR	_IOP0
                                           ;	.line	104; "MC32F7361.c"	OEP0 = 0x3F;   // io 1:out  0:in
                                           	MOVAI	0x3f
                                           	MOVRA	_OEP0
                                           ;	.line	105; "MC32F7361.c"	PUP0 = 0x00;   // io   1:enable  0:disable
                                           	CLRR	_PUP0
                                           ;	.line	106; "MC32F7361.c"	PDP0 = 0x00;   // io   1:enable  0:disable
                                           	CLRR	_PDP0
                                           ;	.line	107; "MC32F7361.c"	P0ADCR = 0x00; // io  1:  0:io
                                           	CLRR	_P0ADCR
                                           ;	.line	109; "MC32F7361.c"	IOP1 = 0x00;   // io
                                           	CLRR	_IOP1
                                           ;	.line	110; "MC32F7361.c"	OEP1 = 0xFF;   // io 1:out  0:in
                                           	MOVAI	0xff
                                           	MOVRA	_OEP1
                                           ;	.line	111; "MC32F7361.c"	PUP1 = 0x00;   // io   1:enable  0:disable
                                           	CLRR	_PUP1
                                           ;	.line	112; "MC32F7361.c"	PDP1 = 0x00;   // io   1:enable  0:disable
                                           	CLRR	_PDP1
                                           ;	.line	113; "MC32F7361.c"	P1ADCR = 0x00; // io  1:  0:io
                                           	CLRR	_P1ADCR
                                           ;	.line	115; "MC32F7361.c"	IOP2 = 0x00; // io
                                           	CLRR	_IOP2
                                           ;	.line	116; "MC32F7361.c"	OEP2 = 0x0F; // io 1:out  0:in
                                           	MOVAI	0x0f
                                           	MOVRA	_OEP2
                                           ;	.line	117; "MC32F7361.c"	PUP2 = 0x00; // io   1:enable  0:disable
                                           	CLRR	_PUP2
                                           ;	.line	118; "MC32F7361.c"	PDP2 = 0x00; // io   1:enable  0:disablea
                                           	CLRR	_PDP2
                                           ;	.line	120; "MC32F7361.c"	PMOD = 0x00;  // P00P01P13 io
                                           	CLRR	_PMOD
                                           ;	.line	121; "MC32F7361.c"	DRVCR = 0x80; // 
                                           	MOVAI	0x80
                                           	MOVRA	_DRVCR
                                           ;	.line	122; "MC32F7361.c"	}
                                           	RETURN	
                                           ; exit point of _IO_Init
                                           
                                           ;***
                                           ;  pBlock Stats: dbName = C
                                           ;***
                                           ;entry:  _CLR_RAM	;Function start
                                           ; 2 exit points
                                           ;has an exit
                                           ;; Starting pCode block
                                           _CLR_RAM	;Function start
                                           ; 2 exit points
                                           ;	.line	88; "MC32F7361.c"	for (FSR0 = 0; FSR0 < 0xff; FSR0++)
                                           	CLRR	_FSR0
                                           ;;unsigned compare: left < lit(0xFF=255), size=1
                                           _00204_DS_
                                           	MOVAI	0xff
                                           	RSUBAR	_FSR0
                                           	JBCLR	PFLAG,0
                                           	GOTO	_00202_DS_
                                           ;;genSkipc:3291: created from rifx:013B5EFC
                                           ;	.line	90; "MC32F7361.c"	INDF0 = 0x00;
                                           	CLRR	_INDF0
                                           ;	.line	88; "MC32F7361.c"	for (FSR0 = 0; FSR0 < 0xff; FSR0++)
                                           	INCR	_FSR0
                                           	GOTO	_00204_DS_
                                           _00202_DS_
                                           ;	.line	92; "MC32F7361.c"	FSR0 = 0xFF;
                                           	MOVAI	0xff
                                           	MOVRA	_FSR0
                                           ;	.line	93; "MC32F7361.c"	INDF0 = 0x00;
                                           	CLRR	_INDF0
                                           ;	.line	94; "MC32F7361.c"	}
                                           	RETURN	
                                           ; exit point of _CLR_RAM
                                           
                                           ;***
                                           ;  pBlock Stats: dbName = C
                                           ;***
                                           ;entry:  _send_cmd_16bit	;Function start
                                           ; 2 exit points
                                           ;has an exit
                                           ;functions called:
                                           ;   _delay_100us
                                           ;   _delay_ms
                                           ;   _delay_1_4ms
                                           ;   _delay_100us
                                           ;   _delay_ms
                                           ;   _delay_100us
                                           ;   _delay_ms
                                           ;   _delay_1_4ms
                                           ;   _delay_100us
                                           ;   _delay_ms
                                           ;7 compiler assigned registers:
                                           ;   r0x100E
                                           ;   STK00
                                           ;   r0x100F
                                           ;   r0x1010
                                           ;   r0x1011
                                           ;   r0x1012
                                           ;   r0x1013
                                           ;; Starting pCode block
                                           _send_cmd_16bit	;Function start
                                           ; 2 exit points
                                           ;	.line	49; "MC32F7361.c"	void send_cmd_16bit(const u16 data)
                                           	MOVRA	r0x100E
                                           	MOVAR	STK00
                                           	MOVRA	r0x100F
                                           ;	.line	52; "MC32F7361.c"	if (0 == flag_is_dev_open)
                                           	JBCLR	_flag1,1
                                           	GOTO	_00181_DS_
                                           ;	.line	54; "MC32F7361.c"	return;
                                           	GOTO	_00177_DS_
                                           _00181_DS_
                                           ;	.line	58; "MC32F7361.c"	for (i = 0; i < 16; i++)
                                           	CLRR	r0x1010
                                           _00175_DS_
                                           ;	.line	60; "MC32F7361.c"	LED_CTL_PIN = 0;
                                           	BCLR	_IOP0bits,4
                                           ;	.line	61; "MC32F7361.c"	delay_100us();
                                           	CALL	_delay_100us
                                           ;	.line	62; "MC32F7361.c"	LED_CTL_PIN = 1;
                                           	BSET	_IOP0bits,4
                                           ;	.line	63; "MC32F7361.c"	if ((data >> (15 - i)) & 0x01) // 1
                                           	MOVAR	r0x1010
                                           	ISUBAI	0x0f
                                           	MOVRA	r0x1011
                                           	MOVAR	r0x100E
                                           	MOVRA	r0x1012
                                           	MOVAR	r0x100F
                                           	MOVRA	r0x1013
                                           	MOVAR	r0x1011
                                           	ISUBAI	0x00
                                           	JBCLR	PFLAG,2
                                           	GOTO	_00197_DS_
                                           _00196_DS_
                                           	RRR	r0x1012
                                           	RRR	r0x1013
                                           	ADDAI	0x01
                                           	JBSET	PFLAG,0
                                           	GOTO	_00196_DS_
                                           _00197_DS_
                                           	JBSET	r0x1013,0
                                           	GOTO	_00172_DS_
                                           ;	.line	65; "MC32F7361.c"	delay_ms(3);
                                           	MOVAI	0x03
                                           	MOVRA	STK00
                                           	MOVAI	0x00
                                           	CALL	_delay_ms
                                           	GOTO	_00176_DS_
                                           _00172_DS_
                                           ;	.line	69; "MC32F7361.c"	delay_1_4ms();
                                           	CALL	_delay_1_4ms
                                           _00176_DS_
                                           ;	.line	58; "MC32F7361.c"	for (i = 0; i < 16; i++)
                                           	INCR	r0x1010
                                           ;;unsigned compare: left < lit(0x10=16), size=1
                                           	MOVAI	0x10
                                           	RSUBAR	r0x1010
                                           	JBSET	PFLAG,0
                                           	GOTO	_00175_DS_
                                           ;;genSkipc:3291: created from rifx:013B5EFC
                                           ;	.line	73; "MC32F7361.c"	LED_CTL_PIN = 0;
                                           	BCLR	_IOP0bits,4
                                           ;	.line	74; "MC32F7361.c"	delay_100us();
                                           	CALL	_delay_100us
                                           ;	.line	75; "MC32F7361.c"	LED_CTL_PIN = 1;
                                           	BSET	_IOP0bits,4
                                           ;	.line	76; "MC32F7361.c"	delay_ms(33);
                                           	MOVAI	0x21
                                           	MOVRA	STK00
                                           	MOVAI	0x00
                                           	CALL	_delay_ms
                                           _00177_DS_
                                           ;	.line	78; "MC32F7361.c"	}
                                           	RETURN	
                                           ; exit point of _send_cmd_16bit
                                           
                                           ;***
                                           ;  pBlock Stats: dbName = C
                                           ;***
                                           ;entry:  _delay_1_4ms	;Function start
                                           ; 2 exit points
                                           ;has an exit
                                           ;functions called:
                                           ;   _delay_100us
                                           ;   _delay_100us
                                           ;2 compiler assigned registers:
                                           ;   r0x100A
                                           ;   r0x100B
                                           ;; Starting pCode block
                                           _delay_1_4ms	;Function start
                                           ; 2 exit points
                                           ;	.line	42; "MC32F7361.c"	for (i = 0; i < 14; i++)
                                           	MOVAI	0x0e
                                           	MOVRA	r0x100A
                                           _00164_DS_
                                           ;	.line	44; "MC32F7361.c"	delay_100us();
                                           	CALL	_delay_100us
                                           	DECAR	r0x100A
                                           	MOVRA	r0x100A
                                           	MOVRA	r0x100B
                                           ;;99	MOVAR	r0x100B
                                           ;	.line	42; "MC32F7361.c"	for (i = 0; i < 14; i++)
                                           	MOVAI	0x00
                                           	ORAR	r0x100B
                                           	JBSET	PFLAG,2
                                           	GOTO	_00164_DS_
                                           ;	.line	46; "MC32F7361.c"	}
                                           	RETURN	
                                           ; exit point of _delay_1_4ms
                                           
                                           ;***
                                           ;  pBlock Stats: dbName = C
                                           ;***
                                           ;entry:  _delay_200us	;Function start
                                           ; 2 exit points
                                           ;has an exit
                                           ;2 compiler assigned registers:
                                           ;   r0x101C
                                           ;   r0x101D
                                           ;; Starting pCode block
                                           _delay_200us	;Function start
                                           ; 2 exit points
                                           ;	.line	32; "MC32F7361.c"	while (i--)
                                           	MOVAI	0x96
                                           	MOVRA	r0x101C
                                           _00153_DS_
                                           	MOVAR	r0x101C
                                           	MOVRA	r0x101D
                                           	DECR	r0x101C
                                           	MOVAI	0x00
                                           	ORAR	r0x101D
                                           	JBCLR	PFLAG,2
                                           	GOTO	_00156_DS_
                                           ;	.line	34; "MC32F7361.c"	Nop();
                                           	nop	
                                           	GOTO	_00153_DS_
                                           _00156_DS_
                                           ;	.line	36; "MC32F7361.c"	}
                                           	RETURN	
                                           ; exit point of _delay_200us
                                           
                                           ;***
                                           ;  pBlock Stats: dbName = C
                                           ;***
                                           ;entry:  _delay_100us	;Function start
                                           ; 2 exit points
                                           ;has an exit
                                           ;2 compiler assigned registers:
                                           ;   r0x1008
                                           ;   r0x1009
                                           ;; Starting pCode block
                                           _delay_100us	;Function start
                                           ; 2 exit points
                                           ;	.line	22; "MC32F7361.c"	while (i--)
                                           	MOVAI	0x4a
                                           	MOVRA	r0x1008
                                           _00145_DS_
                                           	MOVAR	r0x1008
                                           	MOVRA	r0x1009
                                           	DECR	r0x1008
                                           	MOVAI	0x00
                                           	ORAR	r0x1009
                                           	JBCLR	PFLAG,2
                                           	GOTO	_00148_DS_
                                           ;	.line	24; "MC32F7361.c"	Nop();
                                           	nop	
                                           	GOTO	_00145_DS_
                                           _00148_DS_
                                           ;	.line	26; "MC32F7361.c"	}
                                           	RETURN	
                                           ; exit point of _delay_100us
                                           
                                           ;***
                                           ;  pBlock Stats: dbName = C
                                           ;***
                                           ;entry:  _send_data_msb	;Function start
                                           ; 2 exit points
                                           ;has an exit
                                           ;functions called:
                                           ;   _delay_ms
                                           ;   _delay_ms
                                           ;   _delay_ms
                                           ;   _delay_ms
                                           ;   _delay_ms
                                           ;   _delay_ms
                                           ;   _delay_ms
                                           ;   _delay_ms
                                           ;   _delay_ms
                                           ;   _delay_ms
                                           ;   _delay_ms
                                           ;   _delay_ms
                                           ;   _delay_ms
                                           ;   _delay_ms
                                           ;   _delay_ms
                                           ;   _delay_ms
                                           ;13 compiler assigned registers:
                                           ;   r0x101E
                                           ;   STK00
                                           ;   r0x101F
                                           ;   STK01
                                           ;   r0x1020
                                           ;   STK02
                                           ;   r0x1021
                                           ;   r0x1022
                                           ;   r0x1023
                                           ;   r0x1024
                                           ;   r0x1025
                                           ;   r0x1026
                                           ;   r0x1027
                                           ;; Starting pCode block
                                           _send_data_msb	;Function start
                                           ; 2 exit points
                                           ;	.line	179; "user.h"	void send_data_msb(u32 send_data)
                                           	MOVRA	r0x101E
                                           	MOVAR	STK00
                                           	MOVRA	r0x101F
                                           	MOVAR	STK01
                                           	MOVRA	r0x1020
                                           	MOVAR	STK02
                                           	MOVRA	r0x1021
                                           ;	.line	183; "user.h"	DEBUG_PIN = 1;
                                           	BSET	_IOP2bits,2
                                           ;	.line	184; "user.h"	delay_ms(15);
                                           	MOVAI	0x0f
                                           	MOVRA	STK00
                                           	MOVAI	0x00
                                           	CALL	_delay_ms
                                           ;	.line	186; "user.h"	DEBUG_PIN = 0;
                                           	BCLR	_IOP2bits,2
                                           ;	.line	187; "user.h"	delay_ms(7); //
                                           	MOVAI	0x07
                                           	MOVRA	STK00
                                           	MOVAI	0x00
                                           	CALL	_delay_ms
                                           ;	.line	189; "user.h"	for (u8 i = 0; i < 32; i++)
                                           	CLRR	r0x1022
                                           ;;unsigned compare: left < lit(0x20=32), size=1
                                           _00121_DS_
                                           	MOVAI	0x20
                                           	RSUBAR	r0x1022
                                           	JBCLR	PFLAG,0
                                           	GOTO	_00119_DS_
                                           ;;genSkipc:3291: created from rifx:013B5EFC
                                           ;	.line	191; "user.h"	if ((send_data >> (32 - 1 - i)) & 0x01)
                                           	MOVAR	r0x1022
                                           	ISUBAI	0x1f
                                           	MOVRA	r0x1023
                                           	MOVAR	r0x101E
                                           	MOVRA	r0x1024
                                           	MOVAR	r0x101F
                                           	MOVRA	r0x1025
                                           	MOVAR	r0x1020
                                           	MOVRA	r0x1026
                                           	MOVAR	r0x1021
                                           	MOVRA	r0x1027
                                           	MOVAR	r0x1023
                                           	ISUBAI	0x00
                                           	JBCLR	PFLAG,2
                                           	GOTO	_00140_DS_
                                           _00139_DS_
                                           	RRR	r0x1024
                                           	RRR	r0x1025
                                           	RRR	r0x1026
                                           	RRR	r0x1027
                                           	ADDAI	0x01
                                           	JBSET	PFLAG,0
                                           	GOTO	_00139_DS_
                                           _00140_DS_
                                           	JBSET	r0x1027,0
                                           	GOTO	_00117_DS_
                                           ;	.line	195; "user.h"	DEBUG_PIN = 1;
                                           	BSET	_IOP2bits,2
                                           ;	.line	196; "user.h"	delay_ms(5); //
                                           	MOVAI	0x05
                                           	MOVRA	STK00
                                           	MOVAI	0x00
                                           	CALL	_delay_ms
                                           ;	.line	198; "user.h"	DEBUG_PIN = 0;
                                           	BCLR	_IOP2bits,2
                                           ;	.line	199; "user.h"	delay_ms(10); //
                                           	MOVAI	0x0a
                                           	MOVRA	STK00
                                           	MOVAI	0x00
                                           	CALL	_delay_ms
                                           	GOTO	_00122_DS_
                                           _00117_DS_
                                           ;	.line	205; "user.h"	DEBUG_PIN = 1;
                                           	BSET	_IOP2bits,2
                                           ;	.line	206; "user.h"	delay_ms(5); //
                                           	MOVAI	0x05
                                           	MOVRA	STK00
                                           	MOVAI	0x00
                                           	CALL	_delay_ms
                                           ;	.line	208; "user.h"	DEBUG_PIN = 0;
                                           	BCLR	_IOP2bits,2
                                           ;	.line	209; "user.h"	delay_ms(5); //
                                           	MOVAI	0x05
                                           	MOVRA	STK00
                                           	MOVAI	0x00
                                           	CALL	_delay_ms
                                           _00122_DS_
                                           ;	.line	189; "user.h"	for (u8 i = 0; i < 32; i++)
                                           	INCR	r0x1022
                                           	GOTO	_00121_DS_
                                           _00119_DS_
                                           ;	.line	215; "user.h"	DEBUG_PIN = 0;
                                           	BCLR	_IOP2bits,2
                                           ;	.line	216; "user.h"	delay_ms(1);
                                           	MOVAI	0x01
                                           	MOVRA	STK00
                                           	MOVAI	0x00
                                           	CALL	_delay_ms
                                           ;	.line	217; "user.h"	DEBUG_PIN = 1;
                                           	BSET	_IOP2bits,2
                                           ;	.line	218; "user.h"	delay_ms(1);
                                           	MOVAI	0x01
                                           	MOVRA	STK00
                                           	MOVAI	0x00
                                           	CALL	_delay_ms
                                           ;	.line	219; "user.h"	DEBUG_PIN = 0;
                                           	BCLR	_IOP2bits,2
                                           ;	.line	220; "user.h"	}
                                           	RETURN	
                                           ; exit point of _send_data_msb
                                           
                                           ;***
                                           ;  pBlock Stats: dbName = C
                                           ;***
                                           ;entry:  _delay_ms	;Function start
                                           ; 2 exit points
                                           ;has an exit
                                           ;7 compiler assigned registers:
                                           ;   r0x1008
                                           ;   STK00
                                           ;   r0x1009
                                           ;   r0x100A
                                           ;   r0x100B
                                           ;   r0x100C
                                           ;   r0x100D
                                           ;; Starting pCode block
                                           _delay_ms	;Function start
                                           ; 2 exit points
                                           ;	.line	157; "user.h"	void delay_ms(u16 xms)
                                           	MOVRA	r0x1008
                                           	MOVAR	STK00
                                           	MOVRA	r0x1009
                                           _00108_DS_
                                           ;	.line	159; "user.h"	while (xms)
                                           	MOVAR	r0x1009
                                           	ORAR	r0x1008
                                           	JBCLR	PFLAG,2
                                           	GOTO	_00111_DS_
                                           ;	.line	162; "user.h"	while (i--)
                                           	MOVAI	0x05
                                           	MOVRA	r0x100A
                                           	MOVAI	0x02
                                           	MOVRA	r0x100B
                                           _00105_DS_
                                           	MOVAR	r0x100A
                                           	MOVRA	r0x100C
                                           	MOVAR	r0x100B
                                           	MOVRA	r0x100D
                                           	MOVAI	0xff
                                           	ADDRA	r0x100A
                                           	JBSET	PFLAG,0
                                           	DECR	r0x100B
                                           	MOVAR	r0x100C
                                           	ORAR	r0x100D
                                           	JBCLR	PFLAG,2
                                           	GOTO	_00107_DS_
                                           ;	.line	164; "user.h"	Nop();
                                           	nop	
                                           	GOTO	_00105_DS_
                                           _00107_DS_
                                           ;	.line	166; "user.h"	xms--; //  --while()
                                           	MOVAI	0xff
                                           	ADDRA	r0x1009
                                           	JBSET	PFLAG,0
                                           	DECR	r0x1008
                                           ;	.line	170; "user.h"	__endasm;
                                           	;
                                           	clrwdt;
                                           	
                                           	GOTO	_00108_DS_
                                           _00111_DS_
                                           ;	.line	172; "user.h"	}
                                           	RETURN	
                                           ; exit point of _delay_ms
                                           
                                           
                                           ;	code size estimation:
                                           ;	  669+    0 =   669 instructions ( 1338 byte)
                                           
                                           	end


MEMORY USAGE MAP ('X' = Used,  '-' = Unused)

0000 : XX-------------- XXXXXXXXXXXXXXXX XXXXXXXXXXXXXXXX XXXXXXXXXXXXXXXX
0040 : XXXXXXXXXXXXXXXX XXXXXXXXXXXXXXXX XXXXXXXXXXXXXXXX XXXXXXXXXXXXXXXX
0080 : XXXXXXXXXXXXXXXX XXXXXXXXXXXXXXXX XXXXXXXXXXXXXXXX XXXXXXXXXXXXXXXX
00C0 : XXXXXXXXXXXXXXXX XXXXXXXXXXXXXXXX XXXXXXXXXXXXXXXX XXXXXXXXXXXXXXXX
0100 : XXXXXXXXXXXXXXXX XXXXXXXXXXXXXXXX XXXXXXXXXXXXXXXX XXXXXXXXXXXXXXXX
0140 : XXXXXXXXXXXXXXXX XXXXXXXXXXXXXXXX XXXXXXXXXXXXXXXX XXXXXXXXXXXXXXXX
0180 : XXXXXXXXXXXXXXXX XXXXXXXXXXXXXXXX XXXXXXXXXXXXXXXX XXXXXXXXXXXXXXXX
01C0 : XXXXXXXXXXXXXXXX XXXXXXXXXXXXXXXX XXXXXXXXXXXXXXXX XXXXXXXXXXXXXXXX
0200 : XXXXXXXXXXXXXXXX XXXXXXXXXXXXXXXX XXXXXXXXXXXXXXXX XXXXXXXXXXXXXXXX
0240 : XXXXXXXXXXXXXXXX XXXXXXXXXXXXXXXX XXXXXXXXXXXXXXXX XXXXXXXXXXXXXXXX
0280 : XXXXXXXXXXXXXXXX XXXXXXXXXXXXXXXX XXXXXXXXXXXXXXXX XXXXXXXXXXXXXXXX
02C0 : XXXXXXXXXXXXXXXX XXXXXXXXXXXXXXXX XXXXXXXXXXXXXXXX XXXXXXXXXXXXXXXX
0300 : XXXXXXXXXXXXXXXX XXXXXXXXXXXXXXXX XXXXXXXXXXXXXXXX XXXXXXXXXXXXXXXX
0340 : XXXXXXXXXXXXXXXX XXXXXXXXXXXXXXXX XXXXXXXXXXXXXXXX XXXXXXXXXXXXXXXX
0380 : XXXXXXXXXXXXXXXX XXXXXXXXXXXXXXXX XXXXXXXXXXXXXXXX XXXXXXXXXXXXXXXX
03C0 : XXXXXXXXXXXXXXXX XXXXXXXXXXXXXXXX XXXXXXXXXXXXXXXX XXXXXXXXXXXXXXXX
0400 : XXXXXXXXXXXXXXXX XXXXXXXXXXXXXXXX XXXXXXXXXXXXXXXX XXXXXXXXXXXXXXXX
0440 : XXXXXXXXXXXXXXXX XXXXXXXXXXXXXXXX XXXXXXXXXXXXXXXX XXXXXXXXXXXXXXXX
0480 : XXXXXXXXXXXXXXXX XXXXXXXXXXXXXXXX XXXXXXXXXXXXXXXX XXXXXXXXXXXXXXXX
04C0 : XXXXXXXXXXXXXXXX XXXXXXXXXXXXXXXX XXXXXXXXXXXXXXXX XXXXXXXXXXXXXXXX
0500 : XXXXXXXXXXXXXXXX XXXXXXXXXXXXXXXX XXXXXXXXXXXXXXXX XXXXXXXXXXXXXXXX
0540 : XXXXXXXXXXXXXXXX XXXXXXXXXXXXXXXX XXXXXXXXXXXXXXXX XXXXXXXXXXXXXXXX
0580 : XXXXXXXXXXXXXXXX XXXXXXXXXXXXXXXX XXXXXXXXXXXXXXXX XXXXXXXXXXXXXXXX
05C0 : XXXXXXXXXXXXXXXX XXXXXXXXXXXXXXXX XXXXXXXXXXXXXXXX XXXXXXXXXXXXXXXX
0600 : XXXXXXXXXXXXXXXX XXXXXXXXXXXXXXXX XXXXXXXXXXXXXXXX XXXX------------

All other memory blocks unused.

Program Memory Words Used:   787

