gplink-2.2.37 (Jan 22 2024)
Listing File Generated: 2025-3-24  16:04:38
 
 
Address  Value    Disassembly              Source
-------  -----    -----------              ------
                                           ;--------------------------------------------------------
                                           ; external declarations
                                           ;--------------------------------------------------------
                                           	extern	_INDF0bits
                                           	extern	_INDF1bits
                                           	extern	_INDF2bits
                                           	extern	_HIBYTEbits
                                           	extern	_FSR0bits
                                           	extern	_FSR1bits
                                           	extern	_PCLbits
                                           	extern	_PFLAGbits
                                           	extern	_MCRbits
                                           	extern	_INDF3bits
                                           	extern	_INTEbits
                                           	extern	_INTFbits
                                           	extern	_DRVCRbits
                                           	extern	_P0KBCRbits
                                           	extern	_P1KBCRbits
                                           	extern	_P2KBCRbits
                                           	extern	_IOP0bits
                                           	extern	_OEP0bits
                                           	extern	_PUP0bits
                                           	extern	_PDP0bits
                                           	extern	_IOP1bits
                                           	extern	_OEP1bits
                                           	extern	_PUP1bits
                                           	extern	_PDP1bits
                                           	extern	_T0CRbits
                                           	extern	_T0CNTbits
                                           	extern	_T0LOADbits
                                           	extern	_T0DATAbits
                                           	extern	_T1CRbits
                                           	extern	_T1CNTbits
                                           	extern	_T1LOADbits
                                           	extern	_T1DATAbits
                                           	extern	_T2CRbits
                                           	extern	_T2CNTbits
                                           	extern	_T2LOADbits
                                           	extern	_T2DATAbits
                                           	extern	_T3CRbits
                                           	extern	_T3CNTbits
                                           	extern	_T3LOADbits
                                           	extern	_PWM0DRbits
                                           	extern	_PWM1DRbits
                                           	extern	_PWM2DRbits
                                           	extern	_PWMCR0bits
                                           	extern	_PWMCR1bits
                                           	extern	_OSCMRbits
                                           	extern	_LVDCRbits
                                           	extern	_ADCR0bits
                                           	extern	_ADCR1bits
                                           	extern	_ADCR2bits
                                           	extern	_OSADJCRbits
                                           	extern	_ADRHbits
                                           	extern	_ADRLbits
                                           	extern	_P0ADCRbits
                                           	extern	_P1ADCRbits
                                           	extern	_IOP2bits
                                           	extern	_OEP2bits
                                           	extern	_PUP2bits
                                           	extern	_PDP2bits
                                           	extern	_PMODbits
                                           	extern	_PWMCR3bits
                                           	extern	_PWMCR2bits
                                           	extern	_PFRCCRbits
                                           	extern	_PFRCCALbits
                                           	extern	_EECRbits
                                           	extern	_EEPRbits
                                           	extern	_EEARbits
                                           	extern	_EEDRHbits
                                           	extern	_EEDRLbits
                                           	extern	_DBGCRbits
                                           	extern	_DBGPRbits
                                           	extern	_HIRCCALbits
                                           	extern	_INDF0
                                           	extern	_INDF1
                                           	extern	_INDF2
                                           	extern	_HIBYTE
                                           	extern	_FSR0
                                           	extern	_FSR1
                                           	extern	_PCL
                                           	extern	_PFLAG
                                           	extern	_MCR
                                           	extern	_INDF3
                                           	extern	_INTE
                                           	extern	_INTF
                                           	extern	_DRVCR
                                           	extern	_P0KBCR
                                           	extern	_P1KBCR
                                           	extern	_P2KBCR
                                           	extern	_IOP0
                                           	extern	_OEP0
                                           	extern	_PUP0
                                           	extern	_PDP0
                                           	extern	_IOP1
                                           	extern	_OEP1
                                           	extern	_PUP1
                                           	extern	_PDP1
                                           	extern	_T0CR
                                           	extern	_T0CNT
                                           	extern	_T0LOAD
                                           	extern	_T0DATA
                                           	extern	_T1CR
                                           	extern	_T1CNT
                                           	extern	_T1LOAD
                                           	extern	_T1DATA
                                           	extern	_T2CR
                                           	extern	_T2CNT
                                           	extern	_T2LOAD
                                           	extern	_T2DATA
                                           	extern	_T3CR
                                           	extern	_T3CNT
                                           	extern	_T3LOAD
                                           	extern	_PWM0DR
                                           	extern	_PWM1DR
                                           	extern	_PWM2DR
                                           	extern	_PWMCR0
                                           	extern	_PWMCR1
                                           	extern	_OSCMR
                                           	extern	_LVDCR
                                           	extern	_ADCR0
                                           	extern	_ADCR1
                                           	extern	_ADCR2
                                           	extern	_OSADJCR
                                           	extern	_ADRH
                                           	extern	_ADRL
                                           	extern	_P0ADCR
                                           	extern	_P1ADCR
                                           	extern	_IOP2
                                           	extern	_OEP2
                                           	extern	_PUP2
                                           	extern	_PDP2
                                           	extern	_PMOD
                                           	extern	_PWMCR3
                                           	extern	_PWMCR2
                                           	extern	_PFRCCR
                                           	extern	_PFRCCAL
                                           	extern	_EECR
                                           	extern	_EEPR
                                           	extern	_EEAR
                                           	extern	_EEDRH
                                           	extern	_EEDRL
                                           	extern	_DBGCR
                                           	extern	_DBGPR
                                           	extern	_HIRCCAL
                                           	extern	__gptrget1
                                           	extern	__gptrget2
                                           ;--------------------------------------------------------
                                           ; global declarations
                                           ;--------------------------------------------------------
                                           	global	_delay_ms
                                           	global	_delay_100us
                                           	global	_delay_200us
                                           	global	_delay_1_4ms
                                           	global	_EEPROM_Write_Byte
                                           	global	_EEPROM_Read_Byte
                                           	global	_send_cmd_16bit
                                           	global	_send_cmd_16bit_without_delay
                                           	global	_CLR_RAM
                                           	global	_IO_Init
                                           	global	_TIMER2_INT_Init
                                           	global	_TIMER3_INT_Init
                                           	global	_Sys_Init
                                           	global	_key_event_same_deal
                                           	global	_main
                                           	global	_int_isr
                                           	global	_abuf
                                           	global	_statusbuf
                                           	global	_flag1
                                           	global	_ir_data
                                           	global	_current_index
                                           	global	_start_index
                                           	global	_end_index
                                           	global	_next_frame_delay
                                           	global	_power_sta
                                           	global	_current_speed
                                           	global	_current_static
                                           	global	_cur_mechanical_key_sta
                                           	global	_timer_count
                                           	global	_main_table
                                           	global	_section_1_speed_table
                                           	global	_section_1_delay_table
                                           	global	_section_2_speed_table
                                           	global	_section_2_delay_table
                                           	global	_section_3_speed_table
                                           	global	_section_5_speed_table
                                           	global	_section_5_delay_table
                                           	global	_section_7_speed_table
                                           	global	_section_7_delay_table
                                           
                                           	global STK06
                                           	global STK05
                                           	global STK04
                                           	global STK03
                                           	global STK02
                                           	global STK01
                                           	global STK00
                                           
                                           sharebank udata_ovr 0x0000
                                           STK06	res 1
                                           STK05	res 1
                                           STK04	res 1
                                           STK03	res 1
                                           STK02	res 1
                                           STK01	res 1
                                           STK00	res 1
                                           
                                           ;--------------------------------------------------------
                                           ; global definitions
                                           ;--------------------------------------------------------
                                           UD_MC32F7361_0	udata
                                           _abuf	res	1
                                           
                                           UD_MC32F7361_1	udata
                                           _statusbuf	res	1
                                           
                                           UD_MC32F7361_2	udata
                                           _flag1	res	1
                                           
                                           UD_MC32F7361_3	udata
                                           _ir_data	res	1
                                           
                                           UD_MC32F7361_4	udata
                                           _current_index	res	1
                                           
                                           UD_MC32F7361_5	udata
                                           _start_index	res	1
                                           
                                           UD_MC32F7361_6	udata
                                           _end_index	res	1
                                           
                                           UD_MC32F7361_7	udata
                                           _next_frame_delay	res	2
                                           
                                           UD_MC32F7361_8	udata
                                           _power_sta	res	1
                                           
                                           UD_MC32F7361_9	udata
                                           _current_speed	res	1
                                           
                                           UD_MC32F7361_10	udata
                                           _current_static	res	1
                                           
                                           UD_MC32F7361_11	udata
                                           _cur_mechanical_key_sta	res	1
                                           
                                           ;--------------------------------------------------------
                                           ; absolute symbol definitions
                                           ;--------------------------------------------------------
                                           ;--------------------------------------------------------
                                           ; compiler-defined variables
                                           ;--------------------------------------------------------
                                           UDL_MC32F7361_0	udata
                                           r0x1017	res	1
                                           r0x1016	res	1
                                           r0x1018	res	1
                                           r0x1019	res	1
                                           r0x101A	res	1
                                           r0x101B	res	1
                                           r0x1036	res	1
                                           r0x1037	res	1
                                           r0x101D	res	1
                                           r0x101C	res	1
                                           r0x101E	res	1
                                           r0x101F	res	1
                                           r0x1021	res	1
                                           r0x1020	res	1
                                           r0x1031	res	1
                                           r0x1030	res	1
                                           r0x1032	res	1
                                           r0x1033	res	1
                                           r0x1035	res	1
                                           r0x1034	res	1
                                           r0x1022	res	1
                                           r0x1023	res	1
                                           r0x1025	res	1
                                           r0x1024	res	1
                                           r0x1027	res	1
                                           r0x1026	res	1
                                           r0x1028	res	1
                                           r0x1029	res	1
                                           r0x102B	res	1
                                           r0x102A	res	1
                                           r0x102C	res	1
                                           r0x102D	res	1
                                           r0x102E	res	1
                                           r0x102F	res	1
                                           r0x1038	res	1
                                           r0x1039	res	1
                                           _main_sloc0_1_0	res	2
                                           _int_isr_ir_level_cnt_196608_75	res	2
                                           _int_isr___ir_data_196608_75	res	1
                                           _int_isr_key_press_cnt_196608_89	res	2
                                           ;--------------------------------------------------------
                                           ; initialized data
                                           ;--------------------------------------------------------
                                           
                                           ID_MC32F7361_0	idata
                                           _timer_count
                                           	db	0x00, 0x00, 0x00, 0x00
                                           
                                           
                                           ID_MC32F7361_1	code
                                           _main_table
000734   0011     deca                     	dw 0x11
000735   0022     dw      0x22             	dw 0x22
000736   0044     dw      0x44             	dw 0x44
000737   0033     dw      0x33             	dw 0x33
000738   0055     dw      0x55             	dw 0x55
000739   0066     dw      0x66             	dw 0x66
00073a   0077     dw      0x77             	dw 0x77
00073b   0088     dw      0x88             	dw 0x88
00073c   00aa     dw      0xaa             	dw 0xaa
00073d   00cc     dw      0xcc             	dw 0xcc
00073e   0011     deca                     	dw 0x11
00073f   0022     dw      0x22             	dw 0x22
000740   0044     dw      0x44             	dw 0x44
000741   0033     dw      0x33             	dw 0x33
000742   0055     dw      0x55             	dw 0x55
000743   0066     dw      0x66             	dw 0x66
000744   0077     dw      0x77             	dw 0x77
000745   0088     dw      0x88             	dw 0x88
000746   00aa     dw      0xaa             	dw 0xaa
000747   00cc     dw      0xcc             	dw 0xcc
000748   0021     dw      0x21             	dw 0x21
000749   0074     dw      0x74             	dw 0x74
00074a   0053     dw      0x53             	dw 0x53
00074b   0041     dw      0x41             	dw 0x41
00074c   0024     dw      0x24             	dw 0x24
00074d   0045     dw      0x45             	dw 0x45
00074e   00e0     dw      0xe0             	dw 0xe0
00074f   00a0     dw      0xa0             	dw 0xa0
000750   00c0     dw      0xc0             	dw 0xc0
000751   00ee     dw      0xee             	dw 0xee
000752   00ee     dw      0xee             	dw 0xee
000753   00ee     dw      0xee             	dw 0xee
000754   00ee     dw      0xee             	dw 0xee
000755   00ee     dw      0xee             	dw 0xee
000756   00ee     dw      0xee             	dw 0xee
000757   00ee     dw      0xee             	dw 0xee
000758   00ee     dw      0xee             	dw 0xee
000759   00ee     dw      0xee             	dw 0xee
00075a   00ee     dw      0xee             	dw 0xee
00075b   00aa     dw      0xaa             	dw 0xaa
00075c   00aa     dw      0xaa             	dw 0xaa
00075d   00aa     dw      0xaa             	dw 0xaa
00075e   00aa     dw      0xaa             	dw 0xaa
00075f   00aa     dw      0xaa             	dw 0xaa
000760   00aa     dw      0xaa             	dw 0xaa
000761   00aa     dw      0xaa             	dw 0xaa
000762   00aa     dw      0xaa             	dw 0xaa
000763   00aa     dw      0xaa             	dw 0xaa
000764   00aa     dw      0xaa             	dw 0xaa
000765   00cc     dw      0xcc             	dw 0xcc
000766   00cc     dw      0xcc             	dw 0xcc
000767   00cc     dw      0xcc             	dw 0xcc
000768   00cc     dw      0xcc             	dw 0xcc
000769   00cc     dw      0xcc             	dw 0xcc
00076a   00cc     dw      0xcc             	dw 0xcc
00076b   00cc     dw      0xcc             	dw 0xcc
00076c   00cc     dw      0xcc             	dw 0xcc
00076d   00cc     dw      0xcc             	dw 0xcc
00076e   00cc     dw      0xcc             	dw 0xcc
00076f   0017     dw      0x17             	dw 0x17
000770   0027     dw      0x27             	dw 0x27
000771   0047     dw      0x47             	dw 0x47
000772   0037     dw      0x37             	dw 0x37
000773   0057     dw      0x57             	dw 0x57
000774   0067     dw      0x67             	dw 0x67
000775   0077     dw      0x77             	dw 0x77
000776   0087     dw      0x87             	dw 0x87
000777   00a7     dw      0xa7             	dw 0xa7
000778   00c7     dw      0xc7             	dw 0xc7
000779   0011     deca                     	dw 0x11
00077a   0012     jza                      	dw 0x12
00077b   0022     dw      0x22             	dw 0x22
00077c   0024     dw      0x24             	dw 0x24
00077d   0044     dw      0x44             	dw 0x44
00077e   0014     rla                      	dw 0x14
00077f   0011     deca                     	dw 0x11
000780   0022     dw      0x22             	dw 0x22
000781   0044     dw      0x44             	dw 0x44
000782   0077     dw      0x77             	dw 0x77
000783   0033     dw      0x33             	dw 0x33
000784   0066     dw      0x66             	dw 0x66
000785   0055     dw      0x55             	dw 0x55
000786   0033     dw      0x33             	dw 0x33
000787   0066     dw      0x66             	dw 0x66
000788   0055     dw      0x55             	dw 0x55
000789   0033     dw      0x33             	dw 0x33
00078a   0066     dw      0x66             	dw 0x66
00078b   0055     dw      0x55             	dw 0x55
00078c   0033     dw      0x33             	dw 0x33
00078d   0066     dw      0x66             	dw 0x66
00078e   0055     dw      0x55             	dw 0x55
                                           
                                           
                                           ID_MC32F7361_2	code
                                           _section_1_speed_table
0007e5   000f     dw      0xf              	dw 0x0f
0007e6   000e     clrwdt                   	dw 0x0e
0007e7   000d     retie                    	dw 0x0d
0007e8   000c     return                   	dw 0x0c
                                           
                                           
                                           ID_MC32F7361_3	code
                                           _section_1_delay_table
0007bd   0010     djza                     	dw 0x10
0007be   0027     dw      0x27             	dw 0x27
0007bf   007e     dw      0x7e             	dw 0x7e
0007c0   001d     dw      0x1d             	dw 0x1d
0007c1   0023     dw      0x23             	dw 0x23
0007c2   0014     rla                      	dw 0x14
0007c3   00c8     dw      0xc8             	dw 0xc8
0007c4   000a     daa                      	dw 0x0a
                                           
                                           
                                           ID_MC32F7361_4	code
                                           _section_2_speed_table
0007e9   0000     nop                      	dw 0x00
0007ea   0000     nop                      	dw 0x00
0007eb   0000     nop                      	dw 0x00
0007ec   0000     nop                      	dw 0x00
                                           
                                           
                                           ID_MC32F7361_5	code
                                           _section_2_delay_table
0007c5   00a8     dw      0xa8             	dw 0xa8
0007c6   0007     dw      0x7              	dw 0x07
0007c7   00c4     dw      0xc4             	dw 0xc4
0007c8   0003     dw      0x3              	dw 0x03
0007c9   00d1     dw      0xd1             	dw 0xd1
0007ca   0001     dw      0x1              	dw 0x01
0007cb   00a5     dw      0xa5             	dw 0xa5
0007cc   0000     nop                      	dw 0x00
                                           
                                           
                                           ID_MC32F7361_6	code
                                           _section_3_speed_table
0007ed   0008     dw      0x8              	dw 0x08
0007ee   000a     daa                      	dw 0x0a
0007ef   0009     dsa                      	dw 0x09
0007f0   000b     stop                     	dw 0x0b
                                           
                                           
                                           ID_MC32F7361_7	code
                                           _section_5_speed_table
0007f1   0000     nop                      	dw 0x00
0007f2   0000     nop                      	dw 0x00
0007f3   0000     nop                      	dw 0x00
0007f4   0000     nop                      	dw 0x00
                                           
                                           
                                           ID_MC32F7361_8	code
                                           _section_5_delay_table
0007cd   00a8     dw      0xa8             	dw 0xa8
0007ce   0007     dw      0x7              	dw 0x07
0007cf   00c4     dw      0xc4             	dw 0xc4
0007d0   0003     dw      0x3              	dw 0x03
0007d1   00d1     dw      0xd1             	dw 0xd1
0007d2   0001     dw      0x1              	dw 0x01
0007d3   00a5     dw      0xa5             	dw 0xa5
0007d4   0000     nop                      	dw 0x00
                                           
                                           
                                           ID_MC32F7361_9	code
                                           _section_7_speed_table
0007f5   0007     dw      0x7              	dw 0x07
0007f6   0006     dw      0x6              	dw 0x06
0007f7   0005     dw      0x5              	dw 0x05
0007f8   0004     dw      0x4              	dw 0x04
                                           
                                           
                                           ID_MC32F7361_10	code
                                           _section_7_delay_table
0007d5   00b5     dw      0xb5             	dw 0xb5
0007d6   0015     rra                      	dw 0x15
0007d7   00d0     dw      0xd0             	dw 0xd0
0007d8   0011     deca                     	dw 0x11
0007d9   0020     dw      0x20             	dw 0x20
0007da   000d     retie                    	dw 0x0d
0007db   00d0     dw      0xd0             	dw 0xd0
0007dc   0007     dw      0x7              	dw 0x07
                                           
                                           
                                           ;@Allocation info for local variables in function 'delay_ms'
                                           ;@delay_ms delay_ms                  Allocated to registers ;size:2
                                           ;@delay_ms INDF0bits                 Allocated to registers ;size:1
                                           ;@delay_ms INDF1bits                 Allocated to registers ;size:1
                                           ;@delay_ms INDF2bits                 Allocated to registers ;size:1
                                           ;@delay_ms HIBYTEbits                Allocated to registers ;size:1
                                           ;@delay_ms FSR0bits                  Allocated to registers ;size:1
                                           ;@delay_ms FSR1bits                  Allocated to registers ;size:1
                                           ;@delay_ms PCLbits                   Allocated to registers ;size:1
                                           ;@delay_ms PFLAGbits                 Allocated to registers ;size:1
                                           ;@delay_ms MCRbits                   Allocated to registers ;size:1
                                           ;@delay_ms INDF3bits                 Allocated to registers ;size:1
                                           ;@delay_ms INTEbits                  Allocated to registers ;size:1
                                           ;@delay_ms INTFbits                  Allocated to registers ;size:1
                                           ;@delay_ms DRVCRbits                 Allocated to registers ;size:1
                                           ;@delay_ms P0KBCRbits                Allocated to registers ;size:1
                                           ;@delay_ms P1KBCRbits                Allocated to registers ;size:1
                                           ;@delay_ms P2KBCRbits                Allocated to registers ;size:1
                                           ;@delay_ms IOP0bits                  Allocated to registers ;size:1
                                           ;@delay_ms OEP0bits                  Allocated to registers ;size:1
                                           ;@delay_ms PUP0bits                  Allocated to registers ;size:1
                                           ;@delay_ms PDP0bits                  Allocated to registers ;size:1
                                           ;@delay_ms IOP1bits                  Allocated to registers ;size:1
                                           ;@delay_ms OEP1bits                  Allocated to registers ;size:1
                                           ;@delay_ms PUP1bits                  Allocated to registers ;size:1
                                           ;@delay_ms PDP1bits                  Allocated to registers ;size:1
                                           ;@delay_ms T0CRbits                  Allocated to registers ;size:1
                                           ;@delay_ms T0CNTbits                 Allocated to registers ;size:1
                                           ;@delay_ms T0LOADbits                Allocated to registers ;size:1
                                           ;@delay_ms T0DATAbits                Allocated to registers ;size:1
                                           ;@delay_ms T1CRbits                  Allocated to registers ;size:1
                                           ;@delay_ms T1CNTbits                 Allocated to registers ;size:1
                                           ;@delay_ms T1LOADbits                Allocated to registers ;size:1
                                           ;@delay_ms T1DATAbits                Allocated to registers ;size:1
                                           ;@delay_ms T2CRbits                  Allocated to registers ;size:1
                                           ;@delay_ms T2CNTbits                 Allocated to registers ;size:1
                                           ;@delay_ms T2LOADbits                Allocated to registers ;size:1
                                           ;@delay_ms T2DATAbits                Allocated to registers ;size:1
                                           ;@delay_ms T3CRbits                  Allocated to registers ;size:1
                                           ;@delay_ms T3CNTbits                 Allocated to registers ;size:1
                                           ;@delay_ms T3LOADbits                Allocated to registers ;size:1
                                           ;@delay_ms PWM0DRbits                Allocated to registers ;size:1
                                           ;@delay_ms PWM1DRbits                Allocated to registers ;size:1
                                           ;@delay_ms PWM2DRbits                Allocated to registers ;size:1
                                           ;@delay_ms PWMCR0bits                Allocated to registers ;size:1
                                           ;@delay_ms PWMCR1bits                Allocated to registers ;size:1
                                           ;@delay_ms OSCMRbits                 Allocated to registers ;size:1
                                           ;@delay_ms LVDCRbits                 Allocated to registers ;size:1
                                           ;@delay_ms ADCR0bits                 Allocated to registers ;size:1
                                           ;@delay_ms ADCR1bits                 Allocated to registers ;size:1
                                           ;@delay_ms ADCR2bits                 Allocated to registers ;size:1
                                           ;@delay_ms OSADJCRbits               Allocated to registers ;size:1
                                           ;@delay_ms ADRHbits                  Allocated to registers ;size:1
                                           ;@delay_ms ADRLbits                  Allocated to registers ;size:1
                                           ;@delay_ms P0ADCRbits                Allocated to registers ;size:1
                                           ;@delay_ms P1ADCRbits                Allocated to registers ;size:1
                                           ;@delay_ms IOP2bits                  Allocated to registers ;size:1
                                           ;@delay_ms OEP2bits                  Allocated to registers ;size:1
                                           ;@delay_ms PUP2bits                  Allocated to registers ;size:1
                                           ;@delay_ms PDP2bits                  Allocated to registers ;size:1
                                           ;@delay_ms PMODbits                  Allocated to registers ;size:1
                                           ;@delay_ms PWMCR3bits                Allocated to registers ;size:1
                                           ;@delay_ms PWMCR2bits                Allocated to registers ;size:1
                                           ;@delay_ms PFRCCRbits                Allocated to registers ;size:1
                                           ;@delay_ms PFRCCALbits               Allocated to registers ;size:1
                                           ;@delay_ms EECRbits                  Allocated to registers ;size:1
                                           ;@delay_ms EEPRbits                  Allocated to registers ;size:1
                                           ;@delay_ms EEARbits                  Allocated to registers ;size:1
                                           ;@delay_ms EEDRHbits                 Allocated to registers ;size:1
                                           ;@delay_ms EEDRLbits                 Allocated to registers ;size:1
                                           ;@delay_ms DBGCRbits                 Allocated to registers ;size:1
                                           ;@delay_ms DBGPRbits                 Allocated to registers ;size:1
                                           ;@delay_ms HIRCCALbits               Allocated to registers ;size:1
                                           ;@delay_ms abuf                      Allocated to registers ;size:1
                                           ;@delay_ms statusbuf                 Allocated to registers ;size:1
                                           ;@delay_ms flag1                     Allocated to registers ;size:1
                                           ;@delay_ms ir_data                   Allocated to registers ;size:1
                                           ;@delay_ms xms                       Allocated to registers ;size:2
                                           ;@delay_ms i                         Allocated to registers r0x1018 r0x1019 ;size:2
                                           ;@delay_ms INDF0                     Allocated to registers ;size:1
                                           ;@delay_ms INDF1                     Allocated to registers ;size:1
                                           ;@delay_ms INDF2                     Allocated to registers ;size:1
                                           ;@delay_ms HIBYTE                    Allocated to registers ;size:1
                                           ;@delay_ms FSR0                      Allocated to registers ;size:1
                                           ;@delay_ms FSR1                      Allocated to registers ;size:1
                                           ;@delay_ms PCL                       Allocated to registers ;size:1
                                           ;@delay_ms PFLAG                     Allocated to registers ;size:1
                                           ;@delay_ms MCR                       Allocated to registers ;size:1
                                           ;@delay_ms INDF3                     Allocated to registers ;size:1
                                           ;@delay_ms INTE                      Allocated to registers ;size:1
                                           ;@delay_ms INTF                      Allocated to registers ;size:1
                                           ;@delay_ms DRVCR                     Allocated to registers ;size:1
                                           ;@delay_ms P0KBCR                    Allocated to registers ;size:1
                                           ;@delay_ms P1KBCR                    Allocated to registers ;size:1
                                           ;@delay_ms P2KBCR                    Allocated to registers ;size:1
                                           ;@delay_ms IOP0                      Allocated to registers ;size:1
                                           ;@delay_ms OEP0                      Allocated to registers ;size:1
                                           ;@delay_ms PUP0                      Allocated to registers ;size:1
                                           ;@delay_ms PDP0                      Allocated to registers ;size:1
                                           ;@delay_ms IOP1                      Allocated to registers ;size:1
                                           ;@delay_ms OEP1                      Allocated to registers ;size:1
                                           ;@delay_ms PUP1                      Allocated to registers ;size:1
                                           ;@delay_ms PDP1                      Allocated to registers ;size:1
                                           ;@delay_ms T0CR                      Allocated to registers ;size:1
                                           ;@delay_ms T0CNT                     Allocated to registers ;size:1
                                           ;@delay_ms T0LOAD                    Allocated to registers ;size:1
                                           ;@delay_ms T0DATA                    Allocated to registers ;size:1
                                           ;@delay_ms T1CR                      Allocated to registers ;size:1
                                           ;@delay_ms T1CNT                     Allocated to registers ;size:1
                                           ;@delay_ms T1LOAD                    Allocated to registers ;size:1
                                           ;@delay_ms T1DATA                    Allocated to registers ;size:1
                                           ;@delay_ms T2CR                      Allocated to registers ;size:1
                                           ;@delay_ms T2CNT                     Allocated to registers ;size:1
                                           ;@delay_ms T2LOAD                    Allocated to registers ;size:1
                                           ;@delay_ms T2DATA                    Allocated to registers ;size:1
                                           ;@delay_ms T3CR                      Allocated to registers ;size:1
                                           ;@delay_ms T3CNT                     Allocated to registers ;size:1
                                           ;@delay_ms T3LOAD                    Allocated to registers ;size:1
                                           ;@delay_ms PWM0DR                    Allocated to registers ;size:1
                                           ;@delay_ms PWM1DR                    Allocated to registers ;size:1
                                           ;@delay_ms PWM2DR                    Allocated to registers ;size:1
                                           ;@delay_ms PWMCR0                    Allocated to registers ;size:1
                                           ;@delay_ms PWMCR1                    Allocated to registers ;size:1
                                           ;@delay_ms OSCMR                     Allocated to registers ;size:1
                                           ;@delay_ms LVDCR                     Allocated to registers ;size:1
                                           ;@delay_ms ADCR0                     Allocated to registers ;size:1
                                           ;@delay_ms ADCR1                     Allocated to registers ;size:1
                                           ;@delay_ms ADCR2                     Allocated to registers ;size:1
                                           ;@delay_ms OSADJCR                   Allocated to registers ;size:1
                                           ;@delay_ms ADRH                      Allocated to registers ;size:1
                                           ;@delay_ms ADRL                      Allocated to registers ;size:1
                                           ;@delay_ms P0ADCR                    Allocated to registers ;size:1
                                           ;@delay_ms P1ADCR                    Allocated to registers ;size:1
                                           ;@delay_ms IOP2                      Allocated to registers ;size:1
                                           ;@delay_ms OEP2                      Allocated to registers ;size:1
                                           ;@delay_ms PUP2                      Allocated to registers ;size:1
                                           ;@delay_ms PDP2                      Allocated to registers ;size:1
                                           ;@delay_ms PMOD                      Allocated to registers ;size:1
                                           ;@delay_ms PWMCR3                    Allocated to registers ;size:1
                                           ;@delay_ms PWMCR2                    Allocated to registers ;size:1
                                           ;@delay_ms PFRCCR                    Allocated to registers ;size:1
                                           ;@delay_ms PFRCCAL                   Allocated to registers ;size:1
                                           ;@delay_ms EECR                      Allocated to registers ;size:1
                                           ;@delay_ms EEPR                      Allocated to registers ;size:1
                                           ;@delay_ms EEAR                      Allocated to registers ;size:1
                                           ;@delay_ms EEDRH                     Allocated to registers ;size:1
                                           ;@delay_ms EEDRL                     Allocated to registers ;size:1
                                           ;@delay_ms DBGCR                     Allocated to registers ;size:1
                                           ;@delay_ms DBGPR                     Allocated to registers ;size:1
                                           ;@delay_ms HIRCCAL                   Allocated to registers ;size:1
                                           ;@end Allocation info for local variables in function 'delay_ms';
                                           ;@Allocation info for local variables in function 'delay_100us'
                                           ;@delay_100us i                         Allocated to registers r0x1016 ;size:1
                                           ;@end Allocation info for local variables in function 'delay_100us';
                                           ;@Allocation info for local variables in function 'delay_200us'
                                           ;@delay_200us i                         Allocated to registers r0x1036 ;size:1
                                           ;@end Allocation info for local variables in function 'delay_200us';
                                           ;@Allocation info for local variables in function 'delay_1_4ms'
                                           ;@delay_1_4ms i                         Allocated to registers r0x1018 ;size:1
                                           ;@end Allocation info for local variables in function 'delay_1_4ms';
                                           ;@Allocation info for local variables in function 'EEPROM_Write_Byte'
                                           ;@EEPROM_Write_Byte data                      Allocated to registers r0x1017 r0x1016 ;size:2
                                           ;@EEPROM_Write_Byte addr                      Allocated to registers ;size:1
                                           ;@end Allocation info for local variables in function 'EEPROM_Write_Byte';
                                           ;@Allocation info for local variables in function 'EEPROM_Read_Byte'
                                           ;@EEPROM_Read_Byte addr                      Allocated to registers ;size:1
                                           ;@EEPROM_Read_Byte EEDR                      Allocated to registers r0x1019 r0x1018 ;size:2
                                           ;@end Allocation info for local variables in function 'EEPROM_Read_Byte';
                                           ;@Allocation info for local variables in function 'send_cmd_16bit'
                                           ;@send_cmd_16bit data                      Allocated to registers r0x101D r0x101C ;size:2
                                           ;@send_cmd_16bit i                         Allocated to registers r0x101E ;size:1
                                           ;@end Allocation info for local variables in function 'send_cmd_16bit';
                                           ;@Allocation info for local variables in function 'send_cmd_16bit_without_delay'
                                           ;@send_cmd_16bit_without_delay data                      Allocated to registers r0x1031 r0x1030 ;size:2
                                           ;@send_cmd_16bit_without_delay i                         Allocated to registers r0x1032 ;size:1
                                           ;@end Allocation info for local variables in function 'send_cmd_16bit_without_delay';
                                           ;@Allocation info for local variables in function 'CLR_RAM'
                                           ;@end Allocation info for local variables in function 'CLR_RAM';
                                           ;@Allocation info for local variables in function 'IO_Init'
                                           ;@end Allocation info for local variables in function 'IO_Init';
                                           ;@Allocation info for local variables in function 'TIMER2_INT_Init'
                                           ;@end Allocation info for local variables in function 'TIMER2_INT_Init';
                                           ;@Allocation info for local variables in function 'TIMER3_INT_Init'
                                           ;@end Allocation info for local variables in function 'TIMER3_INT_Init';
                                           ;@Allocation info for local variables in function 'Sys_Init'
                                           ;@end Allocation info for local variables in function 'Sys_Init';
                                           ;@Allocation info for local variables in function 'key_event_same_deal'
                                           ;@key_event_same_deal own_data2                 Allocated to registers r0x1027 r0x1026 ;size:2
                                           ;@key_event_same_deal own_data1                 Allocated to registers r0x1025 r0x1024 ;size:2
                                           ;@key_event_same_deal end                       Allocated to registers r0x1023 ;size:1
                                           ;@key_event_same_deal start                     Allocated to registers r0x1022 ;size:1
                                           ;@end Allocation info for local variables in function 'key_event_same_deal';
                                           ;@Allocation info for local variables in function 'main'
                                           ;@main speed_code                Allocated to registers r0x102B r0x102A ;size:2
                                           ;@main sloc0                     Allocated to registers ;size:2
                                           ;@end Allocation info for local variables in function 'main';
                                           ;@Allocation info for local variables in function 'int_isr'
                                           ;@int_isr ir_level_cnt              Allocated to registers ;size:2
                                           ;@int_isr __ir_data                 Allocated to registers ;size:1
                                           ;@int_isr key_press_cnt             Allocated to registers ;size:2
                                           ;@end Allocation info for local variables in function 'int_isr';
                                           
                                           ;--------------------------------------------------------
                                           ; overlayable items in internal ram 
                                           ;--------------------------------------------------------
                                           ;	udata_ovr
                                           ;--------------------------------------------------------
                                           ; reset vector 
                                           ;--------------------------------------------------------
                                           STARTUP	code 0x0000
000000   a0e6     goto    0xe6             	goto	_main
                                           ;--------------------------------------------------------
                                           ; interrupt and initialization code
                                           ;--------------------------------------------------------
                                           c_interrupt	code	0x8
                                           __sdcc_interrupt
                                           ;***
                                           ;  pBlock Stats: dbName = I
                                           ;***
                                           ;entry:  _int_isr	;Function start
                                           ; 0 exit points
                                           ;2 compiler assigned registers:
                                           ;   r0x1038
                                           ;   r0x1039
                                           ;; Starting pCode block
                                           _int_isr	;Function start
                                           ; 0 exit points
                                           ;	.line	1021; "MC32F7361.c"	__endasm;
                                           	;
000008   5638     movra   0x38             	movra	_abuf;
000009   4587     swapar  0x187            	swapar	_PFLAG;
00000a   5639     movra   0x39             	movra	_statusbuf;
                                           	
                                           ;	.line	1035; "MC32F7361.c"	if (T2IF & T2IE)
00000b   7629     clrr    0x29             	CLRR	r0x1038
00000c   fb8b     jbclr   0x18b, 0x5       	JBCLR	_INTFbits,5
00000d   6629     incr    0x29             	INCR	r0x1038
00000e   762a     clrr    0x2a             	CLRR	r0x1039
00000f   fb8a     jbclr   0x18a, 0x5       	JBCLR	_INTEbits,5
000010   662a     incr    0x2a             	INCR	r0x1039
000011   582a     movar   0x2a             	MOVAR	r0x1039
000012   7a29     andra   0x29             	ANDRA	r0x1038
000013   3c00     movai   0                	MOVAI	0x00
000014   5c29     orar    0x29             	ORAR	r0x1038
000015   f587     jbclr   0x187, 0x2       	JBCLR	PFLAG,2
000016   a0aa     goto    0xaa             	GOTO	_00764_DS_
                                           ;	.line	1037; "MC32F7361.c"	T2IF = 0;
000017   db8b     bclr    0x18b, 0x5       	BCLR	_INTFbits,5
                                           ;;swapping arguments (AOP_TYPEs 1/3)
                                           ;;unsigned compare: left >= lit(0x515=1301), size=2
                                           ;	.line	1048; "MC32F7361.c"	if (ir_level_cnt <= 1300)
000018   3c05     movai   0x5              	MOVAI	0x05
000019   482e     rsubar  0x2e             	RSUBAR	(_int_isr_ir_level_cnt_196608_75 + 1)
00001a   e587     jbset   0x187, 0x2       	JBSET	PFLAG,2
00001b   a01e     goto    0x1e             	GOTO	_00868_DS_
00001c   3c15     movai   0x15             	MOVAI	0x15
00001d   482d     rsubar  0x2d             	RSUBAR	_int_isr_ir_level_cnt_196608_75
                                           _00868_DS_
00001e   f187     jbclr   0x187, 0         	JBCLR	PFLAG,0
00001f   a023     goto    0x23             	GOTO	_00724_DS_
                                           ;;genSkipc:3291: created from rifx:013B5EFC
                                           ;	.line	1049; "MC32F7361.c"	ir_level_cnt++;
000020   662d     incr    0x2d             	INCR	_int_isr_ir_level_cnt_196608_75
000021   f587     jbclr   0x187, 0x2       	JBCLR	PFLAG,2
000022   662e     incr    0x2e             	INCR	(_int_isr_ir_level_cnt_196608_75 + 1)
                                           _00724_DS_
                                           ;	.line	1064; "MC32F7361.c"	if (IR_RECV_PIN)
000023   eb94     jbset   0x194, 0x5       	JBSET	_IOP1bits,5
000024   a03a     goto    0x3a             	GOTO	_00750_DS_
                                           ;	.line	1066; "MC32F7361.c"	last_level_in_ir_pin = 1; // 
000025   c43a     bset    0x3a, 0x2        	BSET	_flag1,2
                                           ;;swapping arguments (AOP_TYPEs 1/3)
                                           ;;unsigned compare: left >= lit(0x4B1=1201), size=2
                                           ;	.line	1069; "MC32F7361.c"	if (ir_level_cnt > 1200) // (120000us,120ms)
000026   3c04     movai   0x4              	MOVAI	0x04
000027   482e     rsubar  0x2e             	RSUBAR	(_int_isr_ir_level_cnt_196608_75 + 1)
000028   e587     jbset   0x187, 0x2       	JBSET	PFLAG,2
000029   a02c     goto    0x2c             	GOTO	_00869_DS_
00002a   3cb1     movai   0xb1             	MOVAI	0xb1
00002b   482d     rsubar  0x2d             	RSUBAR	_int_isr_ir_level_cnt_196608_75
                                           _00869_DS_
00002c   e187     jbset   0x187, 0         	JBSET	PFLAG,0
00002d   a07b     goto    0x7b             	GOTO	_00751_DS_
                                           ;;genSkipc:3291: created from rifx:013B5EFC
                                           ;	.line	1072; "MC32F7361.c"	if (__ir_data != 0) // (__ir_data)
00002e   3c00     movai   0                	MOVAI	0x00
00002f   5c2f     orar    0x2f             	ORAR	_int_isr___ir_data_196608_75
000030   f587     jbclr   0x187, 0x2       	JBCLR	PFLAG,2
000031   a038     goto    0x38             	GOTO	_00728_DS_
                                           ;	.line	1081; "MC32F7361.c"	if (0 == flag_is_recved_data)
000032   f03a     jbclr   0x3a, 0          	JBCLR	_flag1,0
000033   a038     goto    0x38             	GOTO	_00728_DS_
                                           ;	.line	1083; "MC32F7361.c"	ir_data = ~__ir_data;
000034   702f     comar   0x2f             	COMAR	_int_isr___ir_data_196608_75
000035   563b     movra   0x3b             	MOVRA	_ir_data
                                           ;	.line	1084; "MC32F7361.c"	__ir_data = 0;
000036   762f     clrr    0x2f             	CLRR	_int_isr___ir_data_196608_75
                                           ;	.line	1085; "MC32F7361.c"	flag_is_recved_data = 1;
000037   c03a     bset    0x3a, 0          	BSET	_flag1,0
                                           _00728_DS_
                                           ;	.line	1089; "MC32F7361.c"	flag_is_recv_ir_repeat_code = 0; // 
000038   d83a     bclr    0x3a, 0x4        	BCLR	_flag1,4
000039   a07b     goto    0x7b             	GOTO	_00751_DS_
                                           _00750_DS_
                                           ;	.line	1094; "MC32F7361.c"	if (last_level_in_ir_pin)
00003a   e43a     jbset   0x3a, 0x2        	JBSET	_flag1,2
00003b   a07a     goto    0x7a             	GOTO	_00748_DS_
                                           ;;swapping arguments (AOP_TYPEs 1/3)
                                           ;;unsigned compare: left >= lit(0x9=9), size=2
                                           ;	.line	1097; "MC32F7361.c"	if (ir_level_cnt <= 8) // 800us
00003c   3c00     movai   0                	MOVAI	0x00
00003d   482e     rsubar  0x2e             	RSUBAR	(_int_isr_ir_level_cnt_196608_75 + 1)
00003e   e587     jbset   0x187, 0x2       	JBSET	PFLAG,2
00003f   a042     goto    0x42             	GOTO	_00870_DS_
000040   3c09     movai   0x9              	MOVAI	0x09
000041   482d     rsubar  0x2d             	RSUBAR	_int_isr_ir_level_cnt_196608_75
                                           _00870_DS_
000042   e187     jbset   0x187, 0         	JBSET	PFLAG,0
000043   a078     goto    0x78             	GOTO	_00746_DS_
                                           ;;genSkipc:3291: created from rifx:013B5EFC
                                           ;;swapping arguments (AOP_TYPEs 1/3)
                                           ;;unsigned compare: left >= lit(0x13=19), size=2
                                           ;	.line	1102; "MC32F7361.c"	else if (ir_level_cnt <= 18) // 1800us,0
000044   3c00     movai   0                	MOVAI	0x00
000045   482e     rsubar  0x2e             	RSUBAR	(_int_isr_ir_level_cnt_196608_75 + 1)
000046   e587     jbset   0x187, 0x2       	JBSET	PFLAG,2
000047   a04a     goto    0x4a             	GOTO	_00871_DS_
000048   3c13     movai   0x13             	MOVAI	0x13
000049   482d     rsubar  0x2d             	RSUBAR	_int_isr_ir_level_cnt_196608_75
                                           _00871_DS_
00004a   f187     jbclr   0x187, 0         	JBCLR	PFLAG,0
00004b   a052     goto    0x52             	GOTO	_00742_DS_
                                           ;;genSkipc:3291: created from rifx:013B5EFC
                                           ;	.line	1104; "MC32F7361.c"	__ir_data <<= 1;
00004c   582f     movar   0x2f             	MOVAR	_int_isr___ir_data_196608_75
00004d   5629     movra   0x29             	MOVRA	r0x1038
00004e   d187     bclr    0x187, 0         	BCLR	PFLAG,0
00004f   5029     rlar    0x29             	RLAR	r0x1038
000050   562f     movra   0x2f             	MOVRA	_int_isr___ir_data_196608_75
000051   a078     goto    0x78             	GOTO	_00746_DS_
                                           ;;swapping arguments (AOP_TYPEs 1/3)
                                           ;;unsigned compare: left >= lit(0x1B=27), size=2
                                           _00742_DS_
                                           ;	.line	1109; "MC32F7361.c"	else if (ir_level_cnt <= 26) // 2600us,1
000052   3c00     movai   0                	MOVAI	0x00
000053   482e     rsubar  0x2e             	RSUBAR	(_int_isr_ir_level_cnt_196608_75 + 1)
000054   e587     jbset   0x187, 0x2       	JBSET	PFLAG,2
000055   a058     goto    0x58             	GOTO	_00872_DS_
000056   3c1b     movai   0x1b             	MOVAI	0x1b
000057   482d     rsubar  0x2d             	RSUBAR	_int_isr_ir_level_cnt_196608_75
                                           _00872_DS_
000058   f187     jbclr   0x187, 0         	JBCLR	PFLAG,0
000059   a061     goto    0x61             	GOTO	_00739_DS_
                                           ;;genSkipc:3291: created from rifx:013B5EFC
                                           ;	.line	1111; "MC32F7361.c"	__ir_data <<= 1;
00005a   582f     movar   0x2f             	MOVAR	_int_isr___ir_data_196608_75
00005b   5629     movra   0x29             	MOVRA	r0x1038
00005c   d187     bclr    0x187, 0         	BCLR	PFLAG,0
00005d   5029     rlar    0x29             	RLAR	r0x1038
00005e   562f     movra   0x2f             	MOVRA	_int_isr___ir_data_196608_75
                                           ;	.line	1112; "MC32F7361.c"	__ir_data |= 0x01;
00005f   c02f     bset    0x2f, 0          	BSET	_int_isr___ir_data_196608_75,0
000060   a078     goto    0x78             	GOTO	_00746_DS_
                                           ;;swapping arguments (AOP_TYPEs 1/3)
                                           ;;unsigned compare: left >= lit(0x97=151), size=2
                                           _00739_DS_
                                           ;	.line	1116; "MC32F7361.c"	else if (ir_level_cnt <= 150) // 15000us,
000061   3c00     movai   0                	MOVAI	0x00
000062   482e     rsubar  0x2e             	RSUBAR	(_int_isr_ir_level_cnt_196608_75 + 1)
000063   e587     jbset   0x187, 0x2       	JBSET	PFLAG,2
000064   a067     goto    0x67             	GOTO	_00873_DS_
000065   3c97     movai   0x97             	MOVAI	0x97
000066   482d     rsubar  0x2d             	RSUBAR	_int_isr_ir_level_cnt_196608_75
                                           _00873_DS_
000067   e187     jbset   0x187, 0         	JBSET	PFLAG,0
000068   a078     goto    0x78             	GOTO	_00746_DS_
                                           ;;genSkipc:3291: created from rifx:013B5EFC
                                           ;;swapping arguments (AOP_TYPEs 1/3)
                                           ;;unsigned compare: left >= lit(0x1A5=421), size=2
                                           ;	.line	1121; "MC32F7361.c"	else if (ir_level_cnt <= 420) // 42ms,
000069   3c01     movai   0x1              	MOVAI	0x01
00006a   482e     rsubar  0x2e             	RSUBAR	(_int_isr_ir_level_cnt_196608_75 + 1)
00006b   e587     jbset   0x187, 0x2       	JBSET	PFLAG,2
00006c   a06f     goto    0x6f             	GOTO	_00874_DS_
00006d   3ca5     movai   0xa5             	MOVAI	0xa5
00006e   482d     rsubar  0x2d             	RSUBAR	_int_isr_ir_level_cnt_196608_75
                                           _00874_DS_
00006f   f187     jbclr   0x187, 0         	JBCLR	PFLAG,0
000070   a078     goto    0x78             	GOTO	_00746_DS_
                                           ;;genSkipc:3291: created from rifx:013B5EFC
                                           ;	.line	1132; "MC32F7361.c"	if (0 == flag_is_recved_data)
000071   f03a     jbclr   0x3a, 0          	JBCLR	_flag1,0
000072   a078     goto    0x78             	GOTO	_00746_DS_
                                           ;	.line	1134; "MC32F7361.c"	ir_data = ~__ir_data;
000073   702f     comar   0x2f             	COMAR	_int_isr___ir_data_196608_75
000074   563b     movra   0x3b             	MOVRA	_ir_data
                                           ;	.line	1135; "MC32F7361.c"	__ir_data = 0;
000075   762f     clrr    0x2f             	CLRR	_int_isr___ir_data_196608_75
                                           ;	.line	1136; "MC32F7361.c"	flag_is_recved_data = 1;
000076   c03a     bset    0x3a, 0          	BSET	_flag1,0
                                           ;	.line	1137; "MC32F7361.c"	flag_is_recv_ir_repeat_code = 1; //
000077   c83a     bset    0x3a, 0x4        	BSET	_flag1,4
                                           _00746_DS_
                                           ;	.line	1151; "MC32F7361.c"	ir_level_cnt = 0;
000078   762d     clrr    0x2d             	CLRR	_int_isr_ir_level_cnt_196608_75
000079   762e     clrr    0x2e             	CLRR	(_int_isr_ir_level_cnt_196608_75 + 1)
                                           _00748_DS_
                                           ;	.line	1154; "MC32F7361.c"	last_level_in_ir_pin = 0; // 
00007a   d43a     bclr    0x3a, 0x2        	BCLR	_flag1,2
                                           _00751_DS_
                                           ;	.line	1161; "MC32F7361.c"	if (0 == MECHANICAL_KEYING_PIN)
00007b   fd94     jbclr   0x194, 0x6       	JBCLR	_IOP1bits,6
00007c   a095     goto    0x95             	GOTO	_00761_DS_
                                           ;	.line	1164; "MC32F7361.c"	if (key_press_cnt == 10000) // 
00007d   5830     movar   0x30             	MOVAR	_int_isr_key_press_cnt_196608_89
00007e   3910     xorai   0x10             	XORAI	0x10
00007f   e587     jbset   0x187, 0x2       	JBSET	PFLAG,2
000080   a089     goto    0x89             	GOTO	_00755_DS_
000081   5831     movar   0x31             	MOVAR	(_int_isr_key_press_cnt_196608_89 + 1)
000082   3927     xorai   0x27             	XORAI	0x27
000083   e587     jbset   0x187, 0x2       	JBSET	PFLAG,2
000084   a089     goto    0x89             	GOTO	_00755_DS_
                                           ;	.line	1166; "MC32F7361.c"	ir_data = IR_KEY_OFF;
000085   3cb8     movai   0xb8             	MOVAI	0xb8
000086   563b     movra   0x3b             	MOVRA	_ir_data
                                           ;	.line	1167; "MC32F7361.c"	flag_is_recved_data = 1;
000087   c03a     bset    0x3a, 0          	BSET	_flag1,0
000088   a0aa     goto    0xaa             	GOTO	_00764_DS_
                                           ;;unsigned compare: left < lit(0x2710=10000), size=2
                                           _00755_DS_
                                           ;	.line	1169; "MC32F7361.c"	else if (key_press_cnt < 10000)
000089   3c27     movai   0x27             	MOVAI	0x27
00008a   4831     rsubar  0x31             	RSUBAR	(_int_isr_key_press_cnt_196608_89 + 1)
00008b   e587     jbset   0x187, 0x2       	JBSET	PFLAG,2
00008c   a08f     goto    0x8f             	GOTO	_00875_DS_
00008d   3c10     movai   0x10             	MOVAI	0x10
00008e   4830     rsubar  0x30             	RSUBAR	_int_isr_key_press_cnt_196608_89
                                           _00875_DS_
00008f   f187     jbclr   0x187, 0         	JBCLR	PFLAG,0
000090   a0aa     goto    0xaa             	GOTO	_00764_DS_
                                           ;;genSkipc:3291: created from rifx:013B5EFC
                                           ;	.line	1171; "MC32F7361.c"	key_press_cnt++;
000091   6630     incr    0x30             	INCR	_int_isr_key_press_cnt_196608_89
000092   f587     jbclr   0x187, 0x2       	JBCLR	PFLAG,2
000093   6631     incr    0x31             	INCR	(_int_isr_key_press_cnt_196608_89 + 1)
000094   a0aa     goto    0xaa             	GOTO	_00764_DS_
                                           ;;unsigned compare: left < lit(0x64=100), size=2
                                           _00761_DS_
                                           ;	.line	1176; "MC32F7361.c"	if (key_press_cnt >= 100 &&key_press_cnt < 10000) // 
000095   3c00     movai   0                	MOVAI	0x00
000096   4831     rsubar  0x31             	RSUBAR	(_int_isr_key_press_cnt_196608_89 + 1)
000097   e587     jbset   0x187, 0x2       	JBSET	PFLAG,2
000098   a09b     goto    0x9b             	GOTO	_00876_DS_
000099   3c64     movai   0x64             	MOVAI	0x64
00009a   4830     rsubar  0x30             	RSUBAR	_int_isr_key_press_cnt_196608_89
                                           _00876_DS_
00009b   e187     jbset   0x187, 0         	JBSET	PFLAG,0
00009c   a0a8     goto    0xa8             	GOTO	_00758_DS_
                                           ;;genSkipc:3291: created from rifx:013B5EFC
                                           ;;unsigned compare: left < lit(0x2710=10000), size=2
00009d   3c27     movai   0x27             	MOVAI	0x27
00009e   4831     rsubar  0x31             	RSUBAR	(_int_isr_key_press_cnt_196608_89 + 1)
00009f   e587     jbset   0x187, 0x2       	JBSET	PFLAG,2
0000a0   a0a3     goto    0xa3             	GOTO	_00877_DS_
0000a1   3c10     movai   0x10             	MOVAI	0x10
0000a2   4830     rsubar  0x30             	RSUBAR	_int_isr_key_press_cnt_196608_89
                                           _00877_DS_
0000a3   f187     jbclr   0x187, 0         	JBCLR	PFLAG,0
0000a4   a0a8     goto    0xa8             	GOTO	_00758_DS_
                                           ;;genSkipc:3291: created from rifx:013B5EFC
                                           ;	.line	1178; "MC32F7361.c"	ir_data = IR_MECHANICAL_KEYING;
0000a5   3c01     movai   0x1              	MOVAI	0x01
0000a6   563b     movra   0x3b             	MOVRA	_ir_data
                                           ;	.line	1179; "MC32F7361.c"	flag_is_recved_data = 1;
0000a7   c03a     bset    0x3a, 0          	BSET	_flag1,0
                                           _00758_DS_
                                           ;	.line	1182; "MC32F7361.c"	key_press_cnt = 0;
0000a8   7630     clrr    0x30             	CLRR	_int_isr_key_press_cnt_196608_89
0000a9   7631     clrr    0x31             	CLRR	(_int_isr_key_press_cnt_196608_89 + 1)
                                           _00764_DS_
                                           ;	.line	1239; "MC32F7361.c"	if (T3IF & T3IE)
0000aa   7629     clrr    0x29             	CLRR	r0x1038
0000ab   ff8b     jbclr   0x18b, 0x7       	JBCLR	_INTFbits,7
0000ac   6629     incr    0x29             	INCR	r0x1038
0000ad   762a     clrr    0x2a             	CLRR	r0x1039
0000ae   ff8a     jbclr   0x18a, 0x7       	JBCLR	_INTEbits,7
0000af   662a     incr    0x2a             	INCR	r0x1039
0000b0   582a     movar   0x2a             	MOVAR	r0x1039
0000b1   7a29     andra   0x29             	ANDRA	r0x1038
0000b2   3c00     movai   0                	MOVAI	0x00
0000b3   5c29     orar    0x29             	ORAR	r0x1038
0000b4   f587     jbclr   0x187, 0x2       	JBCLR	PFLAG,2
0000b5   a0e1     goto    0xe1             	GOTO	_00773_DS_
                                           ;	.line	1241; "MC32F7361.c"	T3IF = 0;
0000b6   df8b     bclr    0x18b, 0x7       	BCLR	_INTFbits,7
                                           ;	.line	1245; "MC32F7361.c"	if (next_frame_delay > 0 && next_frame_delay < 0xFFFF)
0000b7   5836     movar   0x36             	MOVAR	_next_frame_delay
0000b8   5c37     orar    0x37             	ORAR	(_next_frame_delay + 1)
0000b9   f587     jbclr   0x187, 0x2       	JBCLR	PFLAG,2
0000ba   a0c7     goto    0xc7             	GOTO	_00766_DS_
                                           ;;unsigned compare: left < lit(0xFFFF=65535), size=2
0000bb   3cff     movai   0xff             	MOVAI	0xff
0000bc   4837     rsubar  0x37             	RSUBAR	(_next_frame_delay + 1)
0000bd   e587     jbset   0x187, 0x2       	JBSET	PFLAG,2
0000be   a0c1     goto    0xc1             	GOTO	_00878_DS_
0000bf   3cff     movai   0xff             	MOVAI	0xff
0000c0   4836     rsubar  0x36             	RSUBAR	_next_frame_delay
                                           _00878_DS_
0000c1   f187     jbclr   0x187, 0         	JBCLR	PFLAG,0
0000c2   a0c7     goto    0xc7             	GOTO	_00766_DS_
                                           ;;genSkipc:3291: created from rifx:013B5EFC
                                           ;	.line	1247; "MC32F7361.c"	next_frame_delay--;
0000c3   3cff     movai   0xff             	MOVAI	0xff
0000c4   7e36     addra   0x36             	ADDRA	_next_frame_delay
0000c5   e187     jbset   0x187, 0         	JBSET	PFLAG,0
0000c6   6e37     decr    0x37             	DECR	(_next_frame_delay + 1)
                                           _00766_DS_
                                           ;	.line	1252; "MC32F7361.c"	if (timer_count)
0000c7   5832     movar   0x32             	MOVAR	_timer_count
0000c8   5c33     orar    0x33             	ORAR	(_timer_count + 1)
0000c9   5c34     orar    0x34             	ORAR	(_timer_count + 2)
0000ca   5c35     orar    0x35             	ORAR	(_timer_count + 3)
0000cb   f587     jbclr   0x187, 0x2       	JBCLR	PFLAG,2
0000cc   a0e1     goto    0xe1             	GOTO	_00773_DS_
                                           ;	.line	1254; "MC32F7361.c"	timer_count--;
0000cd   3cff     movai   0xff             	MOVAI	0xff
0000ce   7e32     addra   0x32             	ADDRA	_timer_count
0000cf   3cff     movai   0xff             	MOVAI	0xff
0000d0   e187     jbset   0x187, 0         	JBSET	PFLAG,0
0000d1   7e33     addra   0x33             	ADDRA	(_timer_count + 1)
0000d2   3cff     movai   0xff             	MOVAI	0xff
0000d3   e187     jbset   0x187, 0         	JBSET	PFLAG,0
0000d4   7e34     addra   0x34             	ADDRA	(_timer_count + 2)
0000d5   3cff     movai   0xff             	MOVAI	0xff
0000d6   e187     jbset   0x187, 0         	JBSET	PFLAG,0
0000d7   7e35     addra   0x35             	ADDRA	(_timer_count + 3)
                                           ;	.line	1255; "MC32F7361.c"	if (timer_count == 0)
0000d8   5832     movar   0x32             	MOVAR	_timer_count
0000d9   5c33     orar    0x33             	ORAR	(_timer_count + 1)
0000da   5c34     orar    0x34             	ORAR	(_timer_count + 2)
0000db   5c35     orar    0x35             	ORAR	(_timer_count + 3)
0000dc   e587     jbset   0x187, 0x2       	JBSET	PFLAG,2
0000dd   a0e1     goto    0xe1             	GOTO	_00773_DS_
                                           ;	.line	1257; "MC32F7361.c"	ir_data = IR_KEY_OFF;
0000de   3cb8     movai   0xb8             	MOVAI	0xb8
0000df   563b     movra   0x3b             	MOVRA	_ir_data
                                           ;	.line	1258; "MC32F7361.c"	flag_is_recved_data = 1;
0000e0   c03a     bset    0x3a, 0          	BSET	_flag1,0
                                           _00773_DS_
                                           ;	.line	1268; "MC32F7361.c"	__endasm;
                                           	;
0000e1   4439     swapar  0x39             	swapar	_statusbuf;
0000e2   5787     movra   0x187            	movra	_PFLAG;
0000e3   4638     swapr   0x38             	swapr	_abuf;
0000e4   4438     swapar  0x38             	swapar	_abuf;
                                           	
                                           END_OF_INTERRUPT
                                           ;	.line	1269; "MC32F7361.c"	}
0000e5   000d     retie                    	RETIE	
                                           
                                           ;--------------------------------------------------------
                                           ; code
                                           ;--------------------------------------------------------
                                           code_MC32F7361	code
                                           ;***
                                           ;  pBlock Stats: dbName = M
                                           ;***
                                           ;entry:  _main	;Function start
                                           ; 2 exit points
                                           ;has an exit
                                           ;functions called:
                                           ;   _Sys_Init
                                           ;   _delay_ms
                                           ;   _EEPROM_Read_Byte
                                           ;   _key_event_same_deal
                                           ;   _key_event_same_deal
                                           ;   _send_cmd_16bit
                                           ;   _key_event_same_deal
                                           ;   _key_event_same_deal
                                           ;   _key_event_same_deal
                                           ;   _key_event_same_deal
                                           ;   _key_event_same_deal
                                           ;   _key_event_same_deal
                                           ;   _key_event_same_deal
                                           ;   _key_event_same_deal
                                           ;   _key_event_same_deal
                                           ;   _key_event_same_deal
                                           ;   _key_event_same_deal
                                           ;   _key_event_same_deal
                                           ;   _key_event_same_deal
                                           ;   _key_event_same_deal
                                           ;   _key_event_same_deal
                                           ;   _key_event_same_deal
                                           ;   _key_event_same_deal
                                           ;   _key_event_same_deal
                                           ;   _key_event_same_deal
                                           ;   _key_event_same_deal
                                           ;   _key_event_same_deal
                                           ;   _key_event_same_deal
                                           ;   _key_event_same_deal
                                           ;   _key_event_same_deal
                                           ;   _key_event_same_deal
                                           ;   _key_event_same_deal
                                           ;   _key_event_same_deal
                                           ;   _key_event_same_deal
                                           ;   _key_event_same_deal
                                           ;   _key_event_same_deal
                                           ;   _key_event_same_deal
                                           ;   _key_event_same_deal
                                           ;   _key_event_same_deal
                                           ;   _key_event_same_deal
                                           ;   _key_event_same_deal
                                           ;   _key_event_same_deal
                                           ;   _key_event_same_deal
                                           ;   _key_event_same_deal
                                           ;   __gptrget1
                                           ;   __gptrget2
                                           ;   __gptrget1
                                           ;   __gptrget2
                                           ;   __gptrget1
                                           ;   __gptrget1
                                           ;   __gptrget1
                                           ;   __gptrget2
                                           ;   __gptrget1
                                           ;   __gptrget1
                                           ;   __gptrget2
                                           ;   __gptrget1
                                           ;   _send_cmd_16bit
                                           ;   _delay_ms
                                           ;   _delay_100us
                                           ;   _delay_100us
                                           ;   _delay_ms
                                           ;   _delay_100us
                                           ;   _delay_100us
                                           ;   _delay_ms
                                           ;   _delay_100us
                                           ;   _delay_100us
                                           ;   _delay_ms
                                           ;   _delay_100us
                                           ;   _delay_100us
                                           ;   _delay_ms
                                           ;   _EEPROM_Read_Byte
                                           ;   _EEPROM_Read_Byte
                                           ;   _EEPROM_Read_Byte
                                           ;   _EEPROM_Read_Byte
                                           ;   _key_event_same_deal
                                           ;   _send_cmd_16bit
                                           ;   _send_cmd_16bit
                                           ;   _delay_ms
                                           ;   _Sys_Init
                                           ;   _delay_ms
                                           ;   _EEPROM_Read_Byte
                                           ;   _key_event_same_deal
                                           ;   _key_event_same_deal
                                           ;   _send_cmd_16bit
                                           ;   _key_event_same_deal
                                           ;   _key_event_same_deal
                                           ;   _key_event_same_deal
                                           ;   _key_event_same_deal
                                           ;   _key_event_same_deal
                                           ;   _key_event_same_deal
                                           ;   _key_event_same_deal
                                           ;   _key_event_same_deal
                                           ;   _key_event_same_deal
                                           ;   _key_event_same_deal
                                           ;   _key_event_same_deal
                                           ;   _key_event_same_deal
                                           ;   _key_event_same_deal
                                           ;   _key_event_same_deal
                                           ;   _key_event_same_deal
                                           ;   _key_event_same_deal
                                           ;   _key_event_same_deal
                                           ;   _key_event_same_deal
                                           ;   _key_event_same_deal
                                           ;   _key_event_same_deal
                                           ;   _key_event_same_deal
                                           ;   _key_event_same_deal
                                           ;   _key_event_same_deal
                                           ;   _key_event_same_deal
                                           ;   _key_event_same_deal
                                           ;   _key_event_same_deal
                                           ;   _key_event_same_deal
                                           ;   _key_event_same_deal
                                           ;   _key_event_same_deal
                                           ;   _key_event_same_deal
                                           ;   _key_event_same_deal
                                           ;   _key_event_same_deal
                                           ;   _key_event_same_deal
                                           ;   _key_event_same_deal
                                           ;   _key_event_same_deal
                                           ;   _key_event_same_deal
                                           ;   _key_event_same_deal
                                           ;   _key_event_same_deal
                                           ;   __gptrget1
                                           ;   __gptrget2
                                           ;   __gptrget1
                                           ;   __gptrget2
                                           ;   __gptrget1
                                           ;   __gptrget1
                                           ;   __gptrget1
                                           ;   __gptrget2
                                           ;   __gptrget1
                                           ;   __gptrget1
                                           ;   __gptrget2
                                           ;   __gptrget1
                                           ;   _send_cmd_16bit
                                           ;   _delay_ms
                                           ;   _delay_100us
                                           ;   _delay_100us
                                           ;   _delay_ms
                                           ;   _delay_100us
                                           ;   _delay_100us
                                           ;   _delay_ms
                                           ;   _delay_100us
                                           ;   _delay_100us
                                           ;   _delay_ms
                                           ;   _delay_100us
                                           ;   _delay_100us
                                           ;   _delay_ms
                                           ;   _EEPROM_Read_Byte
                                           ;   _EEPROM_Read_Byte
                                           ;   _EEPROM_Read_Byte
                                           ;   _EEPROM_Read_Byte
                                           ;   _key_event_same_deal
                                           ;   _send_cmd_16bit
                                           ;   _send_cmd_16bit
                                           ;   _delay_ms
                                           ;11 compiler assigned registers:
                                           ;   STK00
                                           ;   r0x102A
                                           ;   r0x102B
                                           ;   STK04
                                           ;   STK03
                                           ;   STK02
                                           ;   STK01
                                           ;   r0x102C
                                           ;   r0x102D
                                           ;   r0x102E
                                           ;   r0x102F
                                           ;; Starting pCode block
                                           _main	;Function start
                                           ; 2 exit points
                                           ;	.line	618; "MC32F7361.c"	Sys_Init();
0000e6   8638     call    0x638            	CALL	_Sys_Init
                                           ;	.line	619; "MC32F7361.c"	delay_ms(1); // 
0000e7   3c01     movai   0x1              	MOVAI	0x01
0000e8   5606     movra   0x6              	MOVRA	STK00
0000e9   3c00     movai   0                	MOVAI	0x00
0000ea   8714     call    0x714            	CALL	_delay_ms
                                           ;	.line	634; "MC32F7361.c"	P15OE = 0; // 
0000eb   db95     bclr    0x195, 0x5       	BCLR	_OEP1bits,5
                                           ;	.line	640; "MC32F7361.c"	P16OE = 0; // 
0000ec   dd95     bclr    0x195, 0x6       	BCLR	_OEP1bits,6
                                           ;	.line	645; "MC32F7361.c"	if (EEPROM_Read_Byte(4) != 0xA5A5)
0000ed   3c04     movai   0x4              	MOVAI	0x04
0000ee   86c3     call    0x6c3            	CALL	_EEPROM_Read_Byte
0000ef   5624     movra   0x24             	MOVRA	r0x102A
0000f0   5806     movar   0x6              	MOVAR	STK00
0000f1   5623     movra   0x23             	MOVRA	r0x102B
0000f2   5823     movar   0x23             	MOVAR	r0x102B
0000f3   39a5     xorai   0xa5             	XORAI	0xa5
0000f4   e587     jbset   0x187, 0x2       	JBSET	PFLAG,2
0000f5   a0fb     goto    0xfb             	GOTO	_00685_DS_
0000f6   5824     movar   0x24             	MOVAR	r0x102A
0000f7   39a5     xorai   0xa5             	XORAI	0xa5
0000f8   e587     jbset   0x187, 0x2       	JBSET	PFLAG,2
0000f9   a0fb     goto    0xfb             	GOTO	_00685_DS_
0000fa   a108     goto    0x108            	GOTO	_00261_DS_
                                           _00685_DS_
                                           ;	.line	648; "MC32F7361.c"	key_event_same_deal(MODE_AUTO_START, MODE_AUTO_END, 0x9645, 0x9645);
0000fb   3c45     movai   0x45             	MOVAI	0x45
0000fc   5602     movra   0x2              	MOVRA	STK04
0000fd   3c96     movai   0x96             	MOVAI	0x96
0000fe   5603     movra   0x3              	MOVRA	STK03
0000ff   3c45     movai   0x45             	MOVAI	0x45
000100   5604     movra   0x4              	MOVRA	STK02
000101   3c96     movai   0x96             	MOVAI	0x96
000102   5605     movra   0x5              	MOVRA	STK01
000103   3c4a     movai   0x4a             	MOVAI	0x4a
000104   5606     movra   0x6              	MOVRA	STK00
000105   3c00     movai   0                	MOVAI	0x00
000106   85b7     call    0x5b7            	CALL	_key_event_same_deal
000107   a10a     goto    0x10a            	GOTO	_00371_DS_
                                           _00261_DS_
                                           ;	.line	652; "MC32F7361.c"	power_sta = POWER_STA_PRE_ON;
000108   3c01     movai   0x1              	MOVAI	0x01
000109   563f     movra   0x3f             	MOVRA	_power_sta
                                           _00371_DS_
                                           ;	.line	678; "MC32F7361.c"	if (flag_is_recved_data)
00010a   e03a     jbset   0x3a, 0          	JBSET	_flag1,0
00010b   a407     goto    0x407            	GOTO	_00322_DS_
                                           ;	.line	680; "MC32F7361.c"	switch (ir_data)
00010c   583b     movar   0x3b             	MOVAR	_ir_data
00010d   5623     movra   0x23             	MOVRA	r0x102B
00010e   5823     movar   0x23             	MOVAR	r0x102B
00010f   e587     jbset   0x187, 0x2       	JBSET	PFLAG,2
000110   a112     goto    0x112            	GOTO	_00686_DS_
000111   a31e     goto    0x31e            	GOTO	_00300_DS_
                                           _00686_DS_
000112   5823     movar   0x23             	MOVAR	r0x102B
000113   3901     xorai   0x1              	XORAI	0x01
000114   e587     jbset   0x187, 0x2       	JBSET	PFLAG,2
000115   a117     goto    0x117            	GOTO	_00687_DS_
000116   a20d     goto    0x20d            	GOTO	_00277_DS_
                                           _00687_DS_
000117   5823     movar   0x23             	MOVAR	r0x102B
000118   3908     xorai   0x8              	XORAI	0x08
000119   e587     jbset   0x187, 0x2       	JBSET	PFLAG,2
00011a   a11c     goto    0x11c            	GOTO	_00688_DS_
00011b   a3c7     goto    0x3c7            	GOTO	_00313_DS_
                                           _00688_DS_
00011c   5823     movar   0x23             	MOVAR	r0x102B
00011d   3910     xorai   0x10             	XORAI	0x10
00011e   e587     jbset   0x187, 0x2       	JBSET	PFLAG,2
00011f   a121     goto    0x121            	GOTO	_00689_DS_
000120   a379     goto    0x379            	GOTO	_00307_DS_
                                           _00689_DS_
000121   5823     movar   0x23             	MOVAR	r0x102B
000122   3918     xorai   0x18             	XORAI	0x18
000123   e587     jbset   0x187, 0x2       	JBSET	PFLAG,2
000124   a126     goto    0x126            	GOTO	_00690_DS_
000125   a3ee     goto    0x3ee            	GOTO	_00316_DS_
                                           _00690_DS_
000126   5823     movar   0x23             	MOVAR	r0x102B
000127   3920     xorai   0x20             	XORAI	0x20
000128   e587     jbset   0x187, 0x2       	JBSET	PFLAG,2
000129   a12b     goto    0x12b            	GOTO	_00691_DS_
00012a   a352     goto    0x352            	GOTO	_00304_DS_
                                           _00691_DS_
00012b   5823     movar   0x23             	MOVAR	r0x102B
00012c   3928     xorai   0x28             	XORAI	0x28
00012d   e587     jbset   0x187, 0x2       	JBSET	PFLAG,2
00012e   a130     goto    0x130            	GOTO	_00692_DS_
00012f   a2ea     goto    0x2ea            	GOTO	_00296_DS_
                                           _00692_DS_
000130   5823     movar   0x23             	MOVAR	r0x102B
000131   3930     xorai   0x30             	XORAI	0x30
000132   e587     jbset   0x187, 0x2       	JBSET	PFLAG,2
000133   a135     goto    0x135            	GOTO	_00693_DS_
000134   a3a0     goto    0x3a0            	GOTO	_00310_DS_
                                           _00693_DS_
000135   5823     movar   0x23             	MOVAR	r0x102B
000136   3938     xorai   0x38             	XORAI	0x38
000137   e587     jbset   0x187, 0x2       	JBSET	PFLAG,2
000138   a13a     goto    0x13a            	GOTO	_00694_DS_
000139   a1b3     goto    0x1b3            	GOTO	_00263_DS_
                                           _00694_DS_
00013a   5823     movar   0x23             	MOVAR	r0x102B
00013b   3940     xorai   0x40             	XORAI	0x40
00013c   e587     jbset   0x187, 0x2       	JBSET	PFLAG,2
00013d   a13f     goto    0x13f            	GOTO	_00695_DS_
00013e   a338     goto    0x338            	GOTO	_00302_DS_
                                           _00695_DS_
00013f   5823     movar   0x23             	MOVAR	r0x102B
000140   3948     xorai   0x48             	XORAI	0x48
000141   e587     jbset   0x187, 0x2       	JBSET	PFLAG,2
000142   a144     goto    0x144            	GOTO	_00696_DS_
000143   a3e1     goto    0x3e1            	GOTO	_00315_DS_
                                           _00696_DS_
000144   5823     movar   0x23             	MOVAR	r0x102B
000145   3950     xorai   0x50             	XORAI	0x50
000146   e587     jbset   0x187, 0x2       	JBSET	PFLAG,2
000147   a149     goto    0x149            	GOTO	_00697_DS_
000148   a393     goto    0x393            	GOTO	_00309_DS_
                                           _00697_DS_
000149   5823     movar   0x23             	MOVAR	r0x102B
00014a   3958     xorai   0x58             	XORAI	0x58
00014b   e587     jbset   0x187, 0x2       	JBSET	PFLAG,2
00014c   a14e     goto    0x14e            	GOTO	_00698_DS_
00014d   a3fc     goto    0x3fc            	GOTO	_00318_DS_
                                           _00698_DS_
00014e   5823     movar   0x23             	MOVAR	r0x102B
00014f   3960     xorai   0x60             	XORAI	0x60
000150   e587     jbset   0x187, 0x2       	JBSET	PFLAG,2
000151   a153     goto    0x153            	GOTO	_00699_DS_
000152   a36c     goto    0x36c            	GOTO	_00306_DS_
                                           _00699_DS_
000153   5823     movar   0x23             	MOVAR	r0x102B
000154   3968     xorai   0x68             	XORAI	0x68
000155   e587     jbset   0x187, 0x2       	JBSET	PFLAG,2
000156   a158     goto    0x158            	GOTO	_00700_DS_
000157   a304     goto    0x304            	GOTO	_00298_DS_
                                           _00700_DS_
000158   5823     movar   0x23             	MOVAR	r0x102B
000159   3970     xorai   0x70             	XORAI	0x70
00015a   e587     jbset   0x187, 0x2       	JBSET	PFLAG,2
00015b   a15d     goto    0x15d            	GOTO	_00701_DS_
00015c   a3ba     goto    0x3ba            	GOTO	_00312_DS_
                                           _00701_DS_
00015d   5823     movar   0x23             	MOVAR	r0x102B
00015e   3978     xorai   0x78             	XORAI	0x78
00015f   e587     jbset   0x187, 0x2       	JBSET	PFLAG,2
000160   a162     goto    0x162            	GOTO	_00702_DS_
000161   a1b9     goto    0x1b9            	GOTO	_00265_DS_
                                           _00702_DS_
000162   5823     movar   0x23             	MOVAR	r0x102B
000163   3980     xorai   0x80             	XORAI	0x80
000164   e587     jbset   0x187, 0x2       	JBSET	PFLAG,2
000165   a167     goto    0x167            	GOTO	_00703_DS_
000166   a32b     goto    0x32b            	GOTO	_00301_DS_
                                           _00703_DS_
000167   5823     movar   0x23             	MOVAR	r0x102B
000168   3988     xorai   0x88             	XORAI	0x88
000169   e587     jbset   0x187, 0x2       	JBSET	PFLAG,2
00016a   a16c     goto    0x16c            	GOTO	_00704_DS_
00016b   a3d4     goto    0x3d4            	GOTO	_00314_DS_
                                           _00704_DS_
00016c   5823     movar   0x23             	MOVAR	r0x102B
00016d   3990     xorai   0x90             	XORAI	0x90
00016e   e587     jbset   0x187, 0x2       	JBSET	PFLAG,2
00016f   a171     goto    0x171            	GOTO	_00705_DS_
000170   a386     goto    0x386            	GOTO	_00308_DS_
                                           _00705_DS_
000171   5823     movar   0x23             	MOVAR	r0x102B
000172   3998     xorai   0x98             	XORAI	0x98
000173   e587     jbset   0x187, 0x2       	JBSET	PFLAG,2
000174   a176     goto    0x176            	GOTO	_00706_DS_
000175   a3f5     goto    0x3f5            	GOTO	_00317_DS_
                                           _00706_DS_
000176   5823     movar   0x23             	MOVAR	r0x102B
000177   39a0     xorai   0xa0             	XORAI	0xa0
000178   e587     jbset   0x187, 0x2       	JBSET	PFLAG,2
000179   a17b     goto    0x17b            	GOTO	_00707_DS_
00017a   a35f     goto    0x35f            	GOTO	_00305_DS_
                                           _00707_DS_
00017b   5823     movar   0x23             	MOVAR	r0x102B
00017c   39a8     xorai   0xa8             	XORAI	0xa8
00017d   e587     jbset   0x187, 0x2       	JBSET	PFLAG,2
00017e   a180     goto    0x180            	GOTO	_00708_DS_
00017f   a2f7     goto    0x2f7            	GOTO	_00297_DS_
                                           _00708_DS_
000180   5823     movar   0x23             	MOVAR	r0x102B
000181   39b0     xorai   0xb0             	XORAI	0xb0
000182   e587     jbset   0x187, 0x2       	JBSET	PFLAG,2
000183   a185     goto    0x185            	GOTO	_00709_DS_
000184   a3ad     goto    0x3ad            	GOTO	_00311_DS_
                                           _00709_DS_
000185   5823     movar   0x23             	MOVAR	r0x102B
000186   39b8     xorai   0xb8             	XORAI	0xb8
000187   e587     jbset   0x187, 0x2       	JBSET	PFLAG,2
000188   a18a     goto    0x18a            	GOTO	_00710_DS_
000189   a1b6     goto    0x1b6            	GOTO	_00264_DS_
                                           _00710_DS_
00018a   5823     movar   0x23             	MOVAR	r0x102B
00018b   39c0     xorai   0xc0             	XORAI	0xc0
00018c   e587     jbset   0x187, 0x2       	JBSET	PFLAG,2
00018d   a18f     goto    0x18f            	GOTO	_00711_DS_
00018e   a345     goto    0x345            	GOTO	_00303_DS_
                                           _00711_DS_
00018f   5823     movar   0x23             	MOVAR	r0x102B
000190   39c8     xorai   0xc8             	XORAI	0xc8
000191   e587     jbset   0x187, 0x2       	JBSET	PFLAG,2
000192   a194     goto    0x194            	GOTO	_00712_DS_
000193   a2dd     goto    0x2dd            	GOTO	_00295_DS_
                                           _00712_DS_
000194   5823     movar   0x23             	MOVAR	r0x102B
000195   39d0     xorai   0xd0             	XORAI	0xd0
000196   e587     jbset   0x187, 0x2       	JBSET	PFLAG,2
000197   a199     goto    0x199            	GOTO	_00713_DS_
000198   a2c3     goto    0x2c3            	GOTO	_00293_DS_
                                           _00713_DS_
000199   5823     movar   0x23             	MOVAR	r0x102B
00019a   39d8     xorai   0xd8             	XORAI	0xd8
00019b   e587     jbset   0x187, 0x2       	JBSET	PFLAG,2
00019c   a19e     goto    0x19e            	GOTO	_00714_DS_
00019d   a402     goto    0x402            	GOTO	_00319_DS_
                                           _00714_DS_
00019e   5823     movar   0x23             	MOVAR	r0x102B
00019f   39e0     xorai   0xe0             	XORAI	0xe0
0001a0   e587     jbset   0x187, 0x2       	JBSET	PFLAG,2
0001a1   a1a3     goto    0x1a3            	GOTO	_00715_DS_
0001a2   a1d9     goto    0x1d9            	GOTO	_00271_DS_
                                           _00715_DS_
0001a3   5823     movar   0x23             	MOVAR	r0x102B
0001a4   39e8     xorai   0xe8             	XORAI	0xe8
0001a5   e587     jbset   0x187, 0x2       	JBSET	PFLAG,2
0001a6   a1a8     goto    0x1a8            	GOTO	_00716_DS_
0001a7   a311     goto    0x311            	GOTO	_00299_DS_
                                           _00716_DS_
0001a8   5823     movar   0x23             	MOVAR	r0x102B
0001a9   39f0     xorai   0xf0             	XORAI	0xf0
0001aa   e587     jbset   0x187, 0x2       	JBSET	PFLAG,2
0001ab   a1ad     goto    0x1ad            	GOTO	_00717_DS_
0001ac   a2d0     goto    0x2d0            	GOTO	_00294_DS_
                                           _00717_DS_
0001ad   5823     movar   0x23             	MOVAR	r0x102B
0001ae   39f8     xorai   0xf8             	XORAI	0xf8
0001af   e587     jbset   0x187, 0x2       	JBSET	PFLAG,2
0001b0   a1b2     goto    0x1b2            	GOTO	_00718_DS_
0001b1   a1c6     goto    0x1c6            	GOTO	_00266_DS_
                                           _00718_DS_
0001b2   a406     goto    0x406            	GOTO	_00320_DS_
                                           _00263_DS_
                                           ;	.line	683; "MC32F7361.c"	power_sta = POWER_STA_PRE_ON;
0001b3   3c01     movai   0x1              	MOVAI	0x01
0001b4   563f     movra   0x3f             	MOVRA	_power_sta
                                           ;	.line	684; "MC32F7361.c"	break;
0001b5   a406     goto    0x406            	GOTO	_00320_DS_
                                           _00264_DS_
                                           ;	.line	687; "MC32F7361.c"	power_sta = POWER_STA_PRE_OFF;
0001b6   3c03     movai   0x3              	MOVAI	0x03
0001b7   563f     movra   0x3f             	MOVRA	_power_sta
                                           ;	.line	688; "MC32F7361.c"	break;
0001b8   a406     goto    0x406            	GOTO	_00320_DS_
                                           _00265_DS_
                                           ;	.line	691; "MC32F7361.c"	key_event_same_deal(MODE_AUTO_START, MODE_AUTO_END, 0x9645, 0x9645);
0001b9   3c45     movai   0x45             	MOVAI	0x45
0001ba   5602     movra   0x2              	MOVRA	STK04
0001bb   3c96     movai   0x96             	MOVAI	0x96
0001bc   5603     movra   0x3              	MOVRA	STK03
0001bd   3c45     movai   0x45             	MOVAI	0x45
0001be   5604     movra   0x4              	MOVRA	STK02
0001bf   3c96     movai   0x96             	MOVAI	0x96
0001c0   5605     movra   0x5              	MOVRA	STK01
0001c1   3c4a     movai   0x4a             	MOVAI	0x4a
0001c2   5606     movra   0x6              	MOVRA	STK00
0001c3   3c00     movai   0                	MOVAI	0x00
0001c4   85b7     call    0x5b7            	CALL	_key_event_same_deal
                                           ;	.line	693; "MC32F7361.c"	break;
0001c5   a406     goto    0x406            	GOTO	_00320_DS_
                                           _00266_DS_
                                           ;	.line	696; "MC32F7361.c"	if (power_sta != POWER_STA_OFF)
0001c6   3c00     movai   0                	MOVAI	0x00
0001c7   5c3f     orar    0x3f             	ORAR	_power_sta
0001c8   f587     jbclr   0x187, 0x2       	JBCLR	PFLAG,2
0001c9   a406     goto    0x406            	GOTO	_00320_DS_
                                           ;	.line	698; "MC32F7361.c"	current_speed++;
0001ca   6640     incr    0x40             	INCR	_current_speed
                                           ;;unsigned compare: left < lit(0x4=4), size=1
                                           ;	.line	699; "MC32F7361.c"	if (current_speed >= 4)
0001cb   3c04     movai   0x4              	MOVAI	0x04
0001cc   4840     rsubar  0x40             	RSUBAR	_current_speed
0001cd   e187     jbset   0x187, 0         	JBSET	PFLAG,0
0001ce   a1d0     goto    0x1d0            	GOTO	_00268_DS_
                                           ;;genSkipc:3291: created from rifx:013B5EFC
                                           ;	.line	700; "MC32F7361.c"	current_speed = 0;
0001cf   7640     clrr    0x40             	CLRR	_current_speed
                                           _00268_DS_
                                           ;	.line	701; "MC32F7361.c"	current_index = start_index; // 
0001d0   583d     movar   0x3d             	MOVAR	_start_index
0001d1   563c     movra   0x3c             	MOVRA	_current_index
                                           ;	.line	702; "MC32F7361.c"	next_frame_delay = 0;        // 
0001d2   7636     clrr    0x36             	CLRR	_next_frame_delay
0001d3   7637     clrr    0x37             	CLRR	(_next_frame_delay + 1)
                                           ;	.line	703; "MC32F7361.c"	send_cmd_16bit(0x0C00);
0001d4   3c00     movai   0                	MOVAI	0x00
0001d5   5606     movra   0x6              	MOVRA	STK00
0001d6   3c0c     movai   0xc              	MOVAI	0x0c
0001d7   8697     call    0x697            	CALL	_send_cmd_16bit
                                           ;	.line	705; "MC32F7361.c"	break;
0001d8   a406     goto    0x406            	GOTO	_00320_DS_
                                           _00271_DS_
                                           ;	.line	708; "MC32F7361.c"	current_static++;
0001d9   6641     incr    0x41             	INCR	_current_static
                                           ;	.line	709; "MC32F7361.c"	switch (current_static)
0001da   5841     movar   0x41             	MOVAR	_current_static
0001db   5623     movra   0x23             	MOVRA	r0x102B
                                           ;;swapping arguments (AOP_TYPEs 1/2)
                                           ;;unsigned compare: left >= lit(0x3=3), size=1
0001dc   3c03     movai   0x3              	MOVAI	0x03
0001dd   4823     rsubar  0x23             	RSUBAR	r0x102B
0001de   f187     jbclr   0x187, 0         	JBCLR	PFLAG,0
0001df   a1e5     goto    0x1e5            	GOTO	_00272_DS_
                                           ;;genSkipc:3291: created from rifx:013B5EFC
0001e0   5823     movar   0x23             	MOVAR	r0x102B
0001e1   7f86     addra   0x186            	ADDRA	PCL
0001e2   a1e6     goto    0x1e6            	GOTO	_00273_DS_
0001e3   a1f3     goto    0x1f3            	GOTO	_00274_DS_
0001e4   a200     goto    0x200            	GOTO	_00275_DS_
                                           _00272_DS_
                                           ;	.line	713; "MC32F7361.c"	current_static = 0;
0001e5   7641     clrr    0x41             	CLRR	_current_static
                                           _00273_DS_
                                           ;	.line	716; "MC32F7361.c"	key_event_same_deal(29, 29, 0xFFFF, 0xFFFF);
0001e6   3cff     movai   0xff             	MOVAI	0xff
0001e7   5602     movra   0x2              	MOVRA	STK04
0001e8   3cff     movai   0xff             	MOVAI	0xff
0001e9   5603     movra   0x3              	MOVRA	STK03
0001ea   3cff     movai   0xff             	MOVAI	0xff
0001eb   5604     movra   0x4              	MOVRA	STK02
0001ec   3cff     movai   0xff             	MOVAI	0xff
0001ed   5605     movra   0x5              	MOVRA	STK01
0001ee   3c1d     movai   0x1d             	MOVAI	0x1d
0001ef   5606     movra   0x6              	MOVRA	STK00
0001f0   3c1d     movai   0x1d             	MOVAI	0x1d
0001f1   85b7     call    0x5b7            	CALL	_key_event_same_deal
                                           ;	.line	717; "MC32F7361.c"	break;
0001f2   a406     goto    0x406            	GOTO	_00320_DS_
                                           _00274_DS_
                                           ;	.line	720; "MC32F7361.c"	key_event_same_deal(39, 39, 0xFFFF, 0xFFFF);
0001f3   3cff     movai   0xff             	MOVAI	0xff
0001f4   5602     movra   0x2              	MOVRA	STK04
0001f5   3cff     movai   0xff             	MOVAI	0xff
0001f6   5603     movra   0x3              	MOVRA	STK03
0001f7   3cff     movai   0xff             	MOVAI	0xff
0001f8   5604     movra   0x4              	MOVRA	STK02
0001f9   3cff     movai   0xff             	MOVAI	0xff
0001fa   5605     movra   0x5              	MOVRA	STK01
0001fb   3c27     movai   0x27             	MOVAI	0x27
0001fc   5606     movra   0x6              	MOVRA	STK00
0001fd   3c27     movai   0x27             	MOVAI	0x27
0001fe   85b7     call    0x5b7            	CALL	_key_event_same_deal
                                           ;	.line	721; "MC32F7361.c"	break;
0001ff   a406     goto    0x406            	GOTO	_00320_DS_
                                           _00275_DS_
                                           ;	.line	724; "MC32F7361.c"	key_event_same_deal(49, 49, 0xFFFF, 0xFFFF);
000200   3cff     movai   0xff             	MOVAI	0xff
000201   5602     movra   0x2              	MOVRA	STK04
000202   3cff     movai   0xff             	MOVAI	0xff
000203   5603     movra   0x3              	MOVRA	STK03
000204   3cff     movai   0xff             	MOVAI	0xff
000205   5604     movra   0x4              	MOVRA	STK02
000206   3cff     movai   0xff             	MOVAI	0xff
000207   5605     movra   0x5              	MOVRA	STK01
000208   3c31     movai   0x31             	MOVAI	0x31
000209   5606     movra   0x6              	MOVRA	STK00
00020a   3c31     movai   0x31             	MOVAI	0x31
00020b   85b7     call    0x5b7            	CALL	_key_event_same_deal
                                           ;	.line	727; "MC32F7361.c"	break;
00020c   a406     goto    0x406            	GOTO	_00320_DS_
                                           _00277_DS_
                                           ;	.line	730; "MC32F7361.c"	switch (cur_mechanical_key_sta)
00020d   5842     movar   0x42             	MOVAR	_cur_mechanical_key_sta
00020e   5623     movra   0x23             	MOVRA	r0x102B
                                           ;;swapping arguments (AOP_TYPEs 1/2)
                                           ;;unsigned compare: left >= lit(0xD=13), size=1
00020f   3c0d     movai   0xd              	MOVAI	0x0d
000210   4823     rsubar  0x23             	RSUBAR	r0x102B
000211   f187     jbclr   0x187, 0         	JBCLR	PFLAG,0
000212   a222     goto    0x222            	GOTO	_00278_DS_
                                           ;;genSkipc:3291: created from rifx:013B5EFC
000213   5823     movar   0x23             	MOVAR	r0x102B
000214   7f86     addra   0x186            	ADDRA	PCL
000215   a223     goto    0x223            	GOTO	_00279_DS_
000216   a230     goto    0x230            	GOTO	_00280_DS_
000217   a23d     goto    0x23d            	GOTO	_00281_DS_
000218   a24a     goto    0x24a            	GOTO	_00282_DS_
000219   a257     goto    0x257            	GOTO	_00283_DS_
00021a   a264     goto    0x264            	GOTO	_00284_DS_
00021b   a271     goto    0x271            	GOTO	_00285_DS_
00021c   a27e     goto    0x27e            	GOTO	_00286_DS_
00021d   a28b     goto    0x28b            	GOTO	_00287_DS_
00021e   a298     goto    0x298            	GOTO	_00288_DS_
00021f   a2a5     goto    0x2a5            	GOTO	_00289_DS_
000220   a2b2     goto    0x2b2            	GOTO	_00290_DS_
000221   a2bf     goto    0x2bf            	GOTO	_00291_DS_
                                           _00278_DS_
                                           ;	.line	734; "MC32F7361.c"	cur_mechanical_key_sta = 0;
000222   7642     clrr    0x42             	CLRR	_cur_mechanical_key_sta
                                           _00279_DS_
                                           ;	.line	736; "MC32F7361.c"	key_event_same_deal(MODE_AUTO_START, MODE_AUTO_END, 0x9645, 0x9645);
000223   3c45     movai   0x45             	MOVAI	0x45
000224   5602     movra   0x2              	MOVRA	STK04
000225   3c96     movai   0x96             	MOVAI	0x96
000226   5603     movra   0x3              	MOVRA	STK03
000227   3c45     movai   0x45             	MOVAI	0x45
000228   5604     movra   0x4              	MOVRA	STK02
000229   3c96     movai   0x96             	MOVAI	0x96
00022a   5605     movra   0x5              	MOVRA	STK01
00022b   3c4a     movai   0x4a             	MOVAI	0x4a
00022c   5606     movra   0x6              	MOVRA	STK00
00022d   3c00     movai   0                	MOVAI	0x00
00022e   85b7     call    0x5b7            	CALL	_key_event_same_deal
                                           ;	.line	737; "MC32F7361.c"	break;
00022f   a2c1     goto    0x2c1            	GOTO	_00292_DS_
                                           _00280_DS_
                                           ;	.line	739; "MC32F7361.c"	key_event_same_deal(MODE_R2C1_START, MODE_R2C1_END, 0xFFFF, 0xFFFF);
000230   3cff     movai   0xff             	MOVAI	0xff
000231   5602     movra   0x2              	MOVRA	STK04
000232   3cff     movai   0xff             	MOVAI	0xff
000233   5603     movra   0x3              	MOVRA	STK03
000234   3cff     movai   0xff             	MOVAI	0xff
000235   5604     movra   0x4              	MOVRA	STK02
000236   3cff     movai   0xff             	MOVAI	0xff
000237   5605     movra   0x5              	MOVRA	STK01
000238   3c4b     movai   0x4b             	MOVAI	0x4b
000239   5606     movra   0x6              	MOVRA	STK00
00023a   3c4b     movai   0x4b             	MOVAI	0x4b
00023b   85b7     call    0x5b7            	CALL	_key_event_same_deal
                                           ;	.line	740; "MC32F7361.c"	break;
00023c   a2c1     goto    0x2c1            	GOTO	_00292_DS_
                                           _00281_DS_
                                           ;	.line	742; "MC32F7361.c"	key_event_same_deal(MODE_R2C2_START, MODE_R2C2_END, 0xFFFF, 0xFFFF);
00023d   3cff     movai   0xff             	MOVAI	0xff
00023e   5602     movra   0x2              	MOVRA	STK04
00023f   3cff     movai   0xff             	MOVAI	0xff
000240   5603     movra   0x3              	MOVRA	STK03
000241   3cff     movai   0xff             	MOVAI	0xff
000242   5604     movra   0x4              	MOVRA	STK02
000243   3cff     movai   0xff             	MOVAI	0xff
000244   5605     movra   0x5              	MOVRA	STK01
000245   3c4c     movai   0x4c             	MOVAI	0x4c
000246   5606     movra   0x6              	MOVRA	STK00
000247   3c4c     movai   0x4c             	MOVAI	0x4c
000248   85b7     call    0x5b7            	CALL	_key_event_same_deal
                                           ;	.line	743; "MC32F7361.c"	break;
000249   a2c1     goto    0x2c1            	GOTO	_00292_DS_
                                           _00282_DS_
                                           ;	.line	745; "MC32F7361.c"	key_event_same_deal(MODE_R2C3_START, MODE_R2C3_END, 0xFFFF, 0xFFFF);
00024a   3cff     movai   0xff             	MOVAI	0xff
00024b   5602     movra   0x2              	MOVRA	STK04
00024c   3cff     movai   0xff             	MOVAI	0xff
00024d   5603     movra   0x3              	MOVRA	STK03
00024e   3cff     movai   0xff             	MOVAI	0xff
00024f   5604     movra   0x4              	MOVRA	STK02
000250   3cff     movai   0xff             	MOVAI	0xff
000251   5605     movra   0x5              	MOVRA	STK01
000252   3c4d     movai   0x4d             	MOVAI	0x4d
000253   5606     movra   0x6              	MOVRA	STK00
000254   3c4d     movai   0x4d             	MOVAI	0x4d
000255   85b7     call    0x5b7            	CALL	_key_event_same_deal
                                           ;	.line	746; "MC32F7361.c"	break;
000256   a2c1     goto    0x2c1            	GOTO	_00292_DS_
                                           _00283_DS_
                                           ;	.line	748; "MC32F7361.c"	key_event_same_deal(MODE_R2C4_START, MODE_R2C4_END, 0x9645, 0x9645);
000257   3c45     movai   0x45             	MOVAI	0x45
000258   5602     movra   0x2              	MOVRA	STK04
000259   3c96     movai   0x96             	MOVAI	0x96
00025a   5603     movra   0x3              	MOVRA	STK03
00025b   3c45     movai   0x45             	MOVAI	0x45
00025c   5604     movra   0x4              	MOVRA	STK02
00025d   3c96     movai   0x96             	MOVAI	0x96
00025e   5605     movra   0x5              	MOVRA	STK01
00025f   3c4e     movai   0x4e             	MOVAI	0x4e
000260   5606     movra   0x6              	MOVRA	STK00
000261   3c4e     movai   0x4e             	MOVAI	0x4e
000262   85b7     call    0x5b7            	CALL	_key_event_same_deal
                                           ;	.line	749; "MC32F7361.c"	break;
000263   a2c1     goto    0x2c1            	GOTO	_00292_DS_
                                           _00284_DS_
                                           ;	.line	751; "MC32F7361.c"	key_event_same_deal(MODE_FADE_START, MODE_FADE_END, 0x9645, 0x9645);
000264   3c45     movai   0x45             	MOVAI	0x45
000265   5602     movra   0x2              	MOVRA	STK04
000266   3c96     movai   0x96             	MOVAI	0x96
000267   5603     movra   0x3              	MOVRA	STK03
000268   3c45     movai   0x45             	MOVAI	0x45
000269   5604     movra   0x4              	MOVRA	STK02
00026a   3c96     movai   0x96             	MOVAI	0x96
00026b   5605     movra   0x5              	MOVRA	STK01
00026c   3c09     movai   0x9              	MOVAI	0x09
00026d   5606     movra   0x6              	MOVRA	STK00
00026e   3c00     movai   0                	MOVAI	0x00
00026f   85b7     call    0x5b7            	CALL	_key_event_same_deal
                                           ;	.line	752; "MC32F7361.c"	break;
000270   a2c1     goto    0x2c1            	GOTO	_00292_DS_
                                           _00285_DS_
                                           ;	.line	754; "MC32F7361.c"	key_event_same_deal(MODE_JUMP_START, MODE_JUMP_END, 0x9645, 0x9645);
000271   3c45     movai   0x45             	MOVAI	0x45
000272   5602     movra   0x2              	MOVRA	STK04
000273   3c96     movai   0x96             	MOVAI	0x96
000274   5603     movra   0x3              	MOVRA	STK03
000275   3c45     movai   0x45             	MOVAI	0x45
000276   5604     movra   0x4              	MOVRA	STK02
000277   3c96     movai   0x96             	MOVAI	0x96
000278   5605     movra   0x5              	MOVRA	STK01
000279   3c13     movai   0x13             	MOVAI	0x13
00027a   5606     movra   0x6              	MOVRA	STK00
00027b   3c0a     movai   0xa              	MOVAI	0x0a
00027c   85b7     call    0x5b7            	CALL	_key_event_same_deal
                                           ;	.line	755; "MC32F7361.c"	break;
00027d   a2c1     goto    0x2c1            	GOTO	_00292_DS_
                                           _00286_DS_
                                           ;	.line	758; "MC32F7361.c"	key_event_same_deal(MODE_ASYN_FADE_START, MODE_ASYN_FADE_END, 0x9645, 0x9645);
00027e   3c45     movai   0x45             	MOVAI	0x45
00027f   5602     movra   0x2              	MOVRA	STK04
000280   3c96     movai   0x96             	MOVAI	0x96
000281   5603     movra   0x3              	MOVRA	STK03
000282   3c45     movai   0x45             	MOVAI	0x45
000283   5604     movra   0x4              	MOVRA	STK02
000284   3c96     movai   0x96             	MOVAI	0x96
000285   5605     movra   0x5              	MOVRA	STK01
000286   3c19     movai   0x19             	MOVAI	0x19
000287   5606     movra   0x6              	MOVRA	STK00
000288   3c14     movai   0x14             	MOVAI	0x14
000289   85b7     call    0x5b7            	CALL	_key_event_same_deal
                                           ;	.line	759; "MC32F7361.c"	break;
00028a   a2c1     goto    0x2c1            	GOTO	_00292_DS_
                                           _00287_DS_
                                           ;	.line	762; "MC32F7361.c"	key_event_same_deal(MODE_ASYN_JUMP_START, MODE_ASYN_JUMP_END, 0x9645, 0x9645);
00028b   3c45     movai   0x45             	MOVAI	0x45
00028c   5602     movra   0x2              	MOVRA	STK04
00028d   3c96     movai   0x96             	MOVAI	0x96
00028e   5603     movra   0x3              	MOVRA	STK03
00028f   3c45     movai   0x45             	MOVAI	0x45
000290   5604     movra   0x4              	MOVRA	STK02
000291   3c96     movai   0x96             	MOVAI	0x96
000292   5605     movra   0x5              	MOVRA	STK01
000293   3c1c     movai   0x1c             	MOVAI	0x1c
000294   5606     movra   0x6              	MOVRA	STK00
000295   3c1a     movai   0x1a             	MOVAI	0x1a
000296   85b7     call    0x5b7            	CALL	_key_event_same_deal
                                           ;	.line	763; "MC32F7361.c"	break;
000297   a2c1     goto    0x2c1            	GOTO	_00292_DS_
                                           _00288_DS_
                                           ;	.line	766; "MC32F7361.c"	key_event_same_deal(MODE_TWINKLE_START, MODE_TWINKLE_END, 0x9645, 0x9645);
000298   3c45     movai   0x45             	MOVAI	0x45
000299   5602     movra   0x2              	MOVRA	STK04
00029a   3c96     movai   0x96             	MOVAI	0x96
00029b   5603     movra   0x3              	MOVRA	STK03
00029c   3c45     movai   0x45             	MOVAI	0x45
00029d   5604     movra   0x4              	MOVRA	STK02
00029e   3c96     movai   0x96             	MOVAI	0x96
00029f   5605     movra   0x5              	MOVRA	STK01
0002a0   3c3a     movai   0x3a             	MOVAI	0x3a
0002a1   5606     movra   0x6              	MOVRA	STK00
0002a2   3c1d     movai   0x1d             	MOVAI	0x1d
0002a3   85b7     call    0x5b7            	CALL	_key_event_same_deal
                                           ;	.line	767; "MC32F7361.c"	break;
0002a4   a2c1     goto    0x2c1            	GOTO	_00292_DS_
                                           _00289_DS_
                                           ;	.line	770; "MC32F7361.c"	key_event_same_deal(MODE_STROBE_START, MODE_STROBE_END, 0x9645, 0x9645);
0002a5   3c45     movai   0x45             	MOVAI	0x45
0002a6   5602     movra   0x2              	MOVRA	STK04
0002a7   3c96     movai   0x96             	MOVAI	0x96
0002a8   5603     movra   0x3              	MOVRA	STK03
0002a9   3c45     movai   0x45             	MOVAI	0x45
0002aa   5604     movra   0x4              	MOVRA	STK02
0002ab   3c96     movai   0x96             	MOVAI	0x96
0002ac   5605     movra   0x5              	MOVRA	STK01
0002ad   3c44     movai   0x44             	MOVAI	0x44
0002ae   5606     movra   0x6              	MOVRA	STK00
0002af   3c3b     movai   0x3b             	MOVAI	0x3b
0002b0   85b7     call    0x5b7            	CALL	_key_event_same_deal
                                           ;	.line	771; "MC32F7361.c"	break;
0002b1   a2c1     goto    0x2c1            	GOTO	_00292_DS_
                                           _00290_DS_
                                           ;	.line	773; "MC32F7361.c"	key_event_same_deal(MODE_IN_WAVES_START, MODE_IN_WAVES_END, 0x9645, 0x9645);
0002b2   3c45     movai   0x45             	MOVAI	0x45
0002b3   5602     movra   0x2              	MOVRA	STK04
0002b4   3c96     movai   0x96             	MOVAI	0x96
0002b5   5603     movra   0x3              	MOVRA	STK03
0002b6   3c45     movai   0x45             	MOVAI	0x45
0002b7   5604     movra   0x4              	MOVRA	STK02
0002b8   3c96     movai   0x96             	MOVAI	0x96
0002b9   5605     movra   0x5              	MOVRA	STK01
0002ba   3c4a     movai   0x4a             	MOVAI	0x4a
0002bb   5606     movra   0x6              	MOVRA	STK00
0002bc   3c45     movai   0x45             	MOVAI	0x45
0002bd   85b7     call    0x5b7            	CALL	_key_event_same_deal
                                           ;	.line	774; "MC32F7361.c"	break;
0002be   a2c1     goto    0x2c1            	GOTO	_00292_DS_
                                           _00291_DS_
                                           ;	.line	777; "MC32F7361.c"	power_sta = POWER_STA_PRE_OFF;
0002bf   3c03     movai   0x3              	MOVAI	0x03
0002c0   563f     movra   0x3f             	MOVRA	_power_sta
                                           _00292_DS_
                                           ;	.line	780; "MC32F7361.c"	cur_mechanical_key_sta++;
0002c1   6642     incr    0x42             	INCR	_cur_mechanical_key_sta
                                           ;	.line	781; "MC32F7361.c"	break;
0002c2   a406     goto    0x406            	GOTO	_00320_DS_
                                           _00293_DS_
                                           ;	.line	783; "MC32F7361.c"	key_event_same_deal(MODE_FADE_START, MODE_FADE_END, 0x9645, 0x9645);
0002c3   3c45     movai   0x45             	MOVAI	0x45
0002c4   5602     movra   0x2              	MOVRA	STK04
0002c5   3c96     movai   0x96             	MOVAI	0x96
0002c6   5603     movra   0x3              	MOVRA	STK03
0002c7   3c45     movai   0x45             	MOVAI	0x45
0002c8   5604     movra   0x4              	MOVRA	STK02
0002c9   3c96     movai   0x96             	MOVAI	0x96
0002ca   5605     movra   0x5              	MOVRA	STK01
0002cb   3c09     movai   0x9              	MOVAI	0x09
0002cc   5606     movra   0x6              	MOVRA	STK00
0002cd   3c00     movai   0                	MOVAI	0x00
0002ce   85b7     call    0x5b7            	CALL	_key_event_same_deal
                                           ;	.line	785; "MC32F7361.c"	break;
0002cf   a406     goto    0x406            	GOTO	_00320_DS_
                                           _00294_DS_
                                           ;	.line	788; "MC32F7361.c"	key_event_same_deal(MODE_JUMP_START, MODE_JUMP_END, 0x9645, 0x9645);
0002d0   3c45     movai   0x45             	MOVAI	0x45
0002d1   5602     movra   0x2              	MOVRA	STK04
0002d2   3c96     movai   0x96             	MOVAI	0x96
0002d3   5603     movra   0x3              	MOVRA	STK03
0002d4   3c45     movai   0x45             	MOVAI	0x45
0002d5   5604     movra   0x4              	MOVRA	STK02
0002d6   3c96     movai   0x96             	MOVAI	0x96
0002d7   5605     movra   0x5              	MOVRA	STK01
0002d8   3c13     movai   0x13             	MOVAI	0x13
0002d9   5606     movra   0x6              	MOVRA	STK00
0002da   3c0a     movai   0xa              	MOVAI	0x0a
0002db   85b7     call    0x5b7            	CALL	_key_event_same_deal
                                           ;	.line	790; "MC32F7361.c"	break;
0002dc   a406     goto    0x406            	GOTO	_00320_DS_
                                           _00295_DS_
                                           ;	.line	793; "MC32F7361.c"	key_event_same_deal(MODE_ASYN_FADE_START, MODE_ASYN_FADE_END, 0x9645, 0x9645);
0002dd   3c45     movai   0x45             	MOVAI	0x45
0002de   5602     movra   0x2              	MOVRA	STK04
0002df   3c96     movai   0x96             	MOVAI	0x96
0002e0   5603     movra   0x3              	MOVRA	STK03
0002e1   3c45     movai   0x45             	MOVAI	0x45
0002e2   5604     movra   0x4              	MOVRA	STK02
0002e3   3c96     movai   0x96             	MOVAI	0x96
0002e4   5605     movra   0x5              	MOVRA	STK01
0002e5   3c19     movai   0x19             	MOVAI	0x19
0002e6   5606     movra   0x6              	MOVRA	STK00
0002e7   3c14     movai   0x14             	MOVAI	0x14
0002e8   85b7     call    0x5b7            	CALL	_key_event_same_deal
                                           ;	.line	795; "MC32F7361.c"	break;
0002e9   a406     goto    0x406            	GOTO	_00320_DS_
                                           _00296_DS_
                                           ;	.line	798; "MC32F7361.c"	key_event_same_deal(MODE_IN_WAVES_START, MODE_IN_WAVES_END, 0x9645, 0x9645);
0002ea   3c45     movai   0x45             	MOVAI	0x45
0002eb   5602     movra   0x2              	MOVRA	STK04
0002ec   3c96     movai   0x96             	MOVAI	0x96
0002ed   5603     movra   0x3              	MOVRA	STK03
0002ee   3c45     movai   0x45             	MOVAI	0x45
0002ef   5604     movra   0x4              	MOVRA	STK02
0002f0   3c96     movai   0x96             	MOVAI	0x96
0002f1   5605     movra   0x5              	MOVRA	STK01
0002f2   3c4a     movai   0x4a             	MOVAI	0x4a
0002f3   5606     movra   0x6              	MOVRA	STK00
0002f4   3c45     movai   0x45             	MOVAI	0x45
0002f5   85b7     call    0x5b7            	CALL	_key_event_same_deal
                                           ;	.line	800; "MC32F7361.c"	break;
0002f6   a406     goto    0x406            	GOTO	_00320_DS_
                                           _00297_DS_
                                           ;	.line	803; "MC32F7361.c"	key_event_same_deal(MODE_STROBE_START, MODE_STROBE_END, 0x9645, 0x9645);
0002f7   3c45     movai   0x45             	MOVAI	0x45
0002f8   5602     movra   0x2              	MOVRA	STK04
0002f9   3c96     movai   0x96             	MOVAI	0x96
0002fa   5603     movra   0x3              	MOVRA	STK03
0002fb   3c45     movai   0x45             	MOVAI	0x45
0002fc   5604     movra   0x4              	MOVRA	STK02
0002fd   3c96     movai   0x96             	MOVAI	0x96
0002fe   5605     movra   0x5              	MOVRA	STK01
0002ff   3c44     movai   0x44             	MOVAI	0x44
000300   5606     movra   0x6              	MOVRA	STK00
000301   3c3b     movai   0x3b             	MOVAI	0x3b
000302   85b7     call    0x5b7            	CALL	_key_event_same_deal
                                           ;	.line	805; "MC32F7361.c"	break;
000303   a406     goto    0x406            	GOTO	_00320_DS_
                                           _00298_DS_
                                           ;	.line	808; "MC32F7361.c"	key_event_same_deal(MODE_TWINKLE_START, MODE_TWINKLE_END, 0x9645, 0x9645);
000304   3c45     movai   0x45             	MOVAI	0x45
000305   5602     movra   0x2              	MOVRA	STK04
000306   3c96     movai   0x96             	MOVAI	0x96
000307   5603     movra   0x3              	MOVRA	STK03
000308   3c45     movai   0x45             	MOVAI	0x45
000309   5604     movra   0x4              	MOVRA	STK02
00030a   3c96     movai   0x96             	MOVAI	0x96
00030b   5605     movra   0x5              	MOVRA	STK01
00030c   3c3a     movai   0x3a             	MOVAI	0x3a
00030d   5606     movra   0x6              	MOVRA	STK00
00030e   3c1d     movai   0x1d             	MOVAI	0x1d
00030f   85b7     call    0x5b7            	CALL	_key_event_same_deal
                                           ;	.line	810; "MC32F7361.c"	break;
000310   a406     goto    0x406            	GOTO	_00320_DS_
                                           _00299_DS_
                                           ;	.line	813; "MC32F7361.c"	key_event_same_deal(MODE_ASYN_JUMP_START, MODE_ASYN_JUMP_END, 0x9645, 0x9645);
000311   3c45     movai   0x45             	MOVAI	0x45
000312   5602     movra   0x2              	MOVRA	STK04
000313   3c96     movai   0x96             	MOVAI	0x96
000314   5603     movra   0x3              	MOVRA	STK03
000315   3c45     movai   0x45             	MOVAI	0x45
000316   5604     movra   0x4              	MOVRA	STK02
000317   3c96     movai   0x96             	MOVAI	0x96
000318   5605     movra   0x5              	MOVRA	STK01
000319   3c1c     movai   0x1c             	MOVAI	0x1c
00031a   5606     movra   0x6              	MOVRA	STK00
00031b   3c1a     movai   0x1a             	MOVAI	0x1a
00031c   85b7     call    0x5b7            	CALL	_key_event_same_deal
                                           ;	.line	815; "MC32F7361.c"	break;
00031d   a406     goto    0x406            	GOTO	_00320_DS_
                                           _00300_DS_
                                           ;	.line	818; "MC32F7361.c"	key_event_same_deal(MODE_R2C1_START, MODE_R2C1_END, 0xFFFF, 0xFFFF);
00031e   3cff     movai   0xff             	MOVAI	0xff
00031f   5602     movra   0x2              	MOVRA	STK04
000320   3cff     movai   0xff             	MOVAI	0xff
000321   5603     movra   0x3              	MOVRA	STK03
000322   3cff     movai   0xff             	MOVAI	0xff
000323   5604     movra   0x4              	MOVRA	STK02
000324   3cff     movai   0xff             	MOVAI	0xff
000325   5605     movra   0x5              	MOVRA	STK01
000326   3c4b     movai   0x4b             	MOVAI	0x4b
000327   5606     movra   0x6              	MOVRA	STK00
000328   3c4b     movai   0x4b             	MOVAI	0x4b
000329   85b7     call    0x5b7            	CALL	_key_event_same_deal
                                           ;	.line	820; "MC32F7361.c"	break;
00032a   a406     goto    0x406            	GOTO	_00320_DS_
                                           _00301_DS_
                                           ;	.line	822; "MC32F7361.c"	key_event_same_deal(MODE_R2C2_START, MODE_R2C2_END, 0xFFFF, 0xFFFF);
00032b   3cff     movai   0xff             	MOVAI	0xff
00032c   5602     movra   0x2              	MOVRA	STK04
00032d   3cff     movai   0xff             	MOVAI	0xff
00032e   5603     movra   0x3              	MOVRA	STK03
00032f   3cff     movai   0xff             	MOVAI	0xff
000330   5604     movra   0x4              	MOVRA	STK02
000331   3cff     movai   0xff             	MOVAI	0xff
000332   5605     movra   0x5              	MOVRA	STK01
000333   3c4c     movai   0x4c             	MOVAI	0x4c
000334   5606     movra   0x6              	MOVRA	STK00
000335   3c4c     movai   0x4c             	MOVAI	0x4c
000336   85b7     call    0x5b7            	CALL	_key_event_same_deal
                                           ;	.line	824; "MC32F7361.c"	break;
000337   a406     goto    0x406            	GOTO	_00320_DS_
                                           _00302_DS_
                                           ;	.line	826; "MC32F7361.c"	key_event_same_deal(MODE_R2C3_START, MODE_R2C3_END, 0xFFFF, 0xFFFF);
000338   3cff     movai   0xff             	MOVAI	0xff
000339   5602     movra   0x2              	MOVRA	STK04
00033a   3cff     movai   0xff             	MOVAI	0xff
00033b   5603     movra   0x3              	MOVRA	STK03
00033c   3cff     movai   0xff             	MOVAI	0xff
00033d   5604     movra   0x4              	MOVRA	STK02
00033e   3cff     movai   0xff             	MOVAI	0xff
00033f   5605     movra   0x5              	MOVRA	STK01
000340   3c4d     movai   0x4d             	MOVAI	0x4d
000341   5606     movra   0x6              	MOVRA	STK00
000342   3c4d     movai   0x4d             	MOVAI	0x4d
000343   85b7     call    0x5b7            	CALL	_key_event_same_deal
                                           ;	.line	828; "MC32F7361.c"	break;
000344   a406     goto    0x406            	GOTO	_00320_DS_
                                           _00303_DS_
                                           ;	.line	830; "MC32F7361.c"	key_event_same_deal(MODE_R2C4_START, MODE_R2C4_END, 0x9645, 0x9645);
000345   3c45     movai   0x45             	MOVAI	0x45
000346   5602     movra   0x2              	MOVRA	STK04
000347   3c96     movai   0x96             	MOVAI	0x96
000348   5603     movra   0x3              	MOVRA	STK03
000349   3c45     movai   0x45             	MOVAI	0x45
00034a   5604     movra   0x4              	MOVRA	STK02
00034b   3c96     movai   0x96             	MOVAI	0x96
00034c   5605     movra   0x5              	MOVRA	STK01
00034d   3c4e     movai   0x4e             	MOVAI	0x4e
00034e   5606     movra   0x6              	MOVRA	STK00
00034f   3c4e     movai   0x4e             	MOVAI	0x4e
000350   85b7     call    0x5b7            	CALL	_key_event_same_deal
                                           ;	.line	831; "MC32F7361.c"	break;
000351   a406     goto    0x406            	GOTO	_00320_DS_
                                           _00304_DS_
                                           ;	.line	833; "MC32F7361.c"	key_event_same_deal(MODE_R3C1_START, MODE_R3C1_END, 0x9F00, 0x9F00);
000352   3c00     movai   0                	MOVAI	0x00
000353   5602     movra   0x2              	MOVRA	STK04
000354   3c9f     movai   0x9f             	MOVAI	0x9f
000355   5603     movra   0x3              	MOVRA	STK03
000356   3c00     movai   0                	MOVAI	0x00
000357   5604     movra   0x4              	MOVRA	STK02
000358   3c9f     movai   0x9f             	MOVAI	0x9f
000359   5605     movra   0x5              	MOVRA	STK01
00035a   3c4f     movai   0x4f             	MOVAI	0x4f
00035b   5606     movra   0x6              	MOVRA	STK00
00035c   3c4f     movai   0x4f             	MOVAI	0x4f
00035d   85b7     call    0x5b7            	CALL	_key_event_same_deal
                                           ;	.line	834; "MC32F7361.c"	break;
00035e   a406     goto    0x406            	GOTO	_00320_DS_
                                           _00305_DS_
                                           ;	.line	836; "MC32F7361.c"	key_event_same_deal(MODE_R3C2_START, MODE_R3C2_END, 0x90F1, 0x90F1);
00035f   3cf1     movai   0xf1             	MOVAI	0xf1
000360   5602     movra   0x2              	MOVRA	STK04
000361   3c90     movai   0x90             	MOVAI	0x90
000362   5603     movra   0x3              	MOVRA	STK03
000363   3cf1     movai   0xf1             	MOVAI	0xf1
000364   5604     movra   0x4              	MOVRA	STK02
000365   3c90     movai   0x90             	MOVAI	0x90
000366   5605     movra   0x5              	MOVRA	STK01
000367   3c50     movai   0x50             	MOVAI	0x50
000368   5606     movra   0x6              	MOVRA	STK00
000369   3c50     movai   0x50             	MOVAI	0x50
00036a   85b7     call    0x5b7            	CALL	_key_event_same_deal
                                           ;	.line	837; "MC32F7361.c"	break;
00036b   a406     goto    0x406            	GOTO	_00320_DS_
                                           _00306_DS_
                                           ;	.line	839; "MC32F7361.c"	key_event_same_deal(MODE_R3C3_START, MODE_R3C3_END, 0x930F, 0x930F);
00036c   3c0f     movai   0xf              	MOVAI	0x0f
00036d   5602     movra   0x2              	MOVRA	STK04
00036e   3c93     movai   0x93             	MOVAI	0x93
00036f   5603     movra   0x3              	MOVRA	STK03
000370   3c0f     movai   0xf              	MOVAI	0x0f
000371   5604     movra   0x4              	MOVRA	STK02
000372   3c93     movai   0x93             	MOVAI	0x93
000373   5605     movra   0x5              	MOVRA	STK01
000374   3c51     movai   0x51             	MOVAI	0x51
000375   5606     movra   0x6              	MOVRA	STK00
000376   3c51     movai   0x51             	MOVAI	0x51
000377   85b7     call    0x5b7            	CALL	_key_event_same_deal
                                           ;	.line	840; "MC32F7361.c"	break;
000378   a406     goto    0x406            	GOTO	_00320_DS_
                                           _00307_DS_
                                           ;	.line	842; "MC32F7361.c"	key_event_same_deal(MODE_R4C1_START, MODE_R4C1_END, 0x9F10, 0x9F10);
000379   3c10     movai   0x10             	MOVAI	0x10
00037a   5602     movra   0x2              	MOVRA	STK04
00037b   3c9f     movai   0x9f             	MOVAI	0x9f
00037c   5603     movra   0x3              	MOVRA	STK03
00037d   3c10     movai   0x10             	MOVAI	0x10
00037e   5604     movra   0x4              	MOVRA	STK02
00037f   3c9f     movai   0x9f             	MOVAI	0x9f
000380   5605     movra   0x5              	MOVRA	STK01
000381   3c52     movai   0x52             	MOVAI	0x52
000382   5606     movra   0x6              	MOVRA	STK00
000383   3c52     movai   0x52             	MOVAI	0x52
000384   85b7     call    0x5b7            	CALL	_key_event_same_deal
                                           ;	.line	843; "MC32F7361.c"	break;
000385   a406     goto    0x406            	GOTO	_00320_DS_
                                           _00308_DS_
                                           ;	.line	845; "MC32F7361.c"	key_event_same_deal(MODE_R4C2_START, MODE_R4C2_END, 0x90F8, 0x90F8);
000386   3cf8     movai   0xf8             	MOVAI	0xf8
000387   5602     movra   0x2              	MOVRA	STK04
000388   3c90     movai   0x90             	MOVAI	0x90
000389   5603     movra   0x3              	MOVRA	STK03
00038a   3cf8     movai   0xf8             	MOVAI	0xf8
00038b   5604     movra   0x4              	MOVRA	STK02
00038c   3c90     movai   0x90             	MOVAI	0x90
00038d   5605     movra   0x5              	MOVRA	STK01
00038e   3c53     movai   0x53             	MOVAI	0x53
00038f   5606     movra   0x6              	MOVRA	STK00
000390   3c53     movai   0x53             	MOVAI	0x53
000391   85b7     call    0x5b7            	CALL	_key_event_same_deal
                                           ;	.line	846; "MC32F7361.c"	break;
000392   a406     goto    0x406            	GOTO	_00320_DS_
                                           _00309_DS_
                                           ;	.line	848; "MC32F7361.c"	key_event_same_deal(MODE_R4C3_START, MODE_R4C3_END, 0x980F, 0x980F);
000393   3c0f     movai   0xf              	MOVAI	0x0f
000394   5602     movra   0x2              	MOVRA	STK04
000395   3c98     movai   0x98             	MOVAI	0x98
000396   5603     movra   0x3              	MOVRA	STK03
000397   3c0f     movai   0xf              	MOVAI	0x0f
000398   5604     movra   0x4              	MOVRA	STK02
000399   3c98     movai   0x98             	MOVAI	0x98
00039a   5605     movra   0x5              	MOVRA	STK01
00039b   3c54     movai   0x54             	MOVAI	0x54
00039c   5606     movra   0x6              	MOVRA	STK00
00039d   3c54     movai   0x54             	MOVAI	0x54
00039e   85b7     call    0x5b7            	CALL	_key_event_same_deal
                                           ;	.line	849; "MC32F7361.c"	break;
00039f   a406     goto    0x406            	GOTO	_00320_DS_
                                           _00310_DS_
                                           ;	.line	851; "MC32F7361.c"	key_event_same_deal(MODE_R5C1_START, MODE_R5C1_END, 0x9F30, 0x9F30);
0003a0   3c30     movai   0x30             	MOVAI	0x30
0003a1   5602     movra   0x2              	MOVRA	STK04
0003a2   3c9f     movai   0x9f             	MOVAI	0x9f
0003a3   5603     movra   0x3              	MOVRA	STK03
0003a4   3c30     movai   0x30             	MOVAI	0x30
0003a5   5604     movra   0x4              	MOVRA	STK02
0003a6   3c9f     movai   0x9f             	MOVAI	0x9f
0003a7   5605     movra   0x5              	MOVRA	STK01
0003a8   3c55     movai   0x55             	MOVAI	0x55
0003a9   5606     movra   0x6              	MOVRA	STK00
0003aa   3c55     movai   0x55             	MOVAI	0x55
0003ab   85b7     call    0x5b7            	CALL	_key_event_same_deal
                                           ;	.line	852; "MC32F7361.c"	break;
0003ac   a406     goto    0x406            	GOTO	_00320_DS_
                                           _00311_DS_
                                           ;	.line	854; "MC32F7361.c"	key_event_same_deal(MODE_R5C2_START, MODE_R5C2_END, 0x90FC, 0x90FC);
0003ad   3cfc     movai   0xfc             	MOVAI	0xfc
0003ae   5602     movra   0x2              	MOVRA	STK04
0003af   3c90     movai   0x90             	MOVAI	0x90
0003b0   5603     movra   0x3              	MOVRA	STK03
0003b1   3cfc     movai   0xfc             	MOVAI	0xfc
0003b2   5604     movra   0x4              	MOVRA	STK02
0003b3   3c90     movai   0x90             	MOVAI	0x90
0003b4   5605     movra   0x5              	MOVRA	STK01
0003b5   3c56     movai   0x56             	MOVAI	0x56
0003b6   5606     movra   0x6              	MOVRA	STK00
0003b7   3c56     movai   0x56             	MOVAI	0x56
0003b8   85b7     call    0x5b7            	CALL	_key_event_same_deal
                                           ;	.line	855; "MC32F7361.c"	break;
0003b9   a406     goto    0x406            	GOTO	_00320_DS_
                                           _00312_DS_
                                           ;	.line	857; "MC32F7361.c"	key_event_same_deal(MODE_R5C3_START, MODE_R5C3_END, 0x9F0F, 0x9F0F);
0003ba   3c0f     movai   0xf              	MOVAI	0x0f
0003bb   5602     movra   0x2              	MOVRA	STK04
0003bc   3c9f     movai   0x9f             	MOVAI	0x9f
0003bd   5603     movra   0x3              	MOVRA	STK03
0003be   3c0f     movai   0xf              	MOVAI	0x0f
0003bf   5604     movra   0x4              	MOVRA	STK02
0003c0   3c9f     movai   0x9f             	MOVAI	0x9f
0003c1   5605     movra   0x5              	MOVRA	STK01
0003c2   3c57     movai   0x57             	MOVAI	0x57
0003c3   5606     movra   0x6              	MOVRA	STK00
0003c4   3c57     movai   0x57             	MOVAI	0x57
0003c5   85b7     call    0x5b7            	CALL	_key_event_same_deal
                                           ;	.line	858; "MC32F7361.c"	break;
0003c6   a406     goto    0x406            	GOTO	_00320_DS_
                                           _00313_DS_
                                           ;	.line	860; "MC32F7361.c"	key_event_same_deal(MODE_R6C1_START, MODE_R6C1_END, 0x9FF0, 0x9FF0);
0003c7   3cf0     movai   0xf0             	MOVAI	0xf0
0003c8   5602     movra   0x2              	MOVRA	STK04
0003c9   3c9f     movai   0x9f             	MOVAI	0x9f
0003ca   5603     movra   0x3              	MOVRA	STK03
0003cb   3cf0     movai   0xf0             	MOVAI	0xf0
0003cc   5604     movra   0x4              	MOVRA	STK02
0003cd   3c9f     movai   0x9f             	MOVAI	0x9f
0003ce   5605     movra   0x5              	MOVRA	STK01
0003cf   3c58     movai   0x58             	MOVAI	0x58
0003d0   5606     movra   0x6              	MOVRA	STK00
0003d1   3c58     movai   0x58             	MOVAI	0x58
0003d2   85b7     call    0x5b7            	CALL	_key_event_same_deal
                                           ;	.line	861; "MC32F7361.c"	break;
0003d3   a406     goto    0x406            	GOTO	_00320_DS_
                                           _00314_DS_
                                           ;	.line	863; "MC32F7361.c"	key_event_same_deal(MODE_R6C2_START, MODE_R6C2_END, 0x90FF, 0x90FF);
0003d4   3cff     movai   0xff             	MOVAI	0xff
0003d5   5602     movra   0x2              	MOVRA	STK04
0003d6   3c90     movai   0x90             	MOVAI	0x90
0003d7   5603     movra   0x3              	MOVRA	STK03
0003d8   3cff     movai   0xff             	MOVAI	0xff
0003d9   5604     movra   0x4              	MOVRA	STK02
0003da   3c90     movai   0x90             	MOVAI	0x90
0003db   5605     movra   0x5              	MOVRA	STK01
0003dc   3c59     movai   0x59             	MOVAI	0x59
0003dd   5606     movra   0x6              	MOVRA	STK00
0003de   3c59     movai   0x59             	MOVAI	0x59
0003df   85b7     call    0x5b7            	CALL	_key_event_same_deal
                                           ;	.line	864; "MC32F7361.c"	break;
0003e0   a406     goto    0x406            	GOTO	_00320_DS_
                                           _00315_DS_
                                           ;	.line	866; "MC32F7361.c"	key_event_same_deal(MODE_R6C3_START, MODE_R6C3_END, 0x9F03, 0x9F03);
0003e1   3c03     movai   0x3              	MOVAI	0x03
0003e2   5602     movra   0x2              	MOVRA	STK04
0003e3   3c9f     movai   0x9f             	MOVAI	0x9f
0003e4   5603     movra   0x3              	MOVRA	STK03
0003e5   3c03     movai   0x3              	MOVAI	0x03
0003e6   5604     movra   0x4              	MOVRA	STK02
0003e7   3c9f     movai   0x9f             	MOVAI	0x9f
0003e8   5605     movra   0x5              	MOVRA	STK01
0003e9   3c5a     movai   0x5a             	MOVAI	0x5a
0003ea   5606     movra   0x6              	MOVRA	STK00
0003eb   3c5a     movai   0x5a             	MOVAI	0x5a
0003ec   85b7     call    0x5b7            	CALL	_key_event_same_deal
                                           ;	.line	867; "MC32F7361.c"	break;
0003ed   a406     goto    0x406            	GOTO	_00320_DS_
                                           _00316_DS_
                                           ;	.line	870; "MC32F7361.c"	timer_count = 4 * 60 * 60 * 1000;
0003ee   7632     clrr    0x32             	CLRR	_timer_count
0003ef   3cba     movai   0xba             	MOVAI	0xba
0003f0   5633     movra   0x33             	MOVRA	(_timer_count + 1)
0003f1   3cff     movai   0xff             	MOVAI	0xff
0003f2   5634     movra   0x34             	MOVRA	(_timer_count + 2)
0003f3   5635     movra   0x35             	MOVRA	(_timer_count + 3)
                                           ;	.line	872; "MC32F7361.c"	break;
0003f4   a406     goto    0x406            	GOTO	_00320_DS_
                                           _00317_DS_
                                           ;	.line	874; "MC32F7361.c"	timer_count = 6 * 60 * 60 * 1000;
0003f5   7632     clrr    0x32             	CLRR	_timer_count
0003f6   3c97     movai   0x97             	MOVAI	0x97
0003f7   5633     movra   0x33             	MOVRA	(_timer_count + 1)
0003f8   3cff     movai   0xff             	MOVAI	0xff
0003f9   5634     movra   0x34             	MOVRA	(_timer_count + 2)
0003fa   5635     movra   0x35             	MOVRA	(_timer_count + 3)
                                           ;	.line	876; "MC32F7361.c"	break;
0003fb   a406     goto    0x406            	GOTO	_00320_DS_
                                           _00318_DS_
                                           ;	.line	878; "MC32F7361.c"	timer_count = 8 * 60 * 60 * 1000;
0003fc   7632     clrr    0x32             	CLRR	_timer_count
0003fd   3c74     movai   0x74             	MOVAI	0x74
0003fe   5633     movra   0x33             	MOVRA	(_timer_count + 1)
0003ff   7634     clrr    0x34             	CLRR	(_timer_count + 2)
000400   7635     clrr    0x35             	CLRR	(_timer_count + 3)
                                           ;	.line	880; "MC32F7361.c"	break;
000401   a406     goto    0x406            	GOTO	_00320_DS_
                                           _00319_DS_
                                           ;	.line	882; "MC32F7361.c"	timer_count = 0;
000402   7632     clrr    0x32             	CLRR	_timer_count
000403   7633     clrr    0x33             	CLRR	(_timer_count + 1)
000404   7634     clrr    0x34             	CLRR	(_timer_count + 2)
000405   7635     clrr    0x35             	CLRR	(_timer_count + 3)
                                           _00320_DS_
                                           ;	.line	887; "MC32F7361.c"	flag_is_recved_data = 0;
000406   d03a     bclr    0x3a, 0          	BCLR	_flag1,0
                                           _00322_DS_
                                           ;	.line	891; "MC32F7361.c"	if (power_sta == POWER_STA_ON)
000407   583f     movar   0x3f             	MOVAR	_power_sta
000408   3902     xorai   0x2              	XORAI	0x02
000409   e587     jbset   0x187, 0x2       	JBSET	PFLAG,2
00040a   a553     goto    0x553            	GOTO	_00368_DS_
                                           ;	.line	894; "MC32F7361.c"	if (next_frame_delay == 0) // 
00040b   5836     movar   0x36             	MOVAR	_next_frame_delay
00040c   5c37     orar    0x37             	ORAR	(_next_frame_delay + 1)
00040d   e587     jbset   0x187, 0x2       	JBSET	PFLAG,2
00040e   a10a     goto    0x10a            	GOTO	_00371_DS_
                                           ;;swapping arguments (AOP_TYPEs 1/3)
                                           ;;unsigned compare: left >= lit(0xA=10), size=1
                                           ;	.line	898; "MC32F7361.c"	if (current_index >= SECTION_1_START && current_index <= SECTION_1_END) // code
00040f   3c0a     movai   0xa              	MOVAI	0x0a
000410   483c     rsubar  0x3c             	RSUBAR	_current_index
000411   f187     jbclr   0x187, 0         	JBCLR	PFLAG,0
000412   a437     goto    0x437            	GOTO	_00355_DS_
                                           ;;genSkipc:3291: created from rifx:013B5EFC
                                           ;	.line	900; "MC32F7361.c"	speed_code = section_1_speed_table[current_speed];       // code
000413   5840     movar   0x40             	MOVAR	_current_speed
000414   3fe5     addai   0xe5             	ADDAI	(_section_1_speed_table + 0)
000415   5623     movra   0x23             	MOVRA	r0x102B
000416   3c07     movai   0x7              	MOVAI	high (_section_1_speed_table + 0)
000417   f187     jbclr   0x187, 0         	JBCLR	PFLAG,0
000418   3f01     addai   0x1              	ADDAI	0x01
000419   5624     movra   0x24             	MOVRA	r0x102A
00041a   5823     movar   0x23             	MOVAR	r0x102B
00041b   5605     movra   0x5              	MOVRA	STK01
00041c   5824     movar   0x24             	MOVAR	r0x102A
00041d   5606     movra   0x6              	MOVRA	STK00
00041e   3c80     movai   0x80             	MOVAI	0x80
00041f   878f     call    0x78f            	CALL	__gptrget1
000420   562b     movra   0x2b             	MOVRA	_main_sloc0_1_0
000421   5625     movra   0x25             	MOVRA	r0x102C
                                           ;;120	MOVAR	r0x102C
000422   762c     clrr    0x2c             	CLRR	(_main_sloc0_1_0 + 1)
                                           ;	.line	901; "MC32F7361.c"	next_frame_delay = section_1_delay_table[current_speed]; // 
000423   d187     bclr    0x187, 0         	BCLR	PFLAG,0
000424   5040     rlar    0x40             	RLAR	_current_speed
000425   5623     movra   0x23             	MOVRA	r0x102B
000426   5823     movar   0x23             	MOVAR	r0x102B
000427   3fbd     addai   0xbd             	ADDAI	(_section_1_delay_table + 0)
000428   5623     movra   0x23             	MOVRA	r0x102B
000429   3c07     movai   0x7              	MOVAI	high (_section_1_delay_table + 0)
00042a   f187     jbclr   0x187, 0         	JBCLR	PFLAG,0
00042b   3f01     addai   0x1              	ADDAI	0x01
00042c   5624     movra   0x24             	MOVRA	r0x102A
00042d   5823     movar   0x23             	MOVAR	r0x102B
00042e   5605     movra   0x5              	MOVRA	STK01
00042f   5824     movar   0x24             	MOVAR	r0x102A
000430   5606     movra   0x6              	MOVRA	STK00
000431   3c80     movai   0x80             	MOVAI	0x80
000432   87a1     call    0x7a1            	CALL	__gptrget2
000433   5637     movra   0x37             	MOVRA	(_next_frame_delay + 1)
000434   5806     movar   0x6              	MOVAR	STK00
000435   5636     movra   0x36             	MOVRA	_next_frame_delay
000436   a52e     goto    0x52e            	GOTO	_00356_DS_
                                           ;;unsigned compare: left < lit(0xA=10), size=1
                                           _00355_DS_
                                           ;	.line	903; "MC32F7361.c"	else if (current_index >= SECTION_2_START && current_index <= SECTION_2_END)
000437   3c0a     movai   0xa              	MOVAI	0x0a
000438   483c     rsubar  0x3c             	RSUBAR	_current_index
000439   e187     jbset   0x187, 0         	JBSET	PFLAG,0
00043a   a463     goto    0x463            	GOTO	_00351_DS_
                                           ;;genSkipc:3291: created from rifx:013B5EFC
                                           ;;swapping arguments (AOP_TYPEs 1/3)
                                           ;;unsigned compare: left >= lit(0x14=20), size=1
00043b   3c14     movai   0x14             	MOVAI	0x14
00043c   483c     rsubar  0x3c             	RSUBAR	_current_index
00043d   f187     jbclr   0x187, 0         	JBCLR	PFLAG,0
00043e   a463     goto    0x463            	GOTO	_00351_DS_
                                           ;;genSkipc:3291: created from rifx:013B5EFC
                                           ;	.line	905; "MC32F7361.c"	speed_code = section_2_speed_table[current_speed];
00043f   5840     movar   0x40             	MOVAR	_current_speed
000440   3fe9     addai   0xe9             	ADDAI	(_section_2_speed_table + 0)
000441   5623     movra   0x23             	MOVRA	r0x102B
000442   3c07     movai   0x7              	MOVAI	high (_section_2_speed_table + 0)
000443   f187     jbclr   0x187, 0         	JBCLR	PFLAG,0
000444   3f01     addai   0x1              	ADDAI	0x01
000445   5624     movra   0x24             	MOVRA	r0x102A
000446   5823     movar   0x23             	MOVAR	r0x102B
000447   5605     movra   0x5              	MOVRA	STK01
000448   5824     movar   0x24             	MOVAR	r0x102A
000449   5606     movra   0x6              	MOVRA	STK00
00044a   3c80     movai   0x80             	MOVAI	0x80
00044b   878f     call    0x78f            	CALL	__gptrget1
00044c   562b     movra   0x2b             	MOVRA	_main_sloc0_1_0
00044d   5625     movra   0x25             	MOVRA	r0x102C
                                           ;;119	MOVAR	r0x102C
00044e   762c     clrr    0x2c             	CLRR	(_main_sloc0_1_0 + 1)
                                           ;	.line	906; "MC32F7361.c"	next_frame_delay = section_2_delay_table[current_speed];
00044f   d187     bclr    0x187, 0         	BCLR	PFLAG,0
000450   5040     rlar    0x40             	RLAR	_current_speed
000451   5623     movra   0x23             	MOVRA	r0x102B
000452   5823     movar   0x23             	MOVAR	r0x102B
000453   3fc5     addai   0xc5             	ADDAI	(_section_2_delay_table + 0)
000454   5623     movra   0x23             	MOVRA	r0x102B
000455   3c07     movai   0x7              	MOVAI	high (_section_2_delay_table + 0)
000456   f187     jbclr   0x187, 0         	JBCLR	PFLAG,0
000457   3f01     addai   0x1              	ADDAI	0x01
000458   5624     movra   0x24             	MOVRA	r0x102A
000459   5823     movar   0x23             	MOVAR	r0x102B
00045a   5605     movra   0x5              	MOVRA	STK01
00045b   5824     movar   0x24             	MOVAR	r0x102A
00045c   5606     movra   0x6              	MOVRA	STK00
00045d   3c80     movai   0x80             	MOVAI	0x80
00045e   87a1     call    0x7a1            	CALL	__gptrget2
00045f   5637     movra   0x37             	MOVRA	(_next_frame_delay + 1)
000460   5806     movar   0x6              	MOVAR	STK00
000461   5636     movra   0x36             	MOVRA	_next_frame_delay
000462   a52e     goto    0x52e            	GOTO	_00356_DS_
                                           ;;unsigned compare: left < lit(0x14=20), size=1
                                           _00351_DS_
                                           ;	.line	908; "MC32F7361.c"	else if (current_index >= SECTION_3_START && current_index <= SECTION_3_END)
000463   3c14     movai   0x14             	MOVAI	0x14
000464   483c     rsubar  0x3c             	RSUBAR	_current_index
000465   e187     jbset   0x187, 0         	JBSET	PFLAG,0
000466   a480     goto    0x480            	GOTO	_00347_DS_
                                           ;;genSkipc:3291: created from rifx:013B5EFC
                                           ;;swapping arguments (AOP_TYPEs 1/3)
                                           ;;unsigned compare: left >= lit(0x1A=26), size=1
000467   3c1a     movai   0x1a             	MOVAI	0x1a
000468   483c     rsubar  0x3c             	RSUBAR	_current_index
000469   f187     jbclr   0x187, 0         	JBCLR	PFLAG,0
00046a   a480     goto    0x480            	GOTO	_00347_DS_
                                           ;;genSkipc:3291: created from rifx:013B5EFC
                                           ;	.line	910; "MC32F7361.c"	speed_code = section_3_speed_table[current_speed];
00046b   5840     movar   0x40             	MOVAR	_current_speed
00046c   3fed     addai   0xed             	ADDAI	(_section_3_speed_table + 0)
00046d   5623     movra   0x23             	MOVRA	r0x102B
00046e   3c07     movai   0x7              	MOVAI	high (_section_3_speed_table + 0)
00046f   f187     jbclr   0x187, 0         	JBCLR	PFLAG,0
000470   3f01     addai   0x1              	ADDAI	0x01
000471   5624     movra   0x24             	MOVRA	r0x102A
000472   5823     movar   0x23             	MOVAR	r0x102B
000473   5605     movra   0x5              	MOVRA	STK01
000474   5824     movar   0x24             	MOVAR	r0x102A
000475   5606     movra   0x6              	MOVRA	STK00
000476   3c80     movai   0x80             	MOVAI	0x80
000477   878f     call    0x78f            	CALL	__gptrget1
000478   562b     movra   0x2b             	MOVRA	_main_sloc0_1_0
000479   5625     movra   0x25             	MOVRA	r0x102C
                                           ;;118	MOVAR	r0x102C
00047a   762c     clrr    0x2c             	CLRR	(_main_sloc0_1_0 + 1)
                                           ;	.line	912; "MC32F7361.c"	next_frame_delay = 4960;
00047b   3c60     movai   0x60             	MOVAI	0x60
00047c   5636     movra   0x36             	MOVRA	_next_frame_delay
00047d   3c13     movai   0x13             	MOVAI	0x13
00047e   5637     movra   0x37             	MOVRA	(_next_frame_delay + 1)
00047f   a52e     goto    0x52e            	GOTO	_00356_DS_
                                           ;;unsigned compare: left < lit(0x1A=26), size=1
                                           _00347_DS_
                                           ;	.line	914; "MC32F7361.c"	else if (current_index >= SECTION_4_START && current_index <= SECTION_4_END)
000480   3c1a     movai   0x1a             	MOVAI	0x1a
000481   483c     rsubar  0x3c             	RSUBAR	_current_index
000482   e187     jbset   0x187, 0         	JBSET	PFLAG,0
000483   a49d     goto    0x49d            	GOTO	_00343_DS_
                                           ;;genSkipc:3291: created from rifx:013B5EFC
                                           ;;swapping arguments (AOP_TYPEs 1/3)
                                           ;;unsigned compare: left >= lit(0x1D=29), size=1
000484   3c1d     movai   0x1d             	MOVAI	0x1d
000485   483c     rsubar  0x3c             	RSUBAR	_current_index
000486   f187     jbclr   0x187, 0         	JBCLR	PFLAG,0
000487   a49d     goto    0x49d            	GOTO	_00343_DS_
                                           ;;genSkipc:3291: created from rifx:013B5EFC
                                           ;	.line	918; "MC32F7361.c"	speed_code = section_3_speed_table[current_speed];
000488   5840     movar   0x40             	MOVAR	_current_speed
000489   3fed     addai   0xed             	ADDAI	(_section_3_speed_table + 0)
00048a   5623     movra   0x23             	MOVRA	r0x102B
00048b   3c07     movai   0x7              	MOVAI	high (_section_3_speed_table + 0)
00048c   f187     jbclr   0x187, 0         	JBCLR	PFLAG,0
00048d   3f01     addai   0x1              	ADDAI	0x01
00048e   5624     movra   0x24             	MOVRA	r0x102A
00048f   5823     movar   0x23             	MOVAR	r0x102B
000490   5605     movra   0x5              	MOVRA	STK01
000491   5824     movar   0x24             	MOVAR	r0x102A
000492   5606     movra   0x6              	MOVRA	STK00
000493   3c80     movai   0x80             	MOVAI	0x80
000494   878f     call    0x78f            	CALL	__gptrget1
000495   562b     movra   0x2b             	MOVRA	_main_sloc0_1_0
000496   5625     movra   0x25             	MOVRA	r0x102C
                                           ;;117	MOVAR	r0x102C
000497   762c     clrr    0x2c             	CLRR	(_main_sloc0_1_0 + 1)
                                           ;	.line	920; "MC32F7361.c"	next_frame_delay = 4960;
000498   3c60     movai   0x60             	MOVAI	0x60
000499   5636     movra   0x36             	MOVRA	_next_frame_delay
00049a   3c13     movai   0x13             	MOVAI	0x13
00049b   5637     movra   0x37             	MOVRA	(_next_frame_delay + 1)
00049c   a52e     goto    0x52e            	GOTO	_00356_DS_
                                           ;;unsigned compare: left < lit(0x1D=29), size=1
                                           _00343_DS_
                                           ;	.line	922; "MC32F7361.c"	else if (current_index >= SECTION_5_START && current_index <= SECTION_5_END)
00049d   3c1d     movai   0x1d             	MOVAI	0x1d
00049e   483c     rsubar  0x3c             	RSUBAR	_current_index
00049f   e187     jbset   0x187, 0         	JBSET	PFLAG,0
0004a0   a4c9     goto    0x4c9            	GOTO	_00339_DS_
                                           ;;genSkipc:3291: created from rifx:013B5EFC
                                           ;;swapping arguments (AOP_TYPEs 1/3)
                                           ;;unsigned compare: left >= lit(0x3B=59), size=1
0004a1   3c3b     movai   0x3b             	MOVAI	0x3b
0004a2   483c     rsubar  0x3c             	RSUBAR	_current_index
0004a3   f187     jbclr   0x187, 0         	JBCLR	PFLAG,0
0004a4   a4c9     goto    0x4c9            	GOTO	_00339_DS_
                                           ;;genSkipc:3291: created from rifx:013B5EFC
                                           ;	.line	924; "MC32F7361.c"	speed_code = section_5_speed_table[current_speed];
0004a5   5840     movar   0x40             	MOVAR	_current_speed
0004a6   3ff1     addai   0xf1             	ADDAI	(_section_5_speed_table + 0)
0004a7   5623     movra   0x23             	MOVRA	r0x102B
0004a8   3c07     movai   0x7              	MOVAI	high (_section_5_speed_table + 0)
0004a9   f187     jbclr   0x187, 0         	JBCLR	PFLAG,0
0004aa   3f01     addai   0x1              	ADDAI	0x01
0004ab   5624     movra   0x24             	MOVRA	r0x102A
0004ac   5823     movar   0x23             	MOVAR	r0x102B
0004ad   5605     movra   0x5              	MOVRA	STK01
0004ae   5824     movar   0x24             	MOVAR	r0x102A
0004af   5606     movra   0x6              	MOVRA	STK00
0004b0   3c80     movai   0x80             	MOVAI	0x80
0004b1   878f     call    0x78f            	CALL	__gptrget1
0004b2   562b     movra   0x2b             	MOVRA	_main_sloc0_1_0
0004b3   5625     movra   0x25             	MOVRA	r0x102C
                                           ;;116	MOVAR	r0x102C
0004b4   762c     clrr    0x2c             	CLRR	(_main_sloc0_1_0 + 1)
                                           ;	.line	925; "MC32F7361.c"	next_frame_delay = section_5_delay_table[current_speed];
0004b5   d187     bclr    0x187, 0         	BCLR	PFLAG,0
0004b6   5040     rlar    0x40             	RLAR	_current_speed
0004b7   5623     movra   0x23             	MOVRA	r0x102B
0004b8   5823     movar   0x23             	MOVAR	r0x102B
0004b9   3fcd     addai   0xcd             	ADDAI	(_section_5_delay_table + 0)
0004ba   5623     movra   0x23             	MOVRA	r0x102B
0004bb   3c07     movai   0x7              	MOVAI	high (_section_5_delay_table + 0)
0004bc   f187     jbclr   0x187, 0         	JBCLR	PFLAG,0
0004bd   3f01     addai   0x1              	ADDAI	0x01
0004be   5624     movra   0x24             	MOVRA	r0x102A
0004bf   5823     movar   0x23             	MOVAR	r0x102B
0004c0   5605     movra   0x5              	MOVRA	STK01
0004c1   5824     movar   0x24             	MOVAR	r0x102A
0004c2   5606     movra   0x6              	MOVRA	STK00
0004c3   3c80     movai   0x80             	MOVAI	0x80
0004c4   87a1     call    0x7a1            	CALL	__gptrget2
0004c5   5637     movra   0x37             	MOVRA	(_next_frame_delay + 1)
0004c6   5806     movar   0x6              	MOVAR	STK00
0004c7   5636     movra   0x36             	MOVRA	_next_frame_delay
0004c8   a52e     goto    0x52e            	GOTO	_00356_DS_
                                           ;;unsigned compare: left < lit(0x3B=59), size=1
                                           _00339_DS_
                                           ;	.line	927; "MC32F7361.c"	else if (current_index >= SECTION_6_START && current_index <= SECTION_6_END)
0004c9   3c3b     movai   0x3b             	MOVAI	0x3b
0004ca   483c     rsubar  0x3c             	RSUBAR	_current_index
0004cb   e187     jbset   0x187, 0         	JBSET	PFLAG,0
0004cc   a4e6     goto    0x4e6            	GOTO	_00335_DS_
                                           ;;genSkipc:3291: created from rifx:013B5EFC
                                           ;;swapping arguments (AOP_TYPEs 1/3)
                                           ;;unsigned compare: left >= lit(0x45=69), size=1
0004cd   3c45     movai   0x45             	MOVAI	0x45
0004ce   483c     rsubar  0x3c             	RSUBAR	_current_index
0004cf   f187     jbclr   0x187, 0         	JBCLR	PFLAG,0
0004d0   a4e6     goto    0x4e6            	GOTO	_00335_DS_
                                           ;;genSkipc:3291: created from rifx:013B5EFC
                                           ;	.line	931; "MC32F7361.c"	speed_code = section_3_speed_table[current_speed];
0004d1   5840     movar   0x40             	MOVAR	_current_speed
0004d2   3fed     addai   0xed             	ADDAI	(_section_3_speed_table + 0)
0004d3   5623     movra   0x23             	MOVRA	r0x102B
0004d4   3c07     movai   0x7              	MOVAI	high (_section_3_speed_table + 0)
0004d5   f187     jbclr   0x187, 0         	JBCLR	PFLAG,0
0004d6   3f01     addai   0x1              	ADDAI	0x01
0004d7   5624     movra   0x24             	MOVRA	r0x102A
0004d8   5823     movar   0x23             	MOVAR	r0x102B
0004d9   5605     movra   0x5              	MOVRA	STK01
0004da   5824     movar   0x24             	MOVAR	r0x102A
0004db   5606     movra   0x6              	MOVRA	STK00
0004dc   3c80     movai   0x80             	MOVAI	0x80
0004dd   878f     call    0x78f            	CALL	__gptrget1
0004de   562b     movra   0x2b             	MOVRA	_main_sloc0_1_0
0004df   5625     movra   0x25             	MOVRA	r0x102C
                                           ;;115	MOVAR	r0x102C
0004e0   762c     clrr    0x2c             	CLRR	(_main_sloc0_1_0 + 1)
                                           ;	.line	933; "MC32F7361.c"	next_frame_delay = 4960;
0004e1   3c60     movai   0x60             	MOVAI	0x60
0004e2   5636     movra   0x36             	MOVRA	_next_frame_delay
0004e3   3c13     movai   0x13             	MOVAI	0x13
0004e4   5637     movra   0x37             	MOVRA	(_next_frame_delay + 1)
0004e5   a52e     goto    0x52e            	GOTO	_00356_DS_
                                           ;;unsigned compare: left < lit(0x45=69), size=1
                                           _00335_DS_
                                           ;	.line	935; "MC32F7361.c"	else if (current_index >= SECTION_7_START && current_index <= SECTION_7_END)
0004e6   3c45     movai   0x45             	MOVAI	0x45
0004e7   483c     rsubar  0x3c             	RSUBAR	_current_index
0004e8   e187     jbset   0x187, 0         	JBSET	PFLAG,0
0004e9   a512     goto    0x512            	GOTO	_00331_DS_
                                           ;;genSkipc:3291: created from rifx:013B5EFC
                                           ;;swapping arguments (AOP_TYPEs 1/3)
                                           ;;unsigned compare: left >= lit(0x4B=75), size=1
0004ea   3c4b     movai   0x4b             	MOVAI	0x4b
0004eb   483c     rsubar  0x3c             	RSUBAR	_current_index
0004ec   f187     jbclr   0x187, 0         	JBCLR	PFLAG,0
0004ed   a512     goto    0x512            	GOTO	_00331_DS_
                                           ;;genSkipc:3291: created from rifx:013B5EFC
                                           ;	.line	937; "MC32F7361.c"	speed_code = section_7_speed_table[current_speed];
0004ee   5840     movar   0x40             	MOVAR	_current_speed
0004ef   3ff5     addai   0xf5             	ADDAI	(_section_7_speed_table + 0)
0004f0   5623     movra   0x23             	MOVRA	r0x102B
0004f1   3c07     movai   0x7              	MOVAI	high (_section_7_speed_table + 0)
0004f2   f187     jbclr   0x187, 0         	JBCLR	PFLAG,0
0004f3   3f01     addai   0x1              	ADDAI	0x01
0004f4   5624     movra   0x24             	MOVRA	r0x102A
0004f5   5823     movar   0x23             	MOVAR	r0x102B
0004f6   5605     movra   0x5              	MOVRA	STK01
0004f7   5824     movar   0x24             	MOVAR	r0x102A
0004f8   5606     movra   0x6              	MOVRA	STK00
0004f9   3c80     movai   0x80             	MOVAI	0x80
0004fa   878f     call    0x78f            	CALL	__gptrget1
0004fb   562b     movra   0x2b             	MOVRA	_main_sloc0_1_0
0004fc   5625     movra   0x25             	MOVRA	r0x102C
                                           ;;112	MOVAR	r0x102C
0004fd   762c     clrr    0x2c             	CLRR	(_main_sloc0_1_0 + 1)
                                           ;	.line	938; "MC32F7361.c"	next_frame_delay = section_7_delay_table[current_speed];
0004fe   d187     bclr    0x187, 0         	BCLR	PFLAG,0
0004ff   5040     rlar    0x40             	RLAR	_current_speed
000500   5623     movra   0x23             	MOVRA	r0x102B
000501   5823     movar   0x23             	MOVAR	r0x102B
000502   3fd5     addai   0xd5             	ADDAI	(_section_7_delay_table + 0)
000503   5623     movra   0x23             	MOVRA	r0x102B
000504   3c07     movai   0x7              	MOVAI	high (_section_7_delay_table + 0)
000505   f187     jbclr   0x187, 0         	JBCLR	PFLAG,0
000506   3f01     addai   0x1              	ADDAI	0x01
000507   5624     movra   0x24             	MOVRA	r0x102A
000508   5823     movar   0x23             	MOVAR	r0x102B
000509   5605     movra   0x5              	MOVRA	STK01
00050a   5824     movar   0x24             	MOVAR	r0x102A
00050b   5606     movra   0x6              	MOVRA	STK00
00050c   3c80     movai   0x80             	MOVAI	0x80
00050d   87a1     call    0x7a1            	CALL	__gptrget2
00050e   5637     movra   0x37             	MOVRA	(_next_frame_delay + 1)
00050f   5806     movar   0x6              	MOVAR	STK00
000510   5636     movra   0x36             	MOVRA	_next_frame_delay
000511   a52e     goto    0x52e            	GOTO	_00356_DS_
                                           ;;unsigned compare: left < lit(0x4B=75), size=1
                                           _00331_DS_
                                           ;	.line	940; "MC32F7361.c"	else if (current_index >= SECTION_8_START && current_index <= SECTION_8_END)
000512   3c4b     movai   0x4b             	MOVAI	0x4b
000513   483c     rsubar  0x3c             	RSUBAR	_current_index
000514   e187     jbset   0x187, 0         	JBSET	PFLAG,0
000515   a520     goto    0x520            	GOTO	_00327_DS_
                                           ;;genSkipc:3291: created from rifx:013B5EFC
                                           ;;swapping arguments (AOP_TYPEs 1/3)
                                           ;;unsigned compare: left >= lit(0x4E=78), size=1
000516   3c4e     movai   0x4e             	MOVAI	0x4e
000517   483c     rsubar  0x3c             	RSUBAR	_current_index
000518   f187     jbclr   0x187, 0         	JBCLR	PFLAG,0
000519   a520     goto    0x520            	GOTO	_00327_DS_
                                           ;;genSkipc:3291: created from rifx:013B5EFC
                                           ;	.line	944; "MC32F7361.c"	next_frame_delay = 0xFFFF;
00051a   3cff     movai   0xff             	MOVAI	0xff
00051b   5636     movra   0x36             	MOVRA	_next_frame_delay
00051c   5637     movra   0x37             	MOVRA	(_next_frame_delay + 1)
                                           ;	.line	945; "MC32F7361.c"	speed_code = 0x00;
00051d   762b     clrr    0x2b             	CLRR	_main_sloc0_1_0
00051e   762c     clrr    0x2c             	CLRR	(_main_sloc0_1_0 + 1)
00051f   a52e     goto    0x52e            	GOTO	_00356_DS_
                                           ;;unsigned compare: left < lit(0x4E=78), size=1
                                           _00327_DS_
                                           ;	.line	951; "MC32F7361.c"	else if (current_index >= SECTION_9_START && current_index <= SECTION_9_END)
000520   3c4e     movai   0x4e             	MOVAI	0x4e
000521   483c     rsubar  0x3c             	RSUBAR	_current_index
000522   e187     jbset   0x187, 0         	JBSET	PFLAG,0
000523   a52e     goto    0x52e            	GOTO	_00356_DS_
                                           ;;genSkipc:3291: created from rifx:013B5EFC
                                           ;;swapping arguments (AOP_TYPEs 1/3)
                                           ;;unsigned compare: left >= lit(0x5B=91), size=1
000524   3c5b     movai   0x5b             	MOVAI	0x5b
000525   483c     rsubar  0x3c             	RSUBAR	_current_index
000526   f187     jbclr   0x187, 0         	JBCLR	PFLAG,0
000527   a52e     goto    0x52e            	GOTO	_00356_DS_
                                           ;;genSkipc:3291: created from rifx:013B5EFC
                                           ;	.line	956; "MC32F7361.c"	next_frame_delay = 0xFFFF;
000528   3cff     movai   0xff             	MOVAI	0xff
000529   5636     movra   0x36             	MOVRA	_next_frame_delay
00052a   5637     movra   0x37             	MOVRA	(_next_frame_delay + 1)
                                           ;	.line	957; "MC32F7361.c"	speed_code = 0x10;
00052b   3c10     movai   0x10             	MOVAI	0x10
00052c   562b     movra   0x2b             	MOVRA	_main_sloc0_1_0
00052d   762c     clrr    0x2c             	CLRR	(_main_sloc0_1_0 + 1)
                                           _00356_DS_
                                           ;	.line	962; "MC32F7361.c"	speed_code <<= 8;
00052e   582b     movar   0x2b             	MOVAR	_main_sloc0_1_0
00052f   5624     movra   0x24             	MOVRA	r0x102A
000530   7623     clrr    0x23             	CLRR	r0x102B
                                           ;	.line	963; "MC32F7361.c"	speed_code |= main_table[current_index];
000531   583c     movar   0x3c             	MOVAR	_current_index
000532   3f34     addai   0x34             	ADDAI	(_main_table + 0)
000533   5625     movra   0x25             	MOVRA	r0x102C
000534   3c07     movai   0x7              	MOVAI	high (_main_table + 0)
000535   f187     jbclr   0x187, 0         	JBCLR	PFLAG,0
000536   3f01     addai   0x1              	ADDAI	0x01
000537   5626     movra   0x26             	MOVRA	r0x102D
000538   5825     movar   0x25             	MOVAR	r0x102C
000539   5605     movra   0x5              	MOVRA	STK01
00053a   5826     movar   0x26             	MOVAR	r0x102D
00053b   5606     movra   0x6              	MOVRA	STK00
00053c   3c80     movai   0x80             	MOVAI	0x80
00053d   878f     call    0x78f            	CALL	__gptrget1
00053e   5627     movra   0x27             	MOVRA	r0x102E
                                           ;;108	MOVAR	r0x102E
00053f   7626     clrr    0x26             	CLRR	r0x102D
                                           ;;107	MOVAR	r0x102C
000540   5827     movar   0x27             	MOVAR	r0x102E
000541   5625     movra   0x25             	MOVRA	r0x102C
000542   5c23     orar    0x23             	ORAR	r0x102B
000543   562b     movra   0x2b             	MOVRA	_main_sloc0_1_0
000544   3c00     movai   0                	MOVAI	0x00
000545   5c24     orar    0x24             	ORAR	r0x102A
000546   562c     movra   0x2c             	MOVRA	(_main_sloc0_1_0 + 1)
                                           ;	.line	964; "MC32F7361.c"	send_cmd_16bit(speed_code);
000547   582b     movar   0x2b             	MOVAR	_main_sloc0_1_0
000548   5606     movra   0x6              	MOVRA	STK00
000549   582c     movar   0x2c             	MOVAR	(_main_sloc0_1_0 + 1)
00054a   8697     call    0x697            	CALL	_send_cmd_16bit
                                           ;	.line	966; "MC32F7361.c"	current_index++;
00054b   663c     incr    0x3c             	INCR	_current_index
                                           ;	.line	967; "MC32F7361.c"	if (current_index > end_index)
00054c   583c     movar   0x3c             	MOVAR	_current_index
00054d   483e     rsubar  0x3e             	RSUBAR	_end_index
00054e   f187     jbclr   0x187, 0         	JBCLR	PFLAG,0
00054f   a10a     goto    0x10a            	GOTO	_00371_DS_
                                           ;;genSkipc:3291: created from rifx:013B5EFC
                                           ;	.line	968; "MC32F7361.c"	current_index = start_index;
000550   583d     movar   0x3d             	MOVAR	_start_index
000551   563c     movra   0x3c             	MOVRA	_current_index
000552   a10a     goto    0x10a            	GOTO	_00371_DS_
                                           _00368_DS_
                                           ;	.line	971; "MC32F7361.c"	else if (power_sta == POWER_STA_PRE_ON)
000553   583f     movar   0x3f             	MOVAR	_power_sta
000554   3901     xorai   0x1              	XORAI	0x01
000555   e587     jbset   0x187, 0x2       	JBSET	PFLAG,2
000556   a5a3     goto    0x5a3            	GOTO	_00365_DS_
                                           ;	.line	974; "MC32F7361.c"	LED_CTL_PIN = 1;
000557   c990     bset    0x190, 0x4       	BSET	_IOP0bits,4
                                           ;	.line	975; "MC32F7361.c"	delay_ms(2);
000558   3c02     movai   0x2              	MOVAI	0x02
000559   5606     movra   0x6              	MOVRA	STK00
00055a   3c00     movai   0                	MOVAI	0x00
00055b   8714     call    0x714            	CALL	_delay_ms
                                           ;	.line	976; "MC32F7361.c"	LED_CTL_PIN = 0;
00055c   d990     bclr    0x190, 0x4       	BCLR	_IOP0bits,4
                                           ;	.line	977; "MC32F7361.c"	delay_100us();
00055d   8708     call    0x708            	CALL	_delay_100us
                                           ;	.line	978; "MC32F7361.c"	delay_100us();
00055e   8708     call    0x708            	CALL	_delay_100us
                                           ;	.line	979; "MC32F7361.c"	LED_CTL_PIN = 1;
00055f   c990     bset    0x190, 0x4       	BSET	_IOP0bits,4
                                           ;	.line	980; "MC32F7361.c"	delay_ms(3);
000560   3c03     movai   0x3              	MOVAI	0x03
000561   5606     movra   0x6              	MOVRA	STK00
000562   3c00     movai   0                	MOVAI	0x00
000563   8714     call    0x714            	CALL	_delay_ms
                                           ;	.line	981; "MC32F7361.c"	LED_CTL_PIN = 0;
000564   d990     bclr    0x190, 0x4       	BCLR	_IOP0bits,4
                                           ;	.line	982; "MC32F7361.c"	delay_100us();
000565   8708     call    0x708            	CALL	_delay_100us
                                           ;	.line	983; "MC32F7361.c"	delay_100us();
000566   8708     call    0x708            	CALL	_delay_100us
                                           ;	.line	984; "MC32F7361.c"	LED_CTL_PIN = 1;
000567   c990     bset    0x190, 0x4       	BSET	_IOP0bits,4
                                           ;	.line	985; "MC32F7361.c"	delay_ms(4);
000568   3c04     movai   0x4              	MOVAI	0x04
000569   5606     movra   0x6              	MOVRA	STK00
00056a   3c00     movai   0                	MOVAI	0x00
00056b   8714     call    0x714            	CALL	_delay_ms
                                           ;	.line	986; "MC32F7361.c"	LED_CTL_PIN = 0;
00056c   d990     bclr    0x190, 0x4       	BCLR	_IOP0bits,4
                                           ;	.line	987; "MC32F7361.c"	delay_100us();
00056d   8708     call    0x708            	CALL	_delay_100us
                                           ;	.line	988; "MC32F7361.c"	delay_100us();
00056e   8708     call    0x708            	CALL	_delay_100us
                                           ;	.line	989; "MC32F7361.c"	LED_CTL_PIN = 1;
00056f   c990     bset    0x190, 0x4       	BSET	_IOP0bits,4
                                           ;	.line	990; "MC32F7361.c"	delay_ms(5);
000570   3c05     movai   0x5              	MOVAI	0x05
000571   5606     movra   0x6              	MOVRA	STK00
000572   3c00     movai   0                	MOVAI	0x00
000573   8714     call    0x714            	CALL	_delay_ms
                                           ;	.line	991; "MC32F7361.c"	LED_CTL_PIN = 0;
000574   d990     bclr    0x190, 0x4       	BCLR	_IOP0bits,4
                                           ;	.line	992; "MC32F7361.c"	delay_100us();
000575   8708     call    0x708            	CALL	_delay_100us
                                           ;	.line	993; "MC32F7361.c"	delay_100us();
000576   8708     call    0x708            	CALL	_delay_100us
                                           ;	.line	994; "MC32F7361.c"	LED_CTL_PIN = 1;
000577   c990     bset    0x190, 0x4       	BSET	_IOP0bits,4
                                           ;	.line	995; "MC32F7361.c"	delay_ms(51);
000578   3c33     movai   0x33             	MOVAI	0x33
000579   5606     movra   0x6              	MOVRA	STK00
00057a   3c00     movai   0                	MOVAI	0x00
00057b   8714     call    0x714            	CALL	_delay_ms
                                           ;	.line	997; "MC32F7361.c"	power_sta = POWER_STA_ON;
00057c   3c02     movai   0x2              	MOVAI	0x02
00057d   563f     movra   0x3f             	MOVRA	_power_sta
                                           ;	.line	999; "MC32F7361.c"	key_event_same_deal(EEPROM_Read_Byte(0), EEPROM_Read_Byte(1), EEPROM_Read_Byte(2), EEPROM_Read_Byte(3));
00057e   3c00     movai   0                	MOVAI	0x00
00057f   86c3     call    0x6c3            	CALL	_EEPROM_Read_Byte
000580   5624     movra   0x24             	MOVRA	r0x102A
000581   5806     movar   0x6              	MOVAR	STK00
000582   5625     movra   0x25             	MOVRA	r0x102C
000583   5623     movra   0x23             	MOVRA	r0x102B
                                           ;;111	MOVAR	r0x102B
000584   3c01     movai   0x1              	MOVAI	0x01
000585   86c3     call    0x6c3            	CALL	_EEPROM_Read_Byte
000586   5624     movra   0x24             	MOVRA	r0x102A
000587   5806     movar   0x6              	MOVAR	STK00
000588   5626     movra   0x26             	MOVRA	r0x102D
000589   5623     movra   0x23             	MOVRA	r0x102B
                                           ;;106	MOVAR	r0x102B
00058a   3c02     movai   0x2              	MOVAI	0x02
00058b   86c3     call    0x6c3            	CALL	_EEPROM_Read_Byte
00058c   5624     movra   0x24             	MOVRA	r0x102A
00058d   5806     movar   0x6              	MOVAR	STK00
00058e   5623     movra   0x23             	MOVRA	r0x102B
00058f   3c03     movai   0x3              	MOVAI	0x03
000590   86c3     call    0x6c3            	CALL	_EEPROM_Read_Byte
000591   5628     movra   0x28             	MOVRA	r0x102F
000592   5806     movar   0x6              	MOVAR	STK00
000593   5627     movra   0x27             	MOVRA	r0x102E
000594   5827     movar   0x27             	MOVAR	r0x102E
000595   5602     movra   0x2              	MOVRA	STK04
000596   5828     movar   0x28             	MOVAR	r0x102F
000597   5603     movra   0x3              	MOVRA	STK03
000598   5823     movar   0x23             	MOVAR	r0x102B
000599   5604     movra   0x4              	MOVRA	STK02
00059a   5824     movar   0x24             	MOVAR	r0x102A
00059b   5605     movra   0x5              	MOVRA	STK01
00059c   5826     movar   0x26             	MOVAR	r0x102D
00059d   5606     movra   0x6              	MOVRA	STK00
00059e   5825     movar   0x25             	MOVAR	r0x102C
00059f   85b7     call    0x5b7            	CALL	_key_event_same_deal
                                           ;	.line	1000; "MC32F7361.c"	next_frame_delay = 0;
0005a0   7636     clrr    0x36             	CLRR	_next_frame_delay
0005a1   7637     clrr    0x37             	CLRR	(_next_frame_delay + 1)
0005a2   a10a     goto    0x10a            	GOTO	_00371_DS_
                                           _00365_DS_
                                           ;	.line	1003; "MC32F7361.c"	else if (power_sta == POWER_STA_PRE_OFF)
0005a3   583f     movar   0x3f             	MOVAR	_power_sta
0005a4   3903     xorai   0x3              	XORAI	0x03
0005a5   e587     jbset   0x187, 0x2       	JBSET	PFLAG,2
0005a6   a10a     goto    0x10a            	GOTO	_00371_DS_
                                           ;	.line	1005; "MC32F7361.c"	power_sta = POWER_STA_OFF;
0005a7   763f     clrr    0x3f             	CLRR	_power_sta
                                           ;	.line	1007; "MC32F7361.c"	send_cmd_16bit(0x0C00);
0005a8   3c00     movai   0                	MOVAI	0x00
0005a9   5606     movra   0x6              	MOVRA	STK00
0005aa   3c0c     movai   0xc              	MOVAI	0x0c
0005ab   8697     call    0x697            	CALL	_send_cmd_16bit
                                           ;	.line	1008; "MC32F7361.c"	send_cmd_16bit(0x0C00);
0005ac   3c00     movai   0                	MOVAI	0x00
0005ad   5606     movra   0x6              	MOVRA	STK00
0005ae   3c0c     movai   0xc              	MOVAI	0x0c
0005af   8697     call    0x697            	CALL	_send_cmd_16bit
                                           ;	.line	1009; "MC32F7361.c"	delay_ms(40);
0005b0   3c28     movai   0x28             	MOVAI	0x28
0005b1   5606     movra   0x6              	MOVRA	STK00
0005b2   3c00     movai   0                	MOVAI	0x00
0005b3   8714     call    0x714            	CALL	_delay_ms
                                           ;	.line	1010; "MC32F7361.c"	LED_CTL_PIN = 0;
0005b4   d990     bclr    0x190, 0x4       	BCLR	_IOP0bits,4
0005b5   a10a     goto    0x10a            	GOTO	_00371_DS_
                                           ;	.line	1013; "MC32F7361.c"	}
0005b6   000c     return                   	RETURN	
                                           ; exit point of _main
                                           
                                           ;***
                                           ;  pBlock Stats: dbName = C
                                           ;***
                                           ;entry:  _key_event_same_deal	;Function start
                                           ; 2 exit points
                                           ;has an exit
                                           ;functions called:
                                           ;   _EEPROM_Write_Byte
                                           ;   _EEPROM_Write_Byte
                                           ;   _EEPROM_Write_Byte
                                           ;   _EEPROM_Write_Byte
                                           ;   _EEPROM_Write_Byte
                                           ;   _send_cmd_16bit
                                           ;   _send_cmd_16bit
                                           ;   _send_cmd_16bit
                                           ;   _EEPROM_Write_Byte
                                           ;   _EEPROM_Write_Byte
                                           ;   _EEPROM_Write_Byte
                                           ;   _EEPROM_Write_Byte
                                           ;   _EEPROM_Write_Byte
                                           ;   _EEPROM_Write_Byte
                                           ;   _EEPROM_Write_Byte
                                           ;   _EEPROM_Write_Byte
                                           ;   _EEPROM_Write_Byte
                                           ;   _EEPROM_Write_Byte
                                           ;   _send_cmd_16bit
                                           ;   _send_cmd_16bit
                                           ;   _send_cmd_16bit
                                           ;   _EEPROM_Write_Byte
                                           ;   _EEPROM_Write_Byte
                                           ;   _EEPROM_Write_Byte
                                           ;   _EEPROM_Write_Byte
                                           ;   _EEPROM_Write_Byte
                                           ;13 compiler assigned registers:
                                           ;   r0x1022
                                           ;   STK00
                                           ;   r0x1023
                                           ;   STK01
                                           ;   r0x1024
                                           ;   STK02
                                           ;   r0x1025
                                           ;   STK03
                                           ;   r0x1026
                                           ;   STK04
                                           ;   r0x1027
                                           ;   r0x1028
                                           ;   r0x1029
                                           ;; Starting pCode block
                                           _key_event_same_deal	;Function start
                                           ; 2 exit points
                                           ;	.line	581; "MC32F7361.c"	void key_event_same_deal(u8 start, u8 end, u16 own_data1, u16 own_data2)
0005b7   561b     movra   0x1b             	MOVRA	r0x1022
0005b8   5806     movar   0x6              	MOVAR	STK00
0005b9   561c     movra   0x1c             	MOVRA	r0x1023
0005ba   5805     movar   0x5              	MOVAR	STK01
0005bb   561e     movra   0x1e             	MOVRA	r0x1024
0005bc   5804     movar   0x4              	MOVAR	STK02
0005bd   561d     movra   0x1d             	MOVRA	r0x1025
0005be   5803     movar   0x3              	MOVAR	STK03
0005bf   5620     movra   0x20             	MOVRA	r0x1026
0005c0   5802     movar   0x2              	MOVAR	STK04
0005c1   561f     movra   0x1f             	MOVRA	r0x1027
                                           ;	.line	583; "MC32F7361.c"	if (power_sta == POWER_STA_ON)
0005c2   583f     movar   0x3f             	MOVAR	_power_sta
0005c3   3902     xorai   0x2              	XORAI	0x02
0005c4   e587     jbset   0x187, 0x2       	JBSET	PFLAG,2
0005c5   a60f     goto    0x60f            	GOTO	_00234_DS_
                                           ;	.line	585; "MC32F7361.c"	start_index = start;
0005c6   581b     movar   0x1b             	MOVAR	r0x1022
0005c7   563d     movra   0x3d             	MOVRA	_start_index
                                           ;	.line	586; "MC32F7361.c"	end_index = end;
0005c8   581c     movar   0x1c             	MOVAR	r0x1023
0005c9   563e     movra   0x3e             	MOVRA	_end_index
                                           ;;114	MOVAR	r0x1022
                                           ;	.line	589; "MC32F7361.c"	EEPROM_Write_Byte(0, start);
0005ca   7622     clrr    0x22             	CLRR	r0x1029
                                           ;;113	MOVAR	r0x1028
0005cb   581b     movar   0x1b             	MOVAR	r0x1022
0005cc   5621     movra   0x21             	MOVRA	r0x1028
0005cd   5605     movra   0x5              	MOVRA	STK01
0005ce   3c00     movai   0                	MOVAI	0x00
0005cf   5606     movra   0x6              	MOVRA	STK00
0005d0   3c00     movai   0                	MOVAI	0x00
0005d1   86da     call    0x6da            	CALL	_EEPROM_Write_Byte
                                           ;;110	MOVAR	r0x1023
                                           ;	.line	590; "MC32F7361.c"	EEPROM_Write_Byte(1, end);
0005d2   7622     clrr    0x22             	CLRR	r0x1029
                                           ;;109	MOVAR	r0x1028
0005d3   581c     movar   0x1c             	MOVAR	r0x1023
0005d4   5621     movra   0x21             	MOVRA	r0x1028
0005d5   5605     movra   0x5              	MOVRA	STK01
0005d6   3c00     movai   0                	MOVAI	0x00
0005d7   5606     movra   0x6              	MOVRA	STK00
0005d8   3c01     movai   0x1              	MOVAI	0x01
0005d9   86da     call    0x6da            	CALL	_EEPROM_Write_Byte
                                           ;	.line	591; "MC32F7361.c"	EEPROM_Write_Byte(2, own_data1);
0005da   581d     movar   0x1d             	MOVAR	r0x1025
0005db   5605     movra   0x5              	MOVRA	STK01
0005dc   581e     movar   0x1e             	MOVAR	r0x1024
0005dd   5606     movra   0x6              	MOVRA	STK00
0005de   3c02     movai   0x2              	MOVAI	0x02
0005df   86da     call    0x6da            	CALL	_EEPROM_Write_Byte
                                           ;	.line	592; "MC32F7361.c"	EEPROM_Write_Byte(3, own_data2);
0005e0   581f     movar   0x1f             	MOVAR	r0x1027
0005e1   5605     movra   0x5              	MOVRA	STK01
0005e2   5820     movar   0x20             	MOVAR	r0x1026
0005e3   5606     movra   0x6              	MOVRA	STK00
0005e4   3c03     movai   0x3              	MOVAI	0x03
0005e5   86da     call    0x6da            	CALL	_EEPROM_Write_Byte
                                           ;	.line	593; "MC32F7361.c"	EEPROM_Write_Byte(4, 0xA5A5);
0005e6   3ca5     movai   0xa5             	MOVAI	0xa5
0005e7   5605     movra   0x5              	MOVRA	STK01
0005e8   3ca5     movai   0xa5             	MOVAI	0xa5
0005e9   5606     movra   0x6              	MOVRA	STK00
0005ea   3c04     movai   0x4              	MOVAI	0x04
0005eb   86da     call    0x6da            	CALL	_EEPROM_Write_Byte
                                           ;	.line	595; "MC32F7361.c"	send_cmd_16bit(0x0C00);
0005ec   3c00     movai   0                	MOVAI	0x00
0005ed   5606     movra   0x6              	MOVRA	STK00
0005ee   3c0c     movai   0xc              	MOVAI	0x0c
0005ef   8697     call    0x697            	CALL	_send_cmd_16bit
                                           ;	.line	596; "MC32F7361.c"	if (own_data1 != 0xFFFF)
0005f0   581d     movar   0x1d             	MOVAR	r0x1025
0005f1   39ff     xorai   0xff             	XORAI	0xff
0005f2   e587     jbset   0x187, 0x2       	JBSET	PFLAG,2
0005f3   a5f9     goto    0x5f9            	GOTO	_00254_DS_
0005f4   581e     movar   0x1e             	MOVAR	r0x1024
0005f5   39ff     xorai   0xff             	XORAI	0xff
0005f6   e587     jbset   0x187, 0x2       	JBSET	PFLAG,2
0005f7   a5f9     goto    0x5f9            	GOTO	_00254_DS_
0005f8   a5fd     goto    0x5fd            	GOTO	_00228_DS_
                                           _00254_DS_
                                           ;	.line	597; "MC32F7361.c"	send_cmd_16bit(own_data1);
0005f9   581d     movar   0x1d             	MOVAR	r0x1025
0005fa   5606     movra   0x6              	MOVRA	STK00
0005fb   581e     movar   0x1e             	MOVAR	r0x1024
0005fc   8697     call    0x697            	CALL	_send_cmd_16bit
                                           _00228_DS_
                                           ;	.line	598; "MC32F7361.c"	if (own_data2 != 0xFFFF)
0005fd   581f     movar   0x1f             	MOVAR	r0x1027
0005fe   39ff     xorai   0xff             	XORAI	0xff
0005ff   e587     jbset   0x187, 0x2       	JBSET	PFLAG,2
000600   a606     goto    0x606            	GOTO	_00255_DS_
000601   5820     movar   0x20             	MOVAR	r0x1026
000602   39ff     xorai   0xff             	XORAI	0xff
000603   e587     jbset   0x187, 0x2       	JBSET	PFLAG,2
000604   a606     goto    0x606            	GOTO	_00255_DS_
000605   a60a     goto    0x60a            	GOTO	_00230_DS_
                                           _00255_DS_
                                           ;	.line	599; "MC32F7361.c"	send_cmd_16bit(own_data2);
000606   581f     movar   0x1f             	MOVAR	r0x1027
000607   5606     movra   0x6              	MOVRA	STK00
000608   5820     movar   0x20             	MOVAR	r0x1026
000609   8697     call    0x697            	CALL	_send_cmd_16bit
                                           _00230_DS_
                                           ;	.line	601; "MC32F7361.c"	current_index = start_index; // 
00060a   583d     movar   0x3d             	MOVAR	_start_index
00060b   563c     movra   0x3c             	MOVRA	_current_index
                                           ;	.line	602; "MC32F7361.c"	next_frame_delay = 0;        // 
00060c   7636     clrr    0x36             	CLRR	_next_frame_delay
00060d   7637     clrr    0x37             	CLRR	(_next_frame_delay + 1)
00060e   a637     goto    0x637            	GOTO	_00236_DS_
                                           _00234_DS_
                                           ;	.line	604; "MC32F7361.c"	else if (power_sta == POWER_STA_OFF)
00060f   3c00     movai   0                	MOVAI	0x00
000610   5c3f     orar    0x3f             	ORAR	_power_sta
000611   e587     jbset   0x187, 0x2       	JBSET	PFLAG,2
000612   a637     goto    0x637            	GOTO	_00236_DS_
                                           ;;105	MOVAR	r0x1022
                                           ;	.line	607; "MC32F7361.c"	EEPROM_Write_Byte(0, start);
000613   7622     clrr    0x22             	CLRR	r0x1029
                                           ;;104	MOVAR	r0x1028
000614   581b     movar   0x1b             	MOVAR	r0x1022
000615   5621     movra   0x21             	MOVRA	r0x1028
000616   5605     movra   0x5              	MOVRA	STK01
000617   3c00     movai   0                	MOVAI	0x00
000618   5606     movra   0x6              	MOVRA	STK00
000619   3c00     movai   0                	MOVAI	0x00
00061a   86da     call    0x6da            	CALL	_EEPROM_Write_Byte
                                           ;;103	MOVAR	r0x1023
                                           ;	.line	608; "MC32F7361.c"	EEPROM_Write_Byte(1, end);
00061b   7621     clrr    0x21             	CLRR	r0x1028
                                           ;;102	MOVAR	r0x1022
00061c   581c     movar   0x1c             	MOVAR	r0x1023
00061d   561b     movra   0x1b             	MOVRA	r0x1022
00061e   5605     movra   0x5              	MOVRA	STK01
00061f   3c00     movai   0                	MOVAI	0x00
000620   5606     movra   0x6              	MOVRA	STK00
000621   3c01     movai   0x1              	MOVAI	0x01
000622   86da     call    0x6da            	CALL	_EEPROM_Write_Byte
                                           ;	.line	609; "MC32F7361.c"	EEPROM_Write_Byte(2, own_data1);
000623   581d     movar   0x1d             	MOVAR	r0x1025
000624   5605     movra   0x5              	MOVRA	STK01
000625   581e     movar   0x1e             	MOVAR	r0x1024
000626   5606     movra   0x6              	MOVRA	STK00
000627   3c02     movai   0x2              	MOVAI	0x02
000628   86da     call    0x6da            	CALL	_EEPROM_Write_Byte
                                           ;	.line	610; "MC32F7361.c"	EEPROM_Write_Byte(3, own_data2);
000629   581f     movar   0x1f             	MOVAR	r0x1027
00062a   5605     movra   0x5              	MOVRA	STK01
00062b   5820     movar   0x20             	MOVAR	r0x1026
00062c   5606     movra   0x6              	MOVRA	STK00
00062d   3c03     movai   0x3              	MOVAI	0x03
00062e   86da     call    0x6da            	CALL	_EEPROM_Write_Byte
                                           ;	.line	611; "MC32F7361.c"	EEPROM_Write_Byte(4, 0xA5A5);
00062f   3ca5     movai   0xa5             	MOVAI	0xa5
000630   5605     movra   0x5              	MOVRA	STK01
000631   3ca5     movai   0xa5             	MOVAI	0xa5
000632   5606     movra   0x6              	MOVRA	STK00
000633   3c04     movai   0x4              	MOVAI	0x04
000634   86da     call    0x6da            	CALL	_EEPROM_Write_Byte
                                           ;	.line	612; "MC32F7361.c"	power_sta = POWER_STA_PRE_ON;
000635   3c01     movai   0x1              	MOVAI	0x01
000636   563f     movra   0x3f             	MOVRA	_power_sta
                                           _00236_DS_
                                           ;	.line	614; "MC32F7361.c"	}
000637   000c     return                   	RETURN	
                                           ; exit point of _key_event_same_deal
                                           
                                           ;***
                                           ;  pBlock Stats: dbName = C
                                           ;***
                                           ;entry:  _Sys_Init	;Function start
                                           ; 2 exit points
                                           ;has an exit
                                           ;functions called:
                                           ;   _CLR_RAM
                                           ;   _IO_Init
                                           ;   _TIMER2_INT_Init
                                           ;   _TIMER3_INT_Init
                                           ;   _CLR_RAM
                                           ;   _IO_Init
                                           ;   _TIMER2_INT_Init
                                           ;   _TIMER3_INT_Init
                                           ;; Starting pCode block
                                           _Sys_Init	;Function start
                                           ; 2 exit points
                                           ;	.line	243; "MC32F7361.c"	GIE = 0;
000638   df88     bclr    0x188, 0x7       	BCLR	_MCRbits,7
                                           ;	.line	244; "MC32F7361.c"	CLR_RAM();
000639   8663     call    0x663            	CALL	_CLR_RAM
                                           ;	.line	245; "MC32F7361.c"	IO_Init();
00063a   864e     call    0x64e            	CALL	_IO_Init
                                           ;	.line	248; "MC32F7361.c"	TIMER2_INT_Init();
00063b   8645     call    0x645            	CALL	_TIMER2_INT_Init
                                           ;	.line	249; "MC32F7361.c"	TIMER3_INT_Init();
00063c   863f     call    0x63f            	CALL	_TIMER3_INT_Init
                                           ;	.line	250; "MC32F7361.c"	GIE = 1;
00063d   cf88     bset    0x188, 0x7       	BSET	_MCRbits,7
                                           ;	.line	251; "MC32F7361.c"	}
00063e   000c     return                   	RETURN	
                                           ; exit point of _Sys_Init
                                           
                                           ;***
                                           ;  pBlock Stats: dbName = C
                                           ;***
                                           ;entry:  _TIMER3_INT_Init	;Function start
                                           ; 2 exit points
                                           ;has an exit
                                           ;; Starting pCode block
                                           _TIMER3_INT_Init	;Function start
                                           ; 2 exit points
                                           ;	.line	231; "MC32F7361.c"	T3LOAD = 135 - 1;                               // 1ms
00063f   3c86     movai   0x86             	MOVAI	0x86
000640   57a6     movra   0x1a6            	MOVRA	_T3LOAD
                                           ;	.line	232; "MC32F7361.c"	T3CR = (0x01 << 7) | (0x01 << 2) | (0x01 << 1); // FCPU64
000641   3c86     movai   0x86             	MOVAI	0x86
000642   57a4     movra   0x1a4            	MOVRA	_T3CR
                                           ;	.line	233; "MC32F7361.c"	T3IE = 1;
000643   cf8a     bset    0x18a, 0x7       	BSET	_INTEbits,7
                                           ;	.line	234; "MC32F7361.c"	}
000644   000c     return                   	RETURN	
                                           ; exit point of _TIMER3_INT_Init
                                           
                                           ;***
                                           ;  pBlock Stats: dbName = C
                                           ;***
                                           ;entry:  _TIMER2_INT_Init	;Function start
                                           ; 2 exit points
                                           ;has an exit
                                           ;; Starting pCode block
                                           _TIMER2_INT_Init	;Function start
                                           ; 2 exit points
                                           ;	.line	222; "MC32F7361.c"	T2CR = DEF_SET_BIT0 | DEF_SET_BIT1; // CPU,8
000645   3c03     movai   0x3              	MOVAI	0x03
000646   57a0     movra   0x1a0            	MOVRA	_T2CR
                                           ;	.line	223; "MC32F7361.c"	T2CNT = 100 - 1;
000647   3c63     movai   0x63             	MOVAI	0x63
000648   57a1     movra   0x1a1            	MOVRA	_T2CNT
                                           ;	.line	224; "MC32F7361.c"	T2LOAD = 100 - 1; // 100us
000649   3c63     movai   0x63             	MOVAI	0x63
00064a   57a2     movra   0x1a2            	MOVRA	_T2LOAD
                                           ;	.line	225; "MC32F7361.c"	T2EN = 1;
00064b   cfa0     bset    0x1a0, 0x7       	BSET	_T2CRbits,7
                                           ;	.line	226; "MC32F7361.c"	T2IE = 1;
00064c   cb8a     bset    0x18a, 0x5       	BSET	_INTEbits,5
                                           ;	.line	227; "MC32F7361.c"	}
00064d   000c     return                   	RETURN	
                                           ; exit point of _TIMER2_INT_Init
                                           
                                           ;***
                                           ;  pBlock Stats: dbName = C
                                           ;***
                                           ;entry:  _IO_Init	;Function start
                                           ; 2 exit points
                                           ;has an exit
                                           ;; Starting pCode block
                                           _IO_Init	;Function start
                                           ; 2 exit points
                                           ;	.line	193; "MC32F7361.c"	IOP0 = 0x00;   // io
00064e   7790     clrr    0x190            	CLRR	_IOP0
                                           ;	.line	194; "MC32F7361.c"	OEP0 = 0x3F;   // io 1:out  0:in
00064f   3c3f     movai   0x3f             	MOVAI	0x3f
000650   5791     movra   0x191            	MOVRA	_OEP0
                                           ;	.line	195; "MC32F7361.c"	PUP0 = 0x00;   // io   1:enable  0:disable
000651   7792     clrr    0x192            	CLRR	_PUP0
                                           ;	.line	196; "MC32F7361.c"	PDP0 = 0x00;   // io   1:enable  0:disable
000652   7793     clrr    0x193            	CLRR	_PDP0
                                           ;	.line	197; "MC32F7361.c"	P0ADCR = 0x00; // io  1:  0:io
000653   77b6     clrr    0x1b6            	CLRR	_P0ADCR
                                           ;	.line	199; "MC32F7361.c"	IOP1 = 0x00;   // io
000654   7794     clrr    0x194            	CLRR	_IOP1
                                           ;	.line	200; "MC32F7361.c"	OEP1 = 0xFF;   // io 1:out  0:in
000655   3cff     movai   0xff             	MOVAI	0xff
000656   5795     movra   0x195            	MOVRA	_OEP1
                                           ;	.line	201; "MC32F7361.c"	PUP1 = 0x00;   // io   1:enable  0:disable
000657   7796     clrr    0x196            	CLRR	_PUP1
                                           ;	.line	202; "MC32F7361.c"	PDP1 = 0x00;   // io   1:enable  0:disable
000658   7797     clrr    0x197            	CLRR	_PDP1
                                           ;	.line	203; "MC32F7361.c"	P1ADCR = 0x00; // io  1:  0:io
000659   77b7     clrr    0x1b7            	CLRR	_P1ADCR
                                           ;	.line	205; "MC32F7361.c"	IOP2 = 0x00; // io
00065a   77b8     clrr    0x1b8            	CLRR	_IOP2
                                           ;	.line	206; "MC32F7361.c"	OEP2 = 0x0F; // io 1:out  0:in
00065b   3c0f     movai   0xf              	MOVAI	0x0f
00065c   57b9     movra   0x1b9            	MOVRA	_OEP2
                                           ;	.line	207; "MC32F7361.c"	PUP2 = 0x00; // io   1:enable  0:disable
00065d   77ba     clrr    0x1ba            	CLRR	_PUP2
                                           ;	.line	208; "MC32F7361.c"	PDP2 = 0x00; // io   1:enable  0:disablea
00065e   77bb     clrr    0x1bb            	CLRR	_PDP2
                                           ;	.line	210; "MC32F7361.c"	PMOD = 0x00;  // P00P01P13 io
00065f   77bc     clrr    0x1bc            	CLRR	_PMOD
                                           ;	.line	211; "MC32F7361.c"	DRVCR = 0x80; // 
000660   3c80     movai   0x80             	MOVAI	0x80
000661   578c     movra   0x18c            	MOVRA	_DRVCR
                                           ;	.line	212; "MC32F7361.c"	}
000662   000c     return                   	RETURN	
                                           ; exit point of _IO_Init
                                           
                                           ;***
                                           ;  pBlock Stats: dbName = C
                                           ;***
                                           ;entry:  _CLR_RAM	;Function start
                                           ; 2 exit points
                                           ;has an exit
                                           ;; Starting pCode block
                                           _CLR_RAM	;Function start
                                           ; 2 exit points
                                           ;	.line	178; "MC32F7361.c"	for (FSR0 = 0; FSR0 < 0xff; FSR0++)
000663   7784     clrr    0x184            	CLRR	_FSR0
                                           ;;unsigned compare: left < lit(0xFF=255), size=1
                                           _00206_DS_
000664   3cff     movai   0xff             	MOVAI	0xff
000665   4984     rsubar  0x184            	RSUBAR	_FSR0
000666   f187     jbclr   0x187, 0         	JBCLR	PFLAG,0
000667   a66b     goto    0x66b            	GOTO	_00204_DS_
                                           ;;genSkipc:3291: created from rifx:013B5EFC
                                           ;	.line	180; "MC32F7361.c"	INDF0 = 0x00;
000668   7780     clrr    0x180            	CLRR	_INDF0
                                           ;	.line	178; "MC32F7361.c"	for (FSR0 = 0; FSR0 < 0xff; FSR0++)
000669   6784     incr    0x184            	INCR	_FSR0
00066a   a664     goto    0x664            	GOTO	_00206_DS_
                                           _00204_DS_
                                           ;	.line	182; "MC32F7361.c"	FSR0 = 0xFF;
00066b   3cff     movai   0xff             	MOVAI	0xff
00066c   5784     movra   0x184            	MOVRA	_FSR0
                                           ;	.line	183; "MC32F7361.c"	INDF0 = 0x00;
00066d   7780     clrr    0x180            	CLRR	_INDF0
                                           ;	.line	184; "MC32F7361.c"	}
00066e   000c     return                   	RETURN	
                                           ; exit point of _CLR_RAM
                                           
                                           ;***
                                           ;  pBlock Stats: dbName = C
                                           ;***
                                           ;entry:  _send_cmd_16bit_without_delay	;Function start
                                           ; 2 exit points
                                           ;has an exit
                                           ;functions called:
                                           ;   _delay_100us
                                           ;   _delay_ms
                                           ;   _delay_1_4ms
                                           ;   _delay_100us
                                           ;   _delay_100us
                                           ;   _delay_ms
                                           ;   _delay_1_4ms
                                           ;   _delay_100us
                                           ;7 compiler assigned registers:
                                           ;   r0x1030
                                           ;   STK00
                                           ;   r0x1031
                                           ;   r0x1032
                                           ;   r0x1033
                                           ;   r0x1034
                                           ;   r0x1035
                                           ;; Starting pCode block
                                           _send_cmd_16bit_without_delay	;Function start
                                           ; 2 exit points
                                           ;	.line	140; "MC32F7361.c"	void send_cmd_16bit_without_delay(const u16 data)
00066f   5616     movra   0x16             	MOVRA	r0x1030
000670   5806     movar   0x6              	MOVAR	STK00
000671   5615     movra   0x15             	MOVRA	r0x1031
                                           ;	.line	149; "MC32F7361.c"	for (i = 0; i < 16; i++)
000672   7617     clrr    0x17             	CLRR	r0x1032
                                           _00181_DS_
                                           ;	.line	151; "MC32F7361.c"	LED_CTL_PIN = 0;
000673   d990     bclr    0x190, 0x4       	BCLR	_IOP0bits,4
                                           ;	.line	152; "MC32F7361.c"	delay_100us();
000674   8708     call    0x708            	CALL	_delay_100us
                                           ;	.line	153; "MC32F7361.c"	LED_CTL_PIN = 1;
000675   c990     bset    0x190, 0x4       	BSET	_IOP0bits,4
                                           ;	.line	154; "MC32F7361.c"	if ((data >> (15 - i)) & 0x01) // 1
000676   5817     movar   0x17             	MOVAR	r0x1032
000677   3a0f     isubai  0xf              	ISUBAI	0x0f
000678   5618     movra   0x18             	MOVRA	r0x1033
000679   5816     movar   0x16             	MOVAR	r0x1030
00067a   561a     movra   0x1a             	MOVRA	r0x1034
00067b   5815     movar   0x15             	MOVAR	r0x1031
00067c   5619     movra   0x19             	MOVRA	r0x1035
00067d   5818     movar   0x18             	MOVAR	r0x1033
00067e   3a00     isubai  0                	ISUBAI	0x00
00067f   f587     jbclr   0x187, 0x2       	JBCLR	PFLAG,2
000680   a686     goto    0x686            	GOTO	_00199_DS_
                                           _00198_DS_
000681   4e1a     rrr     0x1a             	RRR	r0x1034
000682   4e19     rrr     0x19             	RRR	r0x1035
000683   3f01     addai   0x1              	ADDAI	0x01
000684   e187     jbset   0x187, 0         	JBSET	PFLAG,0
000685   a681     goto    0x681            	GOTO	_00198_DS_
                                           _00199_DS_
000686   e019     jbset   0x19, 0          	JBSET	r0x1035,0
000687   a68d     goto    0x68d            	GOTO	_00178_DS_
                                           ;	.line	156; "MC32F7361.c"	delay_ms(3);
000688   3c03     movai   0x3              	MOVAI	0x03
000689   5606     movra   0x6              	MOVRA	STK00
00068a   3c00     movai   0                	MOVAI	0x00
00068b   8714     call    0x714            	CALL	_delay_ms
00068c   a68e     goto    0x68e            	GOTO	_00182_DS_
                                           _00178_DS_
                                           ;	.line	160; "MC32F7361.c"	delay_1_4ms();
00068d   86f1     call    0x6f1            	CALL	_delay_1_4ms
                                           _00182_DS_
                                           ;	.line	149; "MC32F7361.c"	for (i = 0; i < 16; i++)
00068e   6617     incr    0x17             	INCR	r0x1032
                                           ;;unsigned compare: left < lit(0x10=16), size=1
00068f   3c10     movai   0x10             	MOVAI	0x10
000690   4817     rsubar  0x17             	RSUBAR	r0x1032
000691   e187     jbset   0x187, 0         	JBSET	PFLAG,0
000692   a673     goto    0x673            	GOTO	_00181_DS_
                                           ;;genSkipc:3291: created from rifx:013B5EFC
                                           ;	.line	164; "MC32F7361.c"	LED_CTL_PIN = 0;
000693   d990     bclr    0x190, 0x4       	BCLR	_IOP0bits,4
                                           ;	.line	165; "MC32F7361.c"	delay_100us();
000694   8708     call    0x708            	CALL	_delay_100us
                                           ;	.line	166; "MC32F7361.c"	LED_CTL_PIN = 1;
000695   c990     bset    0x190, 0x4       	BSET	_IOP0bits,4
                                           ;	.line	168; "MC32F7361.c"	}
000696   000c     return                   	RETURN	
                                           ; exit point of _send_cmd_16bit_without_delay
                                           
                                           ;***
                                           ;  pBlock Stats: dbName = C
                                           ;***
                                           ;entry:  _send_cmd_16bit	;Function start
                                           ; 2 exit points
                                           ;has an exit
                                           ;functions called:
                                           ;   _delay_100us
                                           ;   _delay_ms
                                           ;   _delay_1_4ms
                                           ;   _delay_100us
                                           ;   _delay_ms
                                           ;   _delay_100us
                                           ;   _delay_ms
                                           ;   _delay_1_4ms
                                           ;   _delay_100us
                                           ;   _delay_ms
                                           ;7 compiler assigned registers:
                                           ;   r0x101C
                                           ;   STK00
                                           ;   r0x101D
                                           ;   r0x101E
                                           ;   r0x101F
                                           ;   r0x1020
                                           ;   r0x1021
                                           ;; Starting pCode block
                                           _send_cmd_16bit	;Function start
                                           ; 2 exit points
                                           ;	.line	108; "MC32F7361.c"	void send_cmd_16bit(const u16 data)
000697   5610     movra   0x10             	MOVRA	r0x101C
000698   5806     movar   0x6              	MOVAR	STK00
000699   560f     movra   0xf              	MOVRA	r0x101D
                                           ;	.line	117; "MC32F7361.c"	for (i = 0; i < 16; i++)
00069a   7611     clrr    0x11             	CLRR	r0x101E
                                           _00154_DS_
                                           ;	.line	119; "MC32F7361.c"	LED_CTL_PIN = 0;
00069b   d990     bclr    0x190, 0x4       	BCLR	_IOP0bits,4
                                           ;	.line	120; "MC32F7361.c"	delay_100us();
00069c   8708     call    0x708            	CALL	_delay_100us
                                           ;	.line	121; "MC32F7361.c"	LED_CTL_PIN = 1;
00069d   c990     bset    0x190, 0x4       	BSET	_IOP0bits,4
                                           ;	.line	122; "MC32F7361.c"	if ((data >> (15 - i)) & 0x01) // 1
00069e   5811     movar   0x11             	MOVAR	r0x101E
00069f   3a0f     isubai  0xf              	ISUBAI	0x0f
0006a0   5612     movra   0x12             	MOVRA	r0x101F
0006a1   5810     movar   0x10             	MOVAR	r0x101C
0006a2   5614     movra   0x14             	MOVRA	r0x1020
0006a3   580f     movar   0xf              	MOVAR	r0x101D
0006a4   5613     movra   0x13             	MOVRA	r0x1021
0006a5   5812     movar   0x12             	MOVAR	r0x101F
0006a6   3a00     isubai  0                	ISUBAI	0x00
0006a7   f587     jbclr   0x187, 0x2       	JBCLR	PFLAG,2
0006a8   a6ae     goto    0x6ae            	GOTO	_00172_DS_
                                           _00171_DS_
0006a9   4e14     rrr     0x14             	RRR	r0x1020
0006aa   4e13     rrr     0x13             	RRR	r0x1021
0006ab   3f01     addai   0x1              	ADDAI	0x01
0006ac   e187     jbset   0x187, 0         	JBSET	PFLAG,0
0006ad   a6a9     goto    0x6a9            	GOTO	_00171_DS_
                                           _00172_DS_
0006ae   e013     jbset   0x13, 0          	JBSET	r0x1021,0
0006af   a6b5     goto    0x6b5            	GOTO	_00151_DS_
                                           ;	.line	124; "MC32F7361.c"	delay_ms(3);
0006b0   3c03     movai   0x3              	MOVAI	0x03
0006b1   5606     movra   0x6              	MOVRA	STK00
0006b2   3c00     movai   0                	MOVAI	0x00
0006b3   8714     call    0x714            	CALL	_delay_ms
0006b4   a6b6     goto    0x6b6            	GOTO	_00155_DS_
                                           _00151_DS_
                                           ;	.line	128; "MC32F7361.c"	delay_1_4ms();
0006b5   86f1     call    0x6f1            	CALL	_delay_1_4ms
                                           _00155_DS_
                                           ;	.line	117; "MC32F7361.c"	for (i = 0; i < 16; i++)
0006b6   6611     incr    0x11             	INCR	r0x101E
                                           ;;unsigned compare: left < lit(0x10=16), size=1
0006b7   3c10     movai   0x10             	MOVAI	0x10
0006b8   4811     rsubar  0x11             	RSUBAR	r0x101E
0006b9   e187     jbset   0x187, 0         	JBSET	PFLAG,0
0006ba   a69b     goto    0x69b            	GOTO	_00154_DS_
                                           ;;genSkipc:3291: created from rifx:013B5EFC
                                           ;	.line	132; "MC32F7361.c"	LED_CTL_PIN = 0;
0006bb   d990     bclr    0x190, 0x4       	BCLR	_IOP0bits,4
                                           ;	.line	133; "MC32F7361.c"	delay_100us();
0006bc   8708     call    0x708            	CALL	_delay_100us
                                           ;	.line	134; "MC32F7361.c"	LED_CTL_PIN = 1;
0006bd   c990     bset    0x190, 0x4       	BSET	_IOP0bits,4
                                           ;	.line	135; "MC32F7361.c"	delay_ms(33);
0006be   3c21     movai   0x21             	MOVAI	0x21
0006bf   5606     movra   0x6              	MOVRA	STK00
0006c0   3c00     movai   0                	MOVAI	0x00
0006c1   8714     call    0x714            	CALL	_delay_ms
                                           ;	.line	137; "MC32F7361.c"	}
0006c2   000c     return                   	RETURN	
                                           ; exit point of _send_cmd_16bit
                                           
                                           ;***
                                           ;  pBlock Stats: dbName = C
                                           ;***
                                           ;entry:  _EEPROM_Read_Byte	;Function start
                                           ; 2 exit points
                                           ;has an exit
                                           ;5 compiler assigned registers:
                                           ;   r0x1016
                                           ;   r0x1017
                                           ;   r0x1018
                                           ;   r0x1019
                                           ;   STK00
                                           ;; Starting pCode block
                                           _EEPROM_Read_Byte	;Function start
                                           ; 2 exit points
                                           ;	.line	78; "MC32F7361.c"	uint16_t EEPROM_Read_Byte(u8 addr)
0006c3   57c5     movra   0x1c5            	MOVRA	_EEAR
                                           ;	.line	82; "MC32F7361.c"	EECR = 0x02; //  EE 
0006c4   3c02     movai   0x2              	MOVAI	0x02
0006c5   57c3     movra   0x1c3            	MOVRA	_EECR
                                           ;	.line	83; "MC32F7361.c"	Nop();
0006c6   0000     nop                      	nop	
                                           ;	.line	84; "MC32F7361.c"	Nop();
0006c7   0000     nop                      	nop	
                                           _00145_DS_
                                           ;	.line	85; "MC32F7361.c"	while (EEREAD) //  EE 
0006c8   f3c3     jbclr   0x1c3, 0x1       	JBCLR	_EECRbits,1
0006c9   a6c8     goto    0x6c8            	GOTO	_00145_DS_
                                           ;	.line	89; "MC32F7361.c"	EEDR = (EEDRH << 8) | EEDRL;
0006ca   59c6     movar   0x1c6            	MOVAR	_EEDRH
0006cb   5609     movra   0x9              	MOVRA	r0x1018
0006cc   5608     movra   0x8              	MOVRA	r0x1016
0006cd   7607     clrr    0x7              	CLRR	r0x1017
                                           ;;101	MOVAR	r0x1016
0006ce   760a     clrr    0xa              	CLRR	r0x1019
0006cf   59c7     movar   0x1c7            	MOVAR	_EEDRL
0006d0   5608     movra   0x8              	MOVRA	r0x1016
0006d1   7607     clrr    0x7              	CLRR	r0x1017
0006d2   5808     movar   0x8              	MOVAR	r0x1016
0006d3   5e0a     orra    0xa              	ORRA	r0x1019
0006d4   3c00     movai   0                	MOVAI	0x00
0006d5   5e09     orra    0x9              	ORRA	r0x1018
                                           ;	.line	90; "MC32F7361.c"	return EEDR;
0006d6   580a     movar   0xa              	MOVAR	r0x1019
0006d7   5606     movra   0x6              	MOVRA	STK00
0006d8   5809     movar   0x9              	MOVAR	r0x1018
                                           ;	.line	91; "MC32F7361.c"	}
0006d9   000c     return                   	RETURN	
                                           ; exit point of _EEPROM_Read_Byte
                                           
                                           ;***
                                           ;  pBlock Stats: dbName = C
                                           ;***
                                           ;entry:  _EEPROM_Write_Byte	;Function start
                                           ; 2 exit points
                                           ;has an exit
                                           ;6 compiler assigned registers:
                                           ;   STK00
                                           ;   r0x1016
                                           ;   STK01
                                           ;   r0x1017
                                           ;   r0x1018
                                           ;   r0x1019
                                           ;; Starting pCode block
                                           _EEPROM_Write_Byte	;Function start
                                           ; 2 exit points
                                           ;	.line	54; "MC32F7361.c"	void EEPROM_Write_Byte(uint8_t addr, uint16_t data)
0006da   57c5     movra   0x1c5            	MOVRA	_EEAR
0006db   5806     movar   0x6              	MOVAR	STK00
0006dc   5609     movra   0x9              	MOVRA	r0x1018
                                           ;;1	MOVRA	r0x1016
0006dd   5805     movar   0x5              	MOVAR	STK01
0006de   5607     movra   0x7              	MOVRA	r0x1017
                                           ;	.line	56; "MC32F7361.c"	HFEN = 1;
0006df   c1ae     bset    0x1ae, 0         	BSET	_OSCMRbits,0
                                           ;;99	MOVAR	r0x1016
                                           ;;1	CLRR	r0x1019
                                           ;	.line	58; "MC32F7361.c"	EEDRH = (data >> 8) & 0xff;
0006e0   5809     movar   0x9              	MOVAR	r0x1018
0006e1   57c6     movra   0x1c6            	MOVRA	_EEDRH
                                           ;	.line	59; "MC32F7361.c"	EEDRL = data & 0xff;
0006e2   5807     movar   0x7              	MOVAR	r0x1017
0006e3   57c7     movra   0x1c7            	MOVRA	_EEDRL
                                           ;	.line	60; "MC32F7361.c"	GIE = 0;
0006e4   df88     bclr    0x188, 0x7       	BCLR	_MCRbits,7
                                           ;	.line	61; "MC32F7361.c"	EEPR = 0x5A;
0006e5   3c5a     movai   0x5a             	MOVAI	0x5a
0006e6   57c4     movra   0x1c4            	MOVRA	_EEPR
                                           ;	.line	62; "MC32F7361.c"	EEPR = 0xA5; // 
0006e7   3ca5     movai   0xa5             	MOVAI	0xa5
0006e8   57c4     movra   0x1c4            	MOVRA	_EEPR
                                           ;	.line	63; "MC32F7361.c"	EECR = 0x01; // EEPROM  
0006e9   3c01     movai   0x1              	MOVAI	0x01
0006ea   57c3     movra   0x1c3            	MOVRA	_EECR
                                           ;	.line	64; "MC32F7361.c"	Nop();
0006eb   0000     nop                      	nop	
                                           ;	.line	65; "MC32F7361.c"	Nop();
0006ec   0000     nop                      	nop	
                                           _00140_DS_
                                           ;	.line	66; "MC32F7361.c"	while (EEWRITE) //  EE 
0006ed   f1c3     jbclr   0x1c3, 0         	JBCLR	_EECRbits,0
0006ee   a6ed     goto    0x6ed            	GOTO	_00140_DS_
                                           ;	.line	70; "MC32F7361.c"	GIE = 1;
0006ef   cf88     bset    0x188, 0x7       	BSET	_MCRbits,7
                                           ;	.line	71; "MC32F7361.c"	}
0006f0   000c     return                   	RETURN	
                                           ; exit point of _EEPROM_Write_Byte
                                           
                                           ;***
                                           ;  pBlock Stats: dbName = C
                                           ;***
                                           ;entry:  _delay_1_4ms	;Function start
                                           ; 2 exit points
                                           ;has an exit
                                           ;functions called:
                                           ;   _delay_100us
                                           ;   _delay_100us
                                           ;2 compiler assigned registers:
                                           ;   r0x1018
                                           ;   r0x1019
                                           ;; Starting pCode block
                                           _delay_1_4ms	;Function start
                                           ; 2 exit points
                                           ;	.line	42; "MC32F7361.c"	for (i = 0; i < 14; i++)
0006f1   3c0e     movai   0xe              	MOVAI	0x0e
0006f2   5609     movra   0x9              	MOVRA	r0x1018
                                           _00135_DS_
                                           ;	.line	44; "MC32F7361.c"	delay_100us();
0006f3   8708     call    0x708            	CALL	_delay_100us
0006f4   6c09     decar   0x9              	DECAR	r0x1018
0006f5   5609     movra   0x9              	MOVRA	r0x1018
0006f6   560a     movra   0xa              	MOVRA	r0x1019
                                           ;;100	MOVAR	r0x1019
                                           ;	.line	42; "MC32F7361.c"	for (i = 0; i < 14; i++)
0006f7   3c00     movai   0                	MOVAI	0x00
0006f8   5c0a     orar    0xa              	ORAR	r0x1019
0006f9   e587     jbset   0x187, 0x2       	JBSET	PFLAG,2
0006fa   a6f3     goto    0x6f3            	GOTO	_00135_DS_
                                           ;	.line	46; "MC32F7361.c"	}
0006fb   000c     return                   	RETURN	
                                           ; exit point of _delay_1_4ms
                                           
                                           ;***
                                           ;  pBlock Stats: dbName = C
                                           ;***
                                           ;entry:  _delay_200us	;Function start
                                           ; 2 exit points
                                           ;has an exit
                                           ;2 compiler assigned registers:
                                           ;   r0x1036
                                           ;   r0x1037
                                           ;; Starting pCode block
                                           _delay_200us	;Function start
                                           ; 2 exit points
                                           ;	.line	32; "MC32F7361.c"	while (i--)
0006fc   3c96     movai   0x96             	MOVAI	0x96
0006fd   560d     movra   0xd              	MOVRA	r0x1036
                                           _00124_DS_
0006fe   580d     movar   0xd              	MOVAR	r0x1036
0006ff   560e     movra   0xe              	MOVRA	r0x1037
000700   6e0d     decr    0xd              	DECR	r0x1036
000701   3c00     movai   0                	MOVAI	0x00
000702   5c0e     orar    0xe              	ORAR	r0x1037
000703   f587     jbclr   0x187, 0x2       	JBCLR	PFLAG,2
000704   a707     goto    0x707            	GOTO	_00127_DS_
                                           ;	.line	34; "MC32F7361.c"	Nop();
000705   0000     nop                      	nop	
000706   a6fe     goto    0x6fe            	GOTO	_00124_DS_
                                           _00127_DS_
                                           ;	.line	36; "MC32F7361.c"	}
000707   000c     return                   	RETURN	
                                           ; exit point of _delay_200us
                                           
                                           ;***
                                           ;  pBlock Stats: dbName = C
                                           ;***
                                           ;entry:  _delay_100us	;Function start
                                           ; 2 exit points
                                           ;has an exit
                                           ;2 compiler assigned registers:
                                           ;   r0x1016
                                           ;   r0x1017
                                           ;; Starting pCode block
                                           _delay_100us	;Function start
                                           ; 2 exit points
                                           ;	.line	22; "MC32F7361.c"	while (i--)
000708   3c4a     movai   0x4a             	MOVAI	0x4a
000709   5608     movra   0x8              	MOVRA	r0x1016
                                           _00116_DS_
00070a   5808     movar   0x8              	MOVAR	r0x1016
00070b   5607     movra   0x7              	MOVRA	r0x1017
00070c   6e08     decr    0x8              	DECR	r0x1016
00070d   3c00     movai   0                	MOVAI	0x00
00070e   5c07     orar    0x7              	ORAR	r0x1017
00070f   f587     jbclr   0x187, 0x2       	JBCLR	PFLAG,2
000710   a713     goto    0x713            	GOTO	_00119_DS_
                                           ;	.line	24; "MC32F7361.c"	Nop();
000711   0000     nop                      	nop	
000712   a70a     goto    0x70a            	GOTO	_00116_DS_
                                           _00119_DS_
                                           ;	.line	26; "MC32F7361.c"	}
000713   000c     return                   	RETURN	
                                           ; exit point of _delay_100us
                                           
                                           ;***
                                           ;  pBlock Stats: dbName = C
                                           ;***
                                           ;entry:  _delay_ms	;Function start
                                           ; 2 exit points
                                           ;has an exit
                                           ;7 compiler assigned registers:
                                           ;   r0x1016
                                           ;   STK00
                                           ;   r0x1017
                                           ;   r0x1018
                                           ;   r0x1019
                                           ;   r0x101A
                                           ;   r0x101B
                                           ;; Starting pCode block
                                           _delay_ms	;Function start
                                           ; 2 exit points
                                           ;	.line	252; "user.h"	void delay_ms(u16 xms)
000714   5608     movra   0x8              	MOVRA	r0x1016
000715   5806     movar   0x6              	MOVAR	STK00
000716   5607     movra   0x7              	MOVRA	r0x1017
                                           _00108_DS_
                                           ;	.line	254; "user.h"	while (xms)
000717   5807     movar   0x7              	MOVAR	r0x1017
000718   5c08     orar    0x8              	ORAR	r0x1016
000719   f587     jbclr   0x187, 0x2       	JBCLR	PFLAG,2
00071a   a733     goto    0x733            	GOTO	_00111_DS_
                                           ;	.line	257; "user.h"	while (i--)
00071b   3c05     movai   0x5              	MOVAI	0x05
00071c   5609     movra   0x9              	MOVRA	r0x1018
00071d   3c02     movai   0x2              	MOVAI	0x02
00071e   560a     movra   0xa              	MOVRA	r0x1019
                                           _00105_DS_
00071f   5809     movar   0x9              	MOVAR	r0x1018
000720   560b     movra   0xb              	MOVRA	r0x101A
000721   580a     movar   0xa              	MOVAR	r0x1019
000722   560c     movra   0xc              	MOVRA	r0x101B
000723   3cff     movai   0xff             	MOVAI	0xff
000724   7e09     addra   0x9              	ADDRA	r0x1018
000725   e187     jbset   0x187, 0         	JBSET	PFLAG,0
000726   6e0a     decr    0xa              	DECR	r0x1019
000727   580b     movar   0xb              	MOVAR	r0x101A
000728   5c0c     orar    0xc              	ORAR	r0x101B
000729   f587     jbclr   0x187, 0x2       	JBCLR	PFLAG,2
00072a   a72d     goto    0x72d            	GOTO	_00107_DS_
                                           ;	.line	259; "user.h"	Nop();
00072b   0000     nop                      	nop	
00072c   a71f     goto    0x71f            	GOTO	_00105_DS_
                                           _00107_DS_
                                           ;	.line	261; "user.h"	xms--; //  --while()
00072d   3cff     movai   0xff             	MOVAI	0xff
00072e   7e07     addra   0x7              	ADDRA	r0x1017
00072f   e187     jbset   0x187, 0         	JBSET	PFLAG,0
000730   6e08     decr    0x8              	DECR	r0x1016
                                           ;	.line	265; "user.h"	__endasm;
                                           	;
000731   000e     clrwdt                   	clrwdt;
                                           	
000732   a717     goto    0x717            	GOTO	_00108_DS_
                                           _00111_DS_
                                           ;	.line	267; "user.h"	}
000733   000c     return                   	RETURN	
                                           ; exit point of _delay_ms
                                           
                                           
                                           ;	code size estimation:
                                           ;	 1821+    0 =  1821 instructions ( 3642 byte)
                                           
                                           	end
                                           ;--------------------------------------------------------
                                           ; File Created by SN-SDCC : SinoMCU ANSI-C Compiler
                                           ; Version 2.0.0 (Dec 11 2019) (MINGW32)
                                           ; This file was generated Mon Mar 24 16:04:38 2025
                                           ;--------------------------------------------------------
                                           ; MC32 port for the RISC core
                                           ;--------------------------------------------------------
                                           ;	.file	"MC32F7361.c"
                                           	list	p=7361
                                           	radix dec
                                           	include "7361.inc"
                                           ;--------------------------------------------------------
                                           ; external declarations
                                           ;--------------------------------------------------------
                                           	extern	_INDF0bits
                                           	extern	_INDF1bits
                                           	extern	_INDF2bits
                                           	extern	_HIBYTEbits
                                           	extern	_FSR0bits
                                           	extern	_FSR1bits
                                           	extern	_PCLbits
                                           	extern	_PFLAGbits
                                           	extern	_MCRbits
                                           	extern	_INDF3bits
                                           	extern	_INTEbits
                                           	extern	_INTFbits
                                           	extern	_DRVCRbits
                                           	extern	_P0KBCRbits
                                           	extern	_P1KBCRbits
                                           	extern	_P2KBCRbits
                                           	extern	_IOP0bits
                                           	extern	_OEP0bits
                                           	extern	_PUP0bits
                                           	extern	_PDP0bits
                                           	extern	_IOP1bits
                                           	extern	_OEP1bits
                                           	extern	_PUP1bits
                                           	extern	_PDP1bits
                                           	extern	_T0CRbits
                                           	extern	_T0CNTbits
                                           	extern	_T0LOADbits
                                           	extern	_T0DATAbits
                                           	extern	_T1CRbits
                                           	extern	_T1CNTbits
                                           	extern	_T1LOADbits
                                           	extern	_T1DATAbits
                                           	extern	_T2CRbits
                                           	extern	_T2CNTbits
                                           	extern	_T2LOADbits
                                           	extern	_T2DATAbits
                                           	extern	_T3CRbits
                                           	extern	_T3CNTbits
                                           	extern	_T3LOADbits
                                           	extern	_PWM0DRbits
                                           	extern	_PWM1DRbits
                                           	extern	_PWM2DRbits
                                           	extern	_PWMCR0bits
                                           	extern	_PWMCR1bits
                                           	extern	_OSCMRbits
                                           	extern	_LVDCRbits
                                           	extern	_ADCR0bits
                                           	extern	_ADCR1bits
                                           	extern	_ADCR2bits
                                           	extern	_OSADJCRbits
                                           	extern	_ADRHbits
                                           	extern	_ADRLbits
                                           	extern	_P0ADCRbits
                                           	extern	_P1ADCRbits
                                           	extern	_IOP2bits
                                           	extern	_OEP2bits
                                           	extern	_PUP2bits
                                           	extern	_PDP2bits
                                           	extern	_PMODbits
                                           	extern	_PWMCR3bits
                                           	extern	_PWMCR2bits
                                           	extern	_PFRCCRbits
                                           	extern	_PFRCCALbits
                                           	extern	_EECRbits
                                           	extern	_EEPRbits
                                           	extern	_EEARbits
                                           	extern	_EEDRHbits
                                           	extern	_EEDRLbits
                                           	extern	_DBGCRbits
                                           	extern	_DBGPRbits
                                           	extern	_HIRCCALbits
                                           	extern	_INDF0
                                           	extern	_INDF1
                                           	extern	_INDF2
                                           	extern	_HIBYTE
                                           	extern	_FSR0
                                           	extern	_FSR1
                                           	extern	_PCL
                                           	extern	_PFLAG
                                           	extern	_MCR
                                           	extern	_INDF3
                                           	extern	_INTE
                                           	extern	_INTF
                                           	extern	_DRVCR
                                           	extern	_P0KBCR
                                           	extern	_P1KBCR
                                           	extern	_P2KBCR
                                           	extern	_IOP0
                                           	extern	_OEP0
                                           	extern	_PUP0
                                           	extern	_PDP0
                                           	extern	_IOP1
                                           	extern	_OEP1
                                           	extern	_PUP1
                                           	extern	_PDP1
                                           	extern	_T0CR
                                           	extern	_T0CNT
                                           	extern	_T0LOAD
                                           	extern	_T0DATA
                                           	extern	_T1CR
                                           	extern	_T1CNT
                                           	extern	_T1LOAD
                                           	extern	_T1DATA
                                           	extern	_T2CR
                                           	extern	_T2CNT
                                           	extern	_T2LOAD
                                           	extern	_T2DATA
                                           	extern	_T3CR
                                           	extern	_T3CNT
                                           	extern	_T3LOAD
                                           	extern	_PWM0DR
                                           	extern	_PWM1DR
                                           	extern	_PWM2DR
                                           	extern	_PWMCR0
                                           	extern	_PWMCR1
                                           	extern	_OSCMR
                                           	extern	_LVDCR
                                           	extern	_ADCR0
                                           	extern	_ADCR1
                                           	extern	_ADCR2
                                           	extern	_OSADJCR
                                           	extern	_ADRH
                                           	extern	_ADRL
                                           	extern	_P0ADCR
                                           	extern	_P1ADCR
                                           	extern	_IOP2
                                           	extern	_OEP2
                                           	extern	_PUP2
                                           	extern	_PDP2
                                           	extern	_PMOD
                                           	extern	_PWMCR3
                                           	extern	_PWMCR2
                                           	extern	_PFRCCR
                                           	extern	_PFRCCAL
                                           	extern	_EECR
                                           	extern	_EEPR
                                           	extern	_EEAR
                                           	extern	_EEDRH
                                           	extern	_EEDRL
                                           	extern	_DBGCR
                                           	extern	_DBGPR
                                           	extern	_HIRCCAL
                                           	extern	__gptrget1
                                           	extern	__gptrget2
                                           ;--------------------------------------------------------
                                           ; global declarations
                                           ;--------------------------------------------------------
                                           	global	_delay_ms
                                           	global	_delay_100us
                                           	global	_delay_200us
                                           	global	_delay_1_4ms
                                           	global	_EEPROM_Write_Byte
                                           	global	_EEPROM_Read_Byte
                                           	global	_send_cmd_16bit
                                           	global	_send_cmd_16bit_without_delay
                                           	global	_CLR_RAM
                                           	global	_IO_Init
                                           	global	_TIMER2_INT_Init
                                           	global	_TIMER3_INT_Init
                                           	global	_Sys_Init
                                           	global	_key_event_same_deal
                                           	global	_main
                                           	global	_int_isr
                                           	global	_abuf
                                           	global	_statusbuf
                                           	global	_flag1
                                           	global	_ir_data
                                           	global	_current_index
                                           	global	_start_index
                                           	global	_end_index
                                           	global	_next_frame_delay
                                           	global	_power_sta
                                           	global	_current_speed
                                           	global	_current_static
                                           	global	_cur_mechanical_key_sta
                                           	global	_timer_count
                                           	global	_main_table
                                           	global	_section_1_speed_table
                                           	global	_section_1_delay_table
                                           	global	_section_2_speed_table
                                           	global	_section_2_delay_table
                                           	global	_section_3_speed_table
                                           	global	_section_5_speed_table
                                           	global	_section_5_delay_table
                                           	global	_section_7_speed_table
                                           	global	_section_7_delay_table
                                           
                                           	global STK06
                                           	global STK05
                                           	global STK04
                                           	global STK03
                                           	global STK02
                                           	global STK01
                                           	global STK00
                                           
                                           sharebank udata_ovr 0x0000
                                           STK06	res 1
                                           STK05	res 1
                                           STK04	res 1
                                           STK03	res 1
                                           STK02	res 1
                                           STK01	res 1
                                           STK00	res 1
                                           
                                           ;--------------------------------------------------------
                                           ; global definitions
                                           ;--------------------------------------------------------
                                           UD_MC32F7361_0	udata
                                           _abuf	res	1
                                           
                                           UD_MC32F7361_1	udata
                                           _statusbuf	res	1
                                           
                                           UD_MC32F7361_2	udata
                                           _flag1	res	1
                                           
                                           UD_MC32F7361_3	udata
                                           _ir_data	res	1
                                           
                                           UD_MC32F7361_4	udata
                                           _current_index	res	1
                                           
                                           UD_MC32F7361_5	udata
                                           _start_index	res	1
                                           
                                           UD_MC32F7361_6	udata
                                           _end_index	res	1
                                           
                                           UD_MC32F7361_7	udata
                                           _next_frame_delay	res	2
                                           
                                           UD_MC32F7361_8	udata
                                           _power_sta	res	1
                                           
                                           UD_MC32F7361_9	udata
                                           _current_speed	res	1
                                           
                                           UD_MC32F7361_10	udata
                                           _current_static	res	1
                                           
                                           UD_MC32F7361_11	udata
                                           _cur_mechanical_key_sta	res	1
                                           
                                           ;--------------------------------------------------------
                                           ; absolute symbol definitions
                                           ;--------------------------------------------------------
                                           ;--------------------------------------------------------
                                           ; compiler-defined variables
                                           ;--------------------------------------------------------
                                           UDL_MC32F7361_0	udata
                                           r0x1017	res	1
                                           r0x1016	res	1
                                           r0x1018	res	1
                                           r0x1019	res	1
                                           r0x101A	res	1
                                           r0x101B	res	1
                                           r0x1036	res	1
                                           r0x1037	res	1
                                           r0x101D	res	1
                                           r0x101C	res	1
                                           r0x101E	res	1
                                           r0x101F	res	1
                                           r0x1021	res	1
                                           r0x1020	res	1
                                           r0x1031	res	1
                                           r0x1030	res	1
                                           r0x1032	res	1
                                           r0x1033	res	1
                                           r0x1035	res	1
                                           r0x1034	res	1
                                           r0x1022	res	1
                                           r0x1023	res	1
                                           r0x1025	res	1
                                           r0x1024	res	1
                                           r0x1027	res	1
                                           r0x1026	res	1
                                           r0x1028	res	1
                                           r0x1029	res	1
                                           r0x102B	res	1
                                           r0x102A	res	1
                                           r0x102C	res	1
                                           r0x102D	res	1
                                           r0x102E	res	1
                                           r0x102F	res	1
                                           r0x1038	res	1
                                           r0x1039	res	1
                                           _main_sloc0_1_0	res	2
                                           _int_isr_ir_level_cnt_196608_75	res	2
                                           _int_isr___ir_data_196608_75	res	1
                                           _int_isr_key_press_cnt_196608_89	res	2
                                           ;--------------------------------------------------------
                                           ; initialized data
                                           ;--------------------------------------------------------
                                           
                                           ID_MC32F7361_0	idata
                                           _timer_count
                                           	db	0x00, 0x00, 0x00, 0x00
                                           
                                           
                                           ID_MC32F7361_1	code
                                           _main_table
                                           	dw 0x11
                                           	dw 0x22
                                           	dw 0x44
                                           	dw 0x33
                                           	dw 0x55
                                           	dw 0x66
                                           	dw 0x77
                                           	dw 0x88
                                           	dw 0xaa
                                           	dw 0xcc
                                           	dw 0x11
                                           	dw 0x22
                                           	dw 0x44
                                           	dw 0x33
                                           	dw 0x55
                                           	dw 0x66
                                           	dw 0x77
                                           	dw 0x88
                                           	dw 0xaa
                                           	dw 0xcc
                                           	dw 0x21
                                           	dw 0x74
                                           	dw 0x53
                                           	dw 0x41
                                           	dw 0x24
                                           	dw 0x45
                                           	dw 0xe0
                                           	dw 0xa0
                                           	dw 0xc0
                                           	dw 0xee
                                           	dw 0xee
                                           	dw 0xee
                                           	dw 0xee
                                           	dw 0xee
                                           	dw 0xee
                                           	dw 0xee
                                           	dw 0xee
                                           	dw 0xee
                                           	dw 0xee
                                           	dw 0xaa
                                           	dw 0xaa
                                           	dw 0xaa
                                           	dw 0xaa
                                           	dw 0xaa
                                           	dw 0xaa
                                           	dw 0xaa
                                           	dw 0xaa
                                           	dw 0xaa
                                           	dw 0xaa
                                           	dw 0xcc
                                           	dw 0xcc
                                           	dw 0xcc
                                           	dw 0xcc
                                           	dw 0xcc
                                           	dw 0xcc
                                           	dw 0xcc
                                           	dw 0xcc
                                           	dw 0xcc
                                           	dw 0xcc
                                           	dw 0x17
                                           	dw 0x27
                                           	dw 0x47
                                           	dw 0x37
                                           	dw 0x57
                                           	dw 0x67
                                           	dw 0x77
                                           	dw 0x87
                                           	dw 0xa7
                                           	dw 0xc7
                                           	dw 0x11
                                           	dw 0x12
                                           	dw 0x22
                                           	dw 0x24
                                           	dw 0x44
                                           	dw 0x14
                                           	dw 0x11
                                           	dw 0x22
                                           	dw 0x44
                                           	dw 0x77
                                           	dw 0x33
                                           	dw 0x66
                                           	dw 0x55
                                           	dw 0x33
                                           	dw 0x66
                                           	dw 0x55
                                           	dw 0x33
                                           	dw 0x66
                                           	dw 0x55
                                           	dw 0x33
                                           	dw 0x66
                                           	dw 0x55
                                           
                                           
                                           ID_MC32F7361_2	code
                                           _section_1_speed_table
                                           	dw 0x0f
                                           	dw 0x0e
                                           	dw 0x0d
                                           	dw 0x0c
                                           
                                           
                                           ID_MC32F7361_3	code
                                           _section_1_delay_table
                                           	dw 0x10
                                           	dw 0x27
                                           	dw 0x7e
                                           	dw 0x1d
                                           	dw 0x23
                                           	dw 0x14
                                           	dw 0xc8
                                           	dw 0x0a
                                           
                                           
                                           ID_MC32F7361_4	code
                                           _section_2_speed_table
                                           	dw 0x00
                                           	dw 0x00
                                           	dw 0x00
                                           	dw 0x00
                                           
                                           
                                           ID_MC32F7361_5	code
                                           _section_2_delay_table
                                           	dw 0xa8
                                           	dw 0x07
                                           	dw 0xc4
                                           	dw 0x03
                                           	dw 0xd1
                                           	dw 0x01
                                           	dw 0xa5
                                           	dw 0x00
                                           
                                           
                                           ID_MC32F7361_6	code
                                           _section_3_speed_table
                                           	dw 0x08
                                           	dw 0x0a
                                           	dw 0x09
                                           	dw 0x0b
                                           
                                           
                                           ID_MC32F7361_7	code
                                           _section_5_speed_table
                                           	dw 0x00
                                           	dw 0x00
                                           	dw 0x00
                                           	dw 0x00
                                           
                                           
                                           ID_MC32F7361_8	code
                                           _section_5_delay_table
                                           	dw 0xa8
                                           	dw 0x07
                                           	dw 0xc4
                                           	dw 0x03
                                           	dw 0xd1
                                           	dw 0x01
                                           	dw 0xa5
                                           	dw 0x00
                                           
                                           
                                           ID_MC32F7361_9	code
                                           _section_7_speed_table
                                           	dw 0x07
                                           	dw 0x06
                                           	dw 0x05
                                           	dw 0x04
                                           
                                           
                                           ID_MC32F7361_10	code
                                           _section_7_delay_table
                                           	dw 0xb5
                                           	dw 0x15
                                           	dw 0xd0
                                           	dw 0x11
                                           	dw 0x20
                                           	dw 0x0d
                                           	dw 0xd0
                                           	dw 0x07
                                           
                                           
                                           ;@Allocation info for local variables in function 'delay_ms'
                                           ;@delay_ms delay_ms                  Allocated to registers ;size:2
                                           ;@delay_ms INDF0bits                 Allocated to registers ;size:1
                                           ;@delay_ms INDF1bits                 Allocated to registers ;size:1
                                           ;@delay_ms INDF2bits                 Allocated to registers ;size:1
                                           ;@delay_ms HIBYTEbits                Allocated to registers ;size:1
                                           ;@delay_ms FSR0bits                  Allocated to registers ;size:1
                                           ;@delay_ms FSR1bits                  Allocated to registers ;size:1
                                           ;@delay_ms PCLbits                   Allocated to registers ;size:1
                                           ;@delay_ms PFLAGbits                 Allocated to registers ;size:1
                                           ;@delay_ms MCRbits                   Allocated to registers ;size:1
                                           ;@delay_ms INDF3bits                 Allocated to registers ;size:1
                                           ;@delay_ms INTEbits                  Allocated to registers ;size:1
                                           ;@delay_ms INTFbits                  Allocated to registers ;size:1
                                           ;@delay_ms DRVCRbits                 Allocated to registers ;size:1
                                           ;@delay_ms P0KBCRbits                Allocated to registers ;size:1
                                           ;@delay_ms P1KBCRbits                Allocated to registers ;size:1
                                           ;@delay_ms P2KBCRbits                Allocated to registers ;size:1
                                           ;@delay_ms IOP0bits                  Allocated to registers ;size:1
                                           ;@delay_ms OEP0bits                  Allocated to registers ;size:1
                                           ;@delay_ms PUP0bits                  Allocated to registers ;size:1
                                           ;@delay_ms PDP0bits                  Allocated to registers ;size:1
                                           ;@delay_ms IOP1bits                  Allocated to registers ;size:1
                                           ;@delay_ms OEP1bits                  Allocated to registers ;size:1
                                           ;@delay_ms PUP1bits                  Allocated to registers ;size:1
                                           ;@delay_ms PDP1bits                  Allocated to registers ;size:1
                                           ;@delay_ms T0CRbits                  Allocated to registers ;size:1
                                           ;@delay_ms T0CNTbits                 Allocated to registers ;size:1
                                           ;@delay_ms T0LOADbits                Allocated to registers ;size:1
                                           ;@delay_ms T0DATAbits                Allocated to registers ;size:1
                                           ;@delay_ms T1CRbits                  Allocated to registers ;size:1
                                           ;@delay_ms T1CNTbits                 Allocated to registers ;size:1
                                           ;@delay_ms T1LOADbits                Allocated to registers ;size:1
                                           ;@delay_ms T1DATAbits                Allocated to registers ;size:1
                                           ;@delay_ms T2CRbits                  Allocated to registers ;size:1
                                           ;@delay_ms T2CNTbits                 Allocated to registers ;size:1
                                           ;@delay_ms T2LOADbits                Allocated to registers ;size:1
                                           ;@delay_ms T2DATAbits                Allocated to registers ;size:1
                                           ;@delay_ms T3CRbits                  Allocated to registers ;size:1
                                           ;@delay_ms T3CNTbits                 Allocated to registers ;size:1
                                           ;@delay_ms T3LOADbits                Allocated to registers ;size:1
                                           ;@delay_ms PWM0DRbits                Allocated to registers ;size:1
                                           ;@delay_ms PWM1DRbits                Allocated to registers ;size:1
                                           ;@delay_ms PWM2DRbits                Allocated to registers ;size:1
                                           ;@delay_ms PWMCR0bits                Allocated to registers ;size:1
                                           ;@delay_ms PWMCR1bits                Allocated to registers ;size:1
                                           ;@delay_ms OSCMRbits                 Allocated to registers ;size:1
                                           ;@delay_ms LVDCRbits                 Allocated to registers ;size:1
                                           ;@delay_ms ADCR0bits                 Allocated to registers ;size:1
                                           ;@delay_ms ADCR1bits                 Allocated to registers ;size:1
                                           ;@delay_ms ADCR2bits                 Allocated to registers ;size:1
                                           ;@delay_ms OSADJCRbits               Allocated to registers ;size:1
                                           ;@delay_ms ADRHbits                  Allocated to registers ;size:1
                                           ;@delay_ms ADRLbits                  Allocated to registers ;size:1
                                           ;@delay_ms P0ADCRbits                Allocated to registers ;size:1
                                           ;@delay_ms P1ADCRbits                Allocated to registers ;size:1
                                           ;@delay_ms IOP2bits                  Allocated to registers ;size:1
                                           ;@delay_ms OEP2bits                  Allocated to registers ;size:1
                                           ;@delay_ms PUP2bits                  Allocated to registers ;size:1
                                           ;@delay_ms PDP2bits                  Allocated to registers ;size:1
                                           ;@delay_ms PMODbits                  Allocated to registers ;size:1
                                           ;@delay_ms PWMCR3bits                Allocated to registers ;size:1
                                           ;@delay_ms PWMCR2bits                Allocated to registers ;size:1
                                           ;@delay_ms PFRCCRbits                Allocated to registers ;size:1
                                           ;@delay_ms PFRCCALbits               Allocated to registers ;size:1
                                           ;@delay_ms EECRbits                  Allocated to registers ;size:1
                                           ;@delay_ms EEPRbits                  Allocated to registers ;size:1
                                           ;@delay_ms EEARbits                  Allocated to registers ;size:1
                                           ;@delay_ms EEDRHbits                 Allocated to registers ;size:1
                                           ;@delay_ms EEDRLbits                 Allocated to registers ;size:1
                                           ;@delay_ms DBGCRbits                 Allocated to registers ;size:1
                                           ;@delay_ms DBGPRbits                 Allocated to registers ;size:1
                                           ;@delay_ms HIRCCALbits               Allocated to registers ;size:1
                                           ;@delay_ms abuf                      Allocated to registers ;size:1
                                           ;@delay_ms statusbuf                 Allocated to registers ;size:1
                                           ;@delay_ms flag1                     Allocated to registers ;size:1
                                           ;@delay_ms ir_data                   Allocated to registers ;size:1
                                           ;@delay_ms xms                       Allocated to registers ;size:2
                                           ;@delay_ms i                         Allocated to registers r0x1018 r0x1019 ;size:2
                                           ;@delay_ms INDF0                     Allocated to registers ;size:1
                                           ;@delay_ms INDF1                     Allocated to registers ;size:1
                                           ;@delay_ms INDF2                     Allocated to registers ;size:1
                                           ;@delay_ms HIBYTE                    Allocated to registers ;size:1
                                           ;@delay_ms FSR0                      Allocated to registers ;size:1
                                           ;@delay_ms FSR1                      Allocated to registers ;size:1
                                           ;@delay_ms PCL                       Allocated to registers ;size:1
                                           ;@delay_ms PFLAG                     Allocated to registers ;size:1
                                           ;@delay_ms MCR                       Allocated to registers ;size:1
                                           ;@delay_ms INDF3                     Allocated to registers ;size:1
                                           ;@delay_ms INTE                      Allocated to registers ;size:1
                                           ;@delay_ms INTF                      Allocated to registers ;size:1
                                           ;@delay_ms DRVCR                     Allocated to registers ;size:1
                                           ;@delay_ms P0KBCR                    Allocated to registers ;size:1
                                           ;@delay_ms P1KBCR                    Allocated to registers ;size:1
                                           ;@delay_ms P2KBCR                    Allocated to registers ;size:1
                                           ;@delay_ms IOP0                      Allocated to registers ;size:1
                                           ;@delay_ms OEP0                      Allocated to registers ;size:1
                                           ;@delay_ms PUP0                      Allocated to registers ;size:1
                                           ;@delay_ms PDP0                      Allocated to registers ;size:1
                                           ;@delay_ms IOP1                      Allocated to registers ;size:1
                                           ;@delay_ms OEP1                      Allocated to registers ;size:1
                                           ;@delay_ms PUP1                      Allocated to registers ;size:1
                                           ;@delay_ms PDP1                      Allocated to registers ;size:1
                                           ;@delay_ms T0CR                      Allocated to registers ;size:1
                                           ;@delay_ms T0CNT                     Allocated to registers ;size:1
                                           ;@delay_ms T0LOAD                    Allocated to registers ;size:1
                                           ;@delay_ms T0DATA                    Allocated to registers ;size:1
                                           ;@delay_ms T1CR                      Allocated to registers ;size:1
                                           ;@delay_ms T1CNT                     Allocated to registers ;size:1
                                           ;@delay_ms T1LOAD                    Allocated to registers ;size:1
                                           ;@delay_ms T1DATA                    Allocated to registers ;size:1
                                           ;@delay_ms T2CR                      Allocated to registers ;size:1
                                           ;@delay_ms T2CNT                     Allocated to registers ;size:1
                                           ;@delay_ms T2LOAD                    Allocated to registers ;size:1
                                           ;@delay_ms T2DATA                    Allocated to registers ;size:1
                                           ;@delay_ms T3CR                      Allocated to registers ;size:1
                                           ;@delay_ms T3CNT                     Allocated to registers ;size:1
                                           ;@delay_ms T3LOAD                    Allocated to registers ;size:1
                                           ;@delay_ms PWM0DR                    Allocated to registers ;size:1
                                           ;@delay_ms PWM1DR                    Allocated to registers ;size:1
                                           ;@delay_ms PWM2DR                    Allocated to registers ;size:1
                                           ;@delay_ms PWMCR0                    Allocated to registers ;size:1
                                           ;@delay_ms PWMCR1                    Allocated to registers ;size:1
                                           ;@delay_ms OSCMR                     Allocated to registers ;size:1
                                           ;@delay_ms LVDCR                     Allocated to registers ;size:1
                                           ;@delay_ms ADCR0                     Allocated to registers ;size:1
                                           ;@delay_ms ADCR1                     Allocated to registers ;size:1
                                           ;@delay_ms ADCR2                     Allocated to registers ;size:1
                                           ;@delay_ms OSADJCR                   Allocated to registers ;size:1
                                           ;@delay_ms ADRH                      Allocated to registers ;size:1
                                           ;@delay_ms ADRL                      Allocated to registers ;size:1
                                           ;@delay_ms P0ADCR                    Allocated to registers ;size:1
                                           ;@delay_ms P1ADCR                    Allocated to registers ;size:1
                                           ;@delay_ms IOP2                      Allocated to registers ;size:1
                                           ;@delay_ms OEP2                      Allocated to registers ;size:1
                                           ;@delay_ms PUP2                      Allocated to registers ;size:1
                                           ;@delay_ms PDP2                      Allocated to registers ;size:1
                                           ;@delay_ms PMOD                      Allocated to registers ;size:1
                                           ;@delay_ms PWMCR3                    Allocated to registers ;size:1
                                           ;@delay_ms PWMCR2                    Allocated to registers ;size:1
                                           ;@delay_ms PFRCCR                    Allocated to registers ;size:1
                                           ;@delay_ms PFRCCAL                   Allocated to registers ;size:1
                                           ;@delay_ms EECR                      Allocated to registers ;size:1
                                           ;@delay_ms EEPR                      Allocated to registers ;size:1
                                           ;@delay_ms EEAR                      Allocated to registers ;size:1
                                           ;@delay_ms EEDRH                     Allocated to registers ;size:1
                                           ;@delay_ms EEDRL                     Allocated to registers ;size:1
                                           ;@delay_ms DBGCR                     Allocated to registers ;size:1
                                           ;@delay_ms DBGPR                     Allocated to registers ;size:1
                                           ;@delay_ms HIRCCAL                   Allocated to registers ;size:1
                                           ;@end Allocation info for local variables in function 'delay_ms';
                                           ;@Allocation info for local variables in function 'delay_100us'
                                           ;@delay_100us i                         Allocated to registers r0x1016 ;size:1
                                           ;@end Allocation info for local variables in function 'delay_100us';
                                           ;@Allocation info for local variables in function 'delay_200us'
                                           ;@delay_200us i                         Allocated to registers r0x1036 ;size:1
                                           ;@end Allocation info for local variables in function 'delay_200us';
                                           ;@Allocation info for local variables in function 'delay_1_4ms'
                                           ;@delay_1_4ms i                         Allocated to registers r0x1018 ;size:1
                                           ;@end Allocation info for local variables in function 'delay_1_4ms';
                                           ;@Allocation info for local variables in function 'EEPROM_Write_Byte'
                                           ;@EEPROM_Write_Byte data                      Allocated to registers r0x1017 r0x1016 ;size:2
                                           ;@EEPROM_Write_Byte addr                      Allocated to registers ;size:1
                                           ;@end Allocation info for local variables in function 'EEPROM_Write_Byte';
                                           ;@Allocation info for local variables in function 'EEPROM_Read_Byte'
                                           ;@EEPROM_Read_Byte addr                      Allocated to registers ;size:1
                                           ;@EEPROM_Read_Byte EEDR                      Allocated to registers r0x1019 r0x1018 ;size:2
                                           ;@end Allocation info for local variables in function 'EEPROM_Read_Byte';
                                           ;@Allocation info for local variables in function 'send_cmd_16bit'
                                           ;@send_cmd_16bit data                      Allocated to registers r0x101D r0x101C ;size:2
                                           ;@send_cmd_16bit i                         Allocated to registers r0x101E ;size:1
                                           ;@end Allocation info for local variables in function 'send_cmd_16bit';
                                           ;@Allocation info for local variables in function 'send_cmd_16bit_without_delay'
                                           ;@send_cmd_16bit_without_delay data                      Allocated to registers r0x1031 r0x1030 ;size:2
                                           ;@send_cmd_16bit_without_delay i                         Allocated to registers r0x1032 ;size:1
                                           ;@end Allocation info for local variables in function 'send_cmd_16bit_without_delay';
                                           ;@Allocation info for local variables in function 'CLR_RAM'
                                           ;@end Allocation info for local variables in function 'CLR_RAM';
                                           ;@Allocation info for local variables in function 'IO_Init'
                                           ;@end Allocation info for local variables in function 'IO_Init';
                                           ;@Allocation info for local variables in function 'TIMER2_INT_Init'
                                           ;@end Allocation info for local variables in function 'TIMER2_INT_Init';
                                           ;@Allocation info for local variables in function 'TIMER3_INT_Init'
                                           ;@end Allocation info for local variables in function 'TIMER3_INT_Init';
                                           ;@Allocation info for local variables in function 'Sys_Init'
                                           ;@end Allocation info for local variables in function 'Sys_Init';
                                           ;@Allocation info for local variables in function 'key_event_same_deal'
                                           ;@key_event_same_deal own_data2                 Allocated to registers r0x1027 r0x1026 ;size:2
                                           ;@key_event_same_deal own_data1                 Allocated to registers r0x1025 r0x1024 ;size:2
                                           ;@key_event_same_deal end                       Allocated to registers r0x1023 ;size:1
                                           ;@key_event_same_deal start                     Allocated to registers r0x1022 ;size:1
                                           ;@end Allocation info for local variables in function 'key_event_same_deal';
                                           ;@Allocation info for local variables in function 'main'
                                           ;@main speed_code                Allocated to registers r0x102B r0x102A ;size:2
                                           ;@main sloc0                     Allocated to registers ;size:2
                                           ;@end Allocation info for local variables in function 'main';
                                           ;@Allocation info for local variables in function 'int_isr'
                                           ;@int_isr ir_level_cnt              Allocated to registers ;size:2
                                           ;@int_isr __ir_data                 Allocated to registers ;size:1
                                           ;@int_isr key_press_cnt             Allocated to registers ;size:2
                                           ;@end Allocation info for local variables in function 'int_isr';
                                           
                                           ;--------------------------------------------------------
                                           ; overlayable items in internal ram 
                                           ;--------------------------------------------------------
                                           ;	udata_ovr
                                           ;--------------------------------------------------------
                                           ; reset vector 
                                           ;--------------------------------------------------------
                                           STARTUP	code 0x0000
                                           	goto	_main
                                           ;--------------------------------------------------------
                                           ; interrupt and initialization code
                                           ;--------------------------------------------------------
                                           c_interrupt	code	0x8
                                           __sdcc_interrupt
                                           ;***
                                           ;  pBlock Stats: dbName = I
                                           ;***
                                           ;entry:  _int_isr	;Function start
                                           ; 0 exit points
                                           ;2 compiler assigned registers:
                                           ;   r0x1038
                                           ;   r0x1039
                                           ;; Starting pCode block
                                           _int_isr	;Function start
                                           ; 0 exit points
                                           ;	.line	1021; "MC32F7361.c"	__endasm;
                                           	;
                                           	movra	_abuf;
                                           	swapar	_PFLAG;
                                           	movra	_statusbuf;
                                           	
                                           ;	.line	1035; "MC32F7361.c"	if (T2IF & T2IE)
                                           	CLRR	r0x1038
                                           	JBCLR	_INTFbits,5
                                           	INCR	r0x1038
                                           	CLRR	r0x1039
                                           	JBCLR	_INTEbits,5
                                           	INCR	r0x1039
                                           	MOVAR	r0x1039
                                           	ANDRA	r0x1038
                                           	MOVAI	0x00
                                           	ORAR	r0x1038
                                           	JBCLR	PFLAG,2
                                           	GOTO	_00764_DS_
                                           ;	.line	1037; "MC32F7361.c"	T2IF = 0;
                                           	BCLR	_INTFbits,5
                                           ;;swapping arguments (AOP_TYPEs 1/3)
                                           ;;unsigned compare: left >= lit(0x515=1301), size=2
                                           ;	.line	1048; "MC32F7361.c"	if (ir_level_cnt <= 1300)
                                           	MOVAI	0x05
                                           	RSUBAR	(_int_isr_ir_level_cnt_196608_75 + 1)
                                           	JBSET	PFLAG,2
                                           	GOTO	_00868_DS_
                                           	MOVAI	0x15
                                           	RSUBAR	_int_isr_ir_level_cnt_196608_75
                                           _00868_DS_
                                           	JBCLR	PFLAG,0
                                           	GOTO	_00724_DS_
                                           ;;genSkipc:3291: created from rifx:013B5EFC
                                           ;	.line	1049; "MC32F7361.c"	ir_level_cnt++;
                                           	INCR	_int_isr_ir_level_cnt_196608_75
                                           	JBCLR	PFLAG,2
                                           	INCR	(_int_isr_ir_level_cnt_196608_75 + 1)
                                           _00724_DS_
                                           ;	.line	1064; "MC32F7361.c"	if (IR_RECV_PIN)
                                           	JBSET	_IOP1bits,5
                                           	GOTO	_00750_DS_
                                           ;	.line	1066; "MC32F7361.c"	last_level_in_ir_pin = 1; // 
                                           	BSET	_flag1,2
                                           ;;swapping arguments (AOP_TYPEs 1/3)
                                           ;;unsigned compare: left >= lit(0x4B1=1201), size=2
                                           ;	.line	1069; "MC32F7361.c"	if (ir_level_cnt > 1200) // (120000us,120ms)
                                           	MOVAI	0x04
                                           	RSUBAR	(_int_isr_ir_level_cnt_196608_75 + 1)
                                           	JBSET	PFLAG,2
                                           	GOTO	_00869_DS_
                                           	MOVAI	0xb1
                                           	RSUBAR	_int_isr_ir_level_cnt_196608_75
                                           _00869_DS_
                                           	JBSET	PFLAG,0
                                           	GOTO	_00751_DS_
                                           ;;genSkipc:3291: created from rifx:013B5EFC
                                           ;	.line	1072; "MC32F7361.c"	if (__ir_data != 0) // (__ir_data)
                                           	MOVAI	0x00
                                           	ORAR	_int_isr___ir_data_196608_75
                                           	JBCLR	PFLAG,2
                                           	GOTO	_00728_DS_
                                           ;	.line	1081; "MC32F7361.c"	if (0 == flag_is_recved_data)
                                           	JBCLR	_flag1,0
                                           	GOTO	_00728_DS_
                                           ;	.line	1083; "MC32F7361.c"	ir_data = ~__ir_data;
                                           	COMAR	_int_isr___ir_data_196608_75
                                           	MOVRA	_ir_data
                                           ;	.line	1084; "MC32F7361.c"	__ir_data = 0;
                                           	CLRR	_int_isr___ir_data_196608_75
                                           ;	.line	1085; "MC32F7361.c"	flag_is_recved_data = 1;
                                           	BSET	_flag1,0
                                           _00728_DS_
                                           ;	.line	1089; "MC32F7361.c"	flag_is_recv_ir_repeat_code = 0; // 
                                           	BCLR	_flag1,4
                                           	GOTO	_00751_DS_
                                           _00750_DS_
                                           ;	.line	1094; "MC32F7361.c"	if (last_level_in_ir_pin)
                                           	JBSET	_flag1,2
                                           	GOTO	_00748_DS_
                                           ;;swapping arguments (AOP_TYPEs 1/3)
                                           ;;unsigned compare: left >= lit(0x9=9), size=2
                                           ;	.line	1097; "MC32F7361.c"	if (ir_level_cnt <= 8) // 800us
                                           	MOVAI	0x00
                                           	RSUBAR	(_int_isr_ir_level_cnt_196608_75 + 1)
                                           	JBSET	PFLAG,2
                                           	GOTO	_00870_DS_
                                           	MOVAI	0x09
                                           	RSUBAR	_int_isr_ir_level_cnt_196608_75
                                           _00870_DS_
                                           	JBSET	PFLAG,0
                                           	GOTO	_00746_DS_
                                           ;;genSkipc:3291: created from rifx:013B5EFC
                                           ;;swapping arguments (AOP_TYPEs 1/3)
                                           ;;unsigned compare: left >= lit(0x13=19), size=2
                                           ;	.line	1102; "MC32F7361.c"	else if (ir_level_cnt <= 18) // 1800us,0
                                           	MOVAI	0x00
                                           	RSUBAR	(_int_isr_ir_level_cnt_196608_75 + 1)
                                           	JBSET	PFLAG,2
                                           	GOTO	_00871_DS_
                                           	MOVAI	0x13
                                           	RSUBAR	_int_isr_ir_level_cnt_196608_75
                                           _00871_DS_
                                           	JBCLR	PFLAG,0
                                           	GOTO	_00742_DS_
                                           ;;genSkipc:3291: created from rifx:013B5EFC
                                           ;	.line	1104; "MC32F7361.c"	__ir_data <<= 1;
                                           	MOVAR	_int_isr___ir_data_196608_75
                                           	MOVRA	r0x1038
                                           	BCLR	PFLAG,0
                                           	RLAR	r0x1038
                                           	MOVRA	_int_isr___ir_data_196608_75
                                           	GOTO	_00746_DS_
                                           ;;swapping arguments (AOP_TYPEs 1/3)
                                           ;;unsigned compare: left >= lit(0x1B=27), size=2
                                           _00742_DS_
                                           ;	.line	1109; "MC32F7361.c"	else if (ir_level_cnt <= 26) // 2600us,1
                                           	MOVAI	0x00
                                           	RSUBAR	(_int_isr_ir_level_cnt_196608_75 + 1)
                                           	JBSET	PFLAG,2
                                           	GOTO	_00872_DS_
                                           	MOVAI	0x1b
                                           	RSUBAR	_int_isr_ir_level_cnt_196608_75
                                           _00872_DS_
                                           	JBCLR	PFLAG,0
                                           	GOTO	_00739_DS_
                                           ;;genSkipc:3291: created from rifx:013B5EFC
                                           ;	.line	1111; "MC32F7361.c"	__ir_data <<= 1;
                                           	MOVAR	_int_isr___ir_data_196608_75
                                           	MOVRA	r0x1038
                                           	BCLR	PFLAG,0
                                           	RLAR	r0x1038
                                           	MOVRA	_int_isr___ir_data_196608_75
                                           ;	.line	1112; "MC32F7361.c"	__ir_data |= 0x01;
                                           	BSET	_int_isr___ir_data_196608_75,0
                                           	GOTO	_00746_DS_
                                           ;;swapping arguments (AOP_TYPEs 1/3)
                                           ;;unsigned compare: left >= lit(0x97=151), size=2
                                           _00739_DS_
                                           ;	.line	1116; "MC32F7361.c"	else if (ir_level_cnt <= 150) // 15000us,
                                           	MOVAI	0x00
                                           	RSUBAR	(_int_isr_ir_level_cnt_196608_75 + 1)
                                           	JBSET	PFLAG,2
                                           	GOTO	_00873_DS_
                                           	MOVAI	0x97
                                           	RSUBAR	_int_isr_ir_level_cnt_196608_75
                                           _00873_DS_
                                           	JBSET	PFLAG,0
                                           	GOTO	_00746_DS_
                                           ;;genSkipc:3291: created from rifx:013B5EFC
                                           ;;swapping arguments (AOP_TYPEs 1/3)
                                           ;;unsigned compare: left >= lit(0x1A5=421), size=2
                                           ;	.line	1121; "MC32F7361.c"	else if (ir_level_cnt <= 420) // 42ms,
                                           	MOVAI	0x01
                                           	RSUBAR	(_int_isr_ir_level_cnt_196608_75 + 1)
                                           	JBSET	PFLAG,2
                                           	GOTO	_00874_DS_
                                           	MOVAI	0xa5
                                           	RSUBAR	_int_isr_ir_level_cnt_196608_75
                                           _00874_DS_
                                           	JBCLR	PFLAG,0
                                           	GOTO	_00746_DS_
                                           ;;genSkipc:3291: created from rifx:013B5EFC
                                           ;	.line	1132; "MC32F7361.c"	if (0 == flag_is_recved_data)
                                           	JBCLR	_flag1,0
                                           	GOTO	_00746_DS_
                                           ;	.line	1134; "MC32F7361.c"	ir_data = ~__ir_data;
                                           	COMAR	_int_isr___ir_data_196608_75
                                           	MOVRA	_ir_data
                                           ;	.line	1135; "MC32F7361.c"	__ir_data = 0;
                                           	CLRR	_int_isr___ir_data_196608_75
                                           ;	.line	1136; "MC32F7361.c"	flag_is_recved_data = 1;
                                           	BSET	_flag1,0
                                           ;	.line	1137; "MC32F7361.c"	flag_is_recv_ir_repeat_code = 1; //
                                           	BSET	_flag1,4
                                           _00746_DS_
                                           ;	.line	1151; "MC32F7361.c"	ir_level_cnt = 0;
                                           	CLRR	_int_isr_ir_level_cnt_196608_75
                                           	CLRR	(_int_isr_ir_level_cnt_196608_75 + 1)
                                           _00748_DS_
                                           ;	.line	1154; "MC32F7361.c"	last_level_in_ir_pin = 0; // 
                                           	BCLR	_flag1,2
                                           _00751_DS_
                                           ;	.line	1161; "MC32F7361.c"	if (0 == MECHANICAL_KEYING_PIN)
                                           	JBCLR	_IOP1bits,6
                                           	GOTO	_00761_DS_
                                           ;	.line	1164; "MC32F7361.c"	if (key_press_cnt == 10000) // 
                                           	MOVAR	_int_isr_key_press_cnt_196608_89
                                           	XORAI	0x10
                                           	JBSET	PFLAG,2
                                           	GOTO	_00755_DS_
                                           	MOVAR	(_int_isr_key_press_cnt_196608_89 + 1)
                                           	XORAI	0x27
                                           	JBSET	PFLAG,2
                                           	GOTO	_00755_DS_
                                           ;	.line	1166; "MC32F7361.c"	ir_data = IR_KEY_OFF;
                                           	MOVAI	0xb8
                                           	MOVRA	_ir_data
                                           ;	.line	1167; "MC32F7361.c"	flag_is_recved_data = 1;
                                           	BSET	_flag1,0
                                           	GOTO	_00764_DS_
                                           ;;unsigned compare: left < lit(0x2710=10000), size=2
                                           _00755_DS_
                                           ;	.line	1169; "MC32F7361.c"	else if (key_press_cnt < 10000)
                                           	MOVAI	0x27
                                           	RSUBAR	(_int_isr_key_press_cnt_196608_89 + 1)
                                           	JBSET	PFLAG,2
                                           	GOTO	_00875_DS_
                                           	MOVAI	0x10
                                           	RSUBAR	_int_isr_key_press_cnt_196608_89
                                           _00875_DS_
                                           	JBCLR	PFLAG,0
                                           	GOTO	_00764_DS_
                                           ;;genSkipc:3291: created from rifx:013B5EFC
                                           ;	.line	1171; "MC32F7361.c"	key_press_cnt++;
                                           	INCR	_int_isr_key_press_cnt_196608_89
                                           	JBCLR	PFLAG,2
                                           	INCR	(_int_isr_key_press_cnt_196608_89 + 1)
                                           	GOTO	_00764_DS_
                                           ;;unsigned compare: left < lit(0x64=100), size=2
                                           _00761_DS_
                                           ;	.line	1176; "MC32F7361.c"	if (key_press_cnt >= 100 &&key_press_cnt < 10000) // 
                                           	MOVAI	0x00
                                           	RSUBAR	(_int_isr_key_press_cnt_196608_89 + 1)
                                           	JBSET	PFLAG,2
                                           	GOTO	_00876_DS_
                                           	MOVAI	0x64
                                           	RSUBAR	_int_isr_key_press_cnt_196608_89
                                           _00876_DS_
                                           	JBSET	PFLAG,0
                                           	GOTO	_00758_DS_
                                           ;;genSkipc:3291: created from rifx:013B5EFC
                                           ;;unsigned compare: left < lit(0x2710=10000), size=2
                                           	MOVAI	0x27
                                           	RSUBAR	(_int_isr_key_press_cnt_196608_89 + 1)
                                           	JBSET	PFLAG,2
                                           	GOTO	_00877_DS_
                                           	MOVAI	0x10
                                           	RSUBAR	_int_isr_key_press_cnt_196608_89
                                           _00877_DS_
                                           	JBCLR	PFLAG,0
                                           	GOTO	_00758_DS_
                                           ;;genSkipc:3291: created from rifx:013B5EFC
                                           ;	.line	1178; "MC32F7361.c"	ir_data = IR_MECHANICAL_KEYING;
                                           	MOVAI	0x01
                                           	MOVRA	_ir_data
                                           ;	.line	1179; "MC32F7361.c"	flag_is_recved_data = 1;
                                           	BSET	_flag1,0
                                           _00758_DS_
                                           ;	.line	1182; "MC32F7361.c"	key_press_cnt = 0;
                                           	CLRR	_int_isr_key_press_cnt_196608_89
                                           	CLRR	(_int_isr_key_press_cnt_196608_89 + 1)
                                           _00764_DS_
                                           ;	.line	1239; "MC32F7361.c"	if (T3IF & T3IE)
                                           	CLRR	r0x1038
                                           	JBCLR	_INTFbits,7
                                           	INCR	r0x1038
                                           	CLRR	r0x1039
                                           	JBCLR	_INTEbits,7
                                           	INCR	r0x1039
                                           	MOVAR	r0x1039
                                           	ANDRA	r0x1038
                                           	MOVAI	0x00
                                           	ORAR	r0x1038
                                           	JBCLR	PFLAG,2
                                           	GOTO	_00773_DS_
                                           ;	.line	1241; "MC32F7361.c"	T3IF = 0;
                                           	BCLR	_INTFbits,7
                                           ;	.line	1245; "MC32F7361.c"	if (next_frame_delay > 0 && next_frame_delay < 0xFFFF)
                                           	MOVAR	_next_frame_delay
                                           	ORAR	(_next_frame_delay + 1)
                                           	JBCLR	PFLAG,2
                                           	GOTO	_00766_DS_
                                           ;;unsigned compare: left < lit(0xFFFF=65535), size=2
                                           	MOVAI	0xff
                                           	RSUBAR	(_next_frame_delay + 1)
                                           	JBSET	PFLAG,2
                                           	GOTO	_00878_DS_
                                           	MOVAI	0xff
                                           	RSUBAR	_next_frame_delay
                                           _00878_DS_
                                           	JBCLR	PFLAG,0
                                           	GOTO	_00766_DS_
                                           ;;genSkipc:3291: created from rifx:013B5EFC
                                           ;	.line	1247; "MC32F7361.c"	next_frame_delay--;
                                           	MOVAI	0xff
                                           	ADDRA	_next_frame_delay
                                           	JBSET	PFLAG,0
                                           	DECR	(_next_frame_delay + 1)
                                           _00766_DS_
                                           ;	.line	1252; "MC32F7361.c"	if (timer_count)
                                           	MOVAR	_timer_count
                                           	ORAR	(_timer_count + 1)
                                           	ORAR	(_timer_count + 2)
                                           	ORAR	(_timer_count + 3)
                                           	JBCLR	PFLAG,2
                                           	GOTO	_00773_DS_
                                           ;	.line	1254; "MC32F7361.c"	timer_count--;
                                           	MOVAI	0xff
                                           	ADDRA	_timer_count
                                           	MOVAI	0xff
                                           	JBSET	PFLAG,0
                                           	ADDRA	(_timer_count + 1)
                                           	MOVAI	0xff
                                           	JBSET	PFLAG,0
                                           	ADDRA	(_timer_count + 2)
                                           	MOVAI	0xff
                                           	JBSET	PFLAG,0
                                           	ADDRA	(_timer_count + 3)
                                           ;	.line	1255; "MC32F7361.c"	if (timer_count == 0)
                                           	MOVAR	_timer_count
                                           	ORAR	(_timer_count + 1)
                                           	ORAR	(_timer_count + 2)
                                           	ORAR	(_timer_count + 3)
                                           	JBSET	PFLAG,2
                                           	GOTO	_00773_DS_
                                           ;	.line	1257; "MC32F7361.c"	ir_data = IR_KEY_OFF;
                                           	MOVAI	0xb8
                                           	MOVRA	_ir_data
                                           ;	.line	1258; "MC32F7361.c"	flag_is_recved_data = 1;
                                           	BSET	_flag1,0
                                           _00773_DS_
                                           ;	.line	1268; "MC32F7361.c"	__endasm;
                                           	;
                                           	swapar	_statusbuf;
                                           	movra	_PFLAG;
                                           	swapr	_abuf;
                                           	swapar	_abuf;
                                           	
                                           END_OF_INTERRUPT
                                           ;	.line	1269; "MC32F7361.c"	}
                                           	RETIE	
                                           
                                           ;--------------------------------------------------------
                                           ; code
                                           ;--------------------------------------------------------
                                           code_MC32F7361	code
                                           ;***
                                           ;  pBlock Stats: dbName = M
                                           ;***
                                           ;entry:  _main	;Function start
                                           ; 2 exit points
                                           ;has an exit
                                           ;functions called:
                                           ;   _Sys_Init
                                           ;   _delay_ms
                                           ;   _EEPROM_Read_Byte
                                           ;   _key_event_same_deal
                                           ;   _key_event_same_deal
                                           ;   _send_cmd_16bit
                                           ;   _key_event_same_deal
                                           ;   _key_event_same_deal
                                           ;   _key_event_same_deal
                                           ;   _key_event_same_deal
                                           ;   _key_event_same_deal
                                           ;   _key_event_same_deal
                                           ;   _key_event_same_deal
                                           ;   _key_event_same_deal
                                           ;   _key_event_same_deal
                                           ;   _key_event_same_deal
                                           ;   _key_event_same_deal
                                           ;   _key_event_same_deal
                                           ;   _key_event_same_deal
                                           ;   _key_event_same_deal
                                           ;   _key_event_same_deal
                                           ;   _key_event_same_deal
                                           ;   _key_event_same_deal
                                           ;   _key_event_same_deal
                                           ;   _key_event_same_deal
                                           ;   _key_event_same_deal
                                           ;   _key_event_same_deal
                                           ;   _key_event_same_deal
                                           ;   _key_event_same_deal
                                           ;   _key_event_same_deal
                                           ;   _key_event_same_deal
                                           ;   _key_event_same_deal
                                           ;   _key_event_same_deal
                                           ;   _key_event_same_deal
                                           ;   _key_event_same_deal
                                           ;   _key_event_same_deal
                                           ;   _key_event_same_deal
                                           ;   _key_event_same_deal
                                           ;   _key_event_same_deal
                                           ;   _key_event_same_deal
                                           ;   _key_event_same_deal
                                           ;   _key_event_same_deal
                                           ;   _key_event_same_deal
                                           ;   _key_event_same_deal
                                           ;   __gptrget1
                                           ;   __gptrget2
                                           ;   __gptrget1
                                           ;   __gptrget2
                                           ;   __gptrget1
                                           ;   __gptrget1
                                           ;   __gptrget1
                                           ;   __gptrget2
                                           ;   __gptrget1
                                           ;   __gptrget1
                                           ;   __gptrget2
                                           ;   __gptrget1
                                           ;   _send_cmd_16bit
                                           ;   _delay_ms
                                           ;   _delay_100us
                                           ;   _delay_100us
                                           ;   _delay_ms
                                           ;   _delay_100us
                                           ;   _delay_100us
                                           ;   _delay_ms
                                           ;   _delay_100us
                                           ;   _delay_100us
                                           ;   _delay_ms
                                           ;   _delay_100us
                                           ;   _delay_100us
                                           ;   _delay_ms
                                           ;   _EEPROM_Read_Byte
                                           ;   _EEPROM_Read_Byte
                                           ;   _EEPROM_Read_Byte
                                           ;   _EEPROM_Read_Byte
                                           ;   _key_event_same_deal
                                           ;   _send_cmd_16bit
                                           ;   _send_cmd_16bit
                                           ;   _delay_ms
                                           ;   _Sys_Init
                                           ;   _delay_ms
                                           ;   _EEPROM_Read_Byte
                                           ;   _key_event_same_deal
                                           ;   _key_event_same_deal
                                           ;   _send_cmd_16bit
                                           ;   _key_event_same_deal
                                           ;   _key_event_same_deal
                                           ;   _key_event_same_deal
                                           ;   _key_event_same_deal
                                           ;   _key_event_same_deal
                                           ;   _key_event_same_deal
                                           ;   _key_event_same_deal
                                           ;   _key_event_same_deal
                                           ;   _key_event_same_deal
                                           ;   _key_event_same_deal
                                           ;   _key_event_same_deal
                                           ;   _key_event_same_deal
                                           ;   _key_event_same_deal
                                           ;   _key_event_same_deal
                                           ;   _key_event_same_deal
                                           ;   _key_event_same_deal
                                           ;   _key_event_same_deal
                                           ;   _key_event_same_deal
                                           ;   _key_event_same_deal
                                           ;   _key_event_same_deal
                                           ;   _key_event_same_deal
                                           ;   _key_event_same_deal
                                           ;   _key_event_same_deal
                                           ;   _key_event_same_deal
                                           ;   _key_event_same_deal
                                           ;   _key_event_same_deal
                                           ;   _key_event_same_deal
                                           ;   _key_event_same_deal
                                           ;   _key_event_same_deal
                                           ;   _key_event_same_deal
                                           ;   _key_event_same_deal
                                           ;   _key_event_same_deal
                                           ;   _key_event_same_deal
                                           ;   _key_event_same_deal
                                           ;   _key_event_same_deal
                                           ;   _key_event_same_deal
                                           ;   _key_event_same_deal
                                           ;   _key_event_same_deal
                                           ;   __gptrget1
                                           ;   __gptrget2
                                           ;   __gptrget1
                                           ;   __gptrget2
                                           ;   __gptrget1
                                           ;   __gptrget1
                                           ;   __gptrget1
                                           ;   __gptrget2
                                           ;   __gptrget1
                                           ;   __gptrget1
                                           ;   __gptrget2
                                           ;   __gptrget1
                                           ;   _send_cmd_16bit
                                           ;   _delay_ms
                                           ;   _delay_100us
                                           ;   _delay_100us
                                           ;   _delay_ms
                                           ;   _delay_100us
                                           ;   _delay_100us
                                           ;   _delay_ms
                                           ;   _delay_100us
                                           ;   _delay_100us
                                           ;   _delay_ms
                                           ;   _delay_100us
                                           ;   _delay_100us
                                           ;   _delay_ms
                                           ;   _EEPROM_Read_Byte
                                           ;   _EEPROM_Read_Byte
                                           ;   _EEPROM_Read_Byte
                                           ;   _EEPROM_Read_Byte
                                           ;   _key_event_same_deal
                                           ;   _send_cmd_16bit
                                           ;   _send_cmd_16bit
                                           ;   _delay_ms
                                           ;11 compiler assigned registers:
                                           ;   STK00
                                           ;   r0x102A
                                           ;   r0x102B
                                           ;   STK04
                                           ;   STK03
                                           ;   STK02
                                           ;   STK01
                                           ;   r0x102C
                                           ;   r0x102D
                                           ;   r0x102E
                                           ;   r0x102F
                                           ;; Starting pCode block
                                           _main	;Function start
                                           ; 2 exit points
                                           ;	.line	618; "MC32F7361.c"	Sys_Init();
                                           	CALL	_Sys_Init
                                           ;	.line	619; "MC32F7361.c"	delay_ms(1); // 
                                           	MOVAI	0x01
                                           	MOVRA	STK00
                                           	MOVAI	0x00
                                           	CALL	_delay_ms
                                           ;	.line	634; "MC32F7361.c"	P15OE = 0; // 
                                           	BCLR	_OEP1bits,5
                                           ;	.line	640; "MC32F7361.c"	P16OE = 0; // 
                                           	BCLR	_OEP1bits,6
                                           ;	.line	645; "MC32F7361.c"	if (EEPROM_Read_Byte(4) != 0xA5A5)
                                           	MOVAI	0x04
                                           	CALL	_EEPROM_Read_Byte
                                           	MOVRA	r0x102A
                                           	MOVAR	STK00
                                           	MOVRA	r0x102B
                                           	MOVAR	r0x102B
                                           	XORAI	0xa5
                                           	JBSET	PFLAG,2
                                           	GOTO	_00685_DS_
                                           	MOVAR	r0x102A
                                           	XORAI	0xa5
                                           	JBSET	PFLAG,2
                                           	GOTO	_00685_DS_
                                           	GOTO	_00261_DS_
                                           _00685_DS_
                                           ;	.line	648; "MC32F7361.c"	key_event_same_deal(MODE_AUTO_START, MODE_AUTO_END, 0x9645, 0x9645);
                                           	MOVAI	0x45
                                           	MOVRA	STK04
                                           	MOVAI	0x96
                                           	MOVRA	STK03
                                           	MOVAI	0x45
                                           	MOVRA	STK02
                                           	MOVAI	0x96
                                           	MOVRA	STK01
                                           	MOVAI	0x4a
                                           	MOVRA	STK00
                                           	MOVAI	0x00
                                           	CALL	_key_event_same_deal
                                           	GOTO	_00371_DS_
                                           _00261_DS_
                                           ;	.line	652; "MC32F7361.c"	power_sta = POWER_STA_PRE_ON;
                                           	MOVAI	0x01
                                           	MOVRA	_power_sta
                                           _00371_DS_
                                           ;	.line	678; "MC32F7361.c"	if (flag_is_recved_data)
                                           	JBSET	_flag1,0
                                           	GOTO	_00322_DS_
                                           ;	.line	680; "MC32F7361.c"	switch (ir_data)
                                           	MOVAR	_ir_data
                                           	MOVRA	r0x102B
                                           	MOVAR	r0x102B
                                           	JBSET	PFLAG,2
                                           	GOTO	_00686_DS_
                                           	GOTO	_00300_DS_
                                           _00686_DS_
                                           	MOVAR	r0x102B
                                           	XORAI	0x01
                                           	JBSET	PFLAG,2
                                           	GOTO	_00687_DS_
                                           	GOTO	_00277_DS_
                                           _00687_DS_
                                           	MOVAR	r0x102B
                                           	XORAI	0x08
                                           	JBSET	PFLAG,2
                                           	GOTO	_00688_DS_
                                           	GOTO	_00313_DS_
                                           _00688_DS_
                                           	MOVAR	r0x102B
                                           	XORAI	0x10
                                           	JBSET	PFLAG,2
                                           	GOTO	_00689_DS_
                                           	GOTO	_00307_DS_
                                           _00689_DS_
                                           	MOVAR	r0x102B
                                           	XORAI	0x18
                                           	JBSET	PFLAG,2
                                           	GOTO	_00690_DS_
                                           	GOTO	_00316_DS_
                                           _00690_DS_
                                           	MOVAR	r0x102B
                                           	XORAI	0x20
                                           	JBSET	PFLAG,2
                                           	GOTO	_00691_DS_
                                           	GOTO	_00304_DS_
                                           _00691_DS_
                                           	MOVAR	r0x102B
                                           	XORAI	0x28
                                           	JBSET	PFLAG,2
                                           	GOTO	_00692_DS_
                                           	GOTO	_00296_DS_
                                           _00692_DS_
                                           	MOVAR	r0x102B
                                           	XORAI	0x30
                                           	JBSET	PFLAG,2
                                           	GOTO	_00693_DS_
                                           	GOTO	_00310_DS_
                                           _00693_DS_
                                           	MOVAR	r0x102B
                                           	XORAI	0x38
                                           	JBSET	PFLAG,2
                                           	GOTO	_00694_DS_
                                           	GOTO	_00263_DS_
                                           _00694_DS_
                                           	MOVAR	r0x102B
                                           	XORAI	0x40
                                           	JBSET	PFLAG,2
                                           	GOTO	_00695_DS_
                                           	GOTO	_00302_DS_
                                           _00695_DS_
                                           	MOVAR	r0x102B
                                           	XORAI	0x48
                                           	JBSET	PFLAG,2
                                           	GOTO	_00696_DS_
                                           	GOTO	_00315_DS_
                                           _00696_DS_
                                           	MOVAR	r0x102B
                                           	XORAI	0x50
                                           	JBSET	PFLAG,2
                                           	GOTO	_00697_DS_
                                           	GOTO	_00309_DS_
                                           _00697_DS_
                                           	MOVAR	r0x102B
                                           	XORAI	0x58
                                           	JBSET	PFLAG,2
                                           	GOTO	_00698_DS_
                                           	GOTO	_00318_DS_
                                           _00698_DS_
                                           	MOVAR	r0x102B
                                           	XORAI	0x60
                                           	JBSET	PFLAG,2
                                           	GOTO	_00699_DS_
                                           	GOTO	_00306_DS_
                                           _00699_DS_
                                           	MOVAR	r0x102B
                                           	XORAI	0x68
                                           	JBSET	PFLAG,2
                                           	GOTO	_00700_DS_
                                           	GOTO	_00298_DS_
                                           _00700_DS_
                                           	MOVAR	r0x102B
                                           	XORAI	0x70
                                           	JBSET	PFLAG,2
                                           	GOTO	_00701_DS_
                                           	GOTO	_00312_DS_
                                           _00701_DS_
                                           	MOVAR	r0x102B
                                           	XORAI	0x78
                                           	JBSET	PFLAG,2
                                           	GOTO	_00702_DS_
                                           	GOTO	_00265_DS_
                                           _00702_DS_
                                           	MOVAR	r0x102B
                                           	XORAI	0x80
                                           	JBSET	PFLAG,2
                                           	GOTO	_00703_DS_
                                           	GOTO	_00301_DS_
                                           _00703_DS_
                                           	MOVAR	r0x102B
                                           	XORAI	0x88
                                           	JBSET	PFLAG,2
                                           	GOTO	_00704_DS_
                                           	GOTO	_00314_DS_
                                           _00704_DS_
                                           	MOVAR	r0x102B
                                           	XORAI	0x90
                                           	JBSET	PFLAG,2
                                           	GOTO	_00705_DS_
                                           	GOTO	_00308_DS_
                                           _00705_DS_
                                           	MOVAR	r0x102B
                                           	XORAI	0x98
                                           	JBSET	PFLAG,2
                                           	GOTO	_00706_DS_
                                           	GOTO	_00317_DS_
                                           _00706_DS_
                                           	MOVAR	r0x102B
                                           	XORAI	0xa0
                                           	JBSET	PFLAG,2
                                           	GOTO	_00707_DS_
                                           	GOTO	_00305_DS_
                                           _00707_DS_
                                           	MOVAR	r0x102B
                                           	XORAI	0xa8
                                           	JBSET	PFLAG,2
                                           	GOTO	_00708_DS_
                                           	GOTO	_00297_DS_
                                           _00708_DS_
                                           	MOVAR	r0x102B
                                           	XORAI	0xb0
                                           	JBSET	PFLAG,2
                                           	GOTO	_00709_DS_
                                           	GOTO	_00311_DS_
                                           _00709_DS_
                                           	MOVAR	r0x102B
                                           	XORAI	0xb8
                                           	JBSET	PFLAG,2
                                           	GOTO	_00710_DS_
                                           	GOTO	_00264_DS_
                                           _00710_DS_
                                           	MOVAR	r0x102B
                                           	XORAI	0xc0
                                           	JBSET	PFLAG,2
                                           	GOTO	_00711_DS_
                                           	GOTO	_00303_DS_
                                           _00711_DS_
                                           	MOVAR	r0x102B
                                           	XORAI	0xc8
                                           	JBSET	PFLAG,2
                                           	GOTO	_00712_DS_
                                           	GOTO	_00295_DS_
                                           _00712_DS_
                                           	MOVAR	r0x102B
                                           	XORAI	0xd0
                                           	JBSET	PFLAG,2
                                           	GOTO	_00713_DS_
                                           	GOTO	_00293_DS_
                                           _00713_DS_
                                           	MOVAR	r0x102B
                                           	XORAI	0xd8
                                           	JBSET	PFLAG,2
                                           	GOTO	_00714_DS_
                                           	GOTO	_00319_DS_
                                           _00714_DS_
                                           	MOVAR	r0x102B
                                           	XORAI	0xe0
                                           	JBSET	PFLAG,2
                                           	GOTO	_00715_DS_
                                           	GOTO	_00271_DS_
                                           _00715_DS_
                                           	MOVAR	r0x102B
                                           	XORAI	0xe8
                                           	JBSET	PFLAG,2
                                           	GOTO	_00716_DS_
                                           	GOTO	_00299_DS_
                                           _00716_DS_
                                           	MOVAR	r0x102B
                                           	XORAI	0xf0
                                           	JBSET	PFLAG,2
                                           	GOTO	_00717_DS_
                                           	GOTO	_00294_DS_
                                           _00717_DS_
                                           	MOVAR	r0x102B
                                           	XORAI	0xf8
                                           	JBSET	PFLAG,2
                                           	GOTO	_00718_DS_
                                           	GOTO	_00266_DS_
                                           _00718_DS_
                                           	GOTO	_00320_DS_
                                           _00263_DS_
                                           ;	.line	683; "MC32F7361.c"	power_sta = POWER_STA_PRE_ON;
                                           	MOVAI	0x01
                                           	MOVRA	_power_sta
                                           ;	.line	684; "MC32F7361.c"	break;
                                           	GOTO	_00320_DS_
                                           _00264_DS_
                                           ;	.line	687; "MC32F7361.c"	power_sta = POWER_STA_PRE_OFF;
                                           	MOVAI	0x03
                                           	MOVRA	_power_sta
                                           ;	.line	688; "MC32F7361.c"	break;
                                           	GOTO	_00320_DS_
                                           _00265_DS_
                                           ;	.line	691; "MC32F7361.c"	key_event_same_deal(MODE_AUTO_START, MODE_AUTO_END, 0x9645, 0x9645);
                                           	MOVAI	0x45
                                           	MOVRA	STK04
                                           	MOVAI	0x96
                                           	MOVRA	STK03
                                           	MOVAI	0x45
                                           	MOVRA	STK02
                                           	MOVAI	0x96
                                           	MOVRA	STK01
                                           	MOVAI	0x4a
                                           	MOVRA	STK00
                                           	MOVAI	0x00
                                           	CALL	_key_event_same_deal
                                           ;	.line	693; "MC32F7361.c"	break;
                                           	GOTO	_00320_DS_
                                           _00266_DS_
                                           ;	.line	696; "MC32F7361.c"	if (power_sta != POWER_STA_OFF)
                                           	MOVAI	0x00
                                           	ORAR	_power_sta
                                           	JBCLR	PFLAG,2
                                           	GOTO	_00320_DS_
                                           ;	.line	698; "MC32F7361.c"	current_speed++;
                                           	INCR	_current_speed
                                           ;;unsigned compare: left < lit(0x4=4), size=1
                                           ;	.line	699; "MC32F7361.c"	if (current_speed >= 4)
                                           	MOVAI	0x04
                                           	RSUBAR	_current_speed
                                           	JBSET	PFLAG,0
                                           	GOTO	_00268_DS_
                                           ;;genSkipc:3291: created from rifx:013B5EFC
                                           ;	.line	700; "MC32F7361.c"	current_speed = 0;
                                           	CLRR	_current_speed
                                           _00268_DS_
                                           ;	.line	701; "MC32F7361.c"	current_index = start_index; // 
                                           	MOVAR	_start_index
                                           	MOVRA	_current_index
                                           ;	.line	702; "MC32F7361.c"	next_frame_delay = 0;        // 
                                           	CLRR	_next_frame_delay
                                           	CLRR	(_next_frame_delay + 1)
                                           ;	.line	703; "MC32F7361.c"	send_cmd_16bit(0x0C00);
                                           	MOVAI	0x00
                                           	MOVRA	STK00
                                           	MOVAI	0x0c
                                           	CALL	_send_cmd_16bit
                                           ;	.line	705; "MC32F7361.c"	break;
                                           	GOTO	_00320_DS_
                                           _00271_DS_
                                           ;	.line	708; "MC32F7361.c"	current_static++;
                                           	INCR	_current_static
                                           ;	.line	709; "MC32F7361.c"	switch (current_static)
                                           	MOVAR	_current_static
                                           	MOVRA	r0x102B
                                           ;;swapping arguments (AOP_TYPEs 1/2)
                                           ;;unsigned compare: left >= lit(0x3=3), size=1
                                           	MOVAI	0x03
                                           	RSUBAR	r0x102B
                                           	JBCLR	PFLAG,0
                                           	GOTO	_00272_DS_
                                           ;;genSkipc:3291: created from rifx:013B5EFC
                                           	MOVAR	r0x102B
                                           	ADDRA	PCL
                                           	GOTO	_00273_DS_
                                           	GOTO	_00274_DS_
                                           	GOTO	_00275_DS_
                                           _00272_DS_
                                           ;	.line	713; "MC32F7361.c"	current_static = 0;
                                           	CLRR	_current_static
                                           _00273_DS_
                                           ;	.line	716; "MC32F7361.c"	key_event_same_deal(29, 29, 0xFFFF, 0xFFFF);
                                           	MOVAI	0xff
                                           	MOVRA	STK04
                                           	MOVAI	0xff
                                           	MOVRA	STK03
                                           	MOVAI	0xff
                                           	MOVRA	STK02
                                           	MOVAI	0xff
                                           	MOVRA	STK01
                                           	MOVAI	0x1d
                                           	MOVRA	STK00
                                           	MOVAI	0x1d
                                           	CALL	_key_event_same_deal
                                           ;	.line	717; "MC32F7361.c"	break;
                                           	GOTO	_00320_DS_
                                           _00274_DS_
                                           ;	.line	720; "MC32F7361.c"	key_event_same_deal(39, 39, 0xFFFF, 0xFFFF);
                                           	MOVAI	0xff
                                           	MOVRA	STK04
                                           	MOVAI	0xff
                                           	MOVRA	STK03
                                           	MOVAI	0xff
                                           	MOVRA	STK02
                                           	MOVAI	0xff
                                           	MOVRA	STK01
                                           	MOVAI	0x27
                                           	MOVRA	STK00
                                           	MOVAI	0x27
                                           	CALL	_key_event_same_deal
                                           ;	.line	721; "MC32F7361.c"	break;
                                           	GOTO	_00320_DS_
                                           _00275_DS_
                                           ;	.line	724; "MC32F7361.c"	key_event_same_deal(49, 49, 0xFFFF, 0xFFFF);
                                           	MOVAI	0xff
                                           	MOVRA	STK04
                                           	MOVAI	0xff
                                           	MOVRA	STK03
                                           	MOVAI	0xff
                                           	MOVRA	STK02
                                           	MOVAI	0xff
                                           	MOVRA	STK01
                                           	MOVAI	0x31
                                           	MOVRA	STK00
                                           	MOVAI	0x31
                                           	CALL	_key_event_same_deal
                                           ;	.line	727; "MC32F7361.c"	break;
                                           	GOTO	_00320_DS_
                                           _00277_DS_
                                           ;	.line	730; "MC32F7361.c"	switch (cur_mechanical_key_sta)
                                           	MOVAR	_cur_mechanical_key_sta
                                           	MOVRA	r0x102B
                                           ;;swapping arguments (AOP_TYPEs 1/2)
                                           ;;unsigned compare: left >= lit(0xD=13), size=1
                                           	MOVAI	0x0d
                                           	RSUBAR	r0x102B
                                           	JBCLR	PFLAG,0
                                           	GOTO	_00278_DS_
                                           ;;genSkipc:3291: created from rifx:013B5EFC
                                           	MOVAR	r0x102B
                                           	ADDRA	PCL
                                           	GOTO	_00279_DS_
                                           	GOTO	_00280_DS_
                                           	GOTO	_00281_DS_
                                           	GOTO	_00282_DS_
                                           	GOTO	_00283_DS_
                                           	GOTO	_00284_DS_
                                           	GOTO	_00285_DS_
                                           	GOTO	_00286_DS_
                                           	GOTO	_00287_DS_
                                           	GOTO	_00288_DS_
                                           	GOTO	_00289_DS_
                                           	GOTO	_00290_DS_
                                           	GOTO	_00291_DS_
                                           _00278_DS_
                                           ;	.line	734; "MC32F7361.c"	cur_mechanical_key_sta = 0;
                                           	CLRR	_cur_mechanical_key_sta
                                           _00279_DS_
                                           ;	.line	736; "MC32F7361.c"	key_event_same_deal(MODE_AUTO_START, MODE_AUTO_END, 0x9645, 0x9645);
                                           	MOVAI	0x45
                                           	MOVRA	STK04
                                           	MOVAI	0x96
                                           	MOVRA	STK03
                                           	MOVAI	0x45
                                           	MOVRA	STK02
                                           	MOVAI	0x96
                                           	MOVRA	STK01
                                           	MOVAI	0x4a
                                           	MOVRA	STK00
                                           	MOVAI	0x00
                                           	CALL	_key_event_same_deal
                                           ;	.line	737; "MC32F7361.c"	break;
                                           	GOTO	_00292_DS_
                                           _00280_DS_
                                           ;	.line	739; "MC32F7361.c"	key_event_same_deal(MODE_R2C1_START, MODE_R2C1_END, 0xFFFF, 0xFFFF);
                                           	MOVAI	0xff
                                           	MOVRA	STK04
                                           	MOVAI	0xff
                                           	MOVRA	STK03
                                           	MOVAI	0xff
                                           	MOVRA	STK02
                                           	MOVAI	0xff
                                           	MOVRA	STK01
                                           	MOVAI	0x4b
                                           	MOVRA	STK00
                                           	MOVAI	0x4b
                                           	CALL	_key_event_same_deal
                                           ;	.line	740; "MC32F7361.c"	break;
                                           	GOTO	_00292_DS_
                                           _00281_DS_
                                           ;	.line	742; "MC32F7361.c"	key_event_same_deal(MODE_R2C2_START, MODE_R2C2_END, 0xFFFF, 0xFFFF);
                                           	MOVAI	0xff
                                           	MOVRA	STK04
                                           	MOVAI	0xff
                                           	MOVRA	STK03
                                           	MOVAI	0xff
                                           	MOVRA	STK02
                                           	MOVAI	0xff
                                           	MOVRA	STK01
                                           	MOVAI	0x4c
                                           	MOVRA	STK00
                                           	MOVAI	0x4c
                                           	CALL	_key_event_same_deal
                                           ;	.line	743; "MC32F7361.c"	break;
                                           	GOTO	_00292_DS_
                                           _00282_DS_
                                           ;	.line	745; "MC32F7361.c"	key_event_same_deal(MODE_R2C3_START, MODE_R2C3_END, 0xFFFF, 0xFFFF);
                                           	MOVAI	0xff
                                           	MOVRA	STK04
                                           	MOVAI	0xff
                                           	MOVRA	STK03
                                           	MOVAI	0xff
                                           	MOVRA	STK02
                                           	MOVAI	0xff
                                           	MOVRA	STK01
                                           	MOVAI	0x4d
                                           	MOVRA	STK00
                                           	MOVAI	0x4d
                                           	CALL	_key_event_same_deal
                                           ;	.line	746; "MC32F7361.c"	break;
                                           	GOTO	_00292_DS_
                                           _00283_DS_
                                           ;	.line	748; "MC32F7361.c"	key_event_same_deal(MODE_R2C4_START, MODE_R2C4_END, 0x9645, 0x9645);
                                           	MOVAI	0x45
                                           	MOVRA	STK04
                                           	MOVAI	0x96
                                           	MOVRA	STK03
                                           	MOVAI	0x45
                                           	MOVRA	STK02
                                           	MOVAI	0x96
                                           	MOVRA	STK01
                                           	MOVAI	0x4e
                                           	MOVRA	STK00
                                           	MOVAI	0x4e
                                           	CALL	_key_event_same_deal
                                           ;	.line	749; "MC32F7361.c"	break;
                                           	GOTO	_00292_DS_
                                           _00284_DS_
                                           ;	.line	751; "MC32F7361.c"	key_event_same_deal(MODE_FADE_START, MODE_FADE_END, 0x9645, 0x9645);
                                           	MOVAI	0x45
                                           	MOVRA	STK04
                                           	MOVAI	0x96
                                           	MOVRA	STK03
                                           	MOVAI	0x45
                                           	MOVRA	STK02
                                           	MOVAI	0x96
                                           	MOVRA	STK01
                                           	MOVAI	0x09
                                           	MOVRA	STK00
                                           	MOVAI	0x00
                                           	CALL	_key_event_same_deal
                                           ;	.line	752; "MC32F7361.c"	break;
                                           	GOTO	_00292_DS_
                                           _00285_DS_
                                           ;	.line	754; "MC32F7361.c"	key_event_same_deal(MODE_JUMP_START, MODE_JUMP_END, 0x9645, 0x9645);
                                           	MOVAI	0x45
                                           	MOVRA	STK04
                                           	MOVAI	0x96
                                           	MOVRA	STK03
                                           	MOVAI	0x45
                                           	MOVRA	STK02
                                           	MOVAI	0x96
                                           	MOVRA	STK01
                                           	MOVAI	0x13
                                           	MOVRA	STK00
                                           	MOVAI	0x0a
                                           	CALL	_key_event_same_deal
                                           ;	.line	755; "MC32F7361.c"	break;
                                           	GOTO	_00292_DS_
                                           _00286_DS_
                                           ;	.line	758; "MC32F7361.c"	key_event_same_deal(MODE_ASYN_FADE_START, MODE_ASYN_FADE_END, 0x9645, 0x9645);
                                           	MOVAI	0x45
                                           	MOVRA	STK04
                                           	MOVAI	0x96
                                           	MOVRA	STK03
                                           	MOVAI	0x45
                                           	MOVRA	STK02
                                           	MOVAI	0x96
                                           	MOVRA	STK01
                                           	MOVAI	0x19
                                           	MOVRA	STK00
                                           	MOVAI	0x14
                                           	CALL	_key_event_same_deal
                                           ;	.line	759; "MC32F7361.c"	break;
                                           	GOTO	_00292_DS_
                                           _00287_DS_
                                           ;	.line	762; "MC32F7361.c"	key_event_same_deal(MODE_ASYN_JUMP_START, MODE_ASYN_JUMP_END, 0x9645, 0x9645);
                                           	MOVAI	0x45
                                           	MOVRA	STK04
                                           	MOVAI	0x96
                                           	MOVRA	STK03
                                           	MOVAI	0x45
                                           	MOVRA	STK02
                                           	MOVAI	0x96
                                           	MOVRA	STK01
                                           	MOVAI	0x1c
                                           	MOVRA	STK00
                                           	MOVAI	0x1a
                                           	CALL	_key_event_same_deal
                                           ;	.line	763; "MC32F7361.c"	break;
                                           	GOTO	_00292_DS_
                                           _00288_DS_
                                           ;	.line	766; "MC32F7361.c"	key_event_same_deal(MODE_TWINKLE_START, MODE_TWINKLE_END, 0x9645, 0x9645);
                                           	MOVAI	0x45
                                           	MOVRA	STK04
                                           	MOVAI	0x96
                                           	MOVRA	STK03
                                           	MOVAI	0x45
                                           	MOVRA	STK02
                                           	MOVAI	0x96
                                           	MOVRA	STK01
                                           	MOVAI	0x3a
                                           	MOVRA	STK00
                                           	MOVAI	0x1d
                                           	CALL	_key_event_same_deal
                                           ;	.line	767; "MC32F7361.c"	break;
                                           	GOTO	_00292_DS_
                                           _00289_DS_
                                           ;	.line	770; "MC32F7361.c"	key_event_same_deal(MODE_STROBE_START, MODE_STROBE_END, 0x9645, 0x9645);
                                           	MOVAI	0x45
                                           	MOVRA	STK04
                                           	MOVAI	0x96
                                           	MOVRA	STK03
                                           	MOVAI	0x45
                                           	MOVRA	STK02
                                           	MOVAI	0x96
                                           	MOVRA	STK01
                                           	MOVAI	0x44
                                           	MOVRA	STK00
                                           	MOVAI	0x3b
                                           	CALL	_key_event_same_deal
                                           ;	.line	771; "MC32F7361.c"	break;
                                           	GOTO	_00292_DS_
                                           _00290_DS_
                                           ;	.line	773; "MC32F7361.c"	key_event_same_deal(MODE_IN_WAVES_START, MODE_IN_WAVES_END, 0x9645, 0x9645);
                                           	MOVAI	0x45
                                           	MOVRA	STK04
                                           	MOVAI	0x96
                                           	MOVRA	STK03
                                           	MOVAI	0x45
                                           	MOVRA	STK02
                                           	MOVAI	0x96
                                           	MOVRA	STK01
                                           	MOVAI	0x4a
                                           	MOVRA	STK00
                                           	MOVAI	0x45
                                           	CALL	_key_event_same_deal
                                           ;	.line	774; "MC32F7361.c"	break;
                                           	GOTO	_00292_DS_
                                           _00291_DS_
                                           ;	.line	777; "MC32F7361.c"	power_sta = POWER_STA_PRE_OFF;
                                           	MOVAI	0x03
                                           	MOVRA	_power_sta
                                           _00292_DS_
                                           ;	.line	780; "MC32F7361.c"	cur_mechanical_key_sta++;
                                           	INCR	_cur_mechanical_key_sta
                                           ;	.line	781; "MC32F7361.c"	break;
                                           	GOTO	_00320_DS_
                                           _00293_DS_
                                           ;	.line	783; "MC32F7361.c"	key_event_same_deal(MODE_FADE_START, MODE_FADE_END, 0x9645, 0x9645);
                                           	MOVAI	0x45
                                           	MOVRA	STK04
                                           	MOVAI	0x96
                                           	MOVRA	STK03
                                           	MOVAI	0x45
                                           	MOVRA	STK02
                                           	MOVAI	0x96
                                           	MOVRA	STK01
                                           	MOVAI	0x09
                                           	MOVRA	STK00
                                           	MOVAI	0x00
                                           	CALL	_key_event_same_deal
                                           ;	.line	785; "MC32F7361.c"	break;
                                           	GOTO	_00320_DS_
                                           _00294_DS_
                                           ;	.line	788; "MC32F7361.c"	key_event_same_deal(MODE_JUMP_START, MODE_JUMP_END, 0x9645, 0x9645);
                                           	MOVAI	0x45
                                           	MOVRA	STK04
                                           	MOVAI	0x96
                                           	MOVRA	STK03
                                           	MOVAI	0x45
                                           	MOVRA	STK02
                                           	MOVAI	0x96
                                           	MOVRA	STK01
                                           	MOVAI	0x13
                                           	MOVRA	STK00
                                           	MOVAI	0x0a
                                           	CALL	_key_event_same_deal
                                           ;	.line	790; "MC32F7361.c"	break;
                                           	GOTO	_00320_DS_
                                           _00295_DS_
                                           ;	.line	793; "MC32F7361.c"	key_event_same_deal(MODE_ASYN_FADE_START, MODE_ASYN_FADE_END, 0x9645, 0x9645);
                                           	MOVAI	0x45
                                           	MOVRA	STK04
                                           	MOVAI	0x96
                                           	MOVRA	STK03
                                           	MOVAI	0x45
                                           	MOVRA	STK02
                                           	MOVAI	0x96
                                           	MOVRA	STK01
                                           	MOVAI	0x19
                                           	MOVRA	STK00
                                           	MOVAI	0x14
                                           	CALL	_key_event_same_deal
                                           ;	.line	795; "MC32F7361.c"	break;
                                           	GOTO	_00320_DS_
                                           _00296_DS_
                                           ;	.line	798; "MC32F7361.c"	key_event_same_deal(MODE_IN_WAVES_START, MODE_IN_WAVES_END, 0x9645, 0x9645);
                                           	MOVAI	0x45
                                           	MOVRA	STK04
                                           	MOVAI	0x96
                                           	MOVRA	STK03
                                           	MOVAI	0x45
                                           	MOVRA	STK02
                                           	MOVAI	0x96
                                           	MOVRA	STK01
                                           	MOVAI	0x4a
                                           	MOVRA	STK00
                                           	MOVAI	0x45
                                           	CALL	_key_event_same_deal
                                           ;	.line	800; "MC32F7361.c"	break;
                                           	GOTO	_00320_DS_
                                           _00297_DS_
                                           ;	.line	803; "MC32F7361.c"	key_event_same_deal(MODE_STROBE_START, MODE_STROBE_END, 0x9645, 0x9645);
                                           	MOVAI	0x45
                                           	MOVRA	STK04
                                           	MOVAI	0x96
                                           	MOVRA	STK03
                                           	MOVAI	0x45
                                           	MOVRA	STK02
                                           	MOVAI	0x96
                                           	MOVRA	STK01
                                           	MOVAI	0x44
                                           	MOVRA	STK00
                                           	MOVAI	0x3b
                                           	CALL	_key_event_same_deal
                                           ;	.line	805; "MC32F7361.c"	break;
                                           	GOTO	_00320_DS_
                                           _00298_DS_
                                           ;	.line	808; "MC32F7361.c"	key_event_same_deal(MODE_TWINKLE_START, MODE_TWINKLE_END, 0x9645, 0x9645);
                                           	MOVAI	0x45
                                           	MOVRA	STK04
                                           	MOVAI	0x96
                                           	MOVRA	STK03
                                           	MOVAI	0x45
                                           	MOVRA	STK02
                                           	MOVAI	0x96
                                           	MOVRA	STK01
                                           	MOVAI	0x3a
                                           	MOVRA	STK00
                                           	MOVAI	0x1d
                                           	CALL	_key_event_same_deal
                                           ;	.line	810; "MC32F7361.c"	break;
                                           	GOTO	_00320_DS_
                                           _00299_DS_
                                           ;	.line	813; "MC32F7361.c"	key_event_same_deal(MODE_ASYN_JUMP_START, MODE_ASYN_JUMP_END, 0x9645, 0x9645);
                                           	MOVAI	0x45
                                           	MOVRA	STK04
                                           	MOVAI	0x96
                                           	MOVRA	STK03
                                           	MOVAI	0x45
                                           	MOVRA	STK02
                                           	MOVAI	0x96
                                           	MOVRA	STK01
                                           	MOVAI	0x1c
                                           	MOVRA	STK00
                                           	MOVAI	0x1a
                                           	CALL	_key_event_same_deal
                                           ;	.line	815; "MC32F7361.c"	break;
                                           	GOTO	_00320_DS_
                                           _00300_DS_
                                           ;	.line	818; "MC32F7361.c"	key_event_same_deal(MODE_R2C1_START, MODE_R2C1_END, 0xFFFF, 0xFFFF);
                                           	MOVAI	0xff
                                           	MOVRA	STK04
                                           	MOVAI	0xff
                                           	MOVRA	STK03
                                           	MOVAI	0xff
                                           	MOVRA	STK02
                                           	MOVAI	0xff
                                           	MOVRA	STK01
                                           	MOVAI	0x4b
                                           	MOVRA	STK00
                                           	MOVAI	0x4b
                                           	CALL	_key_event_same_deal
                                           ;	.line	820; "MC32F7361.c"	break;
                                           	GOTO	_00320_DS_
                                           _00301_DS_
                                           ;	.line	822; "MC32F7361.c"	key_event_same_deal(MODE_R2C2_START, MODE_R2C2_END, 0xFFFF, 0xFFFF);
                                           	MOVAI	0xff
                                           	MOVRA	STK04
                                           	MOVAI	0xff
                                           	MOVRA	STK03
                                           	MOVAI	0xff
                                           	MOVRA	STK02
                                           	MOVAI	0xff
                                           	MOVRA	STK01
                                           	MOVAI	0x4c
                                           	MOVRA	STK00
                                           	MOVAI	0x4c
                                           	CALL	_key_event_same_deal
                                           ;	.line	824; "MC32F7361.c"	break;
                                           	GOTO	_00320_DS_
                                           _00302_DS_
                                           ;	.line	826; "MC32F7361.c"	key_event_same_deal(MODE_R2C3_START, MODE_R2C3_END, 0xFFFF, 0xFFFF);
                                           	MOVAI	0xff
                                           	MOVRA	STK04
                                           	MOVAI	0xff
                                           	MOVRA	STK03
                                           	MOVAI	0xff
                                           	MOVRA	STK02
                                           	MOVAI	0xff
                                           	MOVRA	STK01
                                           	MOVAI	0x4d
                                           	MOVRA	STK00
                                           	MOVAI	0x4d
                                           	CALL	_key_event_same_deal
                                           ;	.line	828; "MC32F7361.c"	break;
                                           	GOTO	_00320_DS_
                                           _00303_DS_
                                           ;	.line	830; "MC32F7361.c"	key_event_same_deal(MODE_R2C4_START, MODE_R2C4_END, 0x9645, 0x9645);
                                           	MOVAI	0x45
                                           	MOVRA	STK04
                                           	MOVAI	0x96
                                           	MOVRA	STK03
                                           	MOVAI	0x45
                                           	MOVRA	STK02
                                           	MOVAI	0x96
                                           	MOVRA	STK01
                                           	MOVAI	0x4e
                                           	MOVRA	STK00
                                           	MOVAI	0x4e
                                           	CALL	_key_event_same_deal
                                           ;	.line	831; "MC32F7361.c"	break;
                                           	GOTO	_00320_DS_
                                           _00304_DS_
                                           ;	.line	833; "MC32F7361.c"	key_event_same_deal(MODE_R3C1_START, MODE_R3C1_END, 0x9F00, 0x9F00);
                                           	MOVAI	0x00
                                           	MOVRA	STK04
                                           	MOVAI	0x9f
                                           	MOVRA	STK03
                                           	MOVAI	0x00
                                           	MOVRA	STK02
                                           	MOVAI	0x9f
                                           	MOVRA	STK01
                                           	MOVAI	0x4f
                                           	MOVRA	STK00
                                           	MOVAI	0x4f
                                           	CALL	_key_event_same_deal
                                           ;	.line	834; "MC32F7361.c"	break;
                                           	GOTO	_00320_DS_
                                           _00305_DS_
                                           ;	.line	836; "MC32F7361.c"	key_event_same_deal(MODE_R3C2_START, MODE_R3C2_END, 0x90F1, 0x90F1);
                                           	MOVAI	0xf1
                                           	MOVRA	STK04
                                           	MOVAI	0x90
                                           	MOVRA	STK03
                                           	MOVAI	0xf1
                                           	MOVRA	STK02
                                           	MOVAI	0x90
                                           	MOVRA	STK01
                                           	MOVAI	0x50
                                           	MOVRA	STK00
                                           	MOVAI	0x50
                                           	CALL	_key_event_same_deal
                                           ;	.line	837; "MC32F7361.c"	break;
                                           	GOTO	_00320_DS_
                                           _00306_DS_
                                           ;	.line	839; "MC32F7361.c"	key_event_same_deal(MODE_R3C3_START, MODE_R3C3_END, 0x930F, 0x930F);
                                           	MOVAI	0x0f
                                           	MOVRA	STK04
                                           	MOVAI	0x93
                                           	MOVRA	STK03
                                           	MOVAI	0x0f
                                           	MOVRA	STK02
                                           	MOVAI	0x93
                                           	MOVRA	STK01
                                           	MOVAI	0x51
                                           	MOVRA	STK00
                                           	MOVAI	0x51
                                           	CALL	_key_event_same_deal
                                           ;	.line	840; "MC32F7361.c"	break;
                                           	GOTO	_00320_DS_
                                           _00307_DS_
                                           ;	.line	842; "MC32F7361.c"	key_event_same_deal(MODE_R4C1_START, MODE_R4C1_END, 0x9F10, 0x9F10);
                                           	MOVAI	0x10
                                           	MOVRA	STK04
                                           	MOVAI	0x9f
                                           	MOVRA	STK03
                                           	MOVAI	0x10
                                           	MOVRA	STK02
                                           	MOVAI	0x9f
                                           	MOVRA	STK01
                                           	MOVAI	0x52
                                           	MOVRA	STK00
                                           	MOVAI	0x52
                                           	CALL	_key_event_same_deal
                                           ;	.line	843; "MC32F7361.c"	break;
                                           	GOTO	_00320_DS_
                                           _00308_DS_
                                           ;	.line	845; "MC32F7361.c"	key_event_same_deal(MODE_R4C2_START, MODE_R4C2_END, 0x90F8, 0x90F8);
                                           	MOVAI	0xf8
                                           	MOVRA	STK04
                                           	MOVAI	0x90
                                           	MOVRA	STK03
                                           	MOVAI	0xf8
                                           	MOVRA	STK02
                                           	MOVAI	0x90
                                           	MOVRA	STK01
                                           	MOVAI	0x53
                                           	MOVRA	STK00
                                           	MOVAI	0x53
                                           	CALL	_key_event_same_deal
                                           ;	.line	846; "MC32F7361.c"	break;
                                           	GOTO	_00320_DS_
                                           _00309_DS_
                                           ;	.line	848; "MC32F7361.c"	key_event_same_deal(MODE_R4C3_START, MODE_R4C3_END, 0x980F, 0x980F);
                                           	MOVAI	0x0f
                                           	MOVRA	STK04
                                           	MOVAI	0x98
                                           	MOVRA	STK03
                                           	MOVAI	0x0f
                                           	MOVRA	STK02
                                           	MOVAI	0x98
                                           	MOVRA	STK01
                                           	MOVAI	0x54
                                           	MOVRA	STK00
                                           	MOVAI	0x54
                                           	CALL	_key_event_same_deal
                                           ;	.line	849; "MC32F7361.c"	break;
                                           	GOTO	_00320_DS_
                                           _00310_DS_
                                           ;	.line	851; "MC32F7361.c"	key_event_same_deal(MODE_R5C1_START, MODE_R5C1_END, 0x9F30, 0x9F30);
                                           	MOVAI	0x30
                                           	MOVRA	STK04
                                           	MOVAI	0x9f
                                           	MOVRA	STK03
                                           	MOVAI	0x30
                                           	MOVRA	STK02
                                           	MOVAI	0x9f
                                           	MOVRA	STK01
                                           	MOVAI	0x55
                                           	MOVRA	STK00
                                           	MOVAI	0x55
                                           	CALL	_key_event_same_deal
                                           ;	.line	852; "MC32F7361.c"	break;
                                           	GOTO	_00320_DS_
                                           _00311_DS_
                                           ;	.line	854; "MC32F7361.c"	key_event_same_deal(MODE_R5C2_START, MODE_R5C2_END, 0x90FC, 0x90FC);
                                           	MOVAI	0xfc
                                           	MOVRA	STK04
                                           	MOVAI	0x90
                                           	MOVRA	STK03
                                           	MOVAI	0xfc
                                           	MOVRA	STK02
                                           	MOVAI	0x90
                                           	MOVRA	STK01
                                           	MOVAI	0x56
                                           	MOVRA	STK00
                                           	MOVAI	0x56
                                           	CALL	_key_event_same_deal
                                           ;	.line	855; "MC32F7361.c"	break;
                                           	GOTO	_00320_DS_
                                           _00312_DS_
                                           ;	.line	857; "MC32F7361.c"	key_event_same_deal(MODE_R5C3_START, MODE_R5C3_END, 0x9F0F, 0x9F0F);
                                           	MOVAI	0x0f
                                           	MOVRA	STK04
                                           	MOVAI	0x9f
                                           	MOVRA	STK03
                                           	MOVAI	0x0f
                                           	MOVRA	STK02
                                           	MOVAI	0x9f
                                           	MOVRA	STK01
                                           	MOVAI	0x57
                                           	MOVRA	STK00
                                           	MOVAI	0x57
                                           	CALL	_key_event_same_deal
                                           ;	.line	858; "MC32F7361.c"	break;
                                           	GOTO	_00320_DS_
                                           _00313_DS_
                                           ;	.line	860; "MC32F7361.c"	key_event_same_deal(MODE_R6C1_START, MODE_R6C1_END, 0x9FF0, 0x9FF0);
                                           	MOVAI	0xf0
                                           	MOVRA	STK04
                                           	MOVAI	0x9f
                                           	MOVRA	STK03
                                           	MOVAI	0xf0
                                           	MOVRA	STK02
                                           	MOVAI	0x9f
                                           	MOVRA	STK01
                                           	MOVAI	0x58
                                           	MOVRA	STK00
                                           	MOVAI	0x58
                                           	CALL	_key_event_same_deal
                                           ;	.line	861; "MC32F7361.c"	break;
                                           	GOTO	_00320_DS_
                                           _00314_DS_
                                           ;	.line	863; "MC32F7361.c"	key_event_same_deal(MODE_R6C2_START, MODE_R6C2_END, 0x90FF, 0x90FF);
                                           	MOVAI	0xff
                                           	MOVRA	STK04
                                           	MOVAI	0x90
                                           	MOVRA	STK03
                                           	MOVAI	0xff
                                           	MOVRA	STK02
                                           	MOVAI	0x90
                                           	MOVRA	STK01
                                           	MOVAI	0x59
                                           	MOVRA	STK00
                                           	MOVAI	0x59
                                           	CALL	_key_event_same_deal
                                           ;	.line	864; "MC32F7361.c"	break;
                                           	GOTO	_00320_DS_
                                           _00315_DS_
                                           ;	.line	866; "MC32F7361.c"	key_event_same_deal(MODE_R6C3_START, MODE_R6C3_END, 0x9F03, 0x9F03);
                                           	MOVAI	0x03
                                           	MOVRA	STK04
                                           	MOVAI	0x9f
                                           	MOVRA	STK03
                                           	MOVAI	0x03
                                           	MOVRA	STK02
                                           	MOVAI	0x9f
                                           	MOVRA	STK01
                                           	MOVAI	0x5a
                                           	MOVRA	STK00
                                           	MOVAI	0x5a
                                           	CALL	_key_event_same_deal
                                           ;	.line	867; "MC32F7361.c"	break;
                                           	GOTO	_00320_DS_
                                           _00316_DS_
                                           ;	.line	870; "MC32F7361.c"	timer_count = 4 * 60 * 60 * 1000;
                                           	CLRR	_timer_count
                                           	MOVAI	0xba
                                           	MOVRA	(_timer_count + 1)
                                           	MOVAI	0xff
                                           	MOVRA	(_timer_count + 2)
                                           	MOVRA	(_timer_count + 3)
                                           ;	.line	872; "MC32F7361.c"	break;
                                           	GOTO	_00320_DS_
                                           _00317_DS_
                                           ;	.line	874; "MC32F7361.c"	timer_count = 6 * 60 * 60 * 1000;
                                           	CLRR	_timer_count
                                           	MOVAI	0x97
                                           	MOVRA	(_timer_count + 1)
                                           	MOVAI	0xff
                                           	MOVRA	(_timer_count + 2)
                                           	MOVRA	(_timer_count + 3)
                                           ;	.line	876; "MC32F7361.c"	break;
                                           	GOTO	_00320_DS_
                                           _00318_DS_
                                           ;	.line	878; "MC32F7361.c"	timer_count = 8 * 60 * 60 * 1000;
                                           	CLRR	_timer_count
                                           	MOVAI	0x74
                                           	MOVRA	(_timer_count + 1)
                                           	CLRR	(_timer_count + 2)
                                           	CLRR	(_timer_count + 3)
                                           ;	.line	880; "MC32F7361.c"	break;
                                           	GOTO	_00320_DS_
                                           _00319_DS_
                                           ;	.line	882; "MC32F7361.c"	timer_count = 0;
                                           	CLRR	_timer_count
                                           	CLRR	(_timer_count + 1)
                                           	CLRR	(_timer_count + 2)
                                           	CLRR	(_timer_count + 3)
                                           _00320_DS_
                                           ;	.line	887; "MC32F7361.c"	flag_is_recved_data = 0;
                                           	BCLR	_flag1,0
                                           _00322_DS_
                                           ;	.line	891; "MC32F7361.c"	if (power_sta == POWER_STA_ON)
                                           	MOVAR	_power_sta
                                           	XORAI	0x02
                                           	JBSET	PFLAG,2
                                           	GOTO	_00368_DS_
                                           ;	.line	894; "MC32F7361.c"	if (next_frame_delay == 0) // 
                                           	MOVAR	_next_frame_delay
                                           	ORAR	(_next_frame_delay + 1)
                                           	JBSET	PFLAG,2
                                           	GOTO	_00371_DS_
                                           ;;swapping arguments (AOP_TYPEs 1/3)
                                           ;;unsigned compare: left >= lit(0xA=10), size=1
                                           ;	.line	898; "MC32F7361.c"	if (current_index >= SECTION_1_START && current_index <= SECTION_1_END) // code
                                           	MOVAI	0x0a
                                           	RSUBAR	_current_index
                                           	JBCLR	PFLAG,0
                                           	GOTO	_00355_DS_
                                           ;;genSkipc:3291: created from rifx:013B5EFC
                                           ;	.line	900; "MC32F7361.c"	speed_code = section_1_speed_table[current_speed];       // code
                                           	MOVAR	_current_speed
                                           	ADDAI	(_section_1_speed_table + 0)
                                           	MOVRA	r0x102B
                                           	MOVAI	high (_section_1_speed_table + 0)
                                           	JBCLR	PFLAG,0
                                           	ADDAI	0x01
                                           	MOVRA	r0x102A
                                           	MOVAR	r0x102B
                                           	MOVRA	STK01
                                           	MOVAR	r0x102A
                                           	MOVRA	STK00
                                           	MOVAI	0x80
                                           	CALL	__gptrget1
                                           	MOVRA	_main_sloc0_1_0
                                           	MOVRA	r0x102C
                                           ;;120	MOVAR	r0x102C
                                           	CLRR	(_main_sloc0_1_0 + 1)
                                           ;	.line	901; "MC32F7361.c"	next_frame_delay = section_1_delay_table[current_speed]; // 
                                           	BCLR	PFLAG,0
                                           	RLAR	_current_speed
                                           	MOVRA	r0x102B
                                           	MOVAR	r0x102B
                                           	ADDAI	(_section_1_delay_table + 0)
                                           	MOVRA	r0x102B
                                           	MOVAI	high (_section_1_delay_table + 0)
                                           	JBCLR	PFLAG,0
                                           	ADDAI	0x01
                                           	MOVRA	r0x102A
                                           	MOVAR	r0x102B
                                           	MOVRA	STK01
                                           	MOVAR	r0x102A
                                           	MOVRA	STK00
                                           	MOVAI	0x80
                                           	CALL	__gptrget2
                                           	MOVRA	(_next_frame_delay + 1)
                                           	MOVAR	STK00
                                           	MOVRA	_next_frame_delay
                                           	GOTO	_00356_DS_
                                           ;;unsigned compare: left < lit(0xA=10), size=1
                                           _00355_DS_
                                           ;	.line	903; "MC32F7361.c"	else if (current_index >= SECTION_2_START && current_index <= SECTION_2_END)
                                           	MOVAI	0x0a
                                           	RSUBAR	_current_index
                                           	JBSET	PFLAG,0
                                           	GOTO	_00351_DS_
                                           ;;genSkipc:3291: created from rifx:013B5EFC
                                           ;;swapping arguments (AOP_TYPEs 1/3)
                                           ;;unsigned compare: left >= lit(0x14=20), size=1
                                           	MOVAI	0x14
                                           	RSUBAR	_current_index
                                           	JBCLR	PFLAG,0
                                           	GOTO	_00351_DS_
                                           ;;genSkipc:3291: created from rifx:013B5EFC
                                           ;	.line	905; "MC32F7361.c"	speed_code = section_2_speed_table[current_speed];
                                           	MOVAR	_current_speed
                                           	ADDAI	(_section_2_speed_table + 0)
                                           	MOVRA	r0x102B
                                           	MOVAI	high (_section_2_speed_table + 0)
                                           	JBCLR	PFLAG,0
                                           	ADDAI	0x01
                                           	MOVRA	r0x102A
                                           	MOVAR	r0x102B
                                           	MOVRA	STK01
                                           	MOVAR	r0x102A
                                           	MOVRA	STK00
                                           	MOVAI	0x80
                                           	CALL	__gptrget1
                                           	MOVRA	_main_sloc0_1_0
                                           	MOVRA	r0x102C
                                           ;;119	MOVAR	r0x102C
                                           	CLRR	(_main_sloc0_1_0 + 1)
                                           ;	.line	906; "MC32F7361.c"	next_frame_delay = section_2_delay_table[current_speed];
                                           	BCLR	PFLAG,0
                                           	RLAR	_current_speed
                                           	MOVRA	r0x102B
                                           	MOVAR	r0x102B
                                           	ADDAI	(_section_2_delay_table + 0)
                                           	MOVRA	r0x102B
                                           	MOVAI	high (_section_2_delay_table + 0)
                                           	JBCLR	PFLAG,0
                                           	ADDAI	0x01
                                           	MOVRA	r0x102A
                                           	MOVAR	r0x102B
                                           	MOVRA	STK01
                                           	MOVAR	r0x102A
                                           	MOVRA	STK00
                                           	MOVAI	0x80
                                           	CALL	__gptrget2
                                           	MOVRA	(_next_frame_delay + 1)
                                           	MOVAR	STK00
                                           	MOVRA	_next_frame_delay
                                           	GOTO	_00356_DS_
                                           ;;unsigned compare: left < lit(0x14=20), size=1
                                           _00351_DS_
                                           ;	.line	908; "MC32F7361.c"	else if (current_index >= SECTION_3_START && current_index <= SECTION_3_END)
                                           	MOVAI	0x14
                                           	RSUBAR	_current_index
                                           	JBSET	PFLAG,0
                                           	GOTO	_00347_DS_
                                           ;;genSkipc:3291: created from rifx:013B5EFC
                                           ;;swapping arguments (AOP_TYPEs 1/3)
                                           ;;unsigned compare: left >= lit(0x1A=26), size=1
                                           	MOVAI	0x1a
                                           	RSUBAR	_current_index
                                           	JBCLR	PFLAG,0
                                           	GOTO	_00347_DS_
                                           ;;genSkipc:3291: created from rifx:013B5EFC
                                           ;	.line	910; "MC32F7361.c"	speed_code = section_3_speed_table[current_speed];
                                           	MOVAR	_current_speed
                                           	ADDAI	(_section_3_speed_table + 0)
                                           	MOVRA	r0x102B
                                           	MOVAI	high (_section_3_speed_table + 0)
                                           	JBCLR	PFLAG,0
                                           	ADDAI	0x01
                                           	MOVRA	r0x102A
                                           	MOVAR	r0x102B
                                           	MOVRA	STK01
                                           	MOVAR	r0x102A
                                           	MOVRA	STK00
                                           	MOVAI	0x80
                                           	CALL	__gptrget1
                                           	MOVRA	_main_sloc0_1_0
                                           	MOVRA	r0x102C
                                           ;;118	MOVAR	r0x102C
                                           	CLRR	(_main_sloc0_1_0 + 1)
                                           ;	.line	912; "MC32F7361.c"	next_frame_delay = 4960;
                                           	MOVAI	0x60
                                           	MOVRA	_next_frame_delay
                                           	MOVAI	0x13
                                           	MOVRA	(_next_frame_delay + 1)
                                           	GOTO	_00356_DS_
                                           ;;unsigned compare: left < lit(0x1A=26), size=1
                                           _00347_DS_
                                           ;	.line	914; "MC32F7361.c"	else if (current_index >= SECTION_4_START && current_index <= SECTION_4_END)
                                           	MOVAI	0x1a
                                           	RSUBAR	_current_index
                                           	JBSET	PFLAG,0
                                           	GOTO	_00343_DS_
                                           ;;genSkipc:3291: created from rifx:013B5EFC
                                           ;;swapping arguments (AOP_TYPEs 1/3)
                                           ;;unsigned compare: left >= lit(0x1D=29), size=1
                                           	MOVAI	0x1d
                                           	RSUBAR	_current_index
                                           	JBCLR	PFLAG,0
                                           	GOTO	_00343_DS_
                                           ;;genSkipc:3291: created from rifx:013B5EFC
                                           ;	.line	918; "MC32F7361.c"	speed_code = section_3_speed_table[current_speed];
                                           	MOVAR	_current_speed
                                           	ADDAI	(_section_3_speed_table + 0)
                                           	MOVRA	r0x102B
                                           	MOVAI	high (_section_3_speed_table + 0)
                                           	JBCLR	PFLAG,0
                                           	ADDAI	0x01
                                           	MOVRA	r0x102A
                                           	MOVAR	r0x102B
                                           	MOVRA	STK01
                                           	MOVAR	r0x102A
                                           	MOVRA	STK00
                                           	MOVAI	0x80
                                           	CALL	__gptrget1
                                           	MOVRA	_main_sloc0_1_0
                                           	MOVRA	r0x102C
                                           ;;117	MOVAR	r0x102C
                                           	CLRR	(_main_sloc0_1_0 + 1)
                                           ;	.line	920; "MC32F7361.c"	next_frame_delay = 4960;
                                           	MOVAI	0x60
                                           	MOVRA	_next_frame_delay
                                           	MOVAI	0x13
                                           	MOVRA	(_next_frame_delay + 1)
                                           	GOTO	_00356_DS_
                                           ;;unsigned compare: left < lit(0x1D=29), size=1
                                           _00343_DS_
                                           ;	.line	922; "MC32F7361.c"	else if (current_index >= SECTION_5_START && current_index <= SECTION_5_END)
                                           	MOVAI	0x1d
                                           	RSUBAR	_current_index
                                           	JBSET	PFLAG,0
                                           	GOTO	_00339_DS_
                                           ;;genSkipc:3291: created from rifx:013B5EFC
                                           ;;swapping arguments (AOP_TYPEs 1/3)
                                           ;;unsigned compare: left >= lit(0x3B=59), size=1
                                           	MOVAI	0x3b
                                           	RSUBAR	_current_index
                                           	JBCLR	PFLAG,0
                                           	GOTO	_00339_DS_
                                           ;;genSkipc:3291: created from rifx:013B5EFC
                                           ;	.line	924; "MC32F7361.c"	speed_code = section_5_speed_table[current_speed];
                                           	MOVAR	_current_speed
                                           	ADDAI	(_section_5_speed_table + 0)
                                           	MOVRA	r0x102B
                                           	MOVAI	high (_section_5_speed_table + 0)
                                           	JBCLR	PFLAG,0
                                           	ADDAI	0x01
                                           	MOVRA	r0x102A
                                           	MOVAR	r0x102B
                                           	MOVRA	STK01
                                           	MOVAR	r0x102A
                                           	MOVRA	STK00
                                           	MOVAI	0x80
                                           	CALL	__gptrget1
                                           	MOVRA	_main_sloc0_1_0
                                           	MOVRA	r0x102C
                                           ;;116	MOVAR	r0x102C
                                           	CLRR	(_main_sloc0_1_0 + 1)
                                           ;	.line	925; "MC32F7361.c"	next_frame_delay = section_5_delay_table[current_speed];
                                           	BCLR	PFLAG,0
                                           	RLAR	_current_speed
                                           	MOVRA	r0x102B
                                           	MOVAR	r0x102B
                                           	ADDAI	(_section_5_delay_table + 0)
                                           	MOVRA	r0x102B
                                           	MOVAI	high (_section_5_delay_table + 0)
                                           	JBCLR	PFLAG,0
                                           	ADDAI	0x01
                                           	MOVRA	r0x102A
                                           	MOVAR	r0x102B
                                           	MOVRA	STK01
                                           	MOVAR	r0x102A
                                           	MOVRA	STK00
                                           	MOVAI	0x80
                                           	CALL	__gptrget2
                                           	MOVRA	(_next_frame_delay + 1)
                                           	MOVAR	STK00
                                           	MOVRA	_next_frame_delay
                                           	GOTO	_00356_DS_
                                           ;;unsigned compare: left < lit(0x3B=59), size=1
                                           _00339_DS_
                                           ;	.line	927; "MC32F7361.c"	else if (current_index >= SECTION_6_START && current_index <= SECTION_6_END)
                                           	MOVAI	0x3b
                                           	RSUBAR	_current_index
                                           	JBSET	PFLAG,0
                                           	GOTO	_00335_DS_
                                           ;;genSkipc:3291: created from rifx:013B5EFC
                                           ;;swapping arguments (AOP_TYPEs 1/3)
                                           ;;unsigned compare: left >= lit(0x45=69), size=1
                                           	MOVAI	0x45
                                           	RSUBAR	_current_index
                                           	JBCLR	PFLAG,0
                                           	GOTO	_00335_DS_
                                           ;;genSkipc:3291: created from rifx:013B5EFC
                                           ;	.line	931; "MC32F7361.c"	speed_code = section_3_speed_table[current_speed];
                                           	MOVAR	_current_speed
                                           	ADDAI	(_section_3_speed_table + 0)
                                           	MOVRA	r0x102B
                                           	MOVAI	high (_section_3_speed_table + 0)
                                           	JBCLR	PFLAG,0
                                           	ADDAI	0x01
                                           	MOVRA	r0x102A
                                           	MOVAR	r0x102B
                                           	MOVRA	STK01
                                           	MOVAR	r0x102A
                                           	MOVRA	STK00
                                           	MOVAI	0x80
                                           	CALL	__gptrget1
                                           	MOVRA	_main_sloc0_1_0
                                           	MOVRA	r0x102C
                                           ;;115	MOVAR	r0x102C
                                           	CLRR	(_main_sloc0_1_0 + 1)
                                           ;	.line	933; "MC32F7361.c"	next_frame_delay = 4960;
                                           	MOVAI	0x60
                                           	MOVRA	_next_frame_delay
                                           	MOVAI	0x13
                                           	MOVRA	(_next_frame_delay + 1)
                                           	GOTO	_00356_DS_
                                           ;;unsigned compare: left < lit(0x45=69), size=1
                                           _00335_DS_
                                           ;	.line	935; "MC32F7361.c"	else if (current_index >= SECTION_7_START && current_index <= SECTION_7_END)
                                           	MOVAI	0x45
                                           	RSUBAR	_current_index
                                           	JBSET	PFLAG,0
                                           	GOTO	_00331_DS_
                                           ;;genSkipc:3291: created from rifx:013B5EFC
                                           ;;swapping arguments (AOP_TYPEs 1/3)
                                           ;;unsigned compare: left >= lit(0x4B=75), size=1
                                           	MOVAI	0x4b
                                           	RSUBAR	_current_index
                                           	JBCLR	PFLAG,0
                                           	GOTO	_00331_DS_
                                           ;;genSkipc:3291: created from rifx:013B5EFC
                                           ;	.line	937; "MC32F7361.c"	speed_code = section_7_speed_table[current_speed];
                                           	MOVAR	_current_speed
                                           	ADDAI	(_section_7_speed_table + 0)
                                           	MOVRA	r0x102B
                                           	MOVAI	high (_section_7_speed_table + 0)
                                           	JBCLR	PFLAG,0
                                           	ADDAI	0x01
                                           	MOVRA	r0x102A
                                           	MOVAR	r0x102B
                                           	MOVRA	STK01
                                           	MOVAR	r0x102A
                                           	MOVRA	STK00
                                           	MOVAI	0x80
                                           	CALL	__gptrget1
                                           	MOVRA	_main_sloc0_1_0
                                           	MOVRA	r0x102C
                                           ;;112	MOVAR	r0x102C
                                           	CLRR	(_main_sloc0_1_0 + 1)
                                           ;	.line	938; "MC32F7361.c"	next_frame_delay = section_7_delay_table[current_speed];
                                           	BCLR	PFLAG,0
                                           	RLAR	_current_speed
                                           	MOVRA	r0x102B
                                           	MOVAR	r0x102B
                                           	ADDAI	(_section_7_delay_table + 0)
                                           	MOVRA	r0x102B
                                           	MOVAI	high (_section_7_delay_table + 0)
                                           	JBCLR	PFLAG,0
                                           	ADDAI	0x01
                                           	MOVRA	r0x102A
                                           	MOVAR	r0x102B
                                           	MOVRA	STK01
                                           	MOVAR	r0x102A
                                           	MOVRA	STK00
                                           	MOVAI	0x80
                                           	CALL	__gptrget2
                                           	MOVRA	(_next_frame_delay + 1)
                                           	MOVAR	STK00
                                           	MOVRA	_next_frame_delay
                                           	GOTO	_00356_DS_
                                           ;;unsigned compare: left < lit(0x4B=75), size=1
                                           _00331_DS_
                                           ;	.line	940; "MC32F7361.c"	else if (current_index >= SECTION_8_START && current_index <= SECTION_8_END)
                                           	MOVAI	0x4b
                                           	RSUBAR	_current_index
                                           	JBSET	PFLAG,0
                                           	GOTO	_00327_DS_
                                           ;;genSkipc:3291: created from rifx:013B5EFC
                                           ;;swapping arguments (AOP_TYPEs 1/3)
                                           ;;unsigned compare: left >= lit(0x4E=78), size=1
                                           	MOVAI	0x4e
                                           	RSUBAR	_current_index
                                           	JBCLR	PFLAG,0
                                           	GOTO	_00327_DS_
                                           ;;genSkipc:3291: created from rifx:013B5EFC
                                           ;	.line	944; "MC32F7361.c"	next_frame_delay = 0xFFFF;
                                           	MOVAI	0xff
                                           	MOVRA	_next_frame_delay
                                           	MOVRA	(_next_frame_delay + 1)
                                           ;	.line	945; "MC32F7361.c"	speed_code = 0x00;
                                           	CLRR	_main_sloc0_1_0
                                           	CLRR	(_main_sloc0_1_0 + 1)
                                           	GOTO	_00356_DS_
                                           ;;unsigned compare: left < lit(0x4E=78), size=1
                                           _00327_DS_
                                           ;	.line	951; "MC32F7361.c"	else if (current_index >= SECTION_9_START && current_index <= SECTION_9_END)
                                           	MOVAI	0x4e
                                           	RSUBAR	_current_index
                                           	JBSET	PFLAG,0
                                           	GOTO	_00356_DS_
                                           ;;genSkipc:3291: created from rifx:013B5EFC
                                           ;;swapping arguments (AOP_TYPEs 1/3)
                                           ;;unsigned compare: left >= lit(0x5B=91), size=1
                                           	MOVAI	0x5b
                                           	RSUBAR	_current_index
                                           	JBCLR	PFLAG,0
                                           	GOTO	_00356_DS_
                                           ;;genSkipc:3291: created from rifx:013B5EFC
                                           ;	.line	956; "MC32F7361.c"	next_frame_delay = 0xFFFF;
                                           	MOVAI	0xff
                                           	MOVRA	_next_frame_delay
                                           	MOVRA	(_next_frame_delay + 1)
                                           ;	.line	957; "MC32F7361.c"	speed_code = 0x10;
                                           	MOVAI	0x10
                                           	MOVRA	_main_sloc0_1_0
                                           	CLRR	(_main_sloc0_1_0 + 1)
                                           _00356_DS_
                                           ;	.line	962; "MC32F7361.c"	speed_code <<= 8;
                                           	MOVAR	_main_sloc0_1_0
                                           	MOVRA	r0x102A
                                           	CLRR	r0x102B
                                           ;	.line	963; "MC32F7361.c"	speed_code |= main_table[current_index];
                                           	MOVAR	_current_index
                                           	ADDAI	(_main_table + 0)
                                           	MOVRA	r0x102C
                                           	MOVAI	high (_main_table + 0)
                                           	JBCLR	PFLAG,0
                                           	ADDAI	0x01
                                           	MOVRA	r0x102D
                                           	MOVAR	r0x102C
                                           	MOVRA	STK01
                                           	MOVAR	r0x102D
                                           	MOVRA	STK00
                                           	MOVAI	0x80
                                           	CALL	__gptrget1
                                           	MOVRA	r0x102E
                                           ;;108	MOVAR	r0x102E
                                           	CLRR	r0x102D
                                           ;;107	MOVAR	r0x102C
                                           	MOVAR	r0x102E
                                           	MOVRA	r0x102C
                                           	ORAR	r0x102B
                                           	MOVRA	_main_sloc0_1_0
                                           	MOVAI	0x00
                                           	ORAR	r0x102A
                                           	MOVRA	(_main_sloc0_1_0 + 1)
                                           ;	.line	964; "MC32F7361.c"	send_cmd_16bit(speed_code);
                                           	MOVAR	_main_sloc0_1_0
                                           	MOVRA	STK00
                                           	MOVAR	(_main_sloc0_1_0 + 1)
                                           	CALL	_send_cmd_16bit
                                           ;	.line	966; "MC32F7361.c"	current_index++;
                                           	INCR	_current_index
                                           ;	.line	967; "MC32F7361.c"	if (current_index > end_index)
                                           	MOVAR	_current_index
                                           	RSUBAR	_end_index
                                           	JBCLR	PFLAG,0
                                           	GOTO	_00371_DS_
                                           ;;genSkipc:3291: created from rifx:013B5EFC
                                           ;	.line	968; "MC32F7361.c"	current_index = start_index;
                                           	MOVAR	_start_index
                                           	MOVRA	_current_index
                                           	GOTO	_00371_DS_
                                           _00368_DS_
                                           ;	.line	971; "MC32F7361.c"	else if (power_sta == POWER_STA_PRE_ON)
                                           	MOVAR	_power_sta
                                           	XORAI	0x01
                                           	JBSET	PFLAG,2
                                           	GOTO	_00365_DS_
                                           ;	.line	974; "MC32F7361.c"	LED_CTL_PIN = 1;
                                           	BSET	_IOP0bits,4
                                           ;	.line	975; "MC32F7361.c"	delay_ms(2);
                                           	MOVAI	0x02
                                           	MOVRA	STK00
                                           	MOVAI	0x00
                                           	CALL	_delay_ms
                                           ;	.line	976; "MC32F7361.c"	LED_CTL_PIN = 0;
                                           	BCLR	_IOP0bits,4
                                           ;	.line	977; "MC32F7361.c"	delay_100us();
                                           	CALL	_delay_100us
                                           ;	.line	978; "MC32F7361.c"	delay_100us();
                                           	CALL	_delay_100us
                                           ;	.line	979; "MC32F7361.c"	LED_CTL_PIN = 1;
                                           	BSET	_IOP0bits,4
                                           ;	.line	980; "MC32F7361.c"	delay_ms(3);
                                           	MOVAI	0x03
                                           	MOVRA	STK00
                                           	MOVAI	0x00
                                           	CALL	_delay_ms
                                           ;	.line	981; "MC32F7361.c"	LED_CTL_PIN = 0;
                                           	BCLR	_IOP0bits,4
                                           ;	.line	982; "MC32F7361.c"	delay_100us();
                                           	CALL	_delay_100us
                                           ;	.line	983; "MC32F7361.c"	delay_100us();
                                           	CALL	_delay_100us
                                           ;	.line	984; "MC32F7361.c"	LED_CTL_PIN = 1;
                                           	BSET	_IOP0bits,4
                                           ;	.line	985; "MC32F7361.c"	delay_ms(4);
                                           	MOVAI	0x04
                                           	MOVRA	STK00
                                           	MOVAI	0x00
                                           	CALL	_delay_ms
                                           ;	.line	986; "MC32F7361.c"	LED_CTL_PIN = 0;
                                           	BCLR	_IOP0bits,4
                                           ;	.line	987; "MC32F7361.c"	delay_100us();
                                           	CALL	_delay_100us
                                           ;	.line	988; "MC32F7361.c"	delay_100us();
                                           	CALL	_delay_100us
                                           ;	.line	989; "MC32F7361.c"	LED_CTL_PIN = 1;
                                           	BSET	_IOP0bits,4
                                           ;	.line	990; "MC32F7361.c"	delay_ms(5);
                                           	MOVAI	0x05
                                           	MOVRA	STK00
                                           	MOVAI	0x00
                                           	CALL	_delay_ms
                                           ;	.line	991; "MC32F7361.c"	LED_CTL_PIN = 0;
                                           	BCLR	_IOP0bits,4
                                           ;	.line	992; "MC32F7361.c"	delay_100us();
                                           	CALL	_delay_100us
                                           ;	.line	993; "MC32F7361.c"	delay_100us();
                                           	CALL	_delay_100us
                                           ;	.line	994; "MC32F7361.c"	LED_CTL_PIN = 1;
                                           	BSET	_IOP0bits,4
                                           ;	.line	995; "MC32F7361.c"	delay_ms(51);
                                           	MOVAI	0x33
                                           	MOVRA	STK00
                                           	MOVAI	0x00
                                           	CALL	_delay_ms
                                           ;	.line	997; "MC32F7361.c"	power_sta = POWER_STA_ON;
                                           	MOVAI	0x02
                                           	MOVRA	_power_sta
                                           ;	.line	999; "MC32F7361.c"	key_event_same_deal(EEPROM_Read_Byte(0), EEPROM_Read_Byte(1), EEPROM_Read_Byte(2), EEPROM_Read_Byte(3));
                                           	MOVAI	0x00
                                           	CALL	_EEPROM_Read_Byte
                                           	MOVRA	r0x102A
                                           	MOVAR	STK00
                                           	MOVRA	r0x102C
                                           	MOVRA	r0x102B
                                           ;;111	MOVAR	r0x102B
                                           	MOVAI	0x01
                                           	CALL	_EEPROM_Read_Byte
                                           	MOVRA	r0x102A
                                           	MOVAR	STK00
                                           	MOVRA	r0x102D
                                           	MOVRA	r0x102B
                                           ;;106	MOVAR	r0x102B
                                           	MOVAI	0x02
                                           	CALL	_EEPROM_Read_Byte
                                           	MOVRA	r0x102A
                                           	MOVAR	STK00
                                           	MOVRA	r0x102B
                                           	MOVAI	0x03
                                           	CALL	_EEPROM_Read_Byte
                                           	MOVRA	r0x102F
                                           	MOVAR	STK00
                                           	MOVRA	r0x102E
                                           	MOVAR	r0x102E
                                           	MOVRA	STK04
                                           	MOVAR	r0x102F
                                           	MOVRA	STK03
                                           	MOVAR	r0x102B
                                           	MOVRA	STK02
                                           	MOVAR	r0x102A
                                           	MOVRA	STK01
                                           	MOVAR	r0x102D
                                           	MOVRA	STK00
                                           	MOVAR	r0x102C
                                           	CALL	_key_event_same_deal
                                           ;	.line	1000; "MC32F7361.c"	next_frame_delay = 0;
                                           	CLRR	_next_frame_delay
                                           	CLRR	(_next_frame_delay + 1)
                                           	GOTO	_00371_DS_
                                           _00365_DS_
                                           ;	.line	1003; "MC32F7361.c"	else if (power_sta == POWER_STA_PRE_OFF)
                                           	MOVAR	_power_sta
                                           	XORAI	0x03
                                           	JBSET	PFLAG,2
                                           	GOTO	_00371_DS_
                                           ;	.line	1005; "MC32F7361.c"	power_sta = POWER_STA_OFF;
                                           	CLRR	_power_sta
                                           ;	.line	1007; "MC32F7361.c"	send_cmd_16bit(0x0C00);
                                           	MOVAI	0x00
                                           	MOVRA	STK00
                                           	MOVAI	0x0c
                                           	CALL	_send_cmd_16bit
                                           ;	.line	1008; "MC32F7361.c"	send_cmd_16bit(0x0C00);
                                           	MOVAI	0x00
                                           	MOVRA	STK00
                                           	MOVAI	0x0c
                                           	CALL	_send_cmd_16bit
                                           ;	.line	1009; "MC32F7361.c"	delay_ms(40);
                                           	MOVAI	0x28
                                           	MOVRA	STK00
                                           	MOVAI	0x00
                                           	CALL	_delay_ms
                                           ;	.line	1010; "MC32F7361.c"	LED_CTL_PIN = 0;
                                           	BCLR	_IOP0bits,4
                                           	GOTO	_00371_DS_
                                           ;	.line	1013; "MC32F7361.c"	}
                                           	RETURN	
                                           ; exit point of _main
                                           
                                           ;***
                                           ;  pBlock Stats: dbName = C
                                           ;***
                                           ;entry:  _key_event_same_deal	;Function start
                                           ; 2 exit points
                                           ;has an exit
                                           ;functions called:
                                           ;   _EEPROM_Write_Byte
                                           ;   _EEPROM_Write_Byte
                                           ;   _EEPROM_Write_Byte
                                           ;   _EEPROM_Write_Byte
                                           ;   _EEPROM_Write_Byte
                                           ;   _send_cmd_16bit
                                           ;   _send_cmd_16bit
                                           ;   _send_cmd_16bit
                                           ;   _EEPROM_Write_Byte
                                           ;   _EEPROM_Write_Byte
                                           ;   _EEPROM_Write_Byte
                                           ;   _EEPROM_Write_Byte
                                           ;   _EEPROM_Write_Byte
                                           ;   _EEPROM_Write_Byte
                                           ;   _EEPROM_Write_Byte
                                           ;   _EEPROM_Write_Byte
                                           ;   _EEPROM_Write_Byte
                                           ;   _EEPROM_Write_Byte
                                           ;   _send_cmd_16bit
                                           ;   _send_cmd_16bit
                                           ;   _send_cmd_16bit
                                           ;   _EEPROM_Write_Byte
                                           ;   _EEPROM_Write_Byte
                                           ;   _EEPROM_Write_Byte
                                           ;   _EEPROM_Write_Byte
                                           ;   _EEPROM_Write_Byte
                                           ;13 compiler assigned registers:
                                           ;   r0x1022
                                           ;   STK00
                                           ;   r0x1023
                                           ;   STK01
                                           ;   r0x1024
                                           ;   STK02
                                           ;   r0x1025
                                           ;   STK03
                                           ;   r0x1026
                                           ;   STK04
                                           ;   r0x1027
                                           ;   r0x1028
                                           ;   r0x1029
                                           ;; Starting pCode block
                                           _key_event_same_deal	;Function start
                                           ; 2 exit points
                                           ;	.line	581; "MC32F7361.c"	void key_event_same_deal(u8 start, u8 end, u16 own_data1, u16 own_data2)
                                           	MOVRA	r0x1022
                                           	MOVAR	STK00
                                           	MOVRA	r0x1023
                                           	MOVAR	STK01
                                           	MOVRA	r0x1024
                                           	MOVAR	STK02
                                           	MOVRA	r0x1025
                                           	MOVAR	STK03
                                           	MOVRA	r0x1026
                                           	MOVAR	STK04
                                           	MOVRA	r0x1027
                                           ;	.line	583; "MC32F7361.c"	if (power_sta == POWER_STA_ON)
                                           	MOVAR	_power_sta
                                           	XORAI	0x02
                                           	JBSET	PFLAG,2
                                           	GOTO	_00234_DS_
                                           ;	.line	585; "MC32F7361.c"	start_index = start;
                                           	MOVAR	r0x1022
                                           	MOVRA	_start_index
                                           ;	.line	586; "MC32F7361.c"	end_index = end;
                                           	MOVAR	r0x1023
                                           	MOVRA	_end_index
                                           ;;114	MOVAR	r0x1022
                                           ;	.line	589; "MC32F7361.c"	EEPROM_Write_Byte(0, start);
                                           	CLRR	r0x1029
                                           ;;113	MOVAR	r0x1028
                                           	MOVAR	r0x1022
                                           	MOVRA	r0x1028
                                           	MOVRA	STK01
                                           	MOVAI	0x00
                                           	MOVRA	STK00
                                           	MOVAI	0x00
                                           	CALL	_EEPROM_Write_Byte
                                           ;;110	MOVAR	r0x1023
                                           ;	.line	590; "MC32F7361.c"	EEPROM_Write_Byte(1, end);
                                           	CLRR	r0x1029
                                           ;;109	MOVAR	r0x1028
                                           	MOVAR	r0x1023
                                           	MOVRA	r0x1028
                                           	MOVRA	STK01
                                           	MOVAI	0x00
                                           	MOVRA	STK00
                                           	MOVAI	0x01
                                           	CALL	_EEPROM_Write_Byte
                                           ;	.line	591; "MC32F7361.c"	EEPROM_Write_Byte(2, own_data1);
                                           	MOVAR	r0x1025
                                           	MOVRA	STK01
                                           	MOVAR	r0x1024
                                           	MOVRA	STK00
                                           	MOVAI	0x02
                                           	CALL	_EEPROM_Write_Byte
                                           ;	.line	592; "MC32F7361.c"	EEPROM_Write_Byte(3, own_data2);
                                           	MOVAR	r0x1027
                                           	MOVRA	STK01
                                           	MOVAR	r0x1026
                                           	MOVRA	STK00
                                           	MOVAI	0x03
                                           	CALL	_EEPROM_Write_Byte
                                           ;	.line	593; "MC32F7361.c"	EEPROM_Write_Byte(4, 0xA5A5);
                                           	MOVAI	0xa5
                                           	MOVRA	STK01
                                           	MOVAI	0xa5
                                           	MOVRA	STK00
                                           	MOVAI	0x04
                                           	CALL	_EEPROM_Write_Byte
                                           ;	.line	595; "MC32F7361.c"	send_cmd_16bit(0x0C00);
                                           	MOVAI	0x00
                                           	MOVRA	STK00
                                           	MOVAI	0x0c
                                           	CALL	_send_cmd_16bit
                                           ;	.line	596; "MC32F7361.c"	if (own_data1 != 0xFFFF)
                                           	MOVAR	r0x1025
                                           	XORAI	0xff
                                           	JBSET	PFLAG,2
                                           	GOTO	_00254_DS_
                                           	MOVAR	r0x1024
                                           	XORAI	0xff
                                           	JBSET	PFLAG,2
                                           	GOTO	_00254_DS_
                                           	GOTO	_00228_DS_
                                           _00254_DS_
                                           ;	.line	597; "MC32F7361.c"	send_cmd_16bit(own_data1);
                                           	MOVAR	r0x1025
                                           	MOVRA	STK00
                                           	MOVAR	r0x1024
                                           	CALL	_send_cmd_16bit
                                           _00228_DS_
                                           ;	.line	598; "MC32F7361.c"	if (own_data2 != 0xFFFF)
                                           	MOVAR	r0x1027
                                           	XORAI	0xff
                                           	JBSET	PFLAG,2
                                           	GOTO	_00255_DS_
                                           	MOVAR	r0x1026
                                           	XORAI	0xff
                                           	JBSET	PFLAG,2
                                           	GOTO	_00255_DS_
                                           	GOTO	_00230_DS_
                                           _00255_DS_
                                           ;	.line	599; "MC32F7361.c"	send_cmd_16bit(own_data2);
                                           	MOVAR	r0x1027
                                           	MOVRA	STK00
                                           	MOVAR	r0x1026
                                           	CALL	_send_cmd_16bit
                                           _00230_DS_
                                           ;	.line	601; "MC32F7361.c"	current_index = start_index; // 
                                           	MOVAR	_start_index
                                           	MOVRA	_current_index
                                           ;	.line	602; "MC32F7361.c"	next_frame_delay = 0;        // 
                                           	CLRR	_next_frame_delay
                                           	CLRR	(_next_frame_delay + 1)
                                           	GOTO	_00236_DS_
                                           _00234_DS_
                                           ;	.line	604; "MC32F7361.c"	else if (power_sta == POWER_STA_OFF)
                                           	MOVAI	0x00
                                           	ORAR	_power_sta
                                           	JBSET	PFLAG,2
                                           	GOTO	_00236_DS_
                                           ;;105	MOVAR	r0x1022
                                           ;	.line	607; "MC32F7361.c"	EEPROM_Write_Byte(0, start);
                                           	CLRR	r0x1029
                                           ;;104	MOVAR	r0x1028
                                           	MOVAR	r0x1022
                                           	MOVRA	r0x1028
                                           	MOVRA	STK01
                                           	MOVAI	0x00
                                           	MOVRA	STK00
                                           	MOVAI	0x00
                                           	CALL	_EEPROM_Write_Byte
                                           ;;103	MOVAR	r0x1023
                                           ;	.line	608; "MC32F7361.c"	EEPROM_Write_Byte(1, end);
                                           	CLRR	r0x1028
                                           ;;102	MOVAR	r0x1022
                                           	MOVAR	r0x1023
                                           	MOVRA	r0x1022
                                           	MOVRA	STK01
                                           	MOVAI	0x00
                                           	MOVRA	STK00
                                           	MOVAI	0x01
                                           	CALL	_EEPROM_Write_Byte
                                           ;	.line	609; "MC32F7361.c"	EEPROM_Write_Byte(2, own_data1);
                                           	MOVAR	r0x1025
                                           	MOVRA	STK01
                                           	MOVAR	r0x1024
                                           	MOVRA	STK00
                                           	MOVAI	0x02
                                           	CALL	_EEPROM_Write_Byte
                                           ;	.line	610; "MC32F7361.c"	EEPROM_Write_Byte(3, own_data2);
                                           	MOVAR	r0x1027
                                           	MOVRA	STK01
                                           	MOVAR	r0x1026
                                           	MOVRA	STK00
                                           	MOVAI	0x03
                                           	CALL	_EEPROM_Write_Byte
                                           ;	.line	611; "MC32F7361.c"	EEPROM_Write_Byte(4, 0xA5A5);
                                           	MOVAI	0xa5
                                           	MOVRA	STK01
                                           	MOVAI	0xa5
                                           	MOVRA	STK00
                                           	MOVAI	0x04
                                           	CALL	_EEPROM_Write_Byte
                                           ;	.line	612; "MC32F7361.c"	power_sta = POWER_STA_PRE_ON;
                                           	MOVAI	0x01
                                           	MOVRA	_power_sta
                                           _00236_DS_
                                           ;	.line	614; "MC32F7361.c"	}
                                           	RETURN	
                                           ; exit point of _key_event_same_deal
                                           
                                           ;***
                                           ;  pBlock Stats: dbName = C
                                           ;***
                                           ;entry:  _Sys_Init	;Function start
                                           ; 2 exit points
                                           ;has an exit
                                           ;functions called:
                                           ;   _CLR_RAM
                                           ;   _IO_Init
                                           ;   _TIMER2_INT_Init
                                           ;   _TIMER3_INT_Init
                                           ;   _CLR_RAM
                                           ;   _IO_Init
                                           ;   _TIMER2_INT_Init
                                           ;   _TIMER3_INT_Init
                                           ;; Starting pCode block
                                           _Sys_Init	;Function start
                                           ; 2 exit points
                                           ;	.line	243; "MC32F7361.c"	GIE = 0;
                                           	BCLR	_MCRbits,7
                                           ;	.line	244; "MC32F7361.c"	CLR_RAM();
                                           	CALL	_CLR_RAM
                                           ;	.line	245; "MC32F7361.c"	IO_Init();
                                           	CALL	_IO_Init
                                           ;	.line	248; "MC32F7361.c"	TIMER2_INT_Init();
                                           	CALL	_TIMER2_INT_Init
                                           ;	.line	249; "MC32F7361.c"	TIMER3_INT_Init();
                                           	CALL	_TIMER3_INT_Init
                                           ;	.line	250; "MC32F7361.c"	GIE = 1;
                                           	BSET	_MCRbits,7
                                           ;	.line	251; "MC32F7361.c"	}
                                           	RETURN	
                                           ; exit point of _Sys_Init
                                           
                                           ;***
                                           ;  pBlock Stats: dbName = C
                                           ;***
                                           ;entry:  _TIMER3_INT_Init	;Function start
                                           ; 2 exit points
                                           ;has an exit
                                           ;; Starting pCode block
                                           _TIMER3_INT_Init	;Function start
                                           ; 2 exit points
                                           ;	.line	231; "MC32F7361.c"	T3LOAD = 135 - 1;                               // 1ms
                                           	MOVAI	0x86
                                           	MOVRA	_T3LOAD
                                           ;	.line	232; "MC32F7361.c"	T3CR = (0x01 << 7) | (0x01 << 2) | (0x01 << 1); // FCPU64
                                           	MOVAI	0x86
                                           	MOVRA	_T3CR
                                           ;	.line	233; "MC32F7361.c"	T3IE = 1;
                                           	BSET	_INTEbits,7
                                           ;	.line	234; "MC32F7361.c"	}
                                           	RETURN	
                                           ; exit point of _TIMER3_INT_Init
                                           
                                           ;***
                                           ;  pBlock Stats: dbName = C
                                           ;***
                                           ;entry:  _TIMER2_INT_Init	;Function start
                                           ; 2 exit points
                                           ;has an exit
                                           ;; Starting pCode block
                                           _TIMER2_INT_Init	;Function start
                                           ; 2 exit points
                                           ;	.line	222; "MC32F7361.c"	T2CR = DEF_SET_BIT0 | DEF_SET_BIT1; // CPU,8
                                           	MOVAI	0x03
                                           	MOVRA	_T2CR
                                           ;	.line	223; "MC32F7361.c"	T2CNT = 100 - 1;
                                           	MOVAI	0x63
                                           	MOVRA	_T2CNT
                                           ;	.line	224; "MC32F7361.c"	T2LOAD = 100 - 1; // 100us
                                           	MOVAI	0x63
                                           	MOVRA	_T2LOAD
                                           ;	.line	225; "MC32F7361.c"	T2EN = 1;
                                           	BSET	_T2CRbits,7
                                           ;	.line	226; "MC32F7361.c"	T2IE = 1;
                                           	BSET	_INTEbits,5
                                           ;	.line	227; "MC32F7361.c"	}
                                           	RETURN	
                                           ; exit point of _TIMER2_INT_Init
                                           
                                           ;***
                                           ;  pBlock Stats: dbName = C
                                           ;***
                                           ;entry:  _IO_Init	;Function start
                                           ; 2 exit points
                                           ;has an exit
                                           ;; Starting pCode block
                                           _IO_Init	;Function start
                                           ; 2 exit points
                                           ;	.line	193; "MC32F7361.c"	IOP0 = 0x00;   // io
                                           	CLRR	_IOP0
                                           ;	.line	194; "MC32F7361.c"	OEP0 = 0x3F;   // io 1:out  0:in
                                           	MOVAI	0x3f
                                           	MOVRA	_OEP0
                                           ;	.line	195; "MC32F7361.c"	PUP0 = 0x00;   // io   1:enable  0:disable
                                           	CLRR	_PUP0
                                           ;	.line	196; "MC32F7361.c"	PDP0 = 0x00;   // io   1:enable  0:disable
                                           	CLRR	_PDP0
                                           ;	.line	197; "MC32F7361.c"	P0ADCR = 0x00; // io  1:  0:io
                                           	CLRR	_P0ADCR
                                           ;	.line	199; "MC32F7361.c"	IOP1 = 0x00;   // io
                                           	CLRR	_IOP1
                                           ;	.line	200; "MC32F7361.c"	OEP1 = 0xFF;   // io 1:out  0:in
                                           	MOVAI	0xff
                                           	MOVRA	_OEP1
                                           ;	.line	201; "MC32F7361.c"	PUP1 = 0x00;   // io   1:enable  0:disable
                                           	CLRR	_PUP1
                                           ;	.line	202; "MC32F7361.c"	PDP1 = 0x00;   // io   1:enable  0:disable
                                           	CLRR	_PDP1
                                           ;	.line	203; "MC32F7361.c"	P1ADCR = 0x00; // io  1:  0:io
                                           	CLRR	_P1ADCR
                                           ;	.line	205; "MC32F7361.c"	IOP2 = 0x00; // io
                                           	CLRR	_IOP2
                                           ;	.line	206; "MC32F7361.c"	OEP2 = 0x0F; // io 1:out  0:in
                                           	MOVAI	0x0f
                                           	MOVRA	_OEP2
                                           ;	.line	207; "MC32F7361.c"	PUP2 = 0x00; // io   1:enable  0:disable
                                           	CLRR	_PUP2
                                           ;	.line	208; "MC32F7361.c"	PDP2 = 0x00; // io   1:enable  0:disablea
                                           	CLRR	_PDP2
                                           ;	.line	210; "MC32F7361.c"	PMOD = 0x00;  // P00P01P13 io
                                           	CLRR	_PMOD
                                           ;	.line	211; "MC32F7361.c"	DRVCR = 0x80; // 
                                           	MOVAI	0x80
                                           	MOVRA	_DRVCR
                                           ;	.line	212; "MC32F7361.c"	}
                                           	RETURN	
                                           ; exit point of _IO_Init
                                           
                                           ;***
                                           ;  pBlock Stats: dbName = C
                                           ;***
                                           ;entry:  _CLR_RAM	;Function start
                                           ; 2 exit points
                                           ;has an exit
                                           ;; Starting pCode block
                                           _CLR_RAM	;Function start
                                           ; 2 exit points
                                           ;	.line	178; "MC32F7361.c"	for (FSR0 = 0; FSR0 < 0xff; FSR0++)
                                           	CLRR	_FSR0
                                           ;;unsigned compare: left < lit(0xFF=255), size=1
                                           _00206_DS_
                                           	MOVAI	0xff
                                           	RSUBAR	_FSR0
                                           	JBCLR	PFLAG,0
                                           	GOTO	_00204_DS_
                                           ;;genSkipc:3291: created from rifx:013B5EFC
                                           ;	.line	180; "MC32F7361.c"	INDF0 = 0x00;
                                           	CLRR	_INDF0
                                           ;	.line	178; "MC32F7361.c"	for (FSR0 = 0; FSR0 < 0xff; FSR0++)
                                           	INCR	_FSR0
                                           	GOTO	_00206_DS_
                                           _00204_DS_
                                           ;	.line	182; "MC32F7361.c"	FSR0 = 0xFF;
                                           	MOVAI	0xff
                                           	MOVRA	_FSR0
                                           ;	.line	183; "MC32F7361.c"	INDF0 = 0x00;
                                           	CLRR	_INDF0
                                           ;	.line	184; "MC32F7361.c"	}
                                           	RETURN	
                                           ; exit point of _CLR_RAM
                                           
                                           ;***
                                           ;  pBlock Stats: dbName = C
                                           ;***
                                           ;entry:  _send_cmd_16bit_without_delay	;Function start
                                           ; 2 exit points
                                           ;has an exit
                                           ;functions called:
                                           ;   _delay_100us
                                           ;   _delay_ms
                                           ;   _delay_1_4ms
                                           ;   _delay_100us
                                           ;   _delay_100us
                                           ;   _delay_ms
                                           ;   _delay_1_4ms
                                           ;   _delay_100us
                                           ;7 compiler assigned registers:
                                           ;   r0x1030
                                           ;   STK00
                                           ;   r0x1031
                                           ;   r0x1032
                                           ;   r0x1033
                                           ;   r0x1034
                                           ;   r0x1035
                                           ;; Starting pCode block
                                           _send_cmd_16bit_without_delay	;Function start
                                           ; 2 exit points
                                           ;	.line	140; "MC32F7361.c"	void send_cmd_16bit_without_delay(const u16 data)
                                           	MOVRA	r0x1030
                                           	MOVAR	STK00
                                           	MOVRA	r0x1031
                                           ;	.line	149; "MC32F7361.c"	for (i = 0; i < 16; i++)
                                           	CLRR	r0x1032
                                           _00181_DS_
                                           ;	.line	151; "MC32F7361.c"	LED_CTL_PIN = 0;
                                           	BCLR	_IOP0bits,4
                                           ;	.line	152; "MC32F7361.c"	delay_100us();
                                           	CALL	_delay_100us
                                           ;	.line	153; "MC32F7361.c"	LED_CTL_PIN = 1;
                                           	BSET	_IOP0bits,4
                                           ;	.line	154; "MC32F7361.c"	if ((data >> (15 - i)) & 0x01) // 1
                                           	MOVAR	r0x1032
                                           	ISUBAI	0x0f
                                           	MOVRA	r0x1033
                                           	MOVAR	r0x1030
                                           	MOVRA	r0x1034
                                           	MOVAR	r0x1031
                                           	MOVRA	r0x1035
                                           	MOVAR	r0x1033
                                           	ISUBAI	0x00
                                           	JBCLR	PFLAG,2
                                           	GOTO	_00199_DS_
                                           _00198_DS_
                                           	RRR	r0x1034
                                           	RRR	r0x1035
                                           	ADDAI	0x01
                                           	JBSET	PFLAG,0
                                           	GOTO	_00198_DS_
                                           _00199_DS_
                                           	JBSET	r0x1035,0
                                           	GOTO	_00178_DS_
                                           ;	.line	156; "MC32F7361.c"	delay_ms(3);
                                           	MOVAI	0x03
                                           	MOVRA	STK00
                                           	MOVAI	0x00
                                           	CALL	_delay_ms
                                           	GOTO	_00182_DS_
                                           _00178_DS_
                                           ;	.line	160; "MC32F7361.c"	delay_1_4ms();
                                           	CALL	_delay_1_4ms
                                           _00182_DS_
                                           ;	.line	149; "MC32F7361.c"	for (i = 0; i < 16; i++)
                                           	INCR	r0x1032
                                           ;;unsigned compare: left < lit(0x10=16), size=1
                                           	MOVAI	0x10
                                           	RSUBAR	r0x1032
                                           	JBSET	PFLAG,0
                                           	GOTO	_00181_DS_
                                           ;;genSkipc:3291: created from rifx:013B5EFC
                                           ;	.line	164; "MC32F7361.c"	LED_CTL_PIN = 0;
                                           	BCLR	_IOP0bits,4
                                           ;	.line	165; "MC32F7361.c"	delay_100us();
                                           	CALL	_delay_100us
                                           ;	.line	166; "MC32F7361.c"	LED_CTL_PIN = 1;
                                           	BSET	_IOP0bits,4
                                           ;	.line	168; "MC32F7361.c"	}
                                           	RETURN	
                                           ; exit point of _send_cmd_16bit_without_delay
                                           
                                           ;***
                                           ;  pBlock Stats: dbName = C
                                           ;***
                                           ;entry:  _send_cmd_16bit	;Function start
                                           ; 2 exit points
                                           ;has an exit
                                           ;functions called:
                                           ;   _delay_100us
                                           ;   _delay_ms
                                           ;   _delay_1_4ms
                                           ;   _delay_100us
                                           ;   _delay_ms
                                           ;   _delay_100us
                                           ;   _delay_ms
                                           ;   _delay_1_4ms
                                           ;   _delay_100us
                                           ;   _delay_ms
                                           ;7 compiler assigned registers:
                                           ;   r0x101C
                                           ;   STK00
                                           ;   r0x101D
                                           ;   r0x101E
                                           ;   r0x101F
                                           ;   r0x1020
                                           ;   r0x1021
                                           ;; Starting pCode block
                                           _send_cmd_16bit	;Function start
                                           ; 2 exit points
                                           ;	.line	108; "MC32F7361.c"	void send_cmd_16bit(const u16 data)
                                           	MOVRA	r0x101C
                                           	MOVAR	STK00
                                           	MOVRA	r0x101D
                                           ;	.line	117; "MC32F7361.c"	for (i = 0; i < 16; i++)
                                           	CLRR	r0x101E
                                           _00154_DS_
                                           ;	.line	119; "MC32F7361.c"	LED_CTL_PIN = 0;
                                           	BCLR	_IOP0bits,4
                                           ;	.line	120; "MC32F7361.c"	delay_100us();
                                           	CALL	_delay_100us
                                           ;	.line	121; "MC32F7361.c"	LED_CTL_PIN = 1;
                                           	BSET	_IOP0bits,4
                                           ;	.line	122; "MC32F7361.c"	if ((data >> (15 - i)) & 0x01) // 1
                                           	MOVAR	r0x101E
                                           	ISUBAI	0x0f
                                           	MOVRA	r0x101F
                                           	MOVAR	r0x101C
                                           	MOVRA	r0x1020
                                           	MOVAR	r0x101D
                                           	MOVRA	r0x1021
                                           	MOVAR	r0x101F
                                           	ISUBAI	0x00
                                           	JBCLR	PFLAG,2
                                           	GOTO	_00172_DS_
                                           _00171_DS_
                                           	RRR	r0x1020
                                           	RRR	r0x1021
                                           	ADDAI	0x01
                                           	JBSET	PFLAG,0
                                           	GOTO	_00171_DS_
                                           _00172_DS_
                                           	JBSET	r0x1021,0
                                           	GOTO	_00151_DS_
                                           ;	.line	124; "MC32F7361.c"	delay_ms(3);
                                           	MOVAI	0x03
                                           	MOVRA	STK00
                                           	MOVAI	0x00
                                           	CALL	_delay_ms
                                           	GOTO	_00155_DS_
                                           _00151_DS_
                                           ;	.line	128; "MC32F7361.c"	delay_1_4ms();
                                           	CALL	_delay_1_4ms
                                           _00155_DS_
                                           ;	.line	117; "MC32F7361.c"	for (i = 0; i < 16; i++)
                                           	INCR	r0x101E
                                           ;;unsigned compare: left < lit(0x10=16), size=1
                                           	MOVAI	0x10
                                           	RSUBAR	r0x101E
                                           	JBSET	PFLAG,0
                                           	GOTO	_00154_DS_
                                           ;;genSkipc:3291: created from rifx:013B5EFC
                                           ;	.line	132; "MC32F7361.c"	LED_CTL_PIN = 0;
                                           	BCLR	_IOP0bits,4
                                           ;	.line	133; "MC32F7361.c"	delay_100us();
                                           	CALL	_delay_100us
                                           ;	.line	134; "MC32F7361.c"	LED_CTL_PIN = 1;
                                           	BSET	_IOP0bits,4
                                           ;	.line	135; "MC32F7361.c"	delay_ms(33);
                                           	MOVAI	0x21
                                           	MOVRA	STK00
                                           	MOVAI	0x00
                                           	CALL	_delay_ms
                                           ;	.line	137; "MC32F7361.c"	}
                                           	RETURN	
                                           ; exit point of _send_cmd_16bit
                                           
                                           ;***
                                           ;  pBlock Stats: dbName = C
                                           ;***
                                           ;entry:  _EEPROM_Read_Byte	;Function start
                                           ; 2 exit points
                                           ;has an exit
                                           ;5 compiler assigned registers:
                                           ;   r0x1016
                                           ;   r0x1017
                                           ;   r0x1018
                                           ;   r0x1019
                                           ;   STK00
                                           ;; Starting pCode block
                                           _EEPROM_Read_Byte	;Function start
                                           ; 2 exit points
                                           ;	.line	78; "MC32F7361.c"	uint16_t EEPROM_Read_Byte(u8 addr)
                                           	MOVRA	_EEAR
                                           ;	.line	82; "MC32F7361.c"	EECR = 0x02; //  EE 
                                           	MOVAI	0x02
                                           	MOVRA	_EECR
                                           ;	.line	83; "MC32F7361.c"	Nop();
                                           	nop	
                                           ;	.line	84; "MC32F7361.c"	Nop();
                                           	nop	
                                           _00145_DS_
                                           ;	.line	85; "MC32F7361.c"	while (EEREAD) //  EE 
                                           	JBCLR	_EECRbits,1
                                           	GOTO	_00145_DS_
                                           ;	.line	89; "MC32F7361.c"	EEDR = (EEDRH << 8) | EEDRL;
                                           	MOVAR	_EEDRH
                                           	MOVRA	r0x1018
                                           	MOVRA	r0x1016
                                           	CLRR	r0x1017
                                           ;;101	MOVAR	r0x1016
                                           	CLRR	r0x1019
                                           	MOVAR	_EEDRL
                                           	MOVRA	r0x1016
                                           	CLRR	r0x1017
                                           	MOVAR	r0x1016
                                           	ORRA	r0x1019
                                           	MOVAI	0x00
                                           	ORRA	r0x1018
                                           ;	.line	90; "MC32F7361.c"	return EEDR;
                                           	MOVAR	r0x1019
                                           	MOVRA	STK00
                                           	MOVAR	r0x1018
                                           ;	.line	91; "MC32F7361.c"	}
                                           	RETURN	
                                           ; exit point of _EEPROM_Read_Byte
                                           
                                           ;***
                                           ;  pBlock Stats: dbName = C
                                           ;***
                                           ;entry:  _EEPROM_Write_Byte	;Function start
                                           ; 2 exit points
                                           ;has an exit
                                           ;6 compiler assigned registers:
                                           ;   STK00
                                           ;   r0x1016
                                           ;   STK01
                                           ;   r0x1017
                                           ;   r0x1018
                                           ;   r0x1019
                                           ;; Starting pCode block
                                           _EEPROM_Write_Byte	;Function start
                                           ; 2 exit points
                                           ;	.line	54; "MC32F7361.c"	void EEPROM_Write_Byte(uint8_t addr, uint16_t data)
                                           	MOVRA	_EEAR
                                           	MOVAR	STK00
                                           	MOVRA	r0x1018
                                           ;;1	MOVRA	r0x1016
                                           	MOVAR	STK01
                                           	MOVRA	r0x1017
                                           ;	.line	56; "MC32F7361.c"	HFEN = 1;
                                           	BSET	_OSCMRbits,0
                                           ;;99	MOVAR	r0x1016
                                           ;;1	CLRR	r0x1019
                                           ;	.line	58; "MC32F7361.c"	EEDRH = (data >> 8) & 0xff;
                                           	MOVAR	r0x1018
                                           	MOVRA	_EEDRH
                                           ;	.line	59; "MC32F7361.c"	EEDRL = data & 0xff;
                                           	MOVAR	r0x1017
                                           	MOVRA	_EEDRL
                                           ;	.line	60; "MC32F7361.c"	GIE = 0;
                                           	BCLR	_MCRbits,7
                                           ;	.line	61; "MC32F7361.c"	EEPR = 0x5A;
                                           	MOVAI	0x5a
                                           	MOVRA	_EEPR
                                           ;	.line	62; "MC32F7361.c"	EEPR = 0xA5; // 
                                           	MOVAI	0xa5
                                           	MOVRA	_EEPR
                                           ;	.line	63; "MC32F7361.c"	EECR = 0x01; // EEPROM  
                                           	MOVAI	0x01
                                           	MOVRA	_EECR
                                           ;	.line	64; "MC32F7361.c"	Nop();
                                           	nop	
                                           ;	.line	65; "MC32F7361.c"	Nop();
                                           	nop	
                                           _00140_DS_
                                           ;	.line	66; "MC32F7361.c"	while (EEWRITE) //  EE 
                                           	JBCLR	_EECRbits,0
                                           	GOTO	_00140_DS_
                                           ;	.line	70; "MC32F7361.c"	GIE = 1;
                                           	BSET	_MCRbits,7
                                           ;	.line	71; "MC32F7361.c"	}
                                           	RETURN	
                                           ; exit point of _EEPROM_Write_Byte
                                           
                                           ;***
                                           ;  pBlock Stats: dbName = C
                                           ;***
                                           ;entry:  _delay_1_4ms	;Function start
                                           ; 2 exit points
                                           ;has an exit
                                           ;functions called:
                                           ;   _delay_100us
                                           ;   _delay_100us
                                           ;2 compiler assigned registers:
                                           ;   r0x1018
                                           ;   r0x1019
                                           ;; Starting pCode block
                                           _delay_1_4ms	;Function start
                                           ; 2 exit points
                                           ;	.line	42; "MC32F7361.c"	for (i = 0; i < 14; i++)
                                           	MOVAI	0x0e
                                           	MOVRA	r0x1018
                                           _00135_DS_
                                           ;	.line	44; "MC32F7361.c"	delay_100us();
                                           	CALL	_delay_100us
                                           	DECAR	r0x1018
                                           	MOVRA	r0x1018
                                           	MOVRA	r0x1019
                                           ;;100	MOVAR	r0x1019
                                           ;	.line	42; "MC32F7361.c"	for (i = 0; i < 14; i++)
                                           	MOVAI	0x00
                                           	ORAR	r0x1019
                                           	JBSET	PFLAG,2
                                           	GOTO	_00135_DS_
                                           ;	.line	46; "MC32F7361.c"	}
                                           	RETURN	
                                           ; exit point of _delay_1_4ms
                                           
                                           ;***
                                           ;  pBlock Stats: dbName = C
                                           ;***
                                           ;entry:  _delay_200us	;Function start
                                           ; 2 exit points
                                           ;has an exit
                                           ;2 compiler assigned registers:
                                           ;   r0x1036
                                           ;   r0x1037
                                           ;; Starting pCode block
                                           _delay_200us	;Function start
                                           ; 2 exit points
                                           ;	.line	32; "MC32F7361.c"	while (i--)
                                           	MOVAI	0x96
                                           	MOVRA	r0x1036
                                           _00124_DS_
                                           	MOVAR	r0x1036
                                           	MOVRA	r0x1037
                                           	DECR	r0x1036
                                           	MOVAI	0x00
                                           	ORAR	r0x1037
                                           	JBCLR	PFLAG,2
                                           	GOTO	_00127_DS_
                                           ;	.line	34; "MC32F7361.c"	Nop();
                                           	nop	
                                           	GOTO	_00124_DS_
                                           _00127_DS_
                                           ;	.line	36; "MC32F7361.c"	}
                                           	RETURN	
                                           ; exit point of _delay_200us
                                           
                                           ;***
                                           ;  pBlock Stats: dbName = C
                                           ;***
                                           ;entry:  _delay_100us	;Function start
                                           ; 2 exit points
                                           ;has an exit
                                           ;2 compiler assigned registers:
                                           ;   r0x1016
                                           ;   r0x1017
                                           ;; Starting pCode block
                                           _delay_100us	;Function start
                                           ; 2 exit points
                                           ;	.line	22; "MC32F7361.c"	while (i--)
                                           	MOVAI	0x4a
                                           	MOVRA	r0x1016
                                           _00116_DS_
                                           	MOVAR	r0x1016
                                           	MOVRA	r0x1017
                                           	DECR	r0x1016
                                           	MOVAI	0x00
                                           	ORAR	r0x1017
                                           	JBCLR	PFLAG,2
                                           	GOTO	_00119_DS_
                                           ;	.line	24; "MC32F7361.c"	Nop();
                                           	nop	
                                           	GOTO	_00116_DS_
                                           _00119_DS_
                                           ;	.line	26; "MC32F7361.c"	}
                                           	RETURN	
                                           ; exit point of _delay_100us
                                           
                                           ;***
                                           ;  pBlock Stats: dbName = C
                                           ;***
                                           ;entry:  _delay_ms	;Function start
                                           ; 2 exit points
                                           ;has an exit
                                           ;7 compiler assigned registers:
                                           ;   r0x1016
                                           ;   STK00
                                           ;   r0x1017
                                           ;   r0x1018
                                           ;   r0x1019
                                           ;   r0x101A
                                           ;   r0x101B
                                           ;; Starting pCode block
                                           _delay_ms	;Function start
                                           ; 2 exit points
                                           ;	.line	252; "user.h"	void delay_ms(u16 xms)
                                           	MOVRA	r0x1016
                                           	MOVAR	STK00
                                           	MOVRA	r0x1017
                                           _00108_DS_
                                           ;	.line	254; "user.h"	while (xms)
                                           	MOVAR	r0x1017
                                           	ORAR	r0x1016
                                           	JBCLR	PFLAG,2
                                           	GOTO	_00111_DS_
                                           ;	.line	257; "user.h"	while (i--)
                                           	MOVAI	0x05
                                           	MOVRA	r0x1018
                                           	MOVAI	0x02
                                           	MOVRA	r0x1019
                                           _00105_DS_
                                           	MOVAR	r0x1018
                                           	MOVRA	r0x101A
                                           	MOVAR	r0x1019
                                           	MOVRA	r0x101B
                                           	MOVAI	0xff
                                           	ADDRA	r0x1018
                                           	JBSET	PFLAG,0
                                           	DECR	r0x1019
                                           	MOVAR	r0x101A
                                           	ORAR	r0x101B
                                           	JBCLR	PFLAG,2
                                           	GOTO	_00107_DS_
                                           ;	.line	259; "user.h"	Nop();
                                           	nop	
                                           	GOTO	_00105_DS_
                                           _00107_DS_
                                           ;	.line	261; "user.h"	xms--; //  --while()
                                           	MOVAI	0xff
                                           	ADDRA	r0x1017
                                           	JBSET	PFLAG,0
                                           	DECR	r0x1016
                                           ;	.line	265; "user.h"	__endasm;
                                           	;
                                           	clrwdt;
                                           	
                                           	GOTO	_00108_DS_
                                           _00111_DS_
                                           ;	.line	267; "user.h"	}
                                           	RETURN	
                                           ; exit point of _delay_ms
                                           
                                           
                                           ;	code size estimation:
                                           ;	 1821+    0 =  1821 instructions ( 3642 byte)
                                           
                                           	end


MEMORY USAGE MAP ('X' = Used,  '-' = Unused)

0000 : XXXXXXXXXX------ XXXXXXXXXXXXXXXX XXXXXXXXXXXXXXXX XXXXXXXXXXXXXXXX
0040 : XXXXXXXXXXXXXXXX XXXXXXXXXXXXXXXX XXXXXXXXXXXXXXXX XXXXXXXXXXXXXXXX
0080 : XXXXXXXXXXXXXXXX XXXXXXXXXXXXXXXX XXXXXXXXXXXXXXXX XXXXXXXXXXXXXXXX
00C0 : XXXXXXXXXXXXXXXX XXXXXXXXXXXXXXXX XXXXXXXXXXXXXXXX XXXXXXXXXXXXXXXX
0100 : XXXXXXXXXXXXXXXX XXXXXXXXXXXXXXXX XXXXXXXXXXXXXXXX XXXXXXXXXXXXXXXX
0140 : XXXXXXXXXXXXXXXX XXXXXXXXXXXXXXXX XXXXXXXXXXXXXXXX XXXXXXXXXXXXXXXX
0180 : XXXXXXXXXXXXXXXX XXXXXXXXXXXXXXXX XXXXXXXXXXXXXXXX XXXXXXXXXXXXXXXX
01C0 : XXXXXXXXXXXXXXXX XXXXXXXXXXXXXXXX XXXXXXXXXXXXXXXX XXXXXXXXXXXXXXXX
0200 : XXXXXXXXXXXXXXXX XXXXXXXXXXXXXXXX XXXXXXXXXXXXXXXX XXXXXXXXXXXXXXXX
0240 : XXXXXXXXXXXXXXXX XXXXXXXXXXXXXXXX XXXXXXXXXXXXXXXX XXXXXXXXXXXXXXXX
0280 : XXXXXXXXXXXXXXXX XXXXXXXXXXXXXXXX XXXXXXXXXXXXXXXX XXXXXXXXXXXXXXXX
02C0 : XXXXXXXXXXXXXXXX XXXXXXXXXXXXXXXX XXXXXXXXXXXXXXXX XXXXXXXXXXXXXXXX
0300 : XXXXXXXXXXXXXXXX XXXXXXXXXXXXXXXX XXXXXXXXXXXXXXXX XXXXXXXXXXXXXXXX
0340 : XXXXXXXXXXXXXXXX XXXXXXXXXXXXXXXX XXXXXXXXXXXXXXXX XXXXXXXXXXXXXXXX
0380 : XXXXXXXXXXXXXXXX XXXXXXXXXXXXXXXX XXXXXXXXXXXXXXXX XXXXXXXXXXXXXXXX
03C0 : XXXXXXXXXXXXXXXX XXXXXXXXXXXXXXXX XXXXXXXXXXXXXXXX XXXXXXXXXXXXXXXX
0400 : XXXXXXXXXXXXXXXX XXXXXXXXXXXXXXXX XXXXXXXXXXXXXXXX XXXXXXXXXXXXXXXX
0440 : XXXXXXXXXXXXXXXX XXXXXXXXXXXXXXXX XXXXXXXXXXXXXXXX XXXXXXXXXXXXXXXX
0480 : XXXXXXXXXXXXXXXX XXXXXXXXXXXXXXXX XXXXXXXXXXXXXXXX XXXXXXXXXXXXXXXX
04C0 : XXXXXXXXXXXXXXXX XXXXXXXXXXXXXXXX XXXXXXXXXXXXXXXX XXXXXXXXXXXXXXXX
0500 : XXXXXXXXXXXXXXXX XXXXXXXXXXXXXXXX XXXXXXXXXXXXXXXX XXXXXXXXXXXXXXXX
0540 : XXXXXXXXXXXXXXXX XXXXXXXXXXXXXXXX XXXXXXXXXXXXXXXX XXXXXXXXXXXXXXXX
0580 : XXXXXXXXXXXXXXXX XXXXXXXXXXXXXXXX XXXXXXXXXXXXXXXX XXXXXXXXXXXXXXXX
05C0 : XXXXXXXXXXXXXXXX XXXXXXXXXXXXXXXX XXXXXXXXXXXXXXXX XXXXXXXXXXXXXXXX
0600 : XXXXXXXXXXXXXXXX XXXXXXXXXXXXXXXX XXXXXXXXXXXXXXXX XXXXXXXXXXXXXXXX
0640 : XXXXXXXXXXXXXXXX XXXXXXXXXXXXXXXX XXXXXXXXXXXXXXXX XXXXXXXXXXXXXXXX
0680 : XXXXXXXXXXXXXXXX XXXXXXXXXXXXXXXX XXXXXXXXXXXXXXXX XXXXXXXXXXXXXXXX
06C0 : XXXXXXXXXXXXXXXX XXXXXXXXXXXXXXXX XXXXXXXXXXXXXXXX XXXXXXXXXXXXXXXX
0700 : XXXXXXXXXXXXXXXX XXXXXXXXXXXXXXXX XXXXXXXXXXXXXXXX XXXXXXXXXXXXXXXX
0740 : XXXXXXXXXXXXXXXX XXXXXXXXXXXXXXXX XXXXXXXXXXXXXXXX XXXXXXXXXXXXXXXX
0780 : XXXXXXXXXXXXXXXX XXXXXXXXXXXXXXXX XXXXXXXXXXXXXXXX XXXXXXXXXXXXXXXX
07C0 : XXXXXXXXXXXXXXXX XXXXXXXXXXXXXXXX XXXXXXXXXXXXXXXX XXXXXXXXXXXXXXXX
0800 : XXXXXXXXXXXXXXXX XXXXXXXXXXXXXXXX XXXXXXXXXXXXXXXX XXXXXXXXXXXXXXXX
0840 : XXXXXXXXXXXXXXXX XXXXXXXXXXXXXXXX XXXXXXXXXXXXXXXX XXXXXXXXXXXXXXXX
0880 : XXXXXXXXXXXXXXXX XXXXXXXXXXXXXXXX XXXXXXXXXXXXXXXX XXXXXXXXXXXXXXXX
08C0 : XXXXXXXXXXXXXXXX XXXXXXXXXXXXXXXX XXXXXXXXXXXXXXXX XXXXXXXXXXXXXXXX
0900 : XXXXXXXXXXXXXXXX XXXXXXXXXXXXXXXX XXXXXXXXXXXXXXXX XXXXXXXXXXXXXXXX
0940 : XXXXXXXXXXXXXXXX XXXXXXXXXXXXXXXX XXXXXXXXXXXXXXXX XXXXXXXXXXXXXXXX
0980 : XXXXXXXXXXXXXXXX XXXXXXXXXXXXXXXX XXXXXXXXXXXXXXXX XXXXXXXXXXXXXXXX
09C0 : XXXXXXXXXXXXXXXX XXXXXXXXXXXXXXXX XXXXXXXXXXXXXXXX XXXXXXXXXXXXXXXX
0A00 : XXXXXXXXXXXXXXXX XXXXXXXXXXXXXXXX XXXXXXXXXXXXXXXX XXXXXXXXXXXXXXXX
0A40 : XXXXXXXXXXXXXXXX XXXXXXXXXXXXXXXX XXXXXXXXXXXXXXXX XXXXXXXXXXXXXXXX
0A80 : XXXXXXXXXXXXXXXX XXXXXXXXXXXXXXXX XXXXXXXXXXXXXXXX XXXXXXXXXXXXXXXX
0AC0 : XXXXXXXXXXXXXXXX XXXXXXXXXXXXXXXX XXXXXXXXXXXXXXXX XXXXXXXXXXXXXXXX
0B00 : XXXXXXXXXXXXXXXX XXXXXXXXXXXXXXXX XXXXXXXXXXXXXXXX XXXXXXXXXXXXXXXX
0B40 : XXXXXXXXXXXXXXXX XXXXXXXXXXXXXXXX XXXXXXXXXXXXXXXX XXXXXXXXXXXXXXXX
0B80 : XXXXXXXXXXXXXXXX XXXXXXXXXXXXXXXX XXXXXXXXXXXXXXXX XXXXXXXXXXXXXXXX
0BC0 : XXXXXXXXXXXXXXXX XXXXXXXXXXXXXXXX XXXXXXXXXXXXXXXX XXXXXXXXXXXXXXXX
0C00 : XXXXXXXXXXXXXXXX XXXXXXXXXXXXXXXX XXXXXXXXXXXXXXXX XXXXXXXXXXXXXXXX
0C40 : XXXXXXXXXXXXXXXX XXXXXXXXXXXXXXXX XXXXXXXXXXXXXXXX XXXXXXXXXXXXXXXX
0C80 : XXXXXXXXXXXXXXXX XXXXXXXXXXXXXXXX XXXXXXXXXXXXXXXX XXXXXXXXXXXXXXXX
0CC0 : XXXXXXXXXXXXXXXX XXXXXXXXXXXXXXXX XXXXXXXXXXXXXXXX XXXXXXXXXXXXXXXX
0D00 : XXXXXXXXXXXXXXXX XXXXXXXXXXXXXXXX XXXXXXXXXXXXXXXX XXXXXXXXXXXXXXXX
0D40 : XXXXXXXXXXXXXXXX XXXXXXXXXXXXXXXX XXXXXXXXXXXXXXXX XXXXXXXXXXXXXXXX
0D80 : XXXXXXXXXXXXXXXX XXXXXXXXXXXXXXXX XXXXXXXXXXXXXXXX XXXXXXXXXXXXXXXX
0DC0 : XXXXXXXXXXXXXXXX XXXXXXXXXXXXXXXX XXXXXXXXXXXXXXXX XXXXXXXXXXXXXXXX
0E00 : XXXXXXXXXXXXXXXX XXXXXXXXXXXXXXXX XXXXXXXXXXXXXXXX XXXXXXXXXXXXXXXX
0E40 : XXXXXXXXXXXXXXXX XXXXXXXXXXXXXXXX XXXXXXXXXXXXXXXX XXXXXXXXXXXXXXXX
0E80 : XXXXXXXXXXXXXXXX XXXXXXXXXXXXXXXX XXXXXXXXXXXXXXXX XXXXXXXXXXXXXXXX
0EC0 : XXXXXXXXXXXXXXXX XXXXXXXXXXXXXXXX XXXXXXXXXXXXXXXX XXXXXXXXXXXXXXXX
0F00 : XXXXXXXXXXXXXXXX XXXXXXXXXXXXXXXX XXXXXXXXXXXXXXXX XXXXXXXXXXXXXXXX
0F40 : XXXXXXXXXXXXXXXX XXXXXXXXXXXXXXXX XXXXXXXXXXXXXXXX XXXXXXXXXXXXXXXX
0F80 : XXXXXXXXXXXXXXXX XXXXXXXXXXXXXXXX XXXXXXXXXXXXXXXX XXXXXXXXXXXXXXXX
0FC0 : XXXXXXXXXXXXXXXX XXXXXXXXXXXXXXXX XXXXXXXXXXXXXXXX XX--------------

All other memory blocks unused.

Program Memory Words Used:  2038

