gplink-2.2.37 (Jan 22 2024)
Listing File Generated: 2025-3-15  15:23:59
 
 
Address  Value    Disassembly              Source
-------  -----    -----------              ------
                                           ;--------------------------------------------------------
                                           ; external declarations
                                           ;--------------------------------------------------------
                                           	extern	_INDF0bits
                                           	extern	_INDF1bits
                                           	extern	_INDF2bits
                                           	extern	_HIBYTEbits
                                           	extern	_FSR0bits
                                           	extern	_FSR1bits
                                           	extern	_PCLbits
                                           	extern	_PFLAGbits
                                           	extern	_MCRbits
                                           	extern	_INDF3bits
                                           	extern	_INTEbits
                                           	extern	_INTFbits
                                           	extern	_DRVCRbits
                                           	extern	_P0KBCRbits
                                           	extern	_P1KBCRbits
                                           	extern	_P2KBCRbits
                                           	extern	_IOP0bits
                                           	extern	_OEP0bits
                                           	extern	_PUP0bits
                                           	extern	_PDP0bits
                                           	extern	_IOP1bits
                                           	extern	_OEP1bits
                                           	extern	_PUP1bits
                                           	extern	_PDP1bits
                                           	extern	_T0CRbits
                                           	extern	_T0CNTbits
                                           	extern	_T0LOADbits
                                           	extern	_T0DATAbits
                                           	extern	_T1CRbits
                                           	extern	_T1CNTbits
                                           	extern	_T1LOADbits
                                           	extern	_T1DATAbits
                                           	extern	_T2CRbits
                                           	extern	_T2CNTbits
                                           	extern	_T2LOADbits
                                           	extern	_T2DATAbits
                                           	extern	_T3CRbits
                                           	extern	_T3CNTbits
                                           	extern	_T3LOADbits
                                           	extern	_PWM0DRbits
                                           	extern	_PWM1DRbits
                                           	extern	_PWM2DRbits
                                           	extern	_PWMCR0bits
                                           	extern	_PWMCR1bits
                                           	extern	_OSCMRbits
                                           	extern	_LVDCRbits
                                           	extern	_ADCR0bits
                                           	extern	_ADCR1bits
                                           	extern	_ADCR2bits
                                           	extern	_OSADJCRbits
                                           	extern	_ADRHbits
                                           	extern	_ADRLbits
                                           	extern	_P0ADCRbits
                                           	extern	_P1ADCRbits
                                           	extern	_IOP2bits
                                           	extern	_OEP2bits
                                           	extern	_PUP2bits
                                           	extern	_PDP2bits
                                           	extern	_PMODbits
                                           	extern	_PWMCR3bits
                                           	extern	_PWMCR2bits
                                           	extern	_PFRCCRbits
                                           	extern	_PFRCCALbits
                                           	extern	_EECRbits
                                           	extern	_EEPRbits
                                           	extern	_EEARbits
                                           	extern	_EEDRHbits
                                           	extern	_EEDRLbits
                                           	extern	_DBGCRbits
                                           	extern	_DBGPRbits
                                           	extern	_HIRCCALbits
                                           	extern	_INDF0
                                           	extern	_INDF1
                                           	extern	_INDF2
                                           	extern	_HIBYTE
                                           	extern	_FSR0
                                           	extern	_FSR1
                                           	extern	_PCL
                                           	extern	_PFLAG
                                           	extern	_MCR
                                           	extern	_INDF3
                                           	extern	_INTE
                                           	extern	_INTF
                                           	extern	_DRVCR
                                           	extern	_P0KBCR
                                           	extern	_P1KBCR
                                           	extern	_P2KBCR
                                           	extern	_IOP0
                                           	extern	_OEP0
                                           	extern	_PUP0
                                           	extern	_PDP0
                                           	extern	_IOP1
                                           	extern	_OEP1
                                           	extern	_PUP1
                                           	extern	_PDP1
                                           	extern	_T0CR
                                           	extern	_T0CNT
                                           	extern	_T0LOAD
                                           	extern	_T0DATA
                                           	extern	_T1CR
                                           	extern	_T1CNT
                                           	extern	_T1LOAD
                                           	extern	_T1DATA
                                           	extern	_T2CR
                                           	extern	_T2CNT
                                           	extern	_T2LOAD
                                           	extern	_T2DATA
                                           	extern	_T3CR
                                           	extern	_T3CNT
                                           	extern	_T3LOAD
                                           	extern	_PWM0DR
                                           	extern	_PWM1DR
                                           	extern	_PWM2DR
                                           	extern	_PWMCR0
                                           	extern	_PWMCR1
                                           	extern	_OSCMR
                                           	extern	_LVDCR
                                           	extern	_ADCR0
                                           	extern	_ADCR1
                                           	extern	_ADCR2
                                           	extern	_OSADJCR
                                           	extern	_ADRH
                                           	extern	_ADRL
                                           	extern	_P0ADCR
                                           	extern	_P1ADCR
                                           	extern	_IOP2
                                           	extern	_OEP2
                                           	extern	_PUP2
                                           	extern	_PDP2
                                           	extern	_PMOD
                                           	extern	_PWMCR3
                                           	extern	_PWMCR2
                                           	extern	_PFRCCR
                                           	extern	_PFRCCAL
                                           	extern	_EECR
                                           	extern	_EEPR
                                           	extern	_EEAR
                                           	extern	_EEDRH
                                           	extern	_EEDRL
                                           	extern	_DBGCR
                                           	extern	_DBGPR
                                           	extern	_HIRCCAL
                                           	extern	__gptrget2
                                           	extern	__mulchar
                                           	extern	__gptrget1
                                           ;--------------------------------------------------------
                                           ; global declarations
                                           ;--------------------------------------------------------
                                           	global	_Sys_Init
                                           	global	_TIMER2_INT_Init
                                           	global	_IO_Init
                                           	global	_CLR_RAM
                                           	global	_delay_ms
                                           	global	_send_data_msb
                                           	global	_delay_100us
                                           	global	_delay_200us
                                           	global	_delay_1_4ms
                                           	global	_EEPROM_Write_Byte
                                           	global	_EEPROM_Read_Byte
                                           	global	_EEPROM_Write_Data
                                           	global	_send_cmd_16bit
                                           	global	_main
                                           	global	_int_isr
                                           	global	_cur_auto_period
                                           	global	_cur_led_status
                                           	global	_cur_r3c4_status
                                           	global	_abuf
                                           	global	_statusbuf
                                           	global	_flag1
                                           	global	_ir_data
                                           	global	_table
                                           
                                           	global STK06
                                           	global STK05
                                           	global STK04
                                           	global STK03
                                           	global STK02
                                           	global STK01
                                           	global STK00
                                           
                                           sharebank udata_ovr 0x0000
                                           STK06	res 1
                                           STK05	res 1
                                           STK04	res 1
                                           STK03	res 1
                                           STK02	res 1
                                           STK01	res 1
                                           STK00	res 1
                                           
                                           ;--------------------------------------------------------
                                           ; global definitions
                                           ;--------------------------------------------------------
                                           UD_MC32F7361_0	udata
                                           _cur_auto_period	res	1
                                           
                                           UD_MC32F7361_1	udata
                                           _cur_led_status	res	1
                                           
                                           UD_MC32F7361_2	udata
                                           _cur_r3c4_status	res	1
                                           
                                           UD_MC32F7361_3	udata
                                           _abuf	res	1
                                           
                                           UD_MC32F7361_4	udata
                                           _statusbuf	res	1
                                           
                                           UD_MC32F7361_5	udata
                                           _flag1	res	1
                                           
                                           UD_MC32F7361_6	udata
                                           _ir_data	res	1
                                           
                                           ;--------------------------------------------------------
                                           ; absolute symbol definitions
                                           ;--------------------------------------------------------
                                           ;--------------------------------------------------------
                                           ; compiler-defined variables
                                           ;--------------------------------------------------------
                                           UDL_MC32F7361_0	udata
                                           r0x1011	res	1
                                           r0x1010	res	1
                                           r0x1012	res	1
                                           r0x1013	res	1
                                           r0x1014	res	1
                                           r0x1015	res	1
                                           r0x1039	res	1
                                           r0x1038	res	1
                                           r0x1037	res	1
                                           r0x1036	res	1
                                           r0x103A	res	1
                                           r0x103B	res	1
                                           r0x103F	res	1
                                           r0x103E	res	1
                                           r0x103D	res	1
                                           r0x103C	res	1
                                           r0x1034	res	1
                                           r0x1035	res	1
                                           r0x1025	res	1
                                           r0x1026	res	1
                                           r0x1030	res	1
                                           r0x1031	res	1
                                           r0x1033	res	1
                                           r0x1032	res	1
                                           r0x1028	res	1
                                           r0x102B	res	1
                                           r0x102A	res	1
                                           r0x1029	res	1
                                           r0x102C	res	1
                                           r0x102D	res	1
                                           r0x102F	res	1
                                           r0x102E	res	1
                                           r0x1017	res	1
                                           r0x1016	res	1
                                           r0x1018	res	1
                                           r0x1019	res	1
                                           r0x101B	res	1
                                           r0x101A	res	1
                                           r0x101C	res	1
                                           r0x101D	res	1
                                           r0x101E	res	1
                                           r0x101F	res	1
                                           r0x1020	res	1
                                           r0x1021	res	1
                                           r0x1022	res	1
                                           r0x1023	res	1
                                           r0x1040	res	1
                                           r0x1041	res	1
                                           _main_tmp_262144_58	res	2
                                           _int_isr_ir_level_cnt_196608_73	res	2
                                           _int_isr_ir_fliter_196608_73	res	1
                                           _int_isr___ir_data_196608_73	res	1
                                           _int_isr_ir_long_press_cnt_196608_73	res	2
                                           _int_isr_cnt_100us_196608_89	res	1
                                           _int_isr_auto_period_cnt_327680_91	res	2
                                           ;--------------------------------------------------------
                                           ; initialized data
                                           ;--------------------------------------------------------
                                           
                                           ID_MC32F7361_0	code
                                           _table
000342   0080     dw      0x80             	dw 0x80
000343   0096     dw      0x96             	dw 0x96
000344   0045     dw      0x45             	dw 0x45
000345   000f     dw      0xf              	dw 0x0f
000346   0011     deca                     	dw 0x11
000347   0090     dw      0x90             	dw 0x90
000348   0000     nop                      	dw 0x00
000349   0011     deca                     	dw 0x11
00034a   00ff     dw      0xff             	dw 0xff
00034b   00ff     dw      0xff             	dw 0xff
00034c   00b8     dw      0xb8             	dw 0xb8
00034d   0000     nop                      	dw 0x00
00034e   0022     dw      0x22             	dw 0x22
00034f   00ff     dw      0xff             	dw 0xff
000350   00ff     dw      0xff             	dw 0xff
000351   00f8     dw      0xf8             	dw 0xf8
000352   0000     nop                      	dw 0x00
000353   0044     dw      0x44             	dw 0x44
000354   00ff     dw      0xff             	dw 0xff
000355   00ff     dw      0xff             	dw 0xff
000356   00b0     dw      0xb0             	dw 0xb0
000357   0096     dw      0x96             	dw 0x96
000358   0045     dw      0x45             	dw 0x45
000359   0010     djza                     	dw 0x10
00035a   0077     dw      0x77             	dw 0x77
00035b   0098     dw      0x98             	dw 0x98
00035c   009f     dw      0x9f             	dw 0x9f
00035d   0000     nop                      	dw 0x00
00035e   0010     djza                     	dw 0x10
00035f   0033     dw      0x33             	dw 0x33
000360   00d8     dw      0xd8             	dw 0xd8
000361   0090     dw      0x90             	dw 0x90
000362   00f1     dw      0xf1             	dw 0xf1
000363   0010     djza                     	dw 0x10
000364   0066     dw      0x66             	dw 0x66
000365   0088     dw      0x88             	dw 0x88
000366   0093     dw      0x93             	dw 0x93
000367   000f     dw      0xf              	dw 0x0f
000368   0010     djza                     	dw 0x10
000369   0055     dw      0x55             	dw 0x55
00036a   00e8     dw      0xe8             	dw 0xe8
00036b   009f     dw      0x9f             	dw 0x9f
00036c   0010     djza                     	dw 0x10
00036d   0010     djza                     	dw 0x10
00036e   0033     dw      0x33             	dw 0x33
00036f   0048     dw      0x48             	dw 0x48
000370   0090     dw      0x90             	dw 0x90
000371   00f8     dw      0xf8             	dw 0xf8
000372   0010     djza                     	dw 0x10
000373   0066     dw      0x66             	dw 0x66
000374   0068     dw      0x68             	dw 0x68
000375   0098     dw      0x98             	dw 0x98
000376   000f     dw      0xf              	dw 0x0f
000377   0010     djza                     	dw 0x10
000378   0055     dw      0x55             	dw 0x55
000379   0002     dw      0x2              	dw 0x02
00037a   009f     dw      0x9f             	dw 0x9f
00037b   0030     dw      0x30             	dw 0x30
00037c   0010     djza                     	dw 0x10
00037d   0033     dw      0x33             	dw 0x33
00037e   0032     dw      0x32             	dw 0x32
00037f   0090     dw      0x90             	dw 0x90
000380   00fc     dw      0xfc             	dw 0xfc
000381   0010     djza                     	dw 0x10
000382   0066     dw      0x66             	dw 0x66
000383   0020     dw      0x20             	dw 0x20
000384   009f     dw      0x9f             	dw 0x9f
000385   000f     dw      0xf              	dw 0x0f
000386   0010     djza                     	dw 0x10
000387   0055     dw      0x55             	dw 0x55
000388   0050     dw      0x50             	dw 0x50
000389   009f     dw      0x9f             	dw 0x9f
00038a   00f0     dw      0xf0             	dw 0xf0
00038b   0010     djza                     	dw 0x10
00038c   0033     dw      0x33             	dw 0x33
00038d   0078     dw      0x78             	dw 0x78
00038e   0090     dw      0x90             	dw 0x90
00038f   00ff     dw      0xff             	dw 0xff
000390   0010     djza                     	dw 0x10
000391   0066     dw      0x66             	dw 0x66
000392   0070     dw      0x70             	dw 0x70
000393   009f     dw      0x9f             	dw 0x9f
000394   0003     dw      0x3              	dw 0x03
000395   0010     djza                     	dw 0x10
000396   0055     dw      0x55             	dw 0x55
                                           
                                           
                                           ;@Allocation info for local variables in function 'delay_ms'
                                           ;@delay_ms Sys_Init                  Allocated to registers ;size:2
                                           ;@delay_ms CLR_RAM                   Allocated to registers ;size:2
                                           ;@delay_ms IO_Init                   Allocated to registers ;size:2
                                           ;@delay_ms TIMER2_INT_Init           Allocated to registers ;size:2
                                           ;@delay_ms delay_ms                  Allocated to registers ;size:2
                                           ;@delay_ms INDF0bits                 Allocated to registers ;size:1
                                           ;@delay_ms INDF1bits                 Allocated to registers ;size:1
                                           ;@delay_ms INDF2bits                 Allocated to registers ;size:1
                                           ;@delay_ms HIBYTEbits                Allocated to registers ;size:1
                                           ;@delay_ms FSR0bits                  Allocated to registers ;size:1
                                           ;@delay_ms FSR1bits                  Allocated to registers ;size:1
                                           ;@delay_ms PCLbits                   Allocated to registers ;size:1
                                           ;@delay_ms PFLAGbits                 Allocated to registers ;size:1
                                           ;@delay_ms MCRbits                   Allocated to registers ;size:1
                                           ;@delay_ms INDF3bits                 Allocated to registers ;size:1
                                           ;@delay_ms INTEbits                  Allocated to registers ;size:1
                                           ;@delay_ms INTFbits                  Allocated to registers ;size:1
                                           ;@delay_ms DRVCRbits                 Allocated to registers ;size:1
                                           ;@delay_ms P0KBCRbits                Allocated to registers ;size:1
                                           ;@delay_ms P1KBCRbits                Allocated to registers ;size:1
                                           ;@delay_ms P2KBCRbits                Allocated to registers ;size:1
                                           ;@delay_ms IOP0bits                  Allocated to registers ;size:1
                                           ;@delay_ms OEP0bits                  Allocated to registers ;size:1
                                           ;@delay_ms PUP0bits                  Allocated to registers ;size:1
                                           ;@delay_ms PDP0bits                  Allocated to registers ;size:1
                                           ;@delay_ms IOP1bits                  Allocated to registers ;size:1
                                           ;@delay_ms OEP1bits                  Allocated to registers ;size:1
                                           ;@delay_ms PUP1bits                  Allocated to registers ;size:1
                                           ;@delay_ms PDP1bits                  Allocated to registers ;size:1
                                           ;@delay_ms T0CRbits                  Allocated to registers ;size:1
                                           ;@delay_ms T0CNTbits                 Allocated to registers ;size:1
                                           ;@delay_ms T0LOADbits                Allocated to registers ;size:1
                                           ;@delay_ms T0DATAbits                Allocated to registers ;size:1
                                           ;@delay_ms T1CRbits                  Allocated to registers ;size:1
                                           ;@delay_ms T1CNTbits                 Allocated to registers ;size:1
                                           ;@delay_ms T1LOADbits                Allocated to registers ;size:1
                                           ;@delay_ms T1DATAbits                Allocated to registers ;size:1
                                           ;@delay_ms T2CRbits                  Allocated to registers ;size:1
                                           ;@delay_ms T2CNTbits                 Allocated to registers ;size:1
                                           ;@delay_ms T2LOADbits                Allocated to registers ;size:1
                                           ;@delay_ms T2DATAbits                Allocated to registers ;size:1
                                           ;@delay_ms T3CRbits                  Allocated to registers ;size:1
                                           ;@delay_ms T3CNTbits                 Allocated to registers ;size:1
                                           ;@delay_ms T3LOADbits                Allocated to registers ;size:1
                                           ;@delay_ms PWM0DRbits                Allocated to registers ;size:1
                                           ;@delay_ms PWM1DRbits                Allocated to registers ;size:1
                                           ;@delay_ms PWM2DRbits                Allocated to registers ;size:1
                                           ;@delay_ms PWMCR0bits                Allocated to registers ;size:1
                                           ;@delay_ms PWMCR1bits                Allocated to registers ;size:1
                                           ;@delay_ms OSCMRbits                 Allocated to registers ;size:1
                                           ;@delay_ms LVDCRbits                 Allocated to registers ;size:1
                                           ;@delay_ms ADCR0bits                 Allocated to registers ;size:1
                                           ;@delay_ms ADCR1bits                 Allocated to registers ;size:1
                                           ;@delay_ms ADCR2bits                 Allocated to registers ;size:1
                                           ;@delay_ms OSADJCRbits               Allocated to registers ;size:1
                                           ;@delay_ms ADRHbits                  Allocated to registers ;size:1
                                           ;@delay_ms ADRLbits                  Allocated to registers ;size:1
                                           ;@delay_ms P0ADCRbits                Allocated to registers ;size:1
                                           ;@delay_ms P1ADCRbits                Allocated to registers ;size:1
                                           ;@delay_ms IOP2bits                  Allocated to registers ;size:1
                                           ;@delay_ms OEP2bits                  Allocated to registers ;size:1
                                           ;@delay_ms PUP2bits                  Allocated to registers ;size:1
                                           ;@delay_ms PDP2bits                  Allocated to registers ;size:1
                                           ;@delay_ms PMODbits                  Allocated to registers ;size:1
                                           ;@delay_ms PWMCR3bits                Allocated to registers ;size:1
                                           ;@delay_ms PWMCR2bits                Allocated to registers ;size:1
                                           ;@delay_ms PFRCCRbits                Allocated to registers ;size:1
                                           ;@delay_ms PFRCCALbits               Allocated to registers ;size:1
                                           ;@delay_ms EECRbits                  Allocated to registers ;size:1
                                           ;@delay_ms EEPRbits                  Allocated to registers ;size:1
                                           ;@delay_ms EEARbits                  Allocated to registers ;size:1
                                           ;@delay_ms EEDRHbits                 Allocated to registers ;size:1
                                           ;@delay_ms EEDRLbits                 Allocated to registers ;size:1
                                           ;@delay_ms DBGCRbits                 Allocated to registers ;size:1
                                           ;@delay_ms DBGPRbits                 Allocated to registers ;size:1
                                           ;@delay_ms HIRCCALbits               Allocated to registers ;size:1
                                           ;@delay_ms cur_auto_period           Allocated to registers ;size:1
                                           ;@delay_ms cur_led_status            Allocated to registers ;size:1
                                           ;@delay_ms cur_r3c4_status           Allocated to registers ;size:1
                                           ;@delay_ms abuf                      Allocated to registers ;size:1
                                           ;@delay_ms statusbuf                 Allocated to registers ;size:1
                                           ;@delay_ms flag1                     Allocated to registers ;size:1
                                           ;@delay_ms ir_data                   Allocated to registers ;size:1
                                           ;@delay_ms xms                       Allocated to registers ;size:2
                                           ;@delay_ms i                         Allocated to registers r0x1012 r0x1013 ;size:2
                                           ;@delay_ms INDF0                     Allocated to registers ;size:1
                                           ;@delay_ms INDF1                     Allocated to registers ;size:1
                                           ;@delay_ms INDF2                     Allocated to registers ;size:1
                                           ;@delay_ms HIBYTE                    Allocated to registers ;size:1
                                           ;@delay_ms FSR0                      Allocated to registers ;size:1
                                           ;@delay_ms FSR1                      Allocated to registers ;size:1
                                           ;@delay_ms PCL                       Allocated to registers ;size:1
                                           ;@delay_ms PFLAG                     Allocated to registers ;size:1
                                           ;@delay_ms MCR                       Allocated to registers ;size:1
                                           ;@delay_ms INDF3                     Allocated to registers ;size:1
                                           ;@delay_ms INTE                      Allocated to registers ;size:1
                                           ;@delay_ms INTF                      Allocated to registers ;size:1
                                           ;@delay_ms DRVCR                     Allocated to registers ;size:1
                                           ;@delay_ms P0KBCR                    Allocated to registers ;size:1
                                           ;@delay_ms P1KBCR                    Allocated to registers ;size:1
                                           ;@delay_ms P2KBCR                    Allocated to registers ;size:1
                                           ;@delay_ms IOP0                      Allocated to registers ;size:1
                                           ;@delay_ms OEP0                      Allocated to registers ;size:1
                                           ;@delay_ms PUP0                      Allocated to registers ;size:1
                                           ;@delay_ms PDP0                      Allocated to registers ;size:1
                                           ;@delay_ms IOP1                      Allocated to registers ;size:1
                                           ;@delay_ms OEP1                      Allocated to registers ;size:1
                                           ;@delay_ms PUP1                      Allocated to registers ;size:1
                                           ;@delay_ms PDP1                      Allocated to registers ;size:1
                                           ;@delay_ms T0CR                      Allocated to registers ;size:1
                                           ;@delay_ms T0CNT                     Allocated to registers ;size:1
                                           ;@delay_ms T0LOAD                    Allocated to registers ;size:1
                                           ;@delay_ms T0DATA                    Allocated to registers ;size:1
                                           ;@delay_ms T1CR                      Allocated to registers ;size:1
                                           ;@delay_ms T1CNT                     Allocated to registers ;size:1
                                           ;@delay_ms T1LOAD                    Allocated to registers ;size:1
                                           ;@delay_ms T1DATA                    Allocated to registers ;size:1
                                           ;@delay_ms T2CR                      Allocated to registers ;size:1
                                           ;@delay_ms T2CNT                     Allocated to registers ;size:1
                                           ;@delay_ms T2LOAD                    Allocated to registers ;size:1
                                           ;@delay_ms T2DATA                    Allocated to registers ;size:1
                                           ;@delay_ms T3CR                      Allocated to registers ;size:1
                                           ;@delay_ms T3CNT                     Allocated to registers ;size:1
                                           ;@delay_ms T3LOAD                    Allocated to registers ;size:1
                                           ;@delay_ms PWM0DR                    Allocated to registers ;size:1
                                           ;@delay_ms PWM1DR                    Allocated to registers ;size:1
                                           ;@delay_ms PWM2DR                    Allocated to registers ;size:1
                                           ;@delay_ms PWMCR0                    Allocated to registers ;size:1
                                           ;@delay_ms PWMCR1                    Allocated to registers ;size:1
                                           ;@delay_ms OSCMR                     Allocated to registers ;size:1
                                           ;@delay_ms LVDCR                     Allocated to registers ;size:1
                                           ;@delay_ms ADCR0                     Allocated to registers ;size:1
                                           ;@delay_ms ADCR1                     Allocated to registers ;size:1
                                           ;@delay_ms ADCR2                     Allocated to registers ;size:1
                                           ;@delay_ms OSADJCR                   Allocated to registers ;size:1
                                           ;@delay_ms ADRH                      Allocated to registers ;size:1
                                           ;@delay_ms ADRL                      Allocated to registers ;size:1
                                           ;@delay_ms P0ADCR                    Allocated to registers ;size:1
                                           ;@delay_ms P1ADCR                    Allocated to registers ;size:1
                                           ;@delay_ms IOP2                      Allocated to registers ;size:1
                                           ;@delay_ms OEP2                      Allocated to registers ;size:1
                                           ;@delay_ms PUP2                      Allocated to registers ;size:1
                                           ;@delay_ms PDP2                      Allocated to registers ;size:1
                                           ;@delay_ms PMOD                      Allocated to registers ;size:1
                                           ;@delay_ms PWMCR3                    Allocated to registers ;size:1
                                           ;@delay_ms PWMCR2                    Allocated to registers ;size:1
                                           ;@delay_ms PFRCCR                    Allocated to registers ;size:1
                                           ;@delay_ms PFRCCAL                   Allocated to registers ;size:1
                                           ;@delay_ms EECR                      Allocated to registers ;size:1
                                           ;@delay_ms EEPR                      Allocated to registers ;size:1
                                           ;@delay_ms EEAR                      Allocated to registers ;size:1
                                           ;@delay_ms EEDRH                     Allocated to registers ;size:1
                                           ;@delay_ms EEDRL                     Allocated to registers ;size:1
                                           ;@delay_ms DBGCR                     Allocated to registers ;size:1
                                           ;@delay_ms DBGPR                     Allocated to registers ;size:1
                                           ;@delay_ms HIRCCAL                   Allocated to registers ;size:1
                                           ;@end Allocation info for local variables in function 'delay_ms';
                                           ;@Allocation info for local variables in function 'send_data_msb'
                                           ;@send_data_msb send_data                 Allocated to registers r0x1039 r0x1038 r0x1037 r0x1036 ;size:4
                                           ;@send_data_msb i                         Allocated to registers r0x103A ;size:1
                                           ;@end Allocation info for local variables in function 'send_data_msb';
                                           ;@Allocation info for local variables in function 'delay_100us'
                                           ;@delay_100us i                         Allocated to registers r0x1010 ;size:1
                                           ;@end Allocation info for local variables in function 'delay_100us';
                                           ;@Allocation info for local variables in function 'delay_200us'
                                           ;@delay_200us i                         Allocated to registers r0x1034 ;size:1
                                           ;@end Allocation info for local variables in function 'delay_200us';
                                           ;@Allocation info for local variables in function 'delay_1_4ms'
                                           ;@delay_1_4ms i                         Allocated to registers r0x1012 ;size:1
                                           ;@end Allocation info for local variables in function 'delay_1_4ms';
                                           ;@Allocation info for local variables in function 'EEPROM_Write_Byte'
                                           ;@EEPROM_Write_Byte data                      Allocated to registers r0x1025 r0x1024 ;size:2
                                           ;@EEPROM_Write_Byte addr                      Allocated to registers ;size:1
                                           ;@end Allocation info for local variables in function 'EEPROM_Write_Byte';
                                           ;@Allocation info for local variables in function 'EEPROM_Read_Byte'
                                           ;@EEPROM_Read_Byte addr                      Allocated to registers ;size:1
                                           ;@EEPROM_Read_Byte EEDR                      Allocated to registers r0x1033 r0x1032 ;size:2
                                           ;@end Allocation info for local variables in function 'EEPROM_Read_Byte';
                                           ;@Allocation info for local variables in function 'EEPROM_Write_Data'
                                           ;@EEPROM_Write_Data len                       Allocated to registers ;size:1
                                           ;@EEPROM_Write_Data data                      Allocated to registers ;size:3
                                           ;@EEPROM_Write_Data addr                      Allocated to registers ;size:1
                                           ;@end Allocation info for local variables in function 'EEPROM_Write_Data';
                                           ;@Allocation info for local variables in function 'send_cmd_16bit'
                                           ;@send_cmd_16bit data                      Allocated to registers r0x1017 r0x1016 ;size:2
                                           ;@send_cmd_16bit i                         Allocated to registers r0x1018 ;size:1
                                           ;@end Allocation info for local variables in function 'send_cmd_16bit';
                                           ;@Allocation info for local variables in function 'CLR_RAM'
                                           ;@end Allocation info for local variables in function 'CLR_RAM';
                                           ;@Allocation info for local variables in function 'IO_Init'
                                           ;@end Allocation info for local variables in function 'IO_Init';
                                           ;@Allocation info for local variables in function 'TIMER2_INT_Init'
                                           ;@end Allocation info for local variables in function 'TIMER2_INT_Init';
                                           ;@Allocation info for local variables in function 'Sys_Init'
                                           ;@end Allocation info for local variables in function 'Sys_Init';
                                           ;@Allocation info for local variables in function 'main'
                                           ;@main tmp                       Allocated to registers ;size:2
                                           ;@main i                         Allocated to registers r0x101C ;size:1
                                           ;@main tmp                       Allocated to registers r0x101F r0x1020 ;size:2
                                           ;@end Allocation info for local variables in function 'main';
                                           ;@Allocation info for local variables in function 'int_isr'
                                           ;@int_isr ir_fliter                 Allocated to registers ;size:1
                                           ;@int_isr ir_level_cnt              Allocated to registers ;size:2
                                           ;@int_isr __ir_data                 Allocated to registers ;size:1
                                           ;@int_isr ir_long_press_cnt         Allocated to registers ;size:2
                                           ;@int_isr cnt_100us                 Allocated to registers ;size:1
                                           ;@int_isr auto_period_cnt           Allocated to registers ;size:2
                                           ;@int_isr flag_is_period_arrive     Allocated to registers ;size:1
                                           ;@end Allocation info for local variables in function 'int_isr';
                                           
                                           ;--------------------------------------------------------
                                           ; overlayable items in internal ram 
                                           ;--------------------------------------------------------
                                           ;	udata_ovr
                                           ;--------------------------------------------------------
                                           ; reset vector 
                                           ;--------------------------------------------------------
                                           STARTUP	code 0x0000
000000   a0e5     goto    0xe5             	goto	_main
                                           ;--------------------------------------------------------
                                           ; interrupt and initialization code
                                           ;--------------------------------------------------------
                                           c_interrupt	code	0x8
                                           __sdcc_interrupt
                                           ;***
                                           ;  pBlock Stats: dbName = I
                                           ;***
                                           ;entry:  _int_isr	;Function start
                                           ; 0 exit points
                                           ;2 compiler assigned registers:
                                           ;   r0x1040
                                           ;   r0x1041
                                           ;; Starting pCode block
                                           _int_isr	;Function start
                                           ; 0 exit points
                                           ;	.line	386; "MC32F7361.c"	__endasm;
                                           	;
000008   564a     movra   0x4a             	movra	_abuf;
000009   4587     swapar  0x187            	swapar	_PFLAG;
00000a   564b     movra   0x4b             	movra	_statusbuf;
                                           	
                                           ;	.line	400; "MC32F7361.c"	if (T2IF & T2IE)
00000b   7635     clrr    0x35             	CLRR	r0x1040
00000c   fb8b     jbclr   0x18b, 0x5       	JBCLR	_INTFbits,5
00000d   6635     incr    0x35             	INCR	r0x1040
00000e   7636     clrr    0x36             	CLRR	r0x1041
00000f   fb8a     jbclr   0x18a, 0x5       	JBCLR	_INTEbits,5
000010   6636     incr    0x36             	INCR	r0x1041
000011   5836     movar   0x36             	MOVAR	r0x1041
000012   7a35     andra   0x35             	ANDRA	r0x1040
000013   3c00     movai   0                	MOVAI	0x00
000014   5c35     orar    0x35             	ORAR	r0x1040
000015   f587     jbclr   0x187, 0x2       	JBCLR	PFLAG,2
000016   a0e0     goto    0xe0             	GOTO	_00426_DS_
                                           ;	.line	402; "MC32F7361.c"	T2IF = 0;
000017   db8b     bclr    0x18b, 0x5       	BCLR	_INTFbits,5
                                           ;	.line	411; "MC32F7361.c"	ir_level_cnt++;
000018   6639     incr    0x39             	INCR	_int_isr_ir_level_cnt_196608_73
000019   f587     jbclr   0x187, 0x2       	JBCLR	PFLAG,2
00001a   663a     incr    0x3a             	INCR	(_int_isr_ir_level_cnt_196608_73 + 1)
                                           ;	.line	413; "MC32F7361.c"	ir_fliter <<= 1;
00001b   583b     movar   0x3b             	MOVAR	_int_isr_ir_fliter_196608_73
00001c   5635     movra   0x35             	MOVRA	r0x1040
00001d   d187     bclr    0x187, 0         	BCLR	PFLAG,0
00001e   5035     rlar    0x35             	RLAR	r0x1040
00001f   563b     movra   0x3b             	MOVRA	_int_isr_ir_fliter_196608_73
                                           ;	.line	414; "MC32F7361.c"	if (IR_RECV_PIN)
000020   eb94     jbset   0x194, 0x5       	JBSET	_IOP1bits,5
000021   a023     goto    0x23             	GOTO	_00372_DS_
                                           ;	.line	416; "MC32F7361.c"	ir_fliter |= 1;
000022   c03b     bset    0x3b, 0          	BSET	_int_isr_ir_fliter_196608_73,0
                                           _00372_DS_
                                           ;	.line	418; "MC32F7361.c"	ir_fliter &= 0x07;
000023   3c07     movai   0x7              	MOVAI	0x07
000024   7a3b     andra   0x3b             	ANDRA	_int_isr_ir_fliter_196608_73
                                           ;	.line	420; "MC32F7361.c"	if (ir_fliter == 0x07)
000025   583b     movar   0x3b             	MOVAR	_int_isr_ir_fliter_196608_73
000026   3907     xorai   0x7              	XORAI	0x07
000027   e587     jbset   0x187, 0x2       	JBSET	PFLAG,2
000028   a02b     goto    0x2b             	GOTO	_00376_DS_
                                           ;	.line	421; "MC32F7361.c"	filter_level = 1;
000029   c64c     bset    0x4c, 0x3        	BSET	_flag1,3
00002a   a030     goto    0x30             	GOTO	_00377_DS_
                                           _00376_DS_
                                           ;	.line	422; "MC32F7361.c"	else if (ir_fliter == 0x00)
00002b   3c00     movai   0                	MOVAI	0x00
00002c   5c3b     orar    0x3b             	ORAR	_int_isr_ir_fliter_196608_73
00002d   e587     jbset   0x187, 0x2       	JBSET	PFLAG,2
00002e   a030     goto    0x30             	GOTO	_00377_DS_
                                           ;	.line	423; "MC32F7361.c"	filter_level = 0;
00002f   d64c     bclr    0x4c, 0x3        	BCLR	_flag1,3
                                           _00377_DS_
                                           ;	.line	425; "MC32F7361.c"	if (filter_level)
000030   e64c     jbset   0x4c, 0x3        	JBSET	_flag1,3
000031   a047     goto    0x47             	GOTO	_00406_DS_
                                           ;	.line	427; "MC32F7361.c"	last_level_in_ir_pin = 1; // 
000032   c44c     bset    0x4c, 0x2        	BSET	_flag1,2
                                           ;;swapping arguments (AOP_TYPEs 1/3)
                                           ;;unsigned compare: left >= lit(0x4B1=1201), size=2
                                           ;	.line	430; "MC32F7361.c"	if (ir_level_cnt > 1200) // (120000us,120ms)
000033   3c04     movai   0x4              	MOVAI	0x04
000034   483a     rsubar  0x3a             	RSUBAR	(_int_isr_ir_level_cnt_196608_73 + 1)
000035   e587     jbset   0x187, 0x2       	JBSET	PFLAG,2
000036   a039     goto    0x39             	GOTO	_00517_DS_
000037   3cb1     movai   0xb1             	MOVAI	0xb1
000038   4839     rsubar  0x39             	RSUBAR	_int_isr_ir_level_cnt_196608_73
                                           _00517_DS_
000039   e187     jbset   0x187, 0         	JBSET	PFLAG,0
00003a   a096     goto    0x96             	GOTO	_00407_DS_
                                           ;;genSkipc:3291: created from rifx:013B5EFC
                                           ;	.line	433; "MC32F7361.c"	if (__ir_data != 0) // (__ir_data)
00003b   3c00     movai   0                	MOVAI	0x00
00003c   5c3c     orar    0x3c             	ORAR	_int_isr___ir_data_196608_73
00003d   f587     jbclr   0x187, 0x2       	JBCLR	PFLAG,2
00003e   a045     goto    0x45             	GOTO	_00381_DS_
                                           ;	.line	442; "MC32F7361.c"	if (0 == flag_is_recved_data)
00003f   f04c     jbclr   0x4c, 0          	JBCLR	_flag1,0
000040   a045     goto    0x45             	GOTO	_00381_DS_
                                           ;	.line	444; "MC32F7361.c"	ir_data = ~__ir_data;
000041   703c     comar   0x3c             	COMAR	_int_isr___ir_data_196608_73
000042   564d     movra   0x4d             	MOVRA	_ir_data
                                           ;	.line	445; "MC32F7361.c"	__ir_data = 0;
000043   763c     clrr    0x3c             	CLRR	_int_isr___ir_data_196608_73
                                           ;	.line	446; "MC32F7361.c"	flag_is_recved_data = 1;
000044   c04c     bset    0x4c, 0          	BSET	_flag1,0
                                           _00381_DS_
                                           ;	.line	450; "MC32F7361.c"	flag_is_recv_ir_repeat_code = 0; // 
000045   d84c     bclr    0x4c, 0x4        	BCLR	_flag1,4
000046   a096     goto    0x96             	GOTO	_00407_DS_
                                           _00406_DS_
                                           ;	.line	455; "MC32F7361.c"	if (last_level_in_ir_pin)
000047   e44c     jbset   0x4c, 0x2        	JBSET	_flag1,2
000048   a095     goto    0x95             	GOTO	_00404_DS_
                                           ;;swapping arguments (AOP_TYPEs 1/3)
                                           ;;unsigned compare: left >= lit(0x9=9), size=2
                                           ;	.line	458; "MC32F7361.c"	if (ir_level_cnt <= 8) // 800us
000049   3c00     movai   0                	MOVAI	0x00
00004a   483a     rsubar  0x3a             	RSUBAR	(_int_isr_ir_level_cnt_196608_73 + 1)
00004b   e587     jbset   0x187, 0x2       	JBSET	PFLAG,2
00004c   a04f     goto    0x4f             	GOTO	_00518_DS_
00004d   3c09     movai   0x9              	MOVAI	0x09
00004e   4839     rsubar  0x39             	RSUBAR	_int_isr_ir_level_cnt_196608_73
                                           _00518_DS_
00004f   e187     jbset   0x187, 0         	JBSET	PFLAG,0
000050   a093     goto    0x93             	GOTO	_00402_DS_
                                           ;;genSkipc:3291: created from rifx:013B5EFC
                                           ;;swapping arguments (AOP_TYPEs 1/3)
                                           ;;unsigned compare: left >= lit(0x13=19), size=2
                                           ;	.line	463; "MC32F7361.c"	else if (ir_level_cnt <= 18) // 1800us,0
000051   3c00     movai   0                	MOVAI	0x00
000052   483a     rsubar  0x3a             	RSUBAR	(_int_isr_ir_level_cnt_196608_73 + 1)
000053   e587     jbset   0x187, 0x2       	JBSET	PFLAG,2
000054   a057     goto    0x57             	GOTO	_00519_DS_
000055   3c13     movai   0x13             	MOVAI	0x13
000056   4839     rsubar  0x39             	RSUBAR	_int_isr_ir_level_cnt_196608_73
                                           _00519_DS_
000057   f187     jbclr   0x187, 0         	JBCLR	PFLAG,0
000058   a05f     goto    0x5f             	GOTO	_00398_DS_
                                           ;;genSkipc:3291: created from rifx:013B5EFC
                                           ;	.line	465; "MC32F7361.c"	__ir_data <<= 1;
000059   583c     movar   0x3c             	MOVAR	_int_isr___ir_data_196608_73
00005a   5635     movra   0x35             	MOVRA	r0x1040
00005b   d187     bclr    0x187, 0         	BCLR	PFLAG,0
00005c   5035     rlar    0x35             	RLAR	r0x1040
00005d   563c     movra   0x3c             	MOVRA	_int_isr___ir_data_196608_73
00005e   a093     goto    0x93             	GOTO	_00402_DS_
                                           ;;swapping arguments (AOP_TYPEs 1/3)
                                           ;;unsigned compare: left >= lit(0x1B=27), size=2
                                           _00398_DS_
                                           ;	.line	470; "MC32F7361.c"	else if (ir_level_cnt <= 26) // 2600us,1
00005f   3c00     movai   0                	MOVAI	0x00
000060   483a     rsubar  0x3a             	RSUBAR	(_int_isr_ir_level_cnt_196608_73 + 1)
000061   e587     jbset   0x187, 0x2       	JBSET	PFLAG,2
000062   a065     goto    0x65             	GOTO	_00520_DS_
000063   3c1b     movai   0x1b             	MOVAI	0x1b
000064   4839     rsubar  0x39             	RSUBAR	_int_isr_ir_level_cnt_196608_73
                                           _00520_DS_
000065   f187     jbclr   0x187, 0         	JBCLR	PFLAG,0
000066   a06e     goto    0x6e             	GOTO	_00395_DS_
                                           ;;genSkipc:3291: created from rifx:013B5EFC
                                           ;	.line	472; "MC32F7361.c"	__ir_data <<= 1;
000067   583c     movar   0x3c             	MOVAR	_int_isr___ir_data_196608_73
000068   5635     movra   0x35             	MOVRA	r0x1040
000069   d187     bclr    0x187, 0         	BCLR	PFLAG,0
00006a   5035     rlar    0x35             	RLAR	r0x1040
00006b   563c     movra   0x3c             	MOVRA	_int_isr___ir_data_196608_73
                                           ;	.line	473; "MC32F7361.c"	__ir_data |= 0x01;
00006c   c03c     bset    0x3c, 0          	BSET	_int_isr___ir_data_196608_73,0
00006d   a093     goto    0x93             	GOTO	_00402_DS_
                                           ;;swapping arguments (AOP_TYPEs 1/3)
                                           ;;unsigned compare: left >= lit(0x97=151), size=2
                                           _00395_DS_
                                           ;	.line	477; "MC32F7361.c"	else if (ir_level_cnt <= 150) // 15000us,
00006e   3c00     movai   0                	MOVAI	0x00
00006f   483a     rsubar  0x3a             	RSUBAR	(_int_isr_ir_level_cnt_196608_73 + 1)
000070   e587     jbset   0x187, 0x2       	JBSET	PFLAG,2
000071   a074     goto    0x74             	GOTO	_00521_DS_
000072   3c97     movai   0x97             	MOVAI	0x97
000073   4839     rsubar  0x39             	RSUBAR	_int_isr_ir_level_cnt_196608_73
                                           _00521_DS_
000074   e187     jbset   0x187, 0         	JBSET	PFLAG,0
000075   a093     goto    0x93             	GOTO	_00402_DS_
                                           ;;genSkipc:3291: created from rifx:013B5EFC
                                           ;;swapping arguments (AOP_TYPEs 1/3)
                                           ;;unsigned compare: left >= lit(0x1A5=421), size=2
                                           ;	.line	482; "MC32F7361.c"	else if (ir_level_cnt <= 420) // 42ms,
000076   3c01     movai   0x1              	MOVAI	0x01
000077   483a     rsubar  0x3a             	RSUBAR	(_int_isr_ir_level_cnt_196608_73 + 1)
000078   e587     jbset   0x187, 0x2       	JBSET	PFLAG,2
000079   a07c     goto    0x7c             	GOTO	_00522_DS_
00007a   3ca5     movai   0xa5             	MOVAI	0xa5
00007b   4839     rsubar  0x39             	RSUBAR	_int_isr_ir_level_cnt_196608_73
                                           _00522_DS_
00007c   f187     jbclr   0x187, 0         	JBCLR	PFLAG,0
00007d   a088     goto    0x88             	GOTO	_00389_DS_
                                           ;;genSkipc:3291: created from rifx:013B5EFC
                                           ;	.line	493; "MC32F7361.c"	if (0 == flag_is_recved_data)
00007e   f04c     jbclr   0x4c, 0          	JBCLR	_flag1,0
00007f   a093     goto    0x93             	GOTO	_00402_DS_
                                           ;	.line	495; "MC32F7361.c"	ir_data = ~__ir_data;
000080   703c     comar   0x3c             	COMAR	_int_isr___ir_data_196608_73
000081   564d     movra   0x4d             	MOVRA	_ir_data
                                           ;	.line	496; "MC32F7361.c"	__ir_data = 0;
000082   763c     clrr    0x3c             	CLRR	_int_isr___ir_data_196608_73
                                           ;	.line	497; "MC32F7361.c"	flag_is_recved_data = 1;
000083   c04c     bset    0x4c, 0          	BSET	_flag1,0
                                           ;	.line	498; "MC32F7361.c"	flag_is_recv_ir_repeat_code = 1; //
000084   c84c     bset    0x4c, 0x4        	BSET	_flag1,4
                                           ;	.line	499; "MC32F7361.c"	ir_long_press_cnt = 0;
000085   763d     clrr    0x3d             	CLRR	_int_isr_ir_long_press_cnt_196608_73
000086   763e     clrr    0x3e             	CLRR	(_int_isr_ir_long_press_cnt_196608_73 + 1)
000087   a093     goto    0x93             	GOTO	_00402_DS_
                                           ;;swapping arguments (AOP_TYPEs 1/3)
                                           ;;unsigned compare: left >= lit(0x4B1=1201), size=2
                                           _00389_DS_
                                           ;	.line	503; "MC32F7361.c"	else if (ir_level_cnt <= 1200) // 120000,120ms,
000088   3c04     movai   0x4              	MOVAI	0x04
000089   483a     rsubar  0x3a             	RSUBAR	(_int_isr_ir_level_cnt_196608_73 + 1)
00008a   e587     jbset   0x187, 0x2       	JBSET	PFLAG,2
00008b   a08e     goto    0x8e             	GOTO	_00523_DS_
00008c   3cb1     movai   0xb1             	MOVAI	0xb1
00008d   4839     rsubar  0x39             	RSUBAR	_int_isr_ir_level_cnt_196608_73
                                           _00523_DS_
00008e   f187     jbclr   0x187, 0         	JBCLR	PFLAG,0
00008f   a093     goto    0x93             	GOTO	_00402_DS_
                                           ;;genSkipc:3291: created from rifx:013B5EFC
                                           ;	.line	505; "MC32F7361.c"	ir_long_press_cnt++;
000090   663d     incr    0x3d             	INCR	_int_isr_ir_long_press_cnt_196608_73
000091   f587     jbclr   0x187, 0x2       	JBCLR	PFLAG,2
000092   663e     incr    0x3e             	INCR	(_int_isr_ir_long_press_cnt_196608_73 + 1)
                                           _00402_DS_
                                           ;	.line	511; "MC32F7361.c"	ir_level_cnt = 0;
000093   7639     clrr    0x39             	CLRR	_int_isr_ir_level_cnt_196608_73
000094   763a     clrr    0x3a             	CLRR	(_int_isr_ir_level_cnt_196608_73 + 1)
                                           _00404_DS_
                                           ;	.line	514; "MC32F7361.c"	last_level_in_ir_pin = 0; // 
000095   d44c     bclr    0x4c, 0x2        	BCLR	_flag1,2
                                           _00407_DS_
                                           ;	.line	520; "MC32F7361.c"	cnt_100us++;
000096   663f     incr    0x3f             	INCR	_int_isr_cnt_100us_196608_89
                                           ;;unsigned compare: left < lit(0xA=10), size=1
                                           ;	.line	521; "MC32F7361.c"	if (cnt_100us >= 10) //  1ms
000097   3c0a     movai   0xa              	MOVAI	0x0a
000098   483f     rsubar  0x3f             	RSUBAR	_int_isr_cnt_100us_196608_89
000099   e187     jbset   0x187, 0         	JBSET	PFLAG,0
00009a   a0e0     goto    0xe0             	GOTO	_00426_DS_
                                           ;;genSkipc:3291: created from rifx:013B5EFC
                                           ;	.line	523; "MC32F7361.c"	cnt_100us = 0;
00009b   763f     clrr    0x3f             	CLRR	_int_isr_cnt_100us_196608_89
                                           ;	.line	527; "MC32F7361.c"	if (cur_led_status == CUR_LED_STATUS_AUTO) //  AUTO 
00009c   5848     movar   0x48             	MOVAR	_cur_led_status
00009d   3901     xorai   0x1              	XORAI	0x01
00009e   e587     jbset   0x187, 0x2       	JBSET	PFLAG,2
00009f   a0de     goto    0xde             	GOTO	_00421_DS_
                                           ;	.line	530; "MC32F7361.c"	auto_period_cnt++;
0000a0   6640     incr    0x40             	INCR	_int_isr_auto_period_cnt_327680_91
0000a1   f587     jbclr   0x187, 0x2       	JBCLR	PFLAG,2
0000a2   6641     incr    0x41             	INCR	(_int_isr_auto_period_cnt_327680_91 + 1)
                                           ;	.line	531; "MC32F7361.c"	if ((cur_auto_period == CUR_AUTO_PERIOD_3S && auto_period_cnt >= 3000) ||
0000a3   3c00     movai   0                	MOVAI	0x00
0000a4   5c47     orar    0x47             	ORAR	_cur_auto_period
0000a5   e587     jbset   0x187, 0x2       	JBSET	PFLAG,2
0000a6   a0af     goto    0xaf             	GOTO	_00413_DS_
                                           ;;unsigned compare: left < lit(0xBB8=3000), size=2
0000a7   3c0b     movai   0xb              	MOVAI	0x0b
0000a8   4841     rsubar  0x41             	RSUBAR	(_int_isr_auto_period_cnt_327680_91 + 1)
0000a9   e587     jbset   0x187, 0x2       	JBSET	PFLAG,2
0000aa   a0ad     goto    0xad             	GOTO	_00525_DS_
0000ab   3cb8     movai   0xb8             	MOVAI	0xb8
0000ac   4840     rsubar  0x40             	RSUBAR	_int_isr_auto_period_cnt_327680_91
                                           _00525_DS_
0000ad   f187     jbclr   0x187, 0         	JBCLR	PFLAG,0
0000ae   a0d3     goto    0xd3             	GOTO	_00418_DS_
                                           ;;genSkipc:3291: created from rifx:013B5EFC
                                           _00413_DS_
                                           ;	.line	532; "MC32F7361.c"	(cur_auto_period == CUR_AUTO_PERIOD_10S && auto_period_cnt >= 10000) ||
0000af   5847     movar   0x47             	MOVAR	_cur_auto_period
0000b0   3901     xorai   0x1              	XORAI	0x01
0000b1   e587     jbset   0x187, 0x2       	JBSET	PFLAG,2
0000b2   a0bb     goto    0xbb             	GOTO	_00415_DS_
                                           ;;unsigned compare: left < lit(0x2710=10000), size=2
0000b3   3c27     movai   0x27             	MOVAI	0x27
0000b4   4841     rsubar  0x41             	RSUBAR	(_int_isr_auto_period_cnt_327680_91 + 1)
0000b5   e587     jbset   0x187, 0x2       	JBSET	PFLAG,2
0000b6   a0b9     goto    0xb9             	GOTO	_00526_DS_
0000b7   3c10     movai   0x10             	MOVAI	0x10
0000b8   4840     rsubar  0x40             	RSUBAR	_int_isr_auto_period_cnt_327680_91
                                           _00526_DS_
0000b9   f187     jbclr   0x187, 0         	JBCLR	PFLAG,0
0000ba   a0d3     goto    0xd3             	GOTO	_00418_DS_
                                           ;;genSkipc:3291: created from rifx:013B5EFC
                                           _00415_DS_
                                           ;	.line	533; "MC32F7361.c"	(cur_auto_period == CUR_AUTO_PERIOD_7_5S && auto_period_cnt >= 7500) ||
0000bb   5847     movar   0x47             	MOVAR	_cur_auto_period
0000bc   3902     xorai   0x2              	XORAI	0x02
0000bd   e587     jbset   0x187, 0x2       	JBSET	PFLAG,2
0000be   a0c7     goto    0xc7             	GOTO	_00417_DS_
                                           ;;unsigned compare: left < lit(0x1D4C=7500), size=2
0000bf   3c1d     movai   0x1d             	MOVAI	0x1d
0000c0   4841     rsubar  0x41             	RSUBAR	(_int_isr_auto_period_cnt_327680_91 + 1)
0000c1   e587     jbset   0x187, 0x2       	JBSET	PFLAG,2
0000c2   a0c5     goto    0xc5             	GOTO	_00527_DS_
0000c3   3c4c     movai   0x4c             	MOVAI	0x4c
0000c4   4840     rsubar  0x40             	RSUBAR	_int_isr_auto_period_cnt_327680_91
                                           _00527_DS_
0000c5   f187     jbclr   0x187, 0         	JBCLR	PFLAG,0
0000c6   a0d3     goto    0xd3             	GOTO	_00418_DS_
                                           ;;genSkipc:3291: created from rifx:013B5EFC
                                           _00417_DS_
                                           ;	.line	534; "MC32F7361.c"	(cur_auto_period == CUR_AUTO_PERIOD_5S && auto_period_cnt >= 5000))
0000c7   5847     movar   0x47             	MOVAR	_cur_auto_period
0000c8   3903     xorai   0x3              	XORAI	0x03
0000c9   e587     jbset   0x187, 0x2       	JBSET	PFLAG,2
0000ca   a0e0     goto    0xe0             	GOTO	_00426_DS_
                                           ;;unsigned compare: left < lit(0x1388=5000), size=2
0000cb   3c13     movai   0x13             	MOVAI	0x13
0000cc   4841     rsubar  0x41             	RSUBAR	(_int_isr_auto_period_cnt_327680_91 + 1)
0000cd   e587     jbset   0x187, 0x2       	JBSET	PFLAG,2
0000ce   a0d1     goto    0xd1             	GOTO	_00528_DS_
0000cf   3c88     movai   0x88             	MOVAI	0x88
0000d0   4840     rsubar  0x40             	RSUBAR	_int_isr_auto_period_cnt_327680_91
                                           _00528_DS_
0000d1   e187     jbset   0x187, 0         	JBSET	PFLAG,0
0000d2   a0e0     goto    0xe0             	GOTO	_00426_DS_
                                           ;;genSkipc:3291: created from rifx:013B5EFC
                                           _00418_DS_
                                           ;	.line	563; "MC32F7361.c"	DEBUG_PIN = ~DEBUG_PIN;
0000d3   7635     clrr    0x35             	CLRR	r0x1040
0000d4   f5b8     jbclr   0x1b8, 0x2       	JBCLR	_IOP2bits,2
0000d5   6635     incr    0x35             	INCR	r0x1040
0000d6   7035     comar   0x35             	COMAR	r0x1040
0000d7   5635     movra   0x35             	MOVRA	r0x1040
0000d8   4c35     rrar    0x35             	RRAR	r0x1040
0000d9   e187     jbset   0x187, 0         	JBSET	PFLAG,0
0000da   d5b8     bclr    0x1b8, 0x2       	BCLR	_IOP2bits,2
0000db   f187     jbclr   0x187, 0         	JBCLR	PFLAG,0
0000dc   c5b8     bset    0x1b8, 0x2       	BSET	_IOP2bits,2
0000dd   a0e0     goto    0xe0             	GOTO	_00426_DS_
                                           _00421_DS_
                                           ;	.line	568; "MC32F7361.c"	auto_period_cnt = 0;
0000de   7640     clrr    0x40             	CLRR	_int_isr_auto_period_cnt_327680_91
0000df   7641     clrr    0x41             	CLRR	(_int_isr_auto_period_cnt_327680_91 + 1)
                                           _00426_DS_
                                           ;	.line	585; "MC32F7361.c"	__endasm;
                                           	;
0000e0   444b     swapar  0x4b             	swapar	_statusbuf;
0000e1   5787     movra   0x187            	movra	_PFLAG;
0000e2   464a     swapr   0x4a             	swapr	_abuf;
0000e3   444a     swapar  0x4a             	swapar	_abuf;
                                           	
                                           END_OF_INTERRUPT
                                           ;	.line	586; "MC32F7361.c"	}
0000e4   000d     retie                    	RETIE	
                                           
                                           ;--------------------------------------------------------
                                           ; code
                                           ;--------------------------------------------------------
                                           code_MC32F7361	code
                                           ;***
                                           ;  pBlock Stats: dbName = M
                                           ;***
                                           ;entry:  _main	;Function start
                                           ; 2 exit points
                                           ;has an exit
                                           ;functions called:
                                           ;   _Sys_Init
                                           ;   _delay_ms
                                           ;   _delay_100us
                                           ;   _delay_100us
                                           ;   _delay_ms
                                           ;   _delay_100us
                                           ;   _delay_100us
                                           ;   _delay_ms
                                           ;   _delay_100us
                                           ;   _delay_100us
                                           ;   _delay_ms
                                           ;   _delay_100us
                                           ;   _delay_100us
                                           ;   _delay_ms
                                           ;   _send_cmd_16bit
                                           ;   _send_cmd_16bit
                                           ;   __mulchar
                                           ;   __gptrget1
                                           ;   _send_cmd_16bit
                                           ;   __gptrget1
                                           ;   __gptrget1
                                           ;   _send_cmd_16bit
                                           ;   __gptrget1
                                           ;   __gptrget1
                                           ;   _send_cmd_16bit
                                           ;   __gptrget1
                                           ;   __gptrget1
                                           ;   _send_cmd_16bit
                                           ;   _Sys_Init
                                           ;   _delay_ms
                                           ;   _delay_100us
                                           ;   _delay_100us
                                           ;   _delay_ms
                                           ;   _delay_100us
                                           ;   _delay_100us
                                           ;   _delay_ms
                                           ;   _delay_100us
                                           ;   _delay_100us
                                           ;   _delay_ms
                                           ;   _delay_100us
                                           ;   _delay_100us
                                           ;   _delay_ms
                                           ;   _send_cmd_16bit
                                           ;   _send_cmd_16bit
                                           ;   __mulchar
                                           ;   __gptrget1
                                           ;   _send_cmd_16bit
                                           ;   __gptrget1
                                           ;   __gptrget1
                                           ;   _send_cmd_16bit
                                           ;   __gptrget1
                                           ;   __gptrget1
                                           ;   _send_cmd_16bit
                                           ;   __gptrget1
                                           ;   __gptrget1
                                           ;   _send_cmd_16bit
                                           ;10 compiler assigned registers:
                                           ;   STK00
                                           ;   r0x101C
                                           ;   r0x101D
                                           ;   r0x101E
                                           ;   r0x101F
                                           ;   STK01
                                           ;   r0x1020
                                           ;   r0x1021
                                           ;   r0x1022
                                           ;   r0x1023
                                           ;; Starting pCode block
                                           _main	;Function start
                                           ; 2 exit points
                                           ;	.line	223; "MC32F7361.c"	Sys_Init();
0000e5   81f9     call    0x1f9            	CALL	_Sys_Init
                                           ;	.line	237; "MC32F7361.c"	P15PU = 1; // 
0000e6   cb96     bset    0x196, 0x5       	BSET	_PUP1bits,5
                                           ;	.line	238; "MC32F7361.c"	P15OE = 0; // 
0000e7   db95     bclr    0x195, 0x5       	BCLR	_OEP1bits,5
                                           ;	.line	244; "MC32F7361.c"	flag_is_dev_open = 1;
0000e8   c24c     bset    0x4c, 0x1        	BSET	_flag1,1
                                           _00275_DS_
                                           ;	.line	252; "MC32F7361.c"	if (flag_is_recved_data)
0000e9   e04c     jbset   0x4c, 0          	JBSET	_flag1,0
0000ea   a0e9     goto    0xe9             	GOTO	_00275_DS_
                                           ;	.line	254; "MC32F7361.c"	if (ir_data == IR_KEY_ON) // ON 
0000eb   584d     movar   0x4d             	MOVAR	_ir_data
0000ec   3908     xorai   0x8              	XORAI	0x08
0000ed   e587     jbset   0x187, 0x2       	JBSET	PFLAG,2
0000ee   a115     goto    0x115            	GOTO	_00270_DS_
                                           ;	.line	258; "MC32F7361.c"	LED_CTL_PIN = 1;
0000ef   c990     bset    0x190, 0x4       	BSET	_IOP0bits,4
                                           ;	.line	259; "MC32F7361.c"	delay_ms(2);
0000f0   3c02     movai   0x2              	MOVAI	0x02
0000f1   5606     movra   0x6              	MOVRA	STK00
0000f2   3c00     movai   0                	MOVAI	0x00
0000f3   8322     call    0x322            	CALL	_delay_ms
                                           ;	.line	260; "MC32F7361.c"	LED_CTL_PIN = 0;
0000f4   d990     bclr    0x190, 0x4       	BCLR	_IOP0bits,4
                                           ;	.line	261; "MC32F7361.c"	delay_100us();
0000f5   82c5     call    0x2c5            	CALL	_delay_100us
                                           ;	.line	262; "MC32F7361.c"	delay_100us();
0000f6   82c5     call    0x2c5            	CALL	_delay_100us
                                           ;	.line	263; "MC32F7361.c"	LED_CTL_PIN = 1;
0000f7   c990     bset    0x190, 0x4       	BSET	_IOP0bits,4
                                           ;	.line	264; "MC32F7361.c"	delay_ms(3);
0000f8   3c03     movai   0x3              	MOVAI	0x03
0000f9   5606     movra   0x6              	MOVRA	STK00
0000fa   3c00     movai   0                	MOVAI	0x00
0000fb   8322     call    0x322            	CALL	_delay_ms
                                           ;	.line	265; "MC32F7361.c"	LED_CTL_PIN = 0;
0000fc   d990     bclr    0x190, 0x4       	BCLR	_IOP0bits,4
                                           ;	.line	266; "MC32F7361.c"	delay_100us();
0000fd   82c5     call    0x2c5            	CALL	_delay_100us
                                           ;	.line	267; "MC32F7361.c"	delay_100us();
0000fe   82c5     call    0x2c5            	CALL	_delay_100us
                                           ;	.line	268; "MC32F7361.c"	LED_CTL_PIN = 1;
0000ff   c990     bset    0x190, 0x4       	BSET	_IOP0bits,4
                                           ;	.line	269; "MC32F7361.c"	delay_ms(4);
000100   3c04     movai   0x4              	MOVAI	0x04
000101   5606     movra   0x6              	MOVRA	STK00
000102   3c00     movai   0                	MOVAI	0x00
000103   8322     call    0x322            	CALL	_delay_ms
                                           ;	.line	270; "MC32F7361.c"	LED_CTL_PIN = 0;
000104   d990     bclr    0x190, 0x4       	BCLR	_IOP0bits,4
                                           ;	.line	271; "MC32F7361.c"	delay_100us();
000105   82c5     call    0x2c5            	CALL	_delay_100us
                                           ;	.line	272; "MC32F7361.c"	delay_100us();
000106   82c5     call    0x2c5            	CALL	_delay_100us
                                           ;	.line	273; "MC32F7361.c"	LED_CTL_PIN = 1;
000107   c990     bset    0x190, 0x4       	BSET	_IOP0bits,4
                                           ;	.line	274; "MC32F7361.c"	delay_ms(5);
000108   3c05     movai   0x5              	MOVAI	0x05
000109   5606     movra   0x6              	MOVRA	STK00
00010a   3c00     movai   0                	MOVAI	0x00
00010b   8322     call    0x322            	CALL	_delay_ms
                                           ;	.line	275; "MC32F7361.c"	LED_CTL_PIN = 0;
00010c   d990     bclr    0x190, 0x4       	BCLR	_IOP0bits,4
                                           ;	.line	276; "MC32F7361.c"	delay_100us();
00010d   82c5     call    0x2c5            	CALL	_delay_100us
                                           ;	.line	277; "MC32F7361.c"	delay_100us();
00010e   82c5     call    0x2c5            	CALL	_delay_100us
                                           ;	.line	278; "MC32F7361.c"	LED_CTL_PIN = 1;
00010f   c990     bset    0x190, 0x4       	BSET	_IOP0bits,4
                                           ;	.line	279; "MC32F7361.c"	delay_ms(51);
000110   3c33     movai   0x33             	MOVAI	0x33
000111   5606     movra   0x6              	MOVRA	STK00
000112   3c00     movai   0                	MOVAI	0x00
000113   8322     call    0x322            	CALL	_delay_ms
000114   a1f5     goto    0x1f5            	GOTO	_00271_DS_
                                           _00270_DS_
                                           ;	.line	288; "MC32F7361.c"	else if (ir_data == IR_KEY_OFF) // OFF 
000115   584d     movar   0x4d             	MOVAR	_ir_data
000116   39c0     xorai   0xc0             	XORAI	0xc0
000117   e587     jbset   0x187, 0x2       	JBSET	PFLAG,2
000118   a11a     goto    0x11a            	GOTO	_00361_DS_
000119   a1f5     goto    0x1f5            	GOTO	_00271_DS_
                                           _00361_DS_
                                           ;	.line	301; "MC32F7361.c"	else if (ir_data == IR_KEY_SPEED) // SPEED 
00011a   584d     movar   0x4d             	MOVAR	_ir_data
00011b   3960     xorai   0x60             	XORAI	0x60
00011c   e587     jbset   0x187, 0x2       	JBSET	PFLAG,2
00011d   a11f     goto    0x11f            	GOTO	_00362_DS_
00011e   a1f5     goto    0x1f5            	GOTO	_00271_DS_
                                           _00362_DS_
                                           ;	.line	305; "MC32F7361.c"	else if (ir_data == IR_KEY_R3C4) // R3C4
00011f   584d     movar   0x4d             	MOVAR	_ir_data
000120   39a8     xorai   0xa8             	XORAI	0xa8
000121   e587     jbset   0x187, 0x2       	JBSET	PFLAG,2
000122   a148     goto    0x148            	GOTO	_00261_DS_
                                           ;	.line	308; "MC32F7361.c"	if (cur_r3c4_status == R3C4_STATUS_1)
000123   3c00     movai   0                	MOVAI	0x00
000124   5c49     orar    0x49             	ORAR	_cur_r3c4_status
000125   e587     jbset   0x187, 0x2       	JBSET	PFLAG,2
000126   a12d     goto    0x12d            	GOTO	_00245_DS_
                                           ;	.line	310; "MC32F7361.c"	tmp = 0x00EE;
000127   3cee     movai   0xee             	MOVAI	0xee
000128   5637     movra   0x37             	MOVRA	_main_tmp_262144_58
000129   7638     clrr    0x38             	CLRR	(_main_tmp_262144_58 + 1)
                                           ;	.line	311; "MC32F7361.c"	cur_r3c4_status = R3C4_STATUS_2;
00012a   3c01     movai   0x1              	MOVAI	0x01
00012b   5649     movra   0x49             	MOVRA	_cur_r3c4_status
00012c   a13f     goto    0x13f            	GOTO	_00246_DS_
                                           _00245_DS_
                                           ;	.line	313; "MC32F7361.c"	else if (cur_r3c4_status == R3C4_STATUS_2)
00012d   5849     movar   0x49             	MOVAR	_cur_r3c4_status
00012e   3901     xorai   0x1              	XORAI	0x01
00012f   e587     jbset   0x187, 0x2       	JBSET	PFLAG,2
000130   a137     goto    0x137            	GOTO	_00242_DS_
                                           ;	.line	315; "MC32F7361.c"	tmp = 0x00AA;
000131   3caa     movai   0xaa             	MOVAI	0xaa
000132   5637     movra   0x37             	MOVRA	_main_tmp_262144_58
000133   7638     clrr    0x38             	CLRR	(_main_tmp_262144_58 + 1)
                                           ;	.line	316; "MC32F7361.c"	cur_r3c4_status = R3C4_STATUS_3;
000134   3c02     movai   0x2              	MOVAI	0x02
000135   5649     movra   0x49             	MOVRA	_cur_r3c4_status
000136   a13f     goto    0x13f            	GOTO	_00246_DS_
                                           _00242_DS_
                                           ;	.line	318; "MC32F7361.c"	else if (cur_r3c4_status == R3C4_STATUS_3)
000137   5849     movar   0x49             	MOVAR	_cur_r3c4_status
000138   3902     xorai   0x2              	XORAI	0x02
000139   e587     jbset   0x187, 0x2       	JBSET	PFLAG,2
00013a   a13f     goto    0x13f            	GOTO	_00246_DS_
                                           ;	.line	320; "MC32F7361.c"	tmp = 0x00CC;
00013b   3ccc     movai   0xcc             	MOVAI	0xcc
00013c   5637     movra   0x37             	MOVRA	_main_tmp_262144_58
00013d   7638     clrr    0x38             	CLRR	(_main_tmp_262144_58 + 1)
                                           ;	.line	321; "MC32F7361.c"	cur_r3c4_status = R3C4_STATUS_1;
00013e   7649     clrr    0x49             	CLRR	_cur_r3c4_status
                                           _00246_DS_
                                           ;	.line	327; "MC32F7361.c"	send_cmd_16bit(0x0C00);
00013f   3c00     movai   0                	MOVAI	0x00
000140   5606     movra   0x6              	MOVRA	STK00
000141   3c0c     movai   0xc              	MOVAI	0x0c
000142   8229     call    0x229            	CALL	_send_cmd_16bit
                                           ;	.line	328; "MC32F7361.c"	send_cmd_16bit(tmp);
000143   5837     movar   0x37             	MOVAR	_main_tmp_262144_58
000144   5606     movra   0x6              	MOVRA	STK00
000145   5838     movar   0x38             	MOVAR	(_main_tmp_262144_58 + 1)
000146   8229     call    0x229            	CALL	_send_cmd_16bit
000147   a1f5     goto    0x1f5            	GOTO	_00271_DS_
                                           _00261_DS_
                                           ;	.line	330; "MC32F7361.c"	else if (ir_data == IR_KEY_R4C4_FADE)
000148   584d     movar   0x4d             	MOVAR	_ir_data
000149   39b2     xorai   0xb2             	XORAI	0xb2
00014a   e587     jbset   0x187, 0x2       	JBSET	PFLAG,2
00014b   a14d     goto    0x14d            	GOTO	_00363_DS_
00014c   a1f5     goto    0x1f5            	GOTO	_00271_DS_
                                           _00363_DS_
                                           ;	.line	340; "MC32F7361.c"	if (IR_KEY_AUTO == ir_data) // AUTO 
00014d   584d     movar   0x4d             	MOVAR	_ir_data
00014e   3980     xorai   0x80             	XORAI	0x80
00014f   e587     jbset   0x187, 0x2       	JBSET	PFLAG,2
000150   a159     goto    0x159            	GOTO	_00296_DS_
                                           ;	.line	342; "MC32F7361.c"	cur_auto_period++;
000151   6647     incr    0x47             	INCR	_cur_auto_period
                                           ;;swapping arguments (AOP_TYPEs 1/3)
                                           ;;unsigned compare: left >= lit(0x4=4), size=1
                                           ;	.line	343; "MC32F7361.c"	if (cur_auto_period > CUR_AUTO_PERIOD_5S)
000152   3c04     movai   0x4              	MOVAI	0x04
000153   4847     rsubar  0x47             	RSUBAR	_cur_auto_period
000154   e187     jbset   0x187, 0         	JBSET	PFLAG,0
000155   a157     goto    0x157            	GOTO	_00248_DS_
                                           ;;genSkipc:3291: created from rifx:013B5EFC
                                           ;	.line	345; "MC32F7361.c"	cur_auto_period = CUR_AUTO_PERIOD_3S;
000156   7647     clrr    0x47             	CLRR	_cur_auto_period
                                           _00248_DS_
                                           ;	.line	348; "MC32F7361.c"	cur_led_status = CUR_LED_STATUS_AUTO; //  AUTO 
000157   3c01     movai   0x1              	MOVAI	0x01
000158   5648     movra   0x48             	MOVRA	_cur_led_status
                                           _00296_DS_
                                           ;	.line	351; "MC32F7361.c"	for (i = 0; i < sizeof(table) / sizeof(table[0]); i++)
000159   762d     clrr    0x2d             	CLRR	r0x101C
                                           _00277_DS_
                                           ;	.line	353; "MC32F7361.c"	if (table[i][0] == ir_data)
00015a   3c05     movai   0x5              	MOVAI	0x05
00015b   5606     movra   0x6              	MOVRA	STK00
00015c   582d     movar   0x2d             	MOVAR	r0x101C
00015d   83c5     call    0x3c5            	CALL	__mulchar
00015e   562e     movra   0x2e             	MOVRA	r0x101D
00015f   582e     movar   0x2e             	MOVAR	r0x101D
000160   3f42     addai   0x42             	ADDAI	(_table + 0)
000161   562f     movra   0x2f             	MOVRA	r0x101E
000162   3c03     movai   0x3              	MOVAI	high (_table + 0)
000163   f187     jbclr   0x187, 0         	JBCLR	PFLAG,0
000164   3f01     addai   0x1              	ADDAI	0x01
000165   5630     movra   0x30             	MOVRA	r0x101F
000166   582f     movar   0x2f             	MOVAR	r0x101E
000167   5605     movra   0x5              	MOVRA	STK01
000168   5830     movar   0x30             	MOVAR	r0x101F
000169   5606     movra   0x6              	MOVRA	STK00
00016a   3c80     movai   0x80             	MOVAI	0x80
00016b   8397     call    0x397            	CALL	__gptrget1
00016c   5631     movra   0x31             	MOVRA	r0x1020
00016d   584d     movar   0x4d             	MOVAR	_ir_data
00016e   4031     xorar   0x31             	XORAR	r0x1020
00016f   e587     jbset   0x187, 0x2       	JBSET	PFLAG,2
000170   a1f0     goto    0x1f0            	GOTO	_00278_DS_
                                           ;	.line	355; "MC32F7361.c"	send_cmd_16bit(0x0C00); // 
000171   3c00     movai   0                	MOVAI	0x00
000172   5606     movra   0x6              	MOVRA	STK00
000173   3c0c     movai   0xc              	MOVAI	0x0c
000174   8229     call    0x229            	CALL	_send_cmd_16bit
                                           ;	.line	356; "MC32F7361.c"	tmp = ((u16)table[i][1] << 8) + (u16)table[i][2];
000175   582e     movar   0x2e             	MOVAR	r0x101D
000176   3f42     addai   0x42             	ADDAI	(_table + 0)
000177   562e     movra   0x2e             	MOVRA	r0x101D
000178   3c03     movai   0x3              	MOVAI	high (_table + 0)
000179   f187     jbclr   0x187, 0         	JBCLR	PFLAG,0
00017a   3f01     addai   0x1              	ADDAI	0x01
00017b   562f     movra   0x2f             	MOVRA	r0x101E
00017c   3c01     movai   0x1              	MOVAI	0x01
00017d   7c2e     addar   0x2e             	ADDAR	r0x101D
00017e   5630     movra   0x30             	MOVRA	r0x101F
00017f   7631     clrr    0x31             	CLRR	r0x1020
000180   5231     rlr     0x31             	RLR	r0x1020
000181   582f     movar   0x2f             	MOVAR	r0x101E
000182   7e31     addra   0x31             	ADDRA	r0x1020
000183   5830     movar   0x30             	MOVAR	r0x101F
000184   5605     movra   0x5              	MOVRA	STK01
000185   5831     movar   0x31             	MOVAR	r0x1020
000186   5606     movra   0x6              	MOVRA	STK00
000187   3c80     movai   0x80             	MOVAI	0x80
000188   8397     call    0x397            	CALL	__gptrget1
000189   5632     movra   0x32             	MOVRA	r0x1021
00018a   5832     movar   0x32             	MOVAR	r0x1021
00018b   5633     movra   0x33             	MOVRA	r0x1022
00018c   5630     movra   0x30             	MOVRA	r0x101F
00018d   7631     clrr    0x31             	CLRR	r0x1020
                                           ;;107	MOVAR	r0x101F
00018e   7632     clrr    0x32             	CLRR	r0x1021
00018f   3c02     movai   0x2              	MOVAI	0x02
000190   7c2e     addar   0x2e             	ADDAR	r0x101D
000191   5630     movra   0x30             	MOVRA	r0x101F
000192   7631     clrr    0x31             	CLRR	r0x1020
000193   5231     rlr     0x31             	RLR	r0x1020
000194   582f     movar   0x2f             	MOVAR	r0x101E
000195   7e31     addra   0x31             	ADDRA	r0x1020
000196   5830     movar   0x30             	MOVAR	r0x101F
000197   5605     movra   0x5              	MOVRA	STK01
000198   5831     movar   0x31             	MOVAR	r0x1020
000199   5606     movra   0x6              	MOVRA	STK00
00019a   3c80     movai   0x80             	MOVAI	0x80
00019b   8397     call    0x397            	CALL	__gptrget1
00019c   5630     movra   0x30             	MOVRA	r0x101F
00019d   5634     movra   0x34             	MOVRA	r0x1023
                                           ;;106	MOVAR	r0x1023
00019e   7631     clrr    0x31             	CLRR	r0x1020
00019f   5830     movar   0x30             	MOVAR	r0x101F
0001a0   7c32     addar   0x32             	ADDAR	r0x1021
0001a1   5630     movra   0x30             	MOVRA	r0x101F
0001a2   5833     movar   0x33             	MOVAR	r0x1022
0001a3   f187     jbclr   0x187, 0         	JBCLR	PFLAG,0
0001a4   6033     jzar    0x33             	JZAR	r0x1022
0001a5   7e31     addra   0x31             	ADDRA	r0x1020
                                           ;	.line	357; "MC32F7361.c"	send_cmd_16bit(tmp);
0001a6   5830     movar   0x30             	MOVAR	r0x101F
0001a7   5606     movra   0x6              	MOVRA	STK00
0001a8   5831     movar   0x31             	MOVAR	r0x1020
0001a9   8229     call    0x229            	CALL	_send_cmd_16bit
                                           ;	.line	358; "MC32F7361.c"	if (table[i][3] != UNUSE_VAL && table[i][4] != UNUSE_VAL)
0001aa   3c03     movai   0x3              	MOVAI	0x03
0001ab   7c2e     addar   0x2e             	ADDAR	r0x101D
0001ac   5632     movra   0x32             	MOVRA	r0x1021
0001ad   7633     clrr    0x33             	CLRR	r0x1022
0001ae   5233     rlr     0x33             	RLR	r0x1022
0001af   582f     movar   0x2f             	MOVAR	r0x101E
0001b0   7e33     addra   0x33             	ADDRA	r0x1022
0001b1   5832     movar   0x32             	MOVAR	r0x1021
0001b2   5605     movra   0x5              	MOVRA	STK01
0001b3   5833     movar   0x33             	MOVAR	r0x1022
0001b4   5606     movra   0x6              	MOVRA	STK00
0001b5   3c80     movai   0x80             	MOVAI	0x80
0001b6   8397     call    0x397            	CALL	__gptrget1
0001b7   5634     movra   0x34             	MOVRA	r0x1023
0001b8   5834     movar   0x34             	MOVAR	r0x1023
0001b9   39ff     xorai   0xff             	XORAI	0xff
0001ba   e587     jbset   0x187, 0x2       	JBSET	PFLAG,2
0001bb   a1bd     goto    0x1bd            	GOTO	_00365_DS_
0001bc   a1f5     goto    0x1f5            	GOTO	_00271_DS_
                                           _00365_DS_
0001bd   3c04     movai   0x4              	MOVAI	0x04
0001be   7e2e     addra   0x2e             	ADDRA	r0x101D
0001bf   f187     jbclr   0x187, 0         	JBCLR	PFLAG,0
0001c0   662f     incr    0x2f             	INCR	r0x101E
0001c1   582e     movar   0x2e             	MOVAR	r0x101D
0001c2   5605     movra   0x5              	MOVRA	STK01
0001c3   582f     movar   0x2f             	MOVAR	r0x101E
0001c4   5606     movra   0x6              	MOVRA	STK00
0001c5   3c80     movai   0x80             	MOVAI	0x80
0001c6   8397     call    0x397            	CALL	__gptrget1
0001c7   5634     movra   0x34             	MOVRA	r0x1023
0001c8   5834     movar   0x34             	MOVAR	r0x1023
0001c9   39ff     xorai   0xff             	XORAI	0xff
0001ca   e587     jbset   0x187, 0x2       	JBSET	PFLAG,2
0001cb   a1cd     goto    0x1cd            	GOTO	_00366_DS_
0001cc   a1f5     goto    0x1f5            	GOTO	_00271_DS_
                                           _00366_DS_
                                           ;	.line	360; "MC32F7361.c"	send_cmd_16bit(tmp); // 4 * 16bit 2 * 16bit
0001cd   5830     movar   0x30             	MOVAR	r0x101F
0001ce   5606     movra   0x6              	MOVRA	STK00
0001cf   5831     movar   0x31             	MOVAR	r0x1020
0001d0   8229     call    0x229            	CALL	_send_cmd_16bit
                                           ;	.line	361; "MC32F7361.c"	tmp = ((u16)table[i][3] << 8) + (u16)table[i][4];
0001d1   5832     movar   0x32             	MOVAR	r0x1021
0001d2   5605     movra   0x5              	MOVRA	STK01
0001d3   5833     movar   0x33             	MOVAR	r0x1022
0001d4   5606     movra   0x6              	MOVRA	STK00
0001d5   3c80     movai   0x80             	MOVAI	0x80
0001d6   8397     call    0x397            	CALL	__gptrget1
0001d7   5631     movra   0x31             	MOVRA	r0x1020
0001d8   5632     movra   0x32             	MOVRA	r0x1021
0001d9   5630     movra   0x30             	MOVRA	r0x101F
                                           ;;104	MOVAR	r0x101F
0001da   7633     clrr    0x33             	CLRR	r0x1022
                                           ;;105	MOVAR	r0x1021
0001db   7630     clrr    0x30             	CLRR	r0x101F
0001dc   582e     movar   0x2e             	MOVAR	r0x101D
0001dd   5605     movra   0x5              	MOVRA	STK01
0001de   582f     movar   0x2f             	MOVAR	r0x101E
0001df   5606     movra   0x6              	MOVRA	STK00
0001e0   3c80     movai   0x80             	MOVAI	0x80
0001e1   8397     call    0x397            	CALL	__gptrget1
0001e2   5632     movra   0x32             	MOVRA	r0x1021
                                           ;;103	MOVAR	r0x1021
0001e3   762f     clrr    0x2f             	CLRR	r0x101E
                                           ;;102	MOVAR	r0x101D
0001e4   5832     movar   0x32             	MOVAR	r0x1021
0001e5   562e     movra   0x2e             	MOVRA	r0x101D
0001e6   7e30     addra   0x30             	ADDRA	r0x101F
0001e7   3c00     movai   0                	MOVAI	0x00
0001e8   f187     jbclr   0x187, 0         	JBCLR	PFLAG,0
0001e9   602f     jzar    0x2f             	JZAR	r0x101E
0001ea   7e31     addra   0x31             	ADDRA	r0x1020
                                           ;	.line	362; "MC32F7361.c"	send_cmd_16bit(tmp);
0001eb   5830     movar   0x30             	MOVAR	r0x101F
0001ec   5606     movra   0x6              	MOVRA	STK00
0001ed   5831     movar   0x31             	MOVAR	r0x1020
0001ee   8229     call    0x229            	CALL	_send_cmd_16bit
                                           ;	.line	364; "MC32F7361.c"	break;
0001ef   a1f5     goto    0x1f5            	GOTO	_00271_DS_
                                           _00278_DS_
                                           ;	.line	351; "MC32F7361.c"	for (i = 0; i < sizeof(table) / sizeof(table[0]); i++)
0001f0   662d     incr    0x2d             	INCR	r0x101C
                                           ;;unsigned compare: left < lit(0x11=17), size=1
0001f1   3c11     movai   0x11             	MOVAI	0x11
0001f2   482d     rsubar  0x2d             	RSUBAR	r0x101C
0001f3   e187     jbset   0x187, 0         	JBSET	PFLAG,0
0001f4   a15a     goto    0x15a            	GOTO	_00277_DS_
                                           ;;genSkipc:3291: created from rifx:013B5EFC
                                           _00271_DS_
                                           ;	.line	369; "MC32F7361.c"	ir_data = 0;
0001f5   764d     clrr    0x4d             	CLRR	_ir_data
                                           ;	.line	370; "MC32F7361.c"	flag_is_recved_data = 0;
0001f6   d04c     bclr    0x4c, 0          	BCLR	_flag1,0
0001f7   a0e9     goto    0xe9             	GOTO	_00275_DS_
                                           ;	.line	373; "MC32F7361.c"	}
0001f8   000c     return                   	RETURN	
                                           ; exit point of _main
                                           
                                           ;***
                                           ;  pBlock Stats: dbName = C
                                           ;***
                                           ;entry:  _Sys_Init	;Function start
                                           ; 2 exit points
                                           ;has an exit
                                           ;functions called:
                                           ;   _CLR_RAM
                                           ;   _IO_Init
                                           ;   _TIMER2_INT_Init
                                           ;   _CLR_RAM
                                           ;   _IO_Init
                                           ;   _TIMER2_INT_Init
                                           ;; Starting pCode block
                                           _Sys_Init	;Function start
                                           ; 2 exit points
                                           ;	.line	205; "MC32F7361.c"	GIE = 0;
0001f9   df88     bclr    0x188, 0x7       	BCLR	_MCRbits,7
                                           ;	.line	206; "MC32F7361.c"	CLR_RAM();
0001fa   821d     call    0x21d            	CALL	_CLR_RAM
                                           ;	.line	207; "MC32F7361.c"	IO_Init();
0001fb   8208     call    0x208            	CALL	_IO_Init
                                           ;	.line	210; "MC32F7361.c"	TIMER2_INT_Init();
0001fc   81ff     call    0x1ff            	CALL	_TIMER2_INT_Init
                                           ;	.line	212; "MC32F7361.c"	GIE = 1;
0001fd   cf88     bset    0x188, 0x7       	BSET	_MCRbits,7
                                           ;	.line	213; "MC32F7361.c"	}
0001fe   000c     return                   	RETURN	
                                           ; exit point of _Sys_Init
                                           
                                           ;***
                                           ;  pBlock Stats: dbName = C
                                           ;***
                                           ;entry:  _TIMER2_INT_Init	;Function start
                                           ; 2 exit points
                                           ;has an exit
                                           ;; Starting pCode block
                                           _TIMER2_INT_Init	;Function start
                                           ; 2 exit points
                                           ;	.line	191; "MC32F7361.c"	T2CR = DEF_SET_BIT0 | DEF_SET_BIT1; // CPU,8
0001ff   3c03     movai   0x3              	MOVAI	0x03
000200   57a0     movra   0x1a0            	MOVRA	_T2CR
                                           ;	.line	192; "MC32F7361.c"	T2CNT = 100 - 1;
000201   3c63     movai   0x63             	MOVAI	0x63
000202   57a1     movra   0x1a1            	MOVRA	_T2CNT
                                           ;	.line	193; "MC32F7361.c"	T2LOAD = 100 - 1; // 100us
000203   3c63     movai   0x63             	MOVAI	0x63
000204   57a2     movra   0x1a2            	MOVRA	_T2LOAD
                                           ;	.line	194; "MC32F7361.c"	T2EN = 1;
000205   cfa0     bset    0x1a0, 0x7       	BSET	_T2CRbits,7
                                           ;	.line	195; "MC32F7361.c"	T2IE = 1;
000206   cb8a     bset    0x18a, 0x5       	BSET	_INTEbits,5
                                           ;	.line	196; "MC32F7361.c"	}
000207   000c     return                   	RETURN	
                                           ; exit point of _TIMER2_INT_Init
                                           
                                           ;***
                                           ;  pBlock Stats: dbName = C
                                           ;***
                                           ;entry:  _IO_Init	;Function start
                                           ; 2 exit points
                                           ;has an exit
                                           ;; Starting pCode block
                                           _IO_Init	;Function start
                                           ; 2 exit points
                                           ;	.line	162; "MC32F7361.c"	IOP0 = 0x00;   // io
000208   7790     clrr    0x190            	CLRR	_IOP0
                                           ;	.line	163; "MC32F7361.c"	OEP0 = 0x3F;   // io 1:out  0:in
000209   3c3f     movai   0x3f             	MOVAI	0x3f
00020a   5791     movra   0x191            	MOVRA	_OEP0
                                           ;	.line	164; "MC32F7361.c"	PUP0 = 0x00;   // io   1:enable  0:disable
00020b   7792     clrr    0x192            	CLRR	_PUP0
                                           ;	.line	165; "MC32F7361.c"	PDP0 = 0x00;   // io   1:enable  0:disable
00020c   7793     clrr    0x193            	CLRR	_PDP0
                                           ;	.line	166; "MC32F7361.c"	P0ADCR = 0x00; // io  1:  0:io
00020d   77b6     clrr    0x1b6            	CLRR	_P0ADCR
                                           ;	.line	168; "MC32F7361.c"	IOP1 = 0x00;   // io
00020e   7794     clrr    0x194            	CLRR	_IOP1
                                           ;	.line	169; "MC32F7361.c"	OEP1 = 0xFF;   // io 1:out  0:in
00020f   3cff     movai   0xff             	MOVAI	0xff
000210   5795     movra   0x195            	MOVRA	_OEP1
                                           ;	.line	170; "MC32F7361.c"	PUP1 = 0x00;   // io   1:enable  0:disable
000211   7796     clrr    0x196            	CLRR	_PUP1
                                           ;	.line	171; "MC32F7361.c"	PDP1 = 0x00;   // io   1:enable  0:disable
000212   7797     clrr    0x197            	CLRR	_PDP1
                                           ;	.line	172; "MC32F7361.c"	P1ADCR = 0x00; // io  1:  0:io
000213   77b7     clrr    0x1b7            	CLRR	_P1ADCR
                                           ;	.line	174; "MC32F7361.c"	IOP2 = 0x00; // io
000214   77b8     clrr    0x1b8            	CLRR	_IOP2
                                           ;	.line	175; "MC32F7361.c"	OEP2 = 0x0F; // io 1:out  0:in
000215   3c0f     movai   0xf              	MOVAI	0x0f
000216   57b9     movra   0x1b9            	MOVRA	_OEP2
                                           ;	.line	176; "MC32F7361.c"	PUP2 = 0x00; // io   1:enable  0:disable
000217   77ba     clrr    0x1ba            	CLRR	_PUP2
                                           ;	.line	177; "MC32F7361.c"	PDP2 = 0x00; // io   1:enable  0:disablea
000218   77bb     clrr    0x1bb            	CLRR	_PDP2
                                           ;	.line	179; "MC32F7361.c"	PMOD = 0x00;  // P00P01P13 io
000219   77bc     clrr    0x1bc            	CLRR	_PMOD
                                           ;	.line	180; "MC32F7361.c"	DRVCR = 0x80; // 
00021a   3c80     movai   0x80             	MOVAI	0x80
00021b   578c     movra   0x18c            	MOVRA	_DRVCR
                                           ;	.line	181; "MC32F7361.c"	}
00021c   000c     return                   	RETURN	
                                           ; exit point of _IO_Init
                                           
                                           ;***
                                           ;  pBlock Stats: dbName = C
                                           ;***
                                           ;entry:  _CLR_RAM	;Function start
                                           ; 2 exit points
                                           ;has an exit
                                           ;; Starting pCode block
                                           _CLR_RAM	;Function start
                                           ; 2 exit points
                                           ;	.line	147; "MC32F7361.c"	for (FSR0 = 0; FSR0 < 0xff; FSR0++)
00021d   7784     clrr    0x184            	CLRR	_FSR0
                                           ;;unsigned compare: left < lit(0xFF=255), size=1
                                           _00222_DS_
00021e   3cff     movai   0xff             	MOVAI	0xff
00021f   4984     rsubar  0x184            	RSUBAR	_FSR0
000220   f187     jbclr   0x187, 0         	JBCLR	PFLAG,0
000221   a225     goto    0x225            	GOTO	_00220_DS_
                                           ;;genSkipc:3291: created from rifx:013B5EFC
                                           ;	.line	149; "MC32F7361.c"	INDF0 = 0x00;
000222   7780     clrr    0x180            	CLRR	_INDF0
                                           ;	.line	147; "MC32F7361.c"	for (FSR0 = 0; FSR0 < 0xff; FSR0++)
000223   6784     incr    0x184            	INCR	_FSR0
000224   a21e     goto    0x21e            	GOTO	_00222_DS_
                                           _00220_DS_
                                           ;	.line	151; "MC32F7361.c"	FSR0 = 0xFF;
000225   3cff     movai   0xff             	MOVAI	0xff
000226   5784     movra   0x184            	MOVRA	_FSR0
                                           ;	.line	152; "MC32F7361.c"	INDF0 = 0x00;
000227   7780     clrr    0x180            	CLRR	_INDF0
                                           ;	.line	153; "MC32F7361.c"	}
000228   000c     return                   	RETURN	
                                           ; exit point of _CLR_RAM
                                           
                                           ;***
                                           ;  pBlock Stats: dbName = C
                                           ;***
                                           ;entry:  _send_cmd_16bit	;Function start
                                           ; 2 exit points
                                           ;has an exit
                                           ;functions called:
                                           ;   _delay_100us
                                           ;   _delay_ms
                                           ;   _delay_1_4ms
                                           ;   _delay_100us
                                           ;   _delay_ms
                                           ;   _delay_100us
                                           ;   _delay_ms
                                           ;   _delay_1_4ms
                                           ;   _delay_100us
                                           ;   _delay_ms
                                           ;7 compiler assigned registers:
                                           ;   r0x1016
                                           ;   STK00
                                           ;   r0x1017
                                           ;   r0x1018
                                           ;   r0x1019
                                           ;   r0x101A
                                           ;   r0x101B
                                           ;; Starting pCode block
                                           _send_cmd_16bit	;Function start
                                           ; 2 exit points
                                           ;	.line	108; "MC32F7361.c"	void send_cmd_16bit(const u16 data)
000229   5628     movra   0x28             	MOVRA	r0x1016
00022a   5806     movar   0x6              	MOVAR	STK00
00022b   5627     movra   0x27             	MOVRA	r0x1017
                                           ;	.line	111; "MC32F7361.c"	if (0 == flag_is_dev_open)
00022c   f24c     jbclr   0x4c, 0x1        	JBCLR	_flag1,1
00022d   a22f     goto    0x22f            	GOTO	_00199_DS_
                                           ;	.line	113; "MC32F7361.c"	return;
00022e   a257     goto    0x257            	GOTO	_00195_DS_
                                           _00199_DS_
                                           ;	.line	117; "MC32F7361.c"	for (i = 0; i < 16; i++)
00022f   7629     clrr    0x29             	CLRR	r0x1018
                                           _00193_DS_
                                           ;	.line	119; "MC32F7361.c"	LED_CTL_PIN = 0;
000230   d990     bclr    0x190, 0x4       	BCLR	_IOP0bits,4
                                           ;	.line	120; "MC32F7361.c"	delay_100us();
000231   82c5     call    0x2c5            	CALL	_delay_100us
                                           ;	.line	121; "MC32F7361.c"	LED_CTL_PIN = 1;
000232   c990     bset    0x190, 0x4       	BSET	_IOP0bits,4
                                           ;	.line	122; "MC32F7361.c"	if ((data >> (15 - i)) & 0x01) // 1
000233   5829     movar   0x29             	MOVAR	r0x1018
000234   3a0f     isubai  0xf              	ISUBAI	0x0f
000235   562a     movra   0x2a             	MOVRA	r0x1019
000236   5828     movar   0x28             	MOVAR	r0x1016
000237   562c     movra   0x2c             	MOVRA	r0x101A
000238   5827     movar   0x27             	MOVAR	r0x1017
000239   562b     movra   0x2b             	MOVRA	r0x101B
00023a   582a     movar   0x2a             	MOVAR	r0x1019
00023b   3a00     isubai  0                	ISUBAI	0x00
00023c   f587     jbclr   0x187, 0x2       	JBCLR	PFLAG,2
00023d   a243     goto    0x243            	GOTO	_00215_DS_
                                           _00214_DS_
00023e   4e2c     rrr     0x2c             	RRR	r0x101A
00023f   4e2b     rrr     0x2b             	RRR	r0x101B
000240   3f01     addai   0x1              	ADDAI	0x01
000241   e187     jbset   0x187, 0         	JBSET	PFLAG,0
000242   a23e     goto    0x23e            	GOTO	_00214_DS_
                                           _00215_DS_
000243   e02b     jbset   0x2b, 0          	JBSET	r0x101B,0
000244   a24a     goto    0x24a            	GOTO	_00190_DS_
                                           ;	.line	124; "MC32F7361.c"	delay_ms(3);
000245   3c03     movai   0x3              	MOVAI	0x03
000246   5606     movra   0x6              	MOVRA	STK00
000247   3c00     movai   0                	MOVAI	0x00
000248   8322     call    0x322            	CALL	_delay_ms
000249   a24b     goto    0x24b            	GOTO	_00194_DS_
                                           _00190_DS_
                                           ;	.line	128; "MC32F7361.c"	delay_1_4ms();
00024a   82ae     call    0x2ae            	CALL	_delay_1_4ms
                                           _00194_DS_
                                           ;	.line	117; "MC32F7361.c"	for (i = 0; i < 16; i++)
00024b   6629     incr    0x29             	INCR	r0x1018
                                           ;;unsigned compare: left < lit(0x10=16), size=1
00024c   3c10     movai   0x10             	MOVAI	0x10
00024d   4829     rsubar  0x29             	RSUBAR	r0x1018
00024e   e187     jbset   0x187, 0         	JBSET	PFLAG,0
00024f   a230     goto    0x230            	GOTO	_00193_DS_
                                           ;;genSkipc:3291: created from rifx:013B5EFC
                                           ;	.line	132; "MC32F7361.c"	LED_CTL_PIN = 0;
000250   d990     bclr    0x190, 0x4       	BCLR	_IOP0bits,4
                                           ;	.line	133; "MC32F7361.c"	delay_100us();
000251   82c5     call    0x2c5            	CALL	_delay_100us
                                           ;	.line	134; "MC32F7361.c"	LED_CTL_PIN = 1;
000252   c990     bset    0x190, 0x4       	BSET	_IOP0bits,4
                                           ;	.line	135; "MC32F7361.c"	delay_ms(33);
000253   3c21     movai   0x21             	MOVAI	0x21
000254   5606     movra   0x6              	MOVRA	STK00
000255   3c00     movai   0                	MOVAI	0x00
000256   8322     call    0x322            	CALL	_delay_ms
                                           _00195_DS_
                                           ;	.line	137; "MC32F7361.c"	}
000257   000c     return                   	RETURN	
                                           ; exit point of _send_cmd_16bit
                                           
                                           ;***
                                           ;  pBlock Stats: dbName = C
                                           ;***
                                           ;entry:  _EEPROM_Write_Data	;Function start
                                           ; 2 exit points
                                           ;has an exit
                                           ;functions called:
                                           ;   __gptrget2
                                           ;   _EEPROM_Write_Byte
                                           ;   __gptrget2
                                           ;   _EEPROM_Write_Byte
                                           ;12 compiler assigned registers:
                                           ;   r0x1028
                                           ;   STK00
                                           ;   r0x1029
                                           ;   STK01
                                           ;   r0x102A
                                           ;   STK02
                                           ;   r0x102B
                                           ;   STK03
                                           ;   r0x102C
                                           ;   r0x102D
                                           ;   r0x102E
                                           ;   r0x102F
                                           ;; Starting pCode block
                                           _EEPROM_Write_Data	;Function start
                                           ; 2 exit points
                                           ;	.line	98; "MC32F7361.c"	void EEPROM_Write_Data(u8 addr, u16 *data, u8 len)
000258   561f     movra   0x1f             	MOVRA	r0x1028
000259   5806     movar   0x6              	MOVAR	STK00
00025a   5622     movra   0x22             	MOVRA	r0x1029
00025b   5805     movar   0x5              	MOVAR	STK01
00025c   5621     movra   0x21             	MOVRA	r0x102A
00025d   5804     movar   0x4              	MOVAR	STK02
00025e   5620     movra   0x20             	MOVRA	r0x102B
00025f   5803     movar   0x3              	MOVAR	STK03
000260   5623     movra   0x23             	MOVRA	r0x102C
                                           _00179_DS_
                                           ;	.line	100; "MC32F7361.c"	while (len)
000261   3c00     movai   0                	MOVAI	0x00
000262   5c23     orar    0x23             	ORAR	r0x102C
000263   f587     jbclr   0x187, 0x2       	JBCLR	PFLAG,2
000264   a27f     goto    0x27f            	GOTO	_00182_DS_
                                           ;	.line	102; "MC32F7361.c"	EEPROM_Write_Byte(addr++, *data++);
000265   581f     movar   0x1f             	MOVAR	r0x1028
000266   5624     movra   0x24             	MOVRA	r0x102D
000267   661f     incr    0x1f             	INCR	r0x1028
000268   5820     movar   0x20             	MOVAR	r0x102B
000269   5605     movra   0x5              	MOVRA	STK01
00026a   5821     movar   0x21             	MOVAR	r0x102A
00026b   5606     movra   0x6              	MOVRA	STK00
00026c   5822     movar   0x22             	MOVAR	r0x1029
00026d   83a9     call    0x3a9            	CALL	__gptrget2
00026e   5626     movra   0x26             	MOVRA	r0x102E
00026f   5806     movar   0x6              	MOVAR	STK00
000270   5625     movra   0x25             	MOVRA	r0x102F
000271   3c02     movai   0x2              	MOVAI	0x02
000272   7e20     addra   0x20             	ADDRA	r0x102B
000273   f187     jbclr   0x187, 0         	JBCLR	PFLAG,0
000274   6621     incr    0x21             	INCR	r0x102A
000275   f587     jbclr   0x187, 0x2       	JBCLR	PFLAG,2
000276   6622     incr    0x22             	INCR	r0x1029
000277   5825     movar   0x25             	MOVAR	r0x102F
000278   5605     movra   0x5              	MOVRA	STK01
000279   5826     movar   0x26             	MOVAR	r0x102E
00027a   5606     movra   0x6              	MOVRA	STK00
00027b   5824     movar   0x24             	MOVAR	r0x102D
00027c   8297     call    0x297            	CALL	_EEPROM_Write_Byte
                                           ;	.line	103; "MC32F7361.c"	len--;
00027d   6e23     decr    0x23             	DECR	r0x102C
00027e   a261     goto    0x261            	GOTO	_00179_DS_
                                           _00182_DS_
                                           ;	.line	105; "MC32F7361.c"	}
00027f   000c     return                   	RETURN	
                                           ; exit point of _EEPROM_Write_Data
                                           
                                           ;***
                                           ;  pBlock Stats: dbName = C
                                           ;***
                                           ;entry:  _EEPROM_Read_Byte	;Function start
                                           ; 2 exit points
                                           ;has an exit
                                           ;5 compiler assigned registers:
                                           ;   r0x1030
                                           ;   r0x1031
                                           ;   r0x1032
                                           ;   r0x1033
                                           ;   STK00
                                           ;; Starting pCode block
                                           _EEPROM_Read_Byte	;Function start
                                           ; 2 exit points
                                           ;	.line	78; "MC32F7361.c"	uint16_t EEPROM_Read_Byte(u8 addr)
000280   57c5     movra   0x1c5            	MOVRA	_EEAR
                                           ;	.line	82; "MC32F7361.c"	EECR = 0x02; //  EE 
000281   3c02     movai   0x2              	MOVAI	0x02
000282   57c3     movra   0x1c3            	MOVRA	_EECR
                                           ;	.line	83; "MC32F7361.c"	Nop();
000283   0000     nop                      	nop	
                                           ;	.line	84; "MC32F7361.c"	Nop();
000284   0000     nop                      	nop	
                                           _00174_DS_
                                           ;	.line	85; "MC32F7361.c"	while (EEREAD) //  EE 
000285   f3c3     jbclr   0x1c3, 0x1       	JBCLR	_EECRbits,1
000286   a285     goto    0x285            	GOTO	_00174_DS_
                                           ;	.line	89; "MC32F7361.c"	EEDR = (EEDRH << 8) | EEDRL;
000287   59c6     movar   0x1c6            	MOVAR	_EEDRH
000288   561e     movra   0x1e             	MOVRA	r0x1032
000289   561b     movra   0x1b             	MOVRA	r0x1030
00028a   761c     clrr    0x1c             	CLRR	r0x1031
                                           ;;101	MOVAR	r0x1030
00028b   761d     clrr    0x1d             	CLRR	r0x1033
00028c   59c7     movar   0x1c7            	MOVAR	_EEDRL
00028d   561b     movra   0x1b             	MOVRA	r0x1030
00028e   761c     clrr    0x1c             	CLRR	r0x1031
00028f   581b     movar   0x1b             	MOVAR	r0x1030
000290   5e1d     orra    0x1d             	ORRA	r0x1033
000291   3c00     movai   0                	MOVAI	0x00
000292   5e1e     orra    0x1e             	ORRA	r0x1032
                                           ;	.line	90; "MC32F7361.c"	return EEDR;
000293   581d     movar   0x1d             	MOVAR	r0x1033
000294   5606     movra   0x6              	MOVRA	STK00
000295   581e     movar   0x1e             	MOVAR	r0x1032
                                           ;	.line	91; "MC32F7361.c"	}
000296   000c     return                   	RETURN	
                                           ; exit point of _EEPROM_Read_Byte
                                           
                                           ;***
                                           ;  pBlock Stats: dbName = C
                                           ;***
                                           ;entry:  _EEPROM_Write_Byte	;Function start
                                           ; 2 exit points
                                           ;has an exit
                                           ;6 compiler assigned registers:
                                           ;   STK00
                                           ;   r0x1024
                                           ;   STK01
                                           ;   r0x1025
                                           ;   r0x1026
                                           ;   r0x1027
                                           ;; Starting pCode block
                                           _EEPROM_Write_Byte	;Function start
                                           ; 2 exit points
                                           ;	.line	54; "MC32F7361.c"	void EEPROM_Write_Byte(uint8_t addr, uint16_t data)
000297   57c5     movra   0x1c5            	MOVRA	_EEAR
000298   5806     movar   0x6              	MOVAR	STK00
000299   561a     movra   0x1a             	MOVRA	r0x1026
                                           ;;1	MOVRA	r0x1024
00029a   5805     movar   0x5              	MOVAR	STK01
00029b   5619     movra   0x19             	MOVRA	r0x1025
                                           ;	.line	56; "MC32F7361.c"	HFEN = 1;
00029c   c1ae     bset    0x1ae, 0         	BSET	_OSCMRbits,0
                                           ;;99	MOVAR	r0x1024
                                           ;;1	CLRR	r0x1027
                                           ;	.line	58; "MC32F7361.c"	EEDRH = (data >> 8) & 0xff;
00029d   581a     movar   0x1a             	MOVAR	r0x1026
00029e   57c6     movra   0x1c6            	MOVRA	_EEDRH
                                           ;	.line	59; "MC32F7361.c"	EEDRL = data & 0xff;
00029f   5819     movar   0x19             	MOVAR	r0x1025
0002a0   57c7     movra   0x1c7            	MOVRA	_EEDRL
                                           ;	.line	60; "MC32F7361.c"	GIE = 0;
0002a1   df88     bclr    0x188, 0x7       	BCLR	_MCRbits,7
                                           ;	.line	61; "MC32F7361.c"	EEPR = 0x5A;
0002a2   3c5a     movai   0x5a             	MOVAI	0x5a
0002a3   57c4     movra   0x1c4            	MOVRA	_EEPR
                                           ;	.line	62; "MC32F7361.c"	EEPR = 0xA5; // 
0002a4   3ca5     movai   0xa5             	MOVAI	0xa5
0002a5   57c4     movra   0x1c4            	MOVRA	_EEPR
                                           ;	.line	63; "MC32F7361.c"	EECR = 0x01; // EEPROM  
0002a6   3c01     movai   0x1              	MOVAI	0x01
0002a7   57c3     movra   0x1c3            	MOVRA	_EECR
                                           ;	.line	64; "MC32F7361.c"	Nop();
0002a8   0000     nop                      	nop	
                                           ;	.line	65; "MC32F7361.c"	Nop();
0002a9   0000     nop                      	nop	
                                           _00169_DS_
                                           ;	.line	66; "MC32F7361.c"	while (EEWRITE) //  EE 
0002aa   f1c3     jbclr   0x1c3, 0         	JBCLR	_EECRbits,0
0002ab   a2aa     goto    0x2aa            	GOTO	_00169_DS_
                                           ;	.line	70; "MC32F7361.c"	GIE = 1;
0002ac   cf88     bset    0x188, 0x7       	BSET	_MCRbits,7
                                           ;	.line	71; "MC32F7361.c"	}
0002ad   000c     return                   	RETURN	
                                           ; exit point of _EEPROM_Write_Byte
                                           
                                           ;***
                                           ;  pBlock Stats: dbName = C
                                           ;***
                                           ;entry:  _delay_1_4ms	;Function start
                                           ; 2 exit points
                                           ;has an exit
                                           ;functions called:
                                           ;   _delay_100us
                                           ;   _delay_100us
                                           ;2 compiler assigned registers:
                                           ;   r0x1012
                                           ;   r0x1013
                                           ;; Starting pCode block
                                           _delay_1_4ms	;Function start
                                           ; 2 exit points
                                           ;	.line	42; "MC32F7361.c"	for (i = 0; i < 14; i++)
0002ae   3c0e     movai   0xe              	MOVAI	0x0e
0002af   5609     movra   0x9              	MOVRA	r0x1012
                                           _00164_DS_
                                           ;	.line	44; "MC32F7361.c"	delay_100us();
0002b0   82c5     call    0x2c5            	CALL	_delay_100us
0002b1   6c09     decar   0x9              	DECAR	r0x1012
0002b2   5609     movra   0x9              	MOVRA	r0x1012
0002b3   560a     movra   0xa              	MOVRA	r0x1013
                                           ;;100	MOVAR	r0x1013
                                           ;	.line	42; "MC32F7361.c"	for (i = 0; i < 14; i++)
0002b4   3c00     movai   0                	MOVAI	0x00
0002b5   5c0a     orar    0xa              	ORAR	r0x1013
0002b6   e587     jbset   0x187, 0x2       	JBSET	PFLAG,2
0002b7   a2b0     goto    0x2b0            	GOTO	_00164_DS_
                                           ;	.line	46; "MC32F7361.c"	}
0002b8   000c     return                   	RETURN	
                                           ; exit point of _delay_1_4ms
                                           
                                           ;***
                                           ;  pBlock Stats: dbName = C
                                           ;***
                                           ;entry:  _delay_200us	;Function start
                                           ; 2 exit points
                                           ;has an exit
                                           ;2 compiler assigned registers:
                                           ;   r0x1034
                                           ;   r0x1035
                                           ;; Starting pCode block
                                           _delay_200us	;Function start
                                           ; 2 exit points
                                           ;	.line	32; "MC32F7361.c"	while (i--)
0002b9   3c96     movai   0x96             	MOVAI	0x96
0002ba   5617     movra   0x17             	MOVRA	r0x1034
                                           _00153_DS_
0002bb   5817     movar   0x17             	MOVAR	r0x1034
0002bc   5618     movra   0x18             	MOVRA	r0x1035
0002bd   6e17     decr    0x17             	DECR	r0x1034
0002be   3c00     movai   0                	MOVAI	0x00
0002bf   5c18     orar    0x18             	ORAR	r0x1035
0002c0   f587     jbclr   0x187, 0x2       	JBCLR	PFLAG,2
0002c1   a2c4     goto    0x2c4            	GOTO	_00156_DS_
                                           ;	.line	34; "MC32F7361.c"	Nop();
0002c2   0000     nop                      	nop	
0002c3   a2bb     goto    0x2bb            	GOTO	_00153_DS_
                                           _00156_DS_
                                           ;	.line	36; "MC32F7361.c"	}
0002c4   000c     return                   	RETURN	
                                           ; exit point of _delay_200us
                                           
                                           ;***
                                           ;  pBlock Stats: dbName = C
                                           ;***
                                           ;entry:  _delay_100us	;Function start
                                           ; 2 exit points
                                           ;has an exit
                                           ;2 compiler assigned registers:
                                           ;   r0x1010
                                           ;   r0x1011
                                           ;; Starting pCode block
                                           _delay_100us	;Function start
                                           ; 2 exit points
                                           ;	.line	22; "MC32F7361.c"	while (i--)
0002c5   3c4a     movai   0x4a             	MOVAI	0x4a
0002c6   5608     movra   0x8              	MOVRA	r0x1010
                                           _00145_DS_
0002c7   5808     movar   0x8              	MOVAR	r0x1010
0002c8   5607     movra   0x7              	MOVRA	r0x1011
0002c9   6e08     decr    0x8              	DECR	r0x1010
0002ca   3c00     movai   0                	MOVAI	0x00
0002cb   5c07     orar    0x7              	ORAR	r0x1011
0002cc   f587     jbclr   0x187, 0x2       	JBCLR	PFLAG,2
0002cd   a2d0     goto    0x2d0            	GOTO	_00148_DS_
                                           ;	.line	24; "MC32F7361.c"	Nop();
0002ce   0000     nop                      	nop	
0002cf   a2c7     goto    0x2c7            	GOTO	_00145_DS_
                                           _00148_DS_
                                           ;	.line	26; "MC32F7361.c"	}
0002d0   000c     return                   	RETURN	
                                           ; exit point of _delay_100us
                                           
                                           ;***
                                           ;  pBlock Stats: dbName = C
                                           ;***
                                           ;entry:  _send_data_msb	;Function start
                                           ; 2 exit points
                                           ;has an exit
                                           ;functions called:
                                           ;   _delay_ms
                                           ;   _delay_ms
                                           ;   _delay_ms
                                           ;   _delay_ms
                                           ;   _delay_ms
                                           ;   _delay_ms
                                           ;   _delay_ms
                                           ;   _delay_ms
                                           ;   _delay_ms
                                           ;   _delay_ms
                                           ;   _delay_ms
                                           ;   _delay_ms
                                           ;   _delay_ms
                                           ;   _delay_ms
                                           ;   _delay_ms
                                           ;   _delay_ms
                                           ;13 compiler assigned registers:
                                           ;   r0x1036
                                           ;   STK00
                                           ;   r0x1037
                                           ;   STK01
                                           ;   r0x1038
                                           ;   STK02
                                           ;   r0x1039
                                           ;   r0x103A
                                           ;   r0x103B
                                           ;   r0x103C
                                           ;   r0x103D
                                           ;   r0x103E
                                           ;   r0x103F
                                           ;; Starting pCode block
                                           _send_data_msb	;Function start
                                           ; 2 exit points
                                           ;	.line	229; "user.h"	void send_data_msb(u32 send_data)
0002d1   5610     movra   0x10             	MOVRA	r0x1036
0002d2   5806     movar   0x6              	MOVAR	STK00
0002d3   560f     movra   0xf              	MOVRA	r0x1037
0002d4   5805     movar   0x5              	MOVAR	STK01
0002d5   560e     movra   0xe              	MOVRA	r0x1038
0002d6   5804     movar   0x4              	MOVAR	STK02
0002d7   560d     movra   0xd              	MOVRA	r0x1039
                                           ;	.line	233; "user.h"	DEBUG_PIN = 1;
0002d8   c5b8     bset    0x1b8, 0x2       	BSET	_IOP2bits,2
                                           ;	.line	234; "user.h"	delay_ms(15);
0002d9   3c0f     movai   0xf              	MOVAI	0x0f
0002da   5606     movra   0x6              	MOVRA	STK00
0002db   3c00     movai   0                	MOVAI	0x00
0002dc   8322     call    0x322            	CALL	_delay_ms
                                           ;	.line	236; "user.h"	DEBUG_PIN = 0;
0002dd   d5b8     bclr    0x1b8, 0x2       	BCLR	_IOP2bits,2
                                           ;	.line	237; "user.h"	delay_ms(7); //
0002de   3c07     movai   0x7              	MOVAI	0x07
0002df   5606     movra   0x6              	MOVRA	STK00
0002e0   3c00     movai   0                	MOVAI	0x00
0002e1   8322     call    0x322            	CALL	_delay_ms
                                           ;	.line	239; "user.h"	for (u8 i = 0; i < 32; i++)
0002e2   7611     clrr    0x11             	CLRR	r0x103A
                                           ;;unsigned compare: left < lit(0x20=32), size=1
                                           _00121_DS_
0002e3   3c20     movai   0x20             	MOVAI	0x20
0002e4   4811     rsubar  0x11             	RSUBAR	r0x103A
0002e5   f187     jbclr   0x187, 0         	JBCLR	PFLAG,0
0002e6   a316     goto    0x316            	GOTO	_00119_DS_
                                           ;;genSkipc:3291: created from rifx:013B5EFC
                                           ;	.line	241; "user.h"	if ((send_data >> (32 - 1 - i)) & 0x01)
0002e7   5811     movar   0x11             	MOVAR	r0x103A
0002e8   3a1f     isubai  0x1f             	ISUBAI	0x1f
0002e9   5612     movra   0x12             	MOVRA	r0x103B
0002ea   5810     movar   0x10             	MOVAR	r0x1036
0002eb   5616     movra   0x16             	MOVRA	r0x103C
0002ec   580f     movar   0xf              	MOVAR	r0x1037
0002ed   5615     movra   0x15             	MOVRA	r0x103D
0002ee   580e     movar   0xe              	MOVAR	r0x1038
0002ef   5614     movra   0x14             	MOVRA	r0x103E
0002f0   580d     movar   0xd              	MOVAR	r0x1039
0002f1   5613     movra   0x13             	MOVRA	r0x103F
0002f2   5812     movar   0x12             	MOVAR	r0x103B
0002f3   3a00     isubai  0                	ISUBAI	0x00
0002f4   f587     jbclr   0x187, 0x2       	JBCLR	PFLAG,2
0002f5   a2fd     goto    0x2fd            	GOTO	_00140_DS_
                                           _00139_DS_
0002f6   4e16     rrr     0x16             	RRR	r0x103C
0002f7   4e15     rrr     0x15             	RRR	r0x103D
0002f8   4e14     rrr     0x14             	RRR	r0x103E
0002f9   4e13     rrr     0x13             	RRR	r0x103F
0002fa   3f01     addai   0x1              	ADDAI	0x01
0002fb   e187     jbset   0x187, 0         	JBSET	PFLAG,0
0002fc   a2f6     goto    0x2f6            	GOTO	_00139_DS_
                                           _00140_DS_
0002fd   e013     jbset   0x13, 0          	JBSET	r0x103F,0
0002fe   a30a     goto    0x30a            	GOTO	_00117_DS_
                                           ;	.line	245; "user.h"	DEBUG_PIN = 1;
0002ff   c5b8     bset    0x1b8, 0x2       	BSET	_IOP2bits,2
                                           ;	.line	246; "user.h"	delay_ms(5); //
000300   3c05     movai   0x5              	MOVAI	0x05
000301   5606     movra   0x6              	MOVRA	STK00
000302   3c00     movai   0                	MOVAI	0x00
000303   8322     call    0x322            	CALL	_delay_ms
                                           ;	.line	248; "user.h"	DEBUG_PIN = 0;
000304   d5b8     bclr    0x1b8, 0x2       	BCLR	_IOP2bits,2
                                           ;	.line	249; "user.h"	delay_ms(10); //
000305   3c0a     movai   0xa              	MOVAI	0x0a
000306   5606     movra   0x6              	MOVRA	STK00
000307   3c00     movai   0                	MOVAI	0x00
000308   8322     call    0x322            	CALL	_delay_ms
000309   a314     goto    0x314            	GOTO	_00122_DS_
                                           _00117_DS_
                                           ;	.line	255; "user.h"	DEBUG_PIN = 1;
00030a   c5b8     bset    0x1b8, 0x2       	BSET	_IOP2bits,2
                                           ;	.line	256; "user.h"	delay_ms(5); //
00030b   3c05     movai   0x5              	MOVAI	0x05
00030c   5606     movra   0x6              	MOVRA	STK00
00030d   3c00     movai   0                	MOVAI	0x00
00030e   8322     call    0x322            	CALL	_delay_ms
                                           ;	.line	258; "user.h"	DEBUG_PIN = 0;
00030f   d5b8     bclr    0x1b8, 0x2       	BCLR	_IOP2bits,2
                                           ;	.line	259; "user.h"	delay_ms(5); //
000310   3c05     movai   0x5              	MOVAI	0x05
000311   5606     movra   0x6              	MOVRA	STK00
000312   3c00     movai   0                	MOVAI	0x00
000313   8322     call    0x322            	CALL	_delay_ms
                                           _00122_DS_
                                           ;	.line	239; "user.h"	for (u8 i = 0; i < 32; i++)
000314   6611     incr    0x11             	INCR	r0x103A
000315   a2e3     goto    0x2e3            	GOTO	_00121_DS_
                                           _00119_DS_
                                           ;	.line	265; "user.h"	DEBUG_PIN = 0;
000316   d5b8     bclr    0x1b8, 0x2       	BCLR	_IOP2bits,2
                                           ;	.line	266; "user.h"	delay_ms(1);
000317   3c01     movai   0x1              	MOVAI	0x01
000318   5606     movra   0x6              	MOVRA	STK00
000319   3c00     movai   0                	MOVAI	0x00
00031a   8322     call    0x322            	CALL	_delay_ms
                                           ;	.line	267; "user.h"	DEBUG_PIN = 1;
00031b   c5b8     bset    0x1b8, 0x2       	BSET	_IOP2bits,2
                                           ;	.line	268; "user.h"	delay_ms(1);
00031c   3c01     movai   0x1              	MOVAI	0x01
00031d   5606     movra   0x6              	MOVRA	STK00
00031e   3c00     movai   0                	MOVAI	0x00
00031f   8322     call    0x322            	CALL	_delay_ms
                                           ;	.line	269; "user.h"	DEBUG_PIN = 0;
000320   d5b8     bclr    0x1b8, 0x2       	BCLR	_IOP2bits,2
                                           ;	.line	270; "user.h"	}
000321   000c     return                   	RETURN	
                                           ; exit point of _send_data_msb
                                           
                                           ;***
                                           ;  pBlock Stats: dbName = C
                                           ;***
                                           ;entry:  _delay_ms	;Function start
                                           ; 2 exit points
                                           ;has an exit
                                           ;7 compiler assigned registers:
                                           ;   r0x1010
                                           ;   STK00
                                           ;   r0x1011
                                           ;   r0x1012
                                           ;   r0x1013
                                           ;   r0x1014
                                           ;   r0x1015
                                           ;; Starting pCode block
                                           _delay_ms	;Function start
                                           ; 2 exit points
                                           ;	.line	207; "user.h"	void delay_ms(u16 xms)
000322   5608     movra   0x8              	MOVRA	r0x1010
000323   5806     movar   0x6              	MOVAR	STK00
000324   5607     movra   0x7              	MOVRA	r0x1011
                                           _00108_DS_
                                           ;	.line	209; "user.h"	while (xms)
000325   5807     movar   0x7              	MOVAR	r0x1011
000326   5c08     orar    0x8              	ORAR	r0x1010
000327   f587     jbclr   0x187, 0x2       	JBCLR	PFLAG,2
000328   a341     goto    0x341            	GOTO	_00111_DS_
                                           ;	.line	212; "user.h"	while (i--)
000329   3c05     movai   0x5              	MOVAI	0x05
00032a   5609     movra   0x9              	MOVRA	r0x1012
00032b   3c02     movai   0x2              	MOVAI	0x02
00032c   560a     movra   0xa              	MOVRA	r0x1013
                                           _00105_DS_
00032d   5809     movar   0x9              	MOVAR	r0x1012
00032e   560b     movra   0xb              	MOVRA	r0x1014
00032f   580a     movar   0xa              	MOVAR	r0x1013
000330   560c     movra   0xc              	MOVRA	r0x1015
000331   3cff     movai   0xff             	MOVAI	0xff
000332   7e09     addra   0x9              	ADDRA	r0x1012
000333   e187     jbset   0x187, 0         	JBSET	PFLAG,0
000334   6e0a     decr    0xa              	DECR	r0x1013
000335   580b     movar   0xb              	MOVAR	r0x1014
000336   5c0c     orar    0xc              	ORAR	r0x1015
000337   f587     jbclr   0x187, 0x2       	JBCLR	PFLAG,2
000338   a33b     goto    0x33b            	GOTO	_00107_DS_
                                           ;	.line	214; "user.h"	Nop();
000339   0000     nop                      	nop	
00033a   a32d     goto    0x32d            	GOTO	_00105_DS_
                                           _00107_DS_
                                           ;	.line	216; "user.h"	xms--; //  --while()
00033b   3cff     movai   0xff             	MOVAI	0xff
00033c   7e07     addra   0x7              	ADDRA	r0x1011
00033d   e187     jbset   0x187, 0         	JBSET	PFLAG,0
00033e   6e08     decr    0x8              	DECR	r0x1010
                                           ;	.line	220; "user.h"	__endasm;
                                           	;
00033f   000e     clrwdt                   	clrwdt;
                                           	
000340   a325     goto    0x325            	GOTO	_00108_DS_
                                           _00111_DS_
                                           ;	.line	222; "user.h"	}
000341   000c     return                   	RETURN	
                                           ; exit point of _delay_ms
                                           
                                           
                                           ;	code size estimation:
                                           ;	  811+    0 =   811 instructions ( 1622 byte)
                                           
                                           	end
                                           ;--------------------------------------------------------
                                           ; File Created by SN-SDCC : SinoMCU ANSI-C Compiler
                                           ; Version 2.0.0 (Dec 11 2019) (MINGW32)
                                           ; This file was generated Sat Mar 15 15:23:59 2025
                                           ;--------------------------------------------------------
                                           ; MC32 port for the RISC core
                                           ;--------------------------------------------------------
                                           ;	.file	"MC32F7361.c"
                                           	list	p=7361
                                           	radix dec
                                           	include "7361.inc"
                                           ;--------------------------------------------------------
                                           ; external declarations
                                           ;--------------------------------------------------------
                                           	extern	_INDF0bits
                                           	extern	_INDF1bits
                                           	extern	_INDF2bits
                                           	extern	_HIBYTEbits
                                           	extern	_FSR0bits
                                           	extern	_FSR1bits
                                           	extern	_PCLbits
                                           	extern	_PFLAGbits
                                           	extern	_MCRbits
                                           	extern	_INDF3bits
                                           	extern	_INTEbits
                                           	extern	_INTFbits
                                           	extern	_DRVCRbits
                                           	extern	_P0KBCRbits
                                           	extern	_P1KBCRbits
                                           	extern	_P2KBCRbits
                                           	extern	_IOP0bits
                                           	extern	_OEP0bits
                                           	extern	_PUP0bits
                                           	extern	_PDP0bits
                                           	extern	_IOP1bits
                                           	extern	_OEP1bits
                                           	extern	_PUP1bits
                                           	extern	_PDP1bits
                                           	extern	_T0CRbits
                                           	extern	_T0CNTbits
                                           	extern	_T0LOADbits
                                           	extern	_T0DATAbits
                                           	extern	_T1CRbits
                                           	extern	_T1CNTbits
                                           	extern	_T1LOADbits
                                           	extern	_T1DATAbits
                                           	extern	_T2CRbits
                                           	extern	_T2CNTbits
                                           	extern	_T2LOADbits
                                           	extern	_T2DATAbits
                                           	extern	_T3CRbits
                                           	extern	_T3CNTbits
                                           	extern	_T3LOADbits
                                           	extern	_PWM0DRbits
                                           	extern	_PWM1DRbits
                                           	extern	_PWM2DRbits
                                           	extern	_PWMCR0bits
                                           	extern	_PWMCR1bits
                                           	extern	_OSCMRbits
                                           	extern	_LVDCRbits
                                           	extern	_ADCR0bits
                                           	extern	_ADCR1bits
                                           	extern	_ADCR2bits
                                           	extern	_OSADJCRbits
                                           	extern	_ADRHbits
                                           	extern	_ADRLbits
                                           	extern	_P0ADCRbits
                                           	extern	_P1ADCRbits
                                           	extern	_IOP2bits
                                           	extern	_OEP2bits
                                           	extern	_PUP2bits
                                           	extern	_PDP2bits
                                           	extern	_PMODbits
                                           	extern	_PWMCR3bits
                                           	extern	_PWMCR2bits
                                           	extern	_PFRCCRbits
                                           	extern	_PFRCCALbits
                                           	extern	_EECRbits
                                           	extern	_EEPRbits
                                           	extern	_EEARbits
                                           	extern	_EEDRHbits
                                           	extern	_EEDRLbits
                                           	extern	_DBGCRbits
                                           	extern	_DBGPRbits
                                           	extern	_HIRCCALbits
                                           	extern	_INDF0
                                           	extern	_INDF1
                                           	extern	_INDF2
                                           	extern	_HIBYTE
                                           	extern	_FSR0
                                           	extern	_FSR1
                                           	extern	_PCL
                                           	extern	_PFLAG
                                           	extern	_MCR
                                           	extern	_INDF3
                                           	extern	_INTE
                                           	extern	_INTF
                                           	extern	_DRVCR
                                           	extern	_P0KBCR
                                           	extern	_P1KBCR
                                           	extern	_P2KBCR
                                           	extern	_IOP0
                                           	extern	_OEP0
                                           	extern	_PUP0
                                           	extern	_PDP0
                                           	extern	_IOP1
                                           	extern	_OEP1
                                           	extern	_PUP1
                                           	extern	_PDP1
                                           	extern	_T0CR
                                           	extern	_T0CNT
                                           	extern	_T0LOAD
                                           	extern	_T0DATA
                                           	extern	_T1CR
                                           	extern	_T1CNT
                                           	extern	_T1LOAD
                                           	extern	_T1DATA
                                           	extern	_T2CR
                                           	extern	_T2CNT
                                           	extern	_T2LOAD
                                           	extern	_T2DATA
                                           	extern	_T3CR
                                           	extern	_T3CNT
                                           	extern	_T3LOAD
                                           	extern	_PWM0DR
                                           	extern	_PWM1DR
                                           	extern	_PWM2DR
                                           	extern	_PWMCR0
                                           	extern	_PWMCR1
                                           	extern	_OSCMR
                                           	extern	_LVDCR
                                           	extern	_ADCR0
                                           	extern	_ADCR1
                                           	extern	_ADCR2
                                           	extern	_OSADJCR
                                           	extern	_ADRH
                                           	extern	_ADRL
                                           	extern	_P0ADCR
                                           	extern	_P1ADCR
                                           	extern	_IOP2
                                           	extern	_OEP2
                                           	extern	_PUP2
                                           	extern	_PDP2
                                           	extern	_PMOD
                                           	extern	_PWMCR3
                                           	extern	_PWMCR2
                                           	extern	_PFRCCR
                                           	extern	_PFRCCAL
                                           	extern	_EECR
                                           	extern	_EEPR
                                           	extern	_EEAR
                                           	extern	_EEDRH
                                           	extern	_EEDRL
                                           	extern	_DBGCR
                                           	extern	_DBGPR
                                           	extern	_HIRCCAL
                                           	extern	__gptrget2
                                           	extern	__mulchar
                                           	extern	__gptrget1
                                           ;--------------------------------------------------------
                                           ; global declarations
                                           ;--------------------------------------------------------
                                           	global	_Sys_Init
                                           	global	_TIMER2_INT_Init
                                           	global	_IO_Init
                                           	global	_CLR_RAM
                                           	global	_delay_ms
                                           	global	_send_data_msb
                                           	global	_delay_100us
                                           	global	_delay_200us
                                           	global	_delay_1_4ms
                                           	global	_EEPROM_Write_Byte
                                           	global	_EEPROM_Read_Byte
                                           	global	_EEPROM_Write_Data
                                           	global	_send_cmd_16bit
                                           	global	_main
                                           	global	_int_isr
                                           	global	_cur_auto_period
                                           	global	_cur_led_status
                                           	global	_cur_r3c4_status
                                           	global	_abuf
                                           	global	_statusbuf
                                           	global	_flag1
                                           	global	_ir_data
                                           	global	_table
                                           
                                           	global STK06
                                           	global STK05
                                           	global STK04
                                           	global STK03
                                           	global STK02
                                           	global STK01
                                           	global STK00
                                           
                                           sharebank udata_ovr 0x0000
                                           STK06	res 1
                                           STK05	res 1
                                           STK04	res 1
                                           STK03	res 1
                                           STK02	res 1
                                           STK01	res 1
                                           STK00	res 1
                                           
                                           ;--------------------------------------------------------
                                           ; global definitions
                                           ;--------------------------------------------------------
                                           UD_MC32F7361_0	udata
                                           _cur_auto_period	res	1
                                           
                                           UD_MC32F7361_1	udata
                                           _cur_led_status	res	1
                                           
                                           UD_MC32F7361_2	udata
                                           _cur_r3c4_status	res	1
                                           
                                           UD_MC32F7361_3	udata
                                           _abuf	res	1
                                           
                                           UD_MC32F7361_4	udata
                                           _statusbuf	res	1
                                           
                                           UD_MC32F7361_5	udata
                                           _flag1	res	1
                                           
                                           UD_MC32F7361_6	udata
                                           _ir_data	res	1
                                           
                                           ;--------------------------------------------------------
                                           ; absolute symbol definitions
                                           ;--------------------------------------------------------
                                           ;--------------------------------------------------------
                                           ; compiler-defined variables
                                           ;--------------------------------------------------------
                                           UDL_MC32F7361_0	udata
                                           r0x1011	res	1
                                           r0x1010	res	1
                                           r0x1012	res	1
                                           r0x1013	res	1
                                           r0x1014	res	1
                                           r0x1015	res	1
                                           r0x1039	res	1
                                           r0x1038	res	1
                                           r0x1037	res	1
                                           r0x1036	res	1
                                           r0x103A	res	1
                                           r0x103B	res	1
                                           r0x103F	res	1
                                           r0x103E	res	1
                                           r0x103D	res	1
                                           r0x103C	res	1
                                           r0x1034	res	1
                                           r0x1035	res	1
                                           r0x1025	res	1
                                           r0x1026	res	1
                                           r0x1030	res	1
                                           r0x1031	res	1
                                           r0x1033	res	1
                                           r0x1032	res	1
                                           r0x1028	res	1
                                           r0x102B	res	1
                                           r0x102A	res	1
                                           r0x1029	res	1
                                           r0x102C	res	1
                                           r0x102D	res	1
                                           r0x102F	res	1
                                           r0x102E	res	1
                                           r0x1017	res	1
                                           r0x1016	res	1
                                           r0x1018	res	1
                                           r0x1019	res	1
                                           r0x101B	res	1
                                           r0x101A	res	1
                                           r0x101C	res	1
                                           r0x101D	res	1
                                           r0x101E	res	1
                                           r0x101F	res	1
                                           r0x1020	res	1
                                           r0x1021	res	1
                                           r0x1022	res	1
                                           r0x1023	res	1
                                           r0x1040	res	1
                                           r0x1041	res	1
                                           _main_tmp_262144_58	res	2
                                           _int_isr_ir_level_cnt_196608_73	res	2
                                           _int_isr_ir_fliter_196608_73	res	1
                                           _int_isr___ir_data_196608_73	res	1
                                           _int_isr_ir_long_press_cnt_196608_73	res	2
                                           _int_isr_cnt_100us_196608_89	res	1
                                           _int_isr_auto_period_cnt_327680_91	res	2
                                           ;--------------------------------------------------------
                                           ; initialized data
                                           ;--------------------------------------------------------
                                           
                                           ID_MC32F7361_0	code
                                           _table
                                           	dw 0x80
                                           	dw 0x96
                                           	dw 0x45
                                           	dw 0x0f
                                           	dw 0x11
                                           	dw 0x90
                                           	dw 0x00
                                           	dw 0x11
                                           	dw 0xff
                                           	dw 0xff
                                           	dw 0xb8
                                           	dw 0x00
                                           	dw 0x22
                                           	dw 0xff
                                           	dw 0xff
                                           	dw 0xf8
                                           	dw 0x00
                                           	dw 0x44
                                           	dw 0xff
                                           	dw 0xff
                                           	dw 0xb0
                                           	dw 0x96
                                           	dw 0x45
                                           	dw 0x10
                                           	dw 0x77
                                           	dw 0x98
                                           	dw 0x9f
                                           	dw 0x00
                                           	dw 0x10
                                           	dw 0x33
                                           	dw 0xd8
                                           	dw 0x90
                                           	dw 0xf1
                                           	dw 0x10
                                           	dw 0x66
                                           	dw 0x88
                                           	dw 0x93
                                           	dw 0x0f
                                           	dw 0x10
                                           	dw 0x55
                                           	dw 0xe8
                                           	dw 0x9f
                                           	dw 0x10
                                           	dw 0x10
                                           	dw 0x33
                                           	dw 0x48
                                           	dw 0x90
                                           	dw 0xf8
                                           	dw 0x10
                                           	dw 0x66
                                           	dw 0x68
                                           	dw 0x98
                                           	dw 0x0f
                                           	dw 0x10
                                           	dw 0x55
                                           	dw 0x02
                                           	dw 0x9f
                                           	dw 0x30
                                           	dw 0x10
                                           	dw 0x33
                                           	dw 0x32
                                           	dw 0x90
                                           	dw 0xfc
                                           	dw 0x10
                                           	dw 0x66
                                           	dw 0x20
                                           	dw 0x9f
                                           	dw 0x0f
                                           	dw 0x10
                                           	dw 0x55
                                           	dw 0x50
                                           	dw 0x9f
                                           	dw 0xf0
                                           	dw 0x10
                                           	dw 0x33
                                           	dw 0x78
                                           	dw 0x90
                                           	dw 0xff
                                           	dw 0x10
                                           	dw 0x66
                                           	dw 0x70
                                           	dw 0x9f
                                           	dw 0x03
                                           	dw 0x10
                                           	dw 0x55
                                           
                                           
                                           ;@Allocation info for local variables in function 'delay_ms'
                                           ;@delay_ms Sys_Init                  Allocated to registers ;size:2
                                           ;@delay_ms CLR_RAM                   Allocated to registers ;size:2
                                           ;@delay_ms IO_Init                   Allocated to registers ;size:2
                                           ;@delay_ms TIMER2_INT_Init           Allocated to registers ;size:2
                                           ;@delay_ms delay_ms                  Allocated to registers ;size:2
                                           ;@delay_ms INDF0bits                 Allocated to registers ;size:1
                                           ;@delay_ms INDF1bits                 Allocated to registers ;size:1
                                           ;@delay_ms INDF2bits                 Allocated to registers ;size:1
                                           ;@delay_ms HIBYTEbits                Allocated to registers ;size:1
                                           ;@delay_ms FSR0bits                  Allocated to registers ;size:1
                                           ;@delay_ms FSR1bits                  Allocated to registers ;size:1
                                           ;@delay_ms PCLbits                   Allocated to registers ;size:1
                                           ;@delay_ms PFLAGbits                 Allocated to registers ;size:1
                                           ;@delay_ms MCRbits                   Allocated to registers ;size:1
                                           ;@delay_ms INDF3bits                 Allocated to registers ;size:1
                                           ;@delay_ms INTEbits                  Allocated to registers ;size:1
                                           ;@delay_ms INTFbits                  Allocated to registers ;size:1
                                           ;@delay_ms DRVCRbits                 Allocated to registers ;size:1
                                           ;@delay_ms P0KBCRbits                Allocated to registers ;size:1
                                           ;@delay_ms P1KBCRbits                Allocated to registers ;size:1
                                           ;@delay_ms P2KBCRbits                Allocated to registers ;size:1
                                           ;@delay_ms IOP0bits                  Allocated to registers ;size:1
                                           ;@delay_ms OEP0bits                  Allocated to registers ;size:1
                                           ;@delay_ms PUP0bits                  Allocated to registers ;size:1
                                           ;@delay_ms PDP0bits                  Allocated to registers ;size:1
                                           ;@delay_ms IOP1bits                  Allocated to registers ;size:1
                                           ;@delay_ms OEP1bits                  Allocated to registers ;size:1
                                           ;@delay_ms PUP1bits                  Allocated to registers ;size:1
                                           ;@delay_ms PDP1bits                  Allocated to registers ;size:1
                                           ;@delay_ms T0CRbits                  Allocated to registers ;size:1
                                           ;@delay_ms T0CNTbits                 Allocated to registers ;size:1
                                           ;@delay_ms T0LOADbits                Allocated to registers ;size:1
                                           ;@delay_ms T0DATAbits                Allocated to registers ;size:1
                                           ;@delay_ms T1CRbits                  Allocated to registers ;size:1
                                           ;@delay_ms T1CNTbits                 Allocated to registers ;size:1
                                           ;@delay_ms T1LOADbits                Allocated to registers ;size:1
                                           ;@delay_ms T1DATAbits                Allocated to registers ;size:1
                                           ;@delay_ms T2CRbits                  Allocated to registers ;size:1
                                           ;@delay_ms T2CNTbits                 Allocated to registers ;size:1
                                           ;@delay_ms T2LOADbits                Allocated to registers ;size:1
                                           ;@delay_ms T2DATAbits                Allocated to registers ;size:1
                                           ;@delay_ms T3CRbits                  Allocated to registers ;size:1
                                           ;@delay_ms T3CNTbits                 Allocated to registers ;size:1
                                           ;@delay_ms T3LOADbits                Allocated to registers ;size:1
                                           ;@delay_ms PWM0DRbits                Allocated to registers ;size:1
                                           ;@delay_ms PWM1DRbits                Allocated to registers ;size:1
                                           ;@delay_ms PWM2DRbits                Allocated to registers ;size:1
                                           ;@delay_ms PWMCR0bits                Allocated to registers ;size:1
                                           ;@delay_ms PWMCR1bits                Allocated to registers ;size:1
                                           ;@delay_ms OSCMRbits                 Allocated to registers ;size:1
                                           ;@delay_ms LVDCRbits                 Allocated to registers ;size:1
                                           ;@delay_ms ADCR0bits                 Allocated to registers ;size:1
                                           ;@delay_ms ADCR1bits                 Allocated to registers ;size:1
                                           ;@delay_ms ADCR2bits                 Allocated to registers ;size:1
                                           ;@delay_ms OSADJCRbits               Allocated to registers ;size:1
                                           ;@delay_ms ADRHbits                  Allocated to registers ;size:1
                                           ;@delay_ms ADRLbits                  Allocated to registers ;size:1
                                           ;@delay_ms P0ADCRbits                Allocated to registers ;size:1
                                           ;@delay_ms P1ADCRbits                Allocated to registers ;size:1
                                           ;@delay_ms IOP2bits                  Allocated to registers ;size:1
                                           ;@delay_ms OEP2bits                  Allocated to registers ;size:1
                                           ;@delay_ms PUP2bits                  Allocated to registers ;size:1
                                           ;@delay_ms PDP2bits                  Allocated to registers ;size:1
                                           ;@delay_ms PMODbits                  Allocated to registers ;size:1
                                           ;@delay_ms PWMCR3bits                Allocated to registers ;size:1
                                           ;@delay_ms PWMCR2bits                Allocated to registers ;size:1
                                           ;@delay_ms PFRCCRbits                Allocated to registers ;size:1
                                           ;@delay_ms PFRCCALbits               Allocated to registers ;size:1
                                           ;@delay_ms EECRbits                  Allocated to registers ;size:1
                                           ;@delay_ms EEPRbits                  Allocated to registers ;size:1
                                           ;@delay_ms EEARbits                  Allocated to registers ;size:1
                                           ;@delay_ms EEDRHbits                 Allocated to registers ;size:1
                                           ;@delay_ms EEDRLbits                 Allocated to registers ;size:1
                                           ;@delay_ms DBGCRbits                 Allocated to registers ;size:1
                                           ;@delay_ms DBGPRbits                 Allocated to registers ;size:1
                                           ;@delay_ms HIRCCALbits               Allocated to registers ;size:1
                                           ;@delay_ms cur_auto_period           Allocated to registers ;size:1
                                           ;@delay_ms cur_led_status            Allocated to registers ;size:1
                                           ;@delay_ms cur_r3c4_status           Allocated to registers ;size:1
                                           ;@delay_ms abuf                      Allocated to registers ;size:1
                                           ;@delay_ms statusbuf                 Allocated to registers ;size:1
                                           ;@delay_ms flag1                     Allocated to registers ;size:1
                                           ;@delay_ms ir_data                   Allocated to registers ;size:1
                                           ;@delay_ms xms                       Allocated to registers ;size:2
                                           ;@delay_ms i                         Allocated to registers r0x1012 r0x1013 ;size:2
                                           ;@delay_ms INDF0                     Allocated to registers ;size:1
                                           ;@delay_ms INDF1                     Allocated to registers ;size:1
                                           ;@delay_ms INDF2                     Allocated to registers ;size:1
                                           ;@delay_ms HIBYTE                    Allocated to registers ;size:1
                                           ;@delay_ms FSR0                      Allocated to registers ;size:1
                                           ;@delay_ms FSR1                      Allocated to registers ;size:1
                                           ;@delay_ms PCL                       Allocated to registers ;size:1
                                           ;@delay_ms PFLAG                     Allocated to registers ;size:1
                                           ;@delay_ms MCR                       Allocated to registers ;size:1
                                           ;@delay_ms INDF3                     Allocated to registers ;size:1
                                           ;@delay_ms INTE                      Allocated to registers ;size:1
                                           ;@delay_ms INTF                      Allocated to registers ;size:1
                                           ;@delay_ms DRVCR                     Allocated to registers ;size:1
                                           ;@delay_ms P0KBCR                    Allocated to registers ;size:1
                                           ;@delay_ms P1KBCR                    Allocated to registers ;size:1
                                           ;@delay_ms P2KBCR                    Allocated to registers ;size:1
                                           ;@delay_ms IOP0                      Allocated to registers ;size:1
                                           ;@delay_ms OEP0                      Allocated to registers ;size:1
                                           ;@delay_ms PUP0                      Allocated to registers ;size:1
                                           ;@delay_ms PDP0                      Allocated to registers ;size:1
                                           ;@delay_ms IOP1                      Allocated to registers ;size:1
                                           ;@delay_ms OEP1                      Allocated to registers ;size:1
                                           ;@delay_ms PUP1                      Allocated to registers ;size:1
                                           ;@delay_ms PDP1                      Allocated to registers ;size:1
                                           ;@delay_ms T0CR                      Allocated to registers ;size:1
                                           ;@delay_ms T0CNT                     Allocated to registers ;size:1
                                           ;@delay_ms T0LOAD                    Allocated to registers ;size:1
                                           ;@delay_ms T0DATA                    Allocated to registers ;size:1
                                           ;@delay_ms T1CR                      Allocated to registers ;size:1
                                           ;@delay_ms T1CNT                     Allocated to registers ;size:1
                                           ;@delay_ms T1LOAD                    Allocated to registers ;size:1
                                           ;@delay_ms T1DATA                    Allocated to registers ;size:1
                                           ;@delay_ms T2CR                      Allocated to registers ;size:1
                                           ;@delay_ms T2CNT                     Allocated to registers ;size:1
                                           ;@delay_ms T2LOAD                    Allocated to registers ;size:1
                                           ;@delay_ms T2DATA                    Allocated to registers ;size:1
                                           ;@delay_ms T3CR                      Allocated to registers ;size:1
                                           ;@delay_ms T3CNT                     Allocated to registers ;size:1
                                           ;@delay_ms T3LOAD                    Allocated to registers ;size:1
                                           ;@delay_ms PWM0DR                    Allocated to registers ;size:1
                                           ;@delay_ms PWM1DR                    Allocated to registers ;size:1
                                           ;@delay_ms PWM2DR                    Allocated to registers ;size:1
                                           ;@delay_ms PWMCR0                    Allocated to registers ;size:1
                                           ;@delay_ms PWMCR1                    Allocated to registers ;size:1
                                           ;@delay_ms OSCMR                     Allocated to registers ;size:1
                                           ;@delay_ms LVDCR                     Allocated to registers ;size:1
                                           ;@delay_ms ADCR0                     Allocated to registers ;size:1
                                           ;@delay_ms ADCR1                     Allocated to registers ;size:1
                                           ;@delay_ms ADCR2                     Allocated to registers ;size:1
                                           ;@delay_ms OSADJCR                   Allocated to registers ;size:1
                                           ;@delay_ms ADRH                      Allocated to registers ;size:1
                                           ;@delay_ms ADRL                      Allocated to registers ;size:1
                                           ;@delay_ms P0ADCR                    Allocated to registers ;size:1
                                           ;@delay_ms P1ADCR                    Allocated to registers ;size:1
                                           ;@delay_ms IOP2                      Allocated to registers ;size:1
                                           ;@delay_ms OEP2                      Allocated to registers ;size:1
                                           ;@delay_ms PUP2                      Allocated to registers ;size:1
                                           ;@delay_ms PDP2                      Allocated to registers ;size:1
                                           ;@delay_ms PMOD                      Allocated to registers ;size:1
                                           ;@delay_ms PWMCR3                    Allocated to registers ;size:1
                                           ;@delay_ms PWMCR2                    Allocated to registers ;size:1
                                           ;@delay_ms PFRCCR                    Allocated to registers ;size:1
                                           ;@delay_ms PFRCCAL                   Allocated to registers ;size:1
                                           ;@delay_ms EECR                      Allocated to registers ;size:1
                                           ;@delay_ms EEPR                      Allocated to registers ;size:1
                                           ;@delay_ms EEAR                      Allocated to registers ;size:1
                                           ;@delay_ms EEDRH                     Allocated to registers ;size:1
                                           ;@delay_ms EEDRL                     Allocated to registers ;size:1
                                           ;@delay_ms DBGCR                     Allocated to registers ;size:1
                                           ;@delay_ms DBGPR                     Allocated to registers ;size:1
                                           ;@delay_ms HIRCCAL                   Allocated to registers ;size:1
                                           ;@end Allocation info for local variables in function 'delay_ms';
                                           ;@Allocation info for local variables in function 'send_data_msb'
                                           ;@send_data_msb send_data                 Allocated to registers r0x1039 r0x1038 r0x1037 r0x1036 ;size:4
                                           ;@send_data_msb i                         Allocated to registers r0x103A ;size:1
                                           ;@end Allocation info for local variables in function 'send_data_msb';
                                           ;@Allocation info for local variables in function 'delay_100us'
                                           ;@delay_100us i                         Allocated to registers r0x1010 ;size:1
                                           ;@end Allocation info for local variables in function 'delay_100us';
                                           ;@Allocation info for local variables in function 'delay_200us'
                                           ;@delay_200us i                         Allocated to registers r0x1034 ;size:1
                                           ;@end Allocation info for local variables in function 'delay_200us';
                                           ;@Allocation info for local variables in function 'delay_1_4ms'
                                           ;@delay_1_4ms i                         Allocated to registers r0x1012 ;size:1
                                           ;@end Allocation info for local variables in function 'delay_1_4ms';
                                           ;@Allocation info for local variables in function 'EEPROM_Write_Byte'
                                           ;@EEPROM_Write_Byte data                      Allocated to registers r0x1025 r0x1024 ;size:2
                                           ;@EEPROM_Write_Byte addr                      Allocated to registers ;size:1
                                           ;@end Allocation info for local variables in function 'EEPROM_Write_Byte';
                                           ;@Allocation info for local variables in function 'EEPROM_Read_Byte'
                                           ;@EEPROM_Read_Byte addr                      Allocated to registers ;size:1
                                           ;@EEPROM_Read_Byte EEDR                      Allocated to registers r0x1033 r0x1032 ;size:2
                                           ;@end Allocation info for local variables in function 'EEPROM_Read_Byte';
                                           ;@Allocation info for local variables in function 'EEPROM_Write_Data'
                                           ;@EEPROM_Write_Data len                       Allocated to registers ;size:1
                                           ;@EEPROM_Write_Data data                      Allocated to registers ;size:3
                                           ;@EEPROM_Write_Data addr                      Allocated to registers ;size:1
                                           ;@end Allocation info for local variables in function 'EEPROM_Write_Data';
                                           ;@Allocation info for local variables in function 'send_cmd_16bit'
                                           ;@send_cmd_16bit data                      Allocated to registers r0x1017 r0x1016 ;size:2
                                           ;@send_cmd_16bit i                         Allocated to registers r0x1018 ;size:1
                                           ;@end Allocation info for local variables in function 'send_cmd_16bit';
                                           ;@Allocation info for local variables in function 'CLR_RAM'
                                           ;@end Allocation info for local variables in function 'CLR_RAM';
                                           ;@Allocation info for local variables in function 'IO_Init'
                                           ;@end Allocation info for local variables in function 'IO_Init';
                                           ;@Allocation info for local variables in function 'TIMER2_INT_Init'
                                           ;@end Allocation info for local variables in function 'TIMER2_INT_Init';
                                           ;@Allocation info for local variables in function 'Sys_Init'
                                           ;@end Allocation info for local variables in function 'Sys_Init';
                                           ;@Allocation info for local variables in function 'main'
                                           ;@main tmp                       Allocated to registers ;size:2
                                           ;@main i                         Allocated to registers r0x101C ;size:1
                                           ;@main tmp                       Allocated to registers r0x101F r0x1020 ;size:2
                                           ;@end Allocation info for local variables in function 'main';
                                           ;@Allocation info for local variables in function 'int_isr'
                                           ;@int_isr ir_fliter                 Allocated to registers ;size:1
                                           ;@int_isr ir_level_cnt              Allocated to registers ;size:2
                                           ;@int_isr __ir_data                 Allocated to registers ;size:1
                                           ;@int_isr ir_long_press_cnt         Allocated to registers ;size:2
                                           ;@int_isr cnt_100us                 Allocated to registers ;size:1
                                           ;@int_isr auto_period_cnt           Allocated to registers ;size:2
                                           ;@int_isr flag_is_period_arrive     Allocated to registers ;size:1
                                           ;@end Allocation info for local variables in function 'int_isr';
                                           
                                           ;--------------------------------------------------------
                                           ; overlayable items in internal ram 
                                           ;--------------------------------------------------------
                                           ;	udata_ovr
                                           ;--------------------------------------------------------
                                           ; reset vector 
                                           ;--------------------------------------------------------
                                           STARTUP	code 0x0000
                                           	goto	_main
                                           ;--------------------------------------------------------
                                           ; interrupt and initialization code
                                           ;--------------------------------------------------------
                                           c_interrupt	code	0x8
                                           __sdcc_interrupt
                                           ;***
                                           ;  pBlock Stats: dbName = I
                                           ;***
                                           ;entry:  _int_isr	;Function start
                                           ; 0 exit points
                                           ;2 compiler assigned registers:
                                           ;   r0x1040
                                           ;   r0x1041
                                           ;; Starting pCode block
                                           _int_isr	;Function start
                                           ; 0 exit points
                                           ;	.line	386; "MC32F7361.c"	__endasm;
                                           	;
                                           	movra	_abuf;
                                           	swapar	_PFLAG;
                                           	movra	_statusbuf;
                                           	
                                           ;	.line	400; "MC32F7361.c"	if (T2IF & T2IE)
                                           	CLRR	r0x1040
                                           	JBCLR	_INTFbits,5
                                           	INCR	r0x1040
                                           	CLRR	r0x1041
                                           	JBCLR	_INTEbits,5
                                           	INCR	r0x1041
                                           	MOVAR	r0x1041
                                           	ANDRA	r0x1040
                                           	MOVAI	0x00
                                           	ORAR	r0x1040
                                           	JBCLR	PFLAG,2
                                           	GOTO	_00426_DS_
                                           ;	.line	402; "MC32F7361.c"	T2IF = 0;
                                           	BCLR	_INTFbits,5
                                           ;	.line	411; "MC32F7361.c"	ir_level_cnt++;
                                           	INCR	_int_isr_ir_level_cnt_196608_73
                                           	JBCLR	PFLAG,2
                                           	INCR	(_int_isr_ir_level_cnt_196608_73 + 1)
                                           ;	.line	413; "MC32F7361.c"	ir_fliter <<= 1;
                                           	MOVAR	_int_isr_ir_fliter_196608_73
                                           	MOVRA	r0x1040
                                           	BCLR	PFLAG,0
                                           	RLAR	r0x1040
                                           	MOVRA	_int_isr_ir_fliter_196608_73
                                           ;	.line	414; "MC32F7361.c"	if (IR_RECV_PIN)
                                           	JBSET	_IOP1bits,5
                                           	GOTO	_00372_DS_
                                           ;	.line	416; "MC32F7361.c"	ir_fliter |= 1;
                                           	BSET	_int_isr_ir_fliter_196608_73,0
                                           _00372_DS_
                                           ;	.line	418; "MC32F7361.c"	ir_fliter &= 0x07;
                                           	MOVAI	0x07
                                           	ANDRA	_int_isr_ir_fliter_196608_73
                                           ;	.line	420; "MC32F7361.c"	if (ir_fliter == 0x07)
                                           	MOVAR	_int_isr_ir_fliter_196608_73
                                           	XORAI	0x07
                                           	JBSET	PFLAG,2
                                           	GOTO	_00376_DS_
                                           ;	.line	421; "MC32F7361.c"	filter_level = 1;
                                           	BSET	_flag1,3
                                           	GOTO	_00377_DS_
                                           _00376_DS_
                                           ;	.line	422; "MC32F7361.c"	else if (ir_fliter == 0x00)
                                           	MOVAI	0x00
                                           	ORAR	_int_isr_ir_fliter_196608_73
                                           	JBSET	PFLAG,2
                                           	GOTO	_00377_DS_
                                           ;	.line	423; "MC32F7361.c"	filter_level = 0;
                                           	BCLR	_flag1,3
                                           _00377_DS_
                                           ;	.line	425; "MC32F7361.c"	if (filter_level)
                                           	JBSET	_flag1,3
                                           	GOTO	_00406_DS_
                                           ;	.line	427; "MC32F7361.c"	last_level_in_ir_pin = 1; // 
                                           	BSET	_flag1,2
                                           ;;swapping arguments (AOP_TYPEs 1/3)
                                           ;;unsigned compare: left >= lit(0x4B1=1201), size=2
                                           ;	.line	430; "MC32F7361.c"	if (ir_level_cnt > 1200) // (120000us,120ms)
                                           	MOVAI	0x04
                                           	RSUBAR	(_int_isr_ir_level_cnt_196608_73 + 1)
                                           	JBSET	PFLAG,2
                                           	GOTO	_00517_DS_
                                           	MOVAI	0xb1
                                           	RSUBAR	_int_isr_ir_level_cnt_196608_73
                                           _00517_DS_
                                           	JBSET	PFLAG,0
                                           	GOTO	_00407_DS_
                                           ;;genSkipc:3291: created from rifx:013B5EFC
                                           ;	.line	433; "MC32F7361.c"	if (__ir_data != 0) // (__ir_data)
                                           	MOVAI	0x00
                                           	ORAR	_int_isr___ir_data_196608_73
                                           	JBCLR	PFLAG,2
                                           	GOTO	_00381_DS_
                                           ;	.line	442; "MC32F7361.c"	if (0 == flag_is_recved_data)
                                           	JBCLR	_flag1,0
                                           	GOTO	_00381_DS_
                                           ;	.line	444; "MC32F7361.c"	ir_data = ~__ir_data;
                                           	COMAR	_int_isr___ir_data_196608_73
                                           	MOVRA	_ir_data
                                           ;	.line	445; "MC32F7361.c"	__ir_data = 0;
                                           	CLRR	_int_isr___ir_data_196608_73
                                           ;	.line	446; "MC32F7361.c"	flag_is_recved_data = 1;
                                           	BSET	_flag1,0
                                           _00381_DS_
                                           ;	.line	450; "MC32F7361.c"	flag_is_recv_ir_repeat_code = 0; // 
                                           	BCLR	_flag1,4
                                           	GOTO	_00407_DS_
                                           _00406_DS_
                                           ;	.line	455; "MC32F7361.c"	if (last_level_in_ir_pin)
                                           	JBSET	_flag1,2
                                           	GOTO	_00404_DS_
                                           ;;swapping arguments (AOP_TYPEs 1/3)
                                           ;;unsigned compare: left >= lit(0x9=9), size=2
                                           ;	.line	458; "MC32F7361.c"	if (ir_level_cnt <= 8) // 800us
                                           	MOVAI	0x00
                                           	RSUBAR	(_int_isr_ir_level_cnt_196608_73 + 1)
                                           	JBSET	PFLAG,2
                                           	GOTO	_00518_DS_
                                           	MOVAI	0x09
                                           	RSUBAR	_int_isr_ir_level_cnt_196608_73
                                           _00518_DS_
                                           	JBSET	PFLAG,0
                                           	GOTO	_00402_DS_
                                           ;;genSkipc:3291: created from rifx:013B5EFC
                                           ;;swapping arguments (AOP_TYPEs 1/3)
                                           ;;unsigned compare: left >= lit(0x13=19), size=2
                                           ;	.line	463; "MC32F7361.c"	else if (ir_level_cnt <= 18) // 1800us,0
                                           	MOVAI	0x00
                                           	RSUBAR	(_int_isr_ir_level_cnt_196608_73 + 1)
                                           	JBSET	PFLAG,2
                                           	GOTO	_00519_DS_
                                           	MOVAI	0x13
                                           	RSUBAR	_int_isr_ir_level_cnt_196608_73
                                           _00519_DS_
                                           	JBCLR	PFLAG,0
                                           	GOTO	_00398_DS_
                                           ;;genSkipc:3291: created from rifx:013B5EFC
                                           ;	.line	465; "MC32F7361.c"	__ir_data <<= 1;
                                           	MOVAR	_int_isr___ir_data_196608_73
                                           	MOVRA	r0x1040
                                           	BCLR	PFLAG,0
                                           	RLAR	r0x1040
                                           	MOVRA	_int_isr___ir_data_196608_73
                                           	GOTO	_00402_DS_
                                           ;;swapping arguments (AOP_TYPEs 1/3)
                                           ;;unsigned compare: left >= lit(0x1B=27), size=2
                                           _00398_DS_
                                           ;	.line	470; "MC32F7361.c"	else if (ir_level_cnt <= 26) // 2600us,1
                                           	MOVAI	0x00
                                           	RSUBAR	(_int_isr_ir_level_cnt_196608_73 + 1)
                                           	JBSET	PFLAG,2
                                           	GOTO	_00520_DS_
                                           	MOVAI	0x1b
                                           	RSUBAR	_int_isr_ir_level_cnt_196608_73
                                           _00520_DS_
                                           	JBCLR	PFLAG,0
                                           	GOTO	_00395_DS_
                                           ;;genSkipc:3291: created from rifx:013B5EFC
                                           ;	.line	472; "MC32F7361.c"	__ir_data <<= 1;
                                           	MOVAR	_int_isr___ir_data_196608_73
                                           	MOVRA	r0x1040
                                           	BCLR	PFLAG,0
                                           	RLAR	r0x1040
                                           	MOVRA	_int_isr___ir_data_196608_73
                                           ;	.line	473; "MC32F7361.c"	__ir_data |= 0x01;
                                           	BSET	_int_isr___ir_data_196608_73,0
                                           	GOTO	_00402_DS_
                                           ;;swapping arguments (AOP_TYPEs 1/3)
                                           ;;unsigned compare: left >= lit(0x97=151), size=2
                                           _00395_DS_
                                           ;	.line	477; "MC32F7361.c"	else if (ir_level_cnt <= 150) // 15000us,
                                           	MOVAI	0x00
                                           	RSUBAR	(_int_isr_ir_level_cnt_196608_73 + 1)
                                           	JBSET	PFLAG,2
                                           	GOTO	_00521_DS_
                                           	MOVAI	0x97
                                           	RSUBAR	_int_isr_ir_level_cnt_196608_73
                                           _00521_DS_
                                           	JBSET	PFLAG,0
                                           	GOTO	_00402_DS_
                                           ;;genSkipc:3291: created from rifx:013B5EFC
                                           ;;swapping arguments (AOP_TYPEs 1/3)
                                           ;;unsigned compare: left >= lit(0x1A5=421), size=2
                                           ;	.line	482; "MC32F7361.c"	else if (ir_level_cnt <= 420) // 42ms,
                                           	MOVAI	0x01
                                           	RSUBAR	(_int_isr_ir_level_cnt_196608_73 + 1)
                                           	JBSET	PFLAG,2
                                           	GOTO	_00522_DS_
                                           	MOVAI	0xa5
                                           	RSUBAR	_int_isr_ir_level_cnt_196608_73
                                           _00522_DS_
                                           	JBCLR	PFLAG,0
                                           	GOTO	_00389_DS_
                                           ;;genSkipc:3291: created from rifx:013B5EFC
                                           ;	.line	493; "MC32F7361.c"	if (0 == flag_is_recved_data)
                                           	JBCLR	_flag1,0
                                           	GOTO	_00402_DS_
                                           ;	.line	495; "MC32F7361.c"	ir_data = ~__ir_data;
                                           	COMAR	_int_isr___ir_data_196608_73
                                           	MOVRA	_ir_data
                                           ;	.line	496; "MC32F7361.c"	__ir_data = 0;
                                           	CLRR	_int_isr___ir_data_196608_73
                                           ;	.line	497; "MC32F7361.c"	flag_is_recved_data = 1;
                                           	BSET	_flag1,0
                                           ;	.line	498; "MC32F7361.c"	flag_is_recv_ir_repeat_code = 1; //
                                           	BSET	_flag1,4
                                           ;	.line	499; "MC32F7361.c"	ir_long_press_cnt = 0;
                                           	CLRR	_int_isr_ir_long_press_cnt_196608_73
                                           	CLRR	(_int_isr_ir_long_press_cnt_196608_73 + 1)
                                           	GOTO	_00402_DS_
                                           ;;swapping arguments (AOP_TYPEs 1/3)
                                           ;;unsigned compare: left >= lit(0x4B1=1201), size=2
                                           _00389_DS_
                                           ;	.line	503; "MC32F7361.c"	else if (ir_level_cnt <= 1200) // 120000,120ms,
                                           	MOVAI	0x04
                                           	RSUBAR	(_int_isr_ir_level_cnt_196608_73 + 1)
                                           	JBSET	PFLAG,2
                                           	GOTO	_00523_DS_
                                           	MOVAI	0xb1
                                           	RSUBAR	_int_isr_ir_level_cnt_196608_73
                                           _00523_DS_
                                           	JBCLR	PFLAG,0
                                           	GOTO	_00402_DS_
                                           ;;genSkipc:3291: created from rifx:013B5EFC
                                           ;	.line	505; "MC32F7361.c"	ir_long_press_cnt++;
                                           	INCR	_int_isr_ir_long_press_cnt_196608_73
                                           	JBCLR	PFLAG,2
                                           	INCR	(_int_isr_ir_long_press_cnt_196608_73 + 1)
                                           _00402_DS_
                                           ;	.line	511; "MC32F7361.c"	ir_level_cnt = 0;
                                           	CLRR	_int_isr_ir_level_cnt_196608_73
                                           	CLRR	(_int_isr_ir_level_cnt_196608_73 + 1)
                                           _00404_DS_
                                           ;	.line	514; "MC32F7361.c"	last_level_in_ir_pin = 0; // 
                                           	BCLR	_flag1,2
                                           _00407_DS_
                                           ;	.line	520; "MC32F7361.c"	cnt_100us++;
                                           	INCR	_int_isr_cnt_100us_196608_89
                                           ;;unsigned compare: left < lit(0xA=10), size=1
                                           ;	.line	521; "MC32F7361.c"	if (cnt_100us >= 10) //  1ms
                                           	MOVAI	0x0a
                                           	RSUBAR	_int_isr_cnt_100us_196608_89
                                           	JBSET	PFLAG,0
                                           	GOTO	_00426_DS_
                                           ;;genSkipc:3291: created from rifx:013B5EFC
                                           ;	.line	523; "MC32F7361.c"	cnt_100us = 0;
                                           	CLRR	_int_isr_cnt_100us_196608_89
                                           ;	.line	527; "MC32F7361.c"	if (cur_led_status == CUR_LED_STATUS_AUTO) //  AUTO 
                                           	MOVAR	_cur_led_status
                                           	XORAI	0x01
                                           	JBSET	PFLAG,2
                                           	GOTO	_00421_DS_
                                           ;	.line	530; "MC32F7361.c"	auto_period_cnt++;
                                           	INCR	_int_isr_auto_period_cnt_327680_91
                                           	JBCLR	PFLAG,2
                                           	INCR	(_int_isr_auto_period_cnt_327680_91 + 1)
                                           ;	.line	531; "MC32F7361.c"	if ((cur_auto_period == CUR_AUTO_PERIOD_3S && auto_period_cnt >= 3000) ||
                                           	MOVAI	0x00
                                           	ORAR	_cur_auto_period
                                           	JBSET	PFLAG,2
                                           	GOTO	_00413_DS_
                                           ;;unsigned compare: left < lit(0xBB8=3000), size=2
                                           	MOVAI	0x0b
                                           	RSUBAR	(_int_isr_auto_period_cnt_327680_91 + 1)
                                           	JBSET	PFLAG,2
                                           	GOTO	_00525_DS_
                                           	MOVAI	0xb8
                                           	RSUBAR	_int_isr_auto_period_cnt_327680_91
                                           _00525_DS_
                                           	JBCLR	PFLAG,0
                                           	GOTO	_00418_DS_
                                           ;;genSkipc:3291: created from rifx:013B5EFC
                                           _00413_DS_
                                           ;	.line	532; "MC32F7361.c"	(cur_auto_period == CUR_AUTO_PERIOD_10S && auto_period_cnt >= 10000) ||
                                           	MOVAR	_cur_auto_period
                                           	XORAI	0x01
                                           	JBSET	PFLAG,2
                                           	GOTO	_00415_DS_
                                           ;;unsigned compare: left < lit(0x2710=10000), size=2
                                           	MOVAI	0x27
                                           	RSUBAR	(_int_isr_auto_period_cnt_327680_91 + 1)
                                           	JBSET	PFLAG,2
                                           	GOTO	_00526_DS_
                                           	MOVAI	0x10
                                           	RSUBAR	_int_isr_auto_period_cnt_327680_91
                                           _00526_DS_
                                           	JBCLR	PFLAG,0
                                           	GOTO	_00418_DS_
                                           ;;genSkipc:3291: created from rifx:013B5EFC
                                           _00415_DS_
                                           ;	.line	533; "MC32F7361.c"	(cur_auto_period == CUR_AUTO_PERIOD_7_5S && auto_period_cnt >= 7500) ||
                                           	MOVAR	_cur_auto_period
                                           	XORAI	0x02
                                           	JBSET	PFLAG,2
                                           	GOTO	_00417_DS_
                                           ;;unsigned compare: left < lit(0x1D4C=7500), size=2
                                           	MOVAI	0x1d
                                           	RSUBAR	(_int_isr_auto_period_cnt_327680_91 + 1)
                                           	JBSET	PFLAG,2
                                           	GOTO	_00527_DS_
                                           	MOVAI	0x4c
                                           	RSUBAR	_int_isr_auto_period_cnt_327680_91
                                           _00527_DS_
                                           	JBCLR	PFLAG,0
                                           	GOTO	_00418_DS_
                                           ;;genSkipc:3291: created from rifx:013B5EFC
                                           _00417_DS_
                                           ;	.line	534; "MC32F7361.c"	(cur_auto_period == CUR_AUTO_PERIOD_5S && auto_period_cnt >= 5000))
                                           	MOVAR	_cur_auto_period
                                           	XORAI	0x03
                                           	JBSET	PFLAG,2
                                           	GOTO	_00426_DS_
                                           ;;unsigned compare: left < lit(0x1388=5000), size=2
                                           	MOVAI	0x13
                                           	RSUBAR	(_int_isr_auto_period_cnt_327680_91 + 1)
                                           	JBSET	PFLAG,2
                                           	GOTO	_00528_DS_
                                           	MOVAI	0x88
                                           	RSUBAR	_int_isr_auto_period_cnt_327680_91
                                           _00528_DS_
                                           	JBSET	PFLAG,0
                                           	GOTO	_00426_DS_
                                           ;;genSkipc:3291: created from rifx:013B5EFC
                                           _00418_DS_
                                           ;	.line	563; "MC32F7361.c"	DEBUG_PIN = ~DEBUG_PIN;
                                           	CLRR	r0x1040
                                           	JBCLR	_IOP2bits,2
                                           	INCR	r0x1040
                                           	COMAR	r0x1040
                                           	MOVRA	r0x1040
                                           	RRAR	r0x1040
                                           	JBSET	PFLAG,0
                                           	BCLR	_IOP2bits,2
                                           	JBCLR	PFLAG,0
                                           	BSET	_IOP2bits,2
                                           	GOTO	_00426_DS_
                                           _00421_DS_
                                           ;	.line	568; "MC32F7361.c"	auto_period_cnt = 0;
                                           	CLRR	_int_isr_auto_period_cnt_327680_91
                                           	CLRR	(_int_isr_auto_period_cnt_327680_91 + 1)
                                           _00426_DS_
                                           ;	.line	585; "MC32F7361.c"	__endasm;
                                           	;
                                           	swapar	_statusbuf;
                                           	movra	_PFLAG;
                                           	swapr	_abuf;
                                           	swapar	_abuf;
                                           	
                                           END_OF_INTERRUPT
                                           ;	.line	586; "MC32F7361.c"	}
                                           	RETIE	
                                           
                                           ;--------------------------------------------------------
                                           ; code
                                           ;--------------------------------------------------------
                                           code_MC32F7361	code
                                           ;***
                                           ;  pBlock Stats: dbName = M
                                           ;***
                                           ;entry:  _main	;Function start
                                           ; 2 exit points
                                           ;has an exit
                                           ;functions called:
                                           ;   _Sys_Init
                                           ;   _delay_ms
                                           ;   _delay_100us
                                           ;   _delay_100us
                                           ;   _delay_ms
                                           ;   _delay_100us
                                           ;   _delay_100us
                                           ;   _delay_ms
                                           ;   _delay_100us
                                           ;   _delay_100us
                                           ;   _delay_ms
                                           ;   _delay_100us
                                           ;   _delay_100us
                                           ;   _delay_ms
                                           ;   _send_cmd_16bit
                                           ;   _send_cmd_16bit
                                           ;   __mulchar
                                           ;   __gptrget1
                                           ;   _send_cmd_16bit
                                           ;   __gptrget1
                                           ;   __gptrget1
                                           ;   _send_cmd_16bit
                                           ;   __gptrget1
                                           ;   __gptrget1
                                           ;   _send_cmd_16bit
                                           ;   __gptrget1
                                           ;   __gptrget1
                                           ;   _send_cmd_16bit
                                           ;   _Sys_Init
                                           ;   _delay_ms
                                           ;   _delay_100us
                                           ;   _delay_100us
                                           ;   _delay_ms
                                           ;   _delay_100us
                                           ;   _delay_100us
                                           ;   _delay_ms
                                           ;   _delay_100us
                                           ;   _delay_100us
                                           ;   _delay_ms
                                           ;   _delay_100us
                                           ;   _delay_100us
                                           ;   _delay_ms
                                           ;   _send_cmd_16bit
                                           ;   _send_cmd_16bit
                                           ;   __mulchar
                                           ;   __gptrget1
                                           ;   _send_cmd_16bit
                                           ;   __gptrget1
                                           ;   __gptrget1
                                           ;   _send_cmd_16bit
                                           ;   __gptrget1
                                           ;   __gptrget1
                                           ;   _send_cmd_16bit
                                           ;   __gptrget1
                                           ;   __gptrget1
                                           ;   _send_cmd_16bit
                                           ;10 compiler assigned registers:
                                           ;   STK00
                                           ;   r0x101C
                                           ;   r0x101D
                                           ;   r0x101E
                                           ;   r0x101F
                                           ;   STK01
                                           ;   r0x1020
                                           ;   r0x1021
                                           ;   r0x1022
                                           ;   r0x1023
                                           ;; Starting pCode block
                                           _main	;Function start
                                           ; 2 exit points
                                           ;	.line	223; "MC32F7361.c"	Sys_Init();
                                           	CALL	_Sys_Init
                                           ;	.line	237; "MC32F7361.c"	P15PU = 1; // 
                                           	BSET	_PUP1bits,5
                                           ;	.line	238; "MC32F7361.c"	P15OE = 0; // 
                                           	BCLR	_OEP1bits,5
                                           ;	.line	244; "MC32F7361.c"	flag_is_dev_open = 1;
                                           	BSET	_flag1,1
                                           _00275_DS_
                                           ;	.line	252; "MC32F7361.c"	if (flag_is_recved_data)
                                           	JBSET	_flag1,0
                                           	GOTO	_00275_DS_
                                           ;	.line	254; "MC32F7361.c"	if (ir_data == IR_KEY_ON) // ON 
                                           	MOVAR	_ir_data
                                           	XORAI	0x08
                                           	JBSET	PFLAG,2
                                           	GOTO	_00270_DS_
                                           ;	.line	258; "MC32F7361.c"	LED_CTL_PIN = 1;
                                           	BSET	_IOP0bits,4
                                           ;	.line	259; "MC32F7361.c"	delay_ms(2);
                                           	MOVAI	0x02
                                           	MOVRA	STK00
                                           	MOVAI	0x00
                                           	CALL	_delay_ms
                                           ;	.line	260; "MC32F7361.c"	LED_CTL_PIN = 0;
                                           	BCLR	_IOP0bits,4
                                           ;	.line	261; "MC32F7361.c"	delay_100us();
                                           	CALL	_delay_100us
                                           ;	.line	262; "MC32F7361.c"	delay_100us();
                                           	CALL	_delay_100us
                                           ;	.line	263; "MC32F7361.c"	LED_CTL_PIN = 1;
                                           	BSET	_IOP0bits,4
                                           ;	.line	264; "MC32F7361.c"	delay_ms(3);
                                           	MOVAI	0x03
                                           	MOVRA	STK00
                                           	MOVAI	0x00
                                           	CALL	_delay_ms
                                           ;	.line	265; "MC32F7361.c"	LED_CTL_PIN = 0;
                                           	BCLR	_IOP0bits,4
                                           ;	.line	266; "MC32F7361.c"	delay_100us();
                                           	CALL	_delay_100us
                                           ;	.line	267; "MC32F7361.c"	delay_100us();
                                           	CALL	_delay_100us
                                           ;	.line	268; "MC32F7361.c"	LED_CTL_PIN = 1;
                                           	BSET	_IOP0bits,4
                                           ;	.line	269; "MC32F7361.c"	delay_ms(4);
                                           	MOVAI	0x04
                                           	MOVRA	STK00
                                           	MOVAI	0x00
                                           	CALL	_delay_ms
                                           ;	.line	270; "MC32F7361.c"	LED_CTL_PIN = 0;
                                           	BCLR	_IOP0bits,4
                                           ;	.line	271; "MC32F7361.c"	delay_100us();
                                           	CALL	_delay_100us
                                           ;	.line	272; "MC32F7361.c"	delay_100us();
                                           	CALL	_delay_100us
                                           ;	.line	273; "MC32F7361.c"	LED_CTL_PIN = 1;
                                           	BSET	_IOP0bits,4
                                           ;	.line	274; "MC32F7361.c"	delay_ms(5);
                                           	MOVAI	0x05
                                           	MOVRA	STK00
                                           	MOVAI	0x00
                                           	CALL	_delay_ms
                                           ;	.line	275; "MC32F7361.c"	LED_CTL_PIN = 0;
                                           	BCLR	_IOP0bits,4
                                           ;	.line	276; "MC32F7361.c"	delay_100us();
                                           	CALL	_delay_100us
                                           ;	.line	277; "MC32F7361.c"	delay_100us();
                                           	CALL	_delay_100us
                                           ;	.line	278; "MC32F7361.c"	LED_CTL_PIN = 1;
                                           	BSET	_IOP0bits,4
                                           ;	.line	279; "MC32F7361.c"	delay_ms(51);
                                           	MOVAI	0x33
                                           	MOVRA	STK00
                                           	MOVAI	0x00
                                           	CALL	_delay_ms
                                           	GOTO	_00271_DS_
                                           _00270_DS_
                                           ;	.line	288; "MC32F7361.c"	else if (ir_data == IR_KEY_OFF) // OFF 
                                           	MOVAR	_ir_data
                                           	XORAI	0xc0
                                           	JBSET	PFLAG,2
                                           	GOTO	_00361_DS_
                                           	GOTO	_00271_DS_
                                           _00361_DS_
                                           ;	.line	301; "MC32F7361.c"	else if (ir_data == IR_KEY_SPEED) // SPEED 
                                           	MOVAR	_ir_data
                                           	XORAI	0x60
                                           	JBSET	PFLAG,2
                                           	GOTO	_00362_DS_
                                           	GOTO	_00271_DS_
                                           _00362_DS_
                                           ;	.line	305; "MC32F7361.c"	else if (ir_data == IR_KEY_R3C4) // R3C4
                                           	MOVAR	_ir_data
                                           	XORAI	0xa8
                                           	JBSET	PFLAG,2
                                           	GOTO	_00261_DS_
                                           ;	.line	308; "MC32F7361.c"	if (cur_r3c4_status == R3C4_STATUS_1)
                                           	MOVAI	0x00
                                           	ORAR	_cur_r3c4_status
                                           	JBSET	PFLAG,2
                                           	GOTO	_00245_DS_
                                           ;	.line	310; "MC32F7361.c"	tmp = 0x00EE;
                                           	MOVAI	0xee
                                           	MOVRA	_main_tmp_262144_58
                                           	CLRR	(_main_tmp_262144_58 + 1)
                                           ;	.line	311; "MC32F7361.c"	cur_r3c4_status = R3C4_STATUS_2;
                                           	MOVAI	0x01
                                           	MOVRA	_cur_r3c4_status
                                           	GOTO	_00246_DS_
                                           _00245_DS_
                                           ;	.line	313; "MC32F7361.c"	else if (cur_r3c4_status == R3C4_STATUS_2)
                                           	MOVAR	_cur_r3c4_status
                                           	XORAI	0x01
                                           	JBSET	PFLAG,2
                                           	GOTO	_00242_DS_
                                           ;	.line	315; "MC32F7361.c"	tmp = 0x00AA;
                                           	MOVAI	0xaa
                                           	MOVRA	_main_tmp_262144_58
                                           	CLRR	(_main_tmp_262144_58 + 1)
                                           ;	.line	316; "MC32F7361.c"	cur_r3c4_status = R3C4_STATUS_3;
                                           	MOVAI	0x02
                                           	MOVRA	_cur_r3c4_status
                                           	GOTO	_00246_DS_
                                           _00242_DS_
                                           ;	.line	318; "MC32F7361.c"	else if (cur_r3c4_status == R3C4_STATUS_3)
                                           	MOVAR	_cur_r3c4_status
                                           	XORAI	0x02
                                           	JBSET	PFLAG,2
                                           	GOTO	_00246_DS_
                                           ;	.line	320; "MC32F7361.c"	tmp = 0x00CC;
                                           	MOVAI	0xcc
                                           	MOVRA	_main_tmp_262144_58
                                           	CLRR	(_main_tmp_262144_58 + 1)
                                           ;	.line	321; "MC32F7361.c"	cur_r3c4_status = R3C4_STATUS_1;
                                           	CLRR	_cur_r3c4_status
                                           _00246_DS_
                                           ;	.line	327; "MC32F7361.c"	send_cmd_16bit(0x0C00);
                                           	MOVAI	0x00
                                           	MOVRA	STK00
                                           	MOVAI	0x0c
                                           	CALL	_send_cmd_16bit
                                           ;	.line	328; "MC32F7361.c"	send_cmd_16bit(tmp);
                                           	MOVAR	_main_tmp_262144_58
                                           	MOVRA	STK00
                                           	MOVAR	(_main_tmp_262144_58 + 1)
                                           	CALL	_send_cmd_16bit
                                           	GOTO	_00271_DS_
                                           _00261_DS_
                                           ;	.line	330; "MC32F7361.c"	else if (ir_data == IR_KEY_R4C4_FADE)
                                           	MOVAR	_ir_data
                                           	XORAI	0xb2
                                           	JBSET	PFLAG,2
                                           	GOTO	_00363_DS_
                                           	GOTO	_00271_DS_
                                           _00363_DS_
                                           ;	.line	340; "MC32F7361.c"	if (IR_KEY_AUTO == ir_data) // AUTO 
                                           	MOVAR	_ir_data
                                           	XORAI	0x80
                                           	JBSET	PFLAG,2
                                           	GOTO	_00296_DS_
                                           ;	.line	342; "MC32F7361.c"	cur_auto_period++;
                                           	INCR	_cur_auto_period
                                           ;;swapping arguments (AOP_TYPEs 1/3)
                                           ;;unsigned compare: left >= lit(0x4=4), size=1
                                           ;	.line	343; "MC32F7361.c"	if (cur_auto_period > CUR_AUTO_PERIOD_5S)
                                           	MOVAI	0x04
                                           	RSUBAR	_cur_auto_period
                                           	JBSET	PFLAG,0
                                           	GOTO	_00248_DS_
                                           ;;genSkipc:3291: created from rifx:013B5EFC
                                           ;	.line	345; "MC32F7361.c"	cur_auto_period = CUR_AUTO_PERIOD_3S;
                                           	CLRR	_cur_auto_period
                                           _00248_DS_
                                           ;	.line	348; "MC32F7361.c"	cur_led_status = CUR_LED_STATUS_AUTO; //  AUTO 
                                           	MOVAI	0x01
                                           	MOVRA	_cur_led_status
                                           _00296_DS_
                                           ;	.line	351; "MC32F7361.c"	for (i = 0; i < sizeof(table) / sizeof(table[0]); i++)
                                           	CLRR	r0x101C
                                           _00277_DS_
                                           ;	.line	353; "MC32F7361.c"	if (table[i][0] == ir_data)
                                           	MOVAI	0x05
                                           	MOVRA	STK00
                                           	MOVAR	r0x101C
                                           	CALL	__mulchar
                                           	MOVRA	r0x101D
                                           	MOVAR	r0x101D
                                           	ADDAI	(_table + 0)
                                           	MOVRA	r0x101E
                                           	MOVAI	high (_table + 0)
                                           	JBCLR	PFLAG,0
                                           	ADDAI	0x01
                                           	MOVRA	r0x101F
                                           	MOVAR	r0x101E
                                           	MOVRA	STK01
                                           	MOVAR	r0x101F
                                           	MOVRA	STK00
                                           	MOVAI	0x80
                                           	CALL	__gptrget1
                                           	MOVRA	r0x1020
                                           	MOVAR	_ir_data
                                           	XORAR	r0x1020
                                           	JBSET	PFLAG,2
                                           	GOTO	_00278_DS_
                                           ;	.line	355; "MC32F7361.c"	send_cmd_16bit(0x0C00); // 
                                           	MOVAI	0x00
                                           	MOVRA	STK00
                                           	MOVAI	0x0c
                                           	CALL	_send_cmd_16bit
                                           ;	.line	356; "MC32F7361.c"	tmp = ((u16)table[i][1] << 8) + (u16)table[i][2];
                                           	MOVAR	r0x101D
                                           	ADDAI	(_table + 0)
                                           	MOVRA	r0x101D
                                           	MOVAI	high (_table + 0)
                                           	JBCLR	PFLAG,0
                                           	ADDAI	0x01
                                           	MOVRA	r0x101E
                                           	MOVAI	0x01
                                           	ADDAR	r0x101D
                                           	MOVRA	r0x101F
                                           	CLRR	r0x1020
                                           	RLR	r0x1020
                                           	MOVAR	r0x101E
                                           	ADDRA	r0x1020
                                           	MOVAR	r0x101F
                                           	MOVRA	STK01
                                           	MOVAR	r0x1020
                                           	MOVRA	STK00
                                           	MOVAI	0x80
                                           	CALL	__gptrget1
                                           	MOVRA	r0x1021
                                           	MOVAR	r0x1021
                                           	MOVRA	r0x1022
                                           	MOVRA	r0x101F
                                           	CLRR	r0x1020
                                           ;;107	MOVAR	r0x101F
                                           	CLRR	r0x1021
                                           	MOVAI	0x02
                                           	ADDAR	r0x101D
                                           	MOVRA	r0x101F
                                           	CLRR	r0x1020
                                           	RLR	r0x1020
                                           	MOVAR	r0x101E
                                           	ADDRA	r0x1020
                                           	MOVAR	r0x101F
                                           	MOVRA	STK01
                                           	MOVAR	r0x1020
                                           	MOVRA	STK00
                                           	MOVAI	0x80
                                           	CALL	__gptrget1
                                           	MOVRA	r0x101F
                                           	MOVRA	r0x1023
                                           ;;106	MOVAR	r0x1023
                                           	CLRR	r0x1020
                                           	MOVAR	r0x101F
                                           	ADDAR	r0x1021
                                           	MOVRA	r0x101F
                                           	MOVAR	r0x1022
                                           	JBCLR	PFLAG,0
                                           	JZAR	r0x1022
                                           	ADDRA	r0x1020
                                           ;	.line	357; "MC32F7361.c"	send_cmd_16bit(tmp);
                                           	MOVAR	r0x101F
                                           	MOVRA	STK00
                                           	MOVAR	r0x1020
                                           	CALL	_send_cmd_16bit
                                           ;	.line	358; "MC32F7361.c"	if (table[i][3] != UNUSE_VAL && table[i][4] != UNUSE_VAL)
                                           	MOVAI	0x03
                                           	ADDAR	r0x101D
                                           	MOVRA	r0x1021
                                           	CLRR	r0x1022
                                           	RLR	r0x1022
                                           	MOVAR	r0x101E
                                           	ADDRA	r0x1022
                                           	MOVAR	r0x1021
                                           	MOVRA	STK01
                                           	MOVAR	r0x1022
                                           	MOVRA	STK00
                                           	MOVAI	0x80
                                           	CALL	__gptrget1
                                           	MOVRA	r0x1023
                                           	MOVAR	r0x1023
                                           	XORAI	0xff
                                           	JBSET	PFLAG,2
                                           	GOTO	_00365_DS_
                                           	GOTO	_00271_DS_
                                           _00365_DS_
                                           	MOVAI	0x04
                                           	ADDRA	r0x101D
                                           	JBCLR	PFLAG,0
                                           	INCR	r0x101E
                                           	MOVAR	r0x101D
                                           	MOVRA	STK01
                                           	MOVAR	r0x101E
                                           	MOVRA	STK00
                                           	MOVAI	0x80
                                           	CALL	__gptrget1
                                           	MOVRA	r0x1023
                                           	MOVAR	r0x1023
                                           	XORAI	0xff
                                           	JBSET	PFLAG,2
                                           	GOTO	_00366_DS_
                                           	GOTO	_00271_DS_
                                           _00366_DS_
                                           ;	.line	360; "MC32F7361.c"	send_cmd_16bit(tmp); // 4 * 16bit 2 * 16bit
                                           	MOVAR	r0x101F
                                           	MOVRA	STK00
                                           	MOVAR	r0x1020
                                           	CALL	_send_cmd_16bit
                                           ;	.line	361; "MC32F7361.c"	tmp = ((u16)table[i][3] << 8) + (u16)table[i][4];
                                           	MOVAR	r0x1021
                                           	MOVRA	STK01
                                           	MOVAR	r0x1022
                                           	MOVRA	STK00
                                           	MOVAI	0x80
                                           	CALL	__gptrget1
                                           	MOVRA	r0x1020
                                           	MOVRA	r0x1021
                                           	MOVRA	r0x101F
                                           ;;104	MOVAR	r0x101F
                                           	CLRR	r0x1022
                                           ;;105	MOVAR	r0x1021
                                           	CLRR	r0x101F
                                           	MOVAR	r0x101D
                                           	MOVRA	STK01
                                           	MOVAR	r0x101E
                                           	MOVRA	STK00
                                           	MOVAI	0x80
                                           	CALL	__gptrget1
                                           	MOVRA	r0x1021
                                           ;;103	MOVAR	r0x1021
                                           	CLRR	r0x101E
                                           ;;102	MOVAR	r0x101D
                                           	MOVAR	r0x1021
                                           	MOVRA	r0x101D
                                           	ADDRA	r0x101F
                                           	MOVAI	0x00
                                           	JBCLR	PFLAG,0
                                           	JZAR	r0x101E
                                           	ADDRA	r0x1020
                                           ;	.line	362; "MC32F7361.c"	send_cmd_16bit(tmp);
                                           	MOVAR	r0x101F
                                           	MOVRA	STK00
                                           	MOVAR	r0x1020
                                           	CALL	_send_cmd_16bit
                                           ;	.line	364; "MC32F7361.c"	break;
                                           	GOTO	_00271_DS_
                                           _00278_DS_
                                           ;	.line	351; "MC32F7361.c"	for (i = 0; i < sizeof(table) / sizeof(table[0]); i++)
                                           	INCR	r0x101C
                                           ;;unsigned compare: left < lit(0x11=17), size=1
                                           	MOVAI	0x11
                                           	RSUBAR	r0x101C
                                           	JBSET	PFLAG,0
                                           	GOTO	_00277_DS_
                                           ;;genSkipc:3291: created from rifx:013B5EFC
                                           _00271_DS_
                                           ;	.line	369; "MC32F7361.c"	ir_data = 0;
                                           	CLRR	_ir_data
                                           ;	.line	370; "MC32F7361.c"	flag_is_recved_data = 0;
                                           	BCLR	_flag1,0
                                           	GOTO	_00275_DS_
                                           ;	.line	373; "MC32F7361.c"	}
                                           	RETURN	
                                           ; exit point of _main
                                           
                                           ;***
                                           ;  pBlock Stats: dbName = C
                                           ;***
                                           ;entry:  _Sys_Init	;Function start
                                           ; 2 exit points
                                           ;has an exit
                                           ;functions called:
                                           ;   _CLR_RAM
                                           ;   _IO_Init
                                           ;   _TIMER2_INT_Init
                                           ;   _CLR_RAM
                                           ;   _IO_Init
                                           ;   _TIMER2_INT_Init
                                           ;; Starting pCode block
                                           _Sys_Init	;Function start
                                           ; 2 exit points
                                           ;	.line	205; "MC32F7361.c"	GIE = 0;
                                           	BCLR	_MCRbits,7
                                           ;	.line	206; "MC32F7361.c"	CLR_RAM();
                                           	CALL	_CLR_RAM
                                           ;	.line	207; "MC32F7361.c"	IO_Init();
                                           	CALL	_IO_Init
                                           ;	.line	210; "MC32F7361.c"	TIMER2_INT_Init();
                                           	CALL	_TIMER2_INT_Init
                                           ;	.line	212; "MC32F7361.c"	GIE = 1;
                                           	BSET	_MCRbits,7
                                           ;	.line	213; "MC32F7361.c"	}
                                           	RETURN	
                                           ; exit point of _Sys_Init
                                           
                                           ;***
                                           ;  pBlock Stats: dbName = C
                                           ;***
                                           ;entry:  _TIMER2_INT_Init	;Function start
                                           ; 2 exit points
                                           ;has an exit
                                           ;; Starting pCode block
                                           _TIMER2_INT_Init	;Function start
                                           ; 2 exit points
                                           ;	.line	191; "MC32F7361.c"	T2CR = DEF_SET_BIT0 | DEF_SET_BIT1; // CPU,8
                                           	MOVAI	0x03
                                           	MOVRA	_T2CR
                                           ;	.line	192; "MC32F7361.c"	T2CNT = 100 - 1;
                                           	MOVAI	0x63
                                           	MOVRA	_T2CNT
                                           ;	.line	193; "MC32F7361.c"	T2LOAD = 100 - 1; // 100us
                                           	MOVAI	0x63
                                           	MOVRA	_T2LOAD
                                           ;	.line	194; "MC32F7361.c"	T2EN = 1;
                                           	BSET	_T2CRbits,7
                                           ;	.line	195; "MC32F7361.c"	T2IE = 1;
                                           	BSET	_INTEbits,5
                                           ;	.line	196; "MC32F7361.c"	}
                                           	RETURN	
                                           ; exit point of _TIMER2_INT_Init
                                           
                                           ;***
                                           ;  pBlock Stats: dbName = C
                                           ;***
                                           ;entry:  _IO_Init	;Function start
                                           ; 2 exit points
                                           ;has an exit
                                           ;; Starting pCode block
                                           _IO_Init	;Function start
                                           ; 2 exit points
                                           ;	.line	162; "MC32F7361.c"	IOP0 = 0x00;   // io
                                           	CLRR	_IOP0
                                           ;	.line	163; "MC32F7361.c"	OEP0 = 0x3F;   // io 1:out  0:in
                                           	MOVAI	0x3f
                                           	MOVRA	_OEP0
                                           ;	.line	164; "MC32F7361.c"	PUP0 = 0x00;   // io   1:enable  0:disable
                                           	CLRR	_PUP0
                                           ;	.line	165; "MC32F7361.c"	PDP0 = 0x00;   // io   1:enable  0:disable
                                           	CLRR	_PDP0
                                           ;	.line	166; "MC32F7361.c"	P0ADCR = 0x00; // io  1:  0:io
                                           	CLRR	_P0ADCR
                                           ;	.line	168; "MC32F7361.c"	IOP1 = 0x00;   // io
                                           	CLRR	_IOP1
                                           ;	.line	169; "MC32F7361.c"	OEP1 = 0xFF;   // io 1:out  0:in
                                           	MOVAI	0xff
                                           	MOVRA	_OEP1
                                           ;	.line	170; "MC32F7361.c"	PUP1 = 0x00;   // io   1:enable  0:disable
                                           	CLRR	_PUP1
                                           ;	.line	171; "MC32F7361.c"	PDP1 = 0x00;   // io   1:enable  0:disable
                                           	CLRR	_PDP1
                                           ;	.line	172; "MC32F7361.c"	P1ADCR = 0x00; // io  1:  0:io
                                           	CLRR	_P1ADCR
                                           ;	.line	174; "MC32F7361.c"	IOP2 = 0x00; // io
                                           	CLRR	_IOP2
                                           ;	.line	175; "MC32F7361.c"	OEP2 = 0x0F; // io 1:out  0:in
                                           	MOVAI	0x0f
                                           	MOVRA	_OEP2
                                           ;	.line	176; "MC32F7361.c"	PUP2 = 0x00; // io   1:enable  0:disable
                                           	CLRR	_PUP2
                                           ;	.line	177; "MC32F7361.c"	PDP2 = 0x00; // io   1:enable  0:disablea
                                           	CLRR	_PDP2
                                           ;	.line	179; "MC32F7361.c"	PMOD = 0x00;  // P00P01P13 io
                                           	CLRR	_PMOD
                                           ;	.line	180; "MC32F7361.c"	DRVCR = 0x80; // 
                                           	MOVAI	0x80
                                           	MOVRA	_DRVCR
                                           ;	.line	181; "MC32F7361.c"	}
                                           	RETURN	
                                           ; exit point of _IO_Init
                                           
                                           ;***
                                           ;  pBlock Stats: dbName = C
                                           ;***
                                           ;entry:  _CLR_RAM	;Function start
                                           ; 2 exit points
                                           ;has an exit
                                           ;; Starting pCode block
                                           _CLR_RAM	;Function start
                                           ; 2 exit points
                                           ;	.line	147; "MC32F7361.c"	for (FSR0 = 0; FSR0 < 0xff; FSR0++)
                                           	CLRR	_FSR0
                                           ;;unsigned compare: left < lit(0xFF=255), size=1
                                           _00222_DS_
                                           	MOVAI	0xff
                                           	RSUBAR	_FSR0
                                           	JBCLR	PFLAG,0
                                           	GOTO	_00220_DS_
                                           ;;genSkipc:3291: created from rifx:013B5EFC
                                           ;	.line	149; "MC32F7361.c"	INDF0 = 0x00;
                                           	CLRR	_INDF0
                                           ;	.line	147; "MC32F7361.c"	for (FSR0 = 0; FSR0 < 0xff; FSR0++)
                                           	INCR	_FSR0
                                           	GOTO	_00222_DS_
                                           _00220_DS_
                                           ;	.line	151; "MC32F7361.c"	FSR0 = 0xFF;
                                           	MOVAI	0xff
                                           	MOVRA	_FSR0
                                           ;	.line	152; "MC32F7361.c"	INDF0 = 0x00;
                                           	CLRR	_INDF0
                                           ;	.line	153; "MC32F7361.c"	}
                                           	RETURN	
                                           ; exit point of _CLR_RAM
                                           
                                           ;***
                                           ;  pBlock Stats: dbName = C
                                           ;***
                                           ;entry:  _send_cmd_16bit	;Function start
                                           ; 2 exit points
                                           ;has an exit
                                           ;functions called:
                                           ;   _delay_100us
                                           ;   _delay_ms
                                           ;   _delay_1_4ms
                                           ;   _delay_100us
                                           ;   _delay_ms
                                           ;   _delay_100us
                                           ;   _delay_ms
                                           ;   _delay_1_4ms
                                           ;   _delay_100us
                                           ;   _delay_ms
                                           ;7 compiler assigned registers:
                                           ;   r0x1016
                                           ;   STK00
                                           ;   r0x1017
                                           ;   r0x1018
                                           ;   r0x1019
                                           ;   r0x101A
                                           ;   r0x101B
                                           ;; Starting pCode block
                                           _send_cmd_16bit	;Function start
                                           ; 2 exit points
                                           ;	.line	108; "MC32F7361.c"	void send_cmd_16bit(const u16 data)
                                           	MOVRA	r0x1016
                                           	MOVAR	STK00
                                           	MOVRA	r0x1017
                                           ;	.line	111; "MC32F7361.c"	if (0 == flag_is_dev_open)
                                           	JBCLR	_flag1,1
                                           	GOTO	_00199_DS_
                                           ;	.line	113; "MC32F7361.c"	return;
                                           	GOTO	_00195_DS_
                                           _00199_DS_
                                           ;	.line	117; "MC32F7361.c"	for (i = 0; i < 16; i++)
                                           	CLRR	r0x1018
                                           _00193_DS_
                                           ;	.line	119; "MC32F7361.c"	LED_CTL_PIN = 0;
                                           	BCLR	_IOP0bits,4
                                           ;	.line	120; "MC32F7361.c"	delay_100us();
                                           	CALL	_delay_100us
                                           ;	.line	121; "MC32F7361.c"	LED_CTL_PIN = 1;
                                           	BSET	_IOP0bits,4
                                           ;	.line	122; "MC32F7361.c"	if ((data >> (15 - i)) & 0x01) // 1
                                           	MOVAR	r0x1018
                                           	ISUBAI	0x0f
                                           	MOVRA	r0x1019
                                           	MOVAR	r0x1016
                                           	MOVRA	r0x101A
                                           	MOVAR	r0x1017
                                           	MOVRA	r0x101B
                                           	MOVAR	r0x1019
                                           	ISUBAI	0x00
                                           	JBCLR	PFLAG,2
                                           	GOTO	_00215_DS_
                                           _00214_DS_
                                           	RRR	r0x101A
                                           	RRR	r0x101B
                                           	ADDAI	0x01
                                           	JBSET	PFLAG,0
                                           	GOTO	_00214_DS_
                                           _00215_DS_
                                           	JBSET	r0x101B,0
                                           	GOTO	_00190_DS_
                                           ;	.line	124; "MC32F7361.c"	delay_ms(3);
                                           	MOVAI	0x03
                                           	MOVRA	STK00
                                           	MOVAI	0x00
                                           	CALL	_delay_ms
                                           	GOTO	_00194_DS_
                                           _00190_DS_
                                           ;	.line	128; "MC32F7361.c"	delay_1_4ms();
                                           	CALL	_delay_1_4ms
                                           _00194_DS_
                                           ;	.line	117; "MC32F7361.c"	for (i = 0; i < 16; i++)
                                           	INCR	r0x1018
                                           ;;unsigned compare: left < lit(0x10=16), size=1
                                           	MOVAI	0x10
                                           	RSUBAR	r0x1018
                                           	JBSET	PFLAG,0
                                           	GOTO	_00193_DS_
                                           ;;genSkipc:3291: created from rifx:013B5EFC
                                           ;	.line	132; "MC32F7361.c"	LED_CTL_PIN = 0;
                                           	BCLR	_IOP0bits,4
                                           ;	.line	133; "MC32F7361.c"	delay_100us();
                                           	CALL	_delay_100us
                                           ;	.line	134; "MC32F7361.c"	LED_CTL_PIN = 1;
                                           	BSET	_IOP0bits,4
                                           ;	.line	135; "MC32F7361.c"	delay_ms(33);
                                           	MOVAI	0x21
                                           	MOVRA	STK00
                                           	MOVAI	0x00
                                           	CALL	_delay_ms
                                           _00195_DS_
                                           ;	.line	137; "MC32F7361.c"	}
                                           	RETURN	
                                           ; exit point of _send_cmd_16bit
                                           
                                           ;***
                                           ;  pBlock Stats: dbName = C
                                           ;***
                                           ;entry:  _EEPROM_Write_Data	;Function start
                                           ; 2 exit points
                                           ;has an exit
                                           ;functions called:
                                           ;   __gptrget2
                                           ;   _EEPROM_Write_Byte
                                           ;   __gptrget2
                                           ;   _EEPROM_Write_Byte
                                           ;12 compiler assigned registers:
                                           ;   r0x1028
                                           ;   STK00
                                           ;   r0x1029
                                           ;   STK01
                                           ;   r0x102A
                                           ;   STK02
                                           ;   r0x102B
                                           ;   STK03
                                           ;   r0x102C
                                           ;   r0x102D
                                           ;   r0x102E
                                           ;   r0x102F
                                           ;; Starting pCode block
                                           _EEPROM_Write_Data	;Function start
                                           ; 2 exit points
                                           ;	.line	98; "MC32F7361.c"	void EEPROM_Write_Data(u8 addr, u16 *data, u8 len)
                                           	MOVRA	r0x1028
                                           	MOVAR	STK00
                                           	MOVRA	r0x1029
                                           	MOVAR	STK01
                                           	MOVRA	r0x102A
                                           	MOVAR	STK02
                                           	MOVRA	r0x102B
                                           	MOVAR	STK03
                                           	MOVRA	r0x102C
                                           _00179_DS_
                                           ;	.line	100; "MC32F7361.c"	while (len)
                                           	MOVAI	0x00
                                           	ORAR	r0x102C
                                           	JBCLR	PFLAG,2
                                           	GOTO	_00182_DS_
                                           ;	.line	102; "MC32F7361.c"	EEPROM_Write_Byte(addr++, *data++);
                                           	MOVAR	r0x1028
                                           	MOVRA	r0x102D
                                           	INCR	r0x1028
                                           	MOVAR	r0x102B
                                           	MOVRA	STK01
                                           	MOVAR	r0x102A
                                           	MOVRA	STK00
                                           	MOVAR	r0x1029
                                           	CALL	__gptrget2
                                           	MOVRA	r0x102E
                                           	MOVAR	STK00
                                           	MOVRA	r0x102F
                                           	MOVAI	0x02
                                           	ADDRA	r0x102B
                                           	JBCLR	PFLAG,0
                                           	INCR	r0x102A
                                           	JBCLR	PFLAG,2
                                           	INCR	r0x1029
                                           	MOVAR	r0x102F
                                           	MOVRA	STK01
                                           	MOVAR	r0x102E
                                           	MOVRA	STK00
                                           	MOVAR	r0x102D
                                           	CALL	_EEPROM_Write_Byte
                                           ;	.line	103; "MC32F7361.c"	len--;
                                           	DECR	r0x102C
                                           	GOTO	_00179_DS_
                                           _00182_DS_
                                           ;	.line	105; "MC32F7361.c"	}
                                           	RETURN	
                                           ; exit point of _EEPROM_Write_Data
                                           
                                           ;***
                                           ;  pBlock Stats: dbName = C
                                           ;***
                                           ;entry:  _EEPROM_Read_Byte	;Function start
                                           ; 2 exit points
                                           ;has an exit
                                           ;5 compiler assigned registers:
                                           ;   r0x1030
                                           ;   r0x1031
                                           ;   r0x1032
                                           ;   r0x1033
                                           ;   STK00
                                           ;; Starting pCode block
                                           _EEPROM_Read_Byte	;Function start
                                           ; 2 exit points
                                           ;	.line	78; "MC32F7361.c"	uint16_t EEPROM_Read_Byte(u8 addr)
                                           	MOVRA	_EEAR
                                           ;	.line	82; "MC32F7361.c"	EECR = 0x02; //  EE 
                                           	MOVAI	0x02
                                           	MOVRA	_EECR
                                           ;	.line	83; "MC32F7361.c"	Nop();
                                           	nop	
                                           ;	.line	84; "MC32F7361.c"	Nop();
                                           	nop	
                                           _00174_DS_
                                           ;	.line	85; "MC32F7361.c"	while (EEREAD) //  EE 
                                           	JBCLR	_EECRbits,1
                                           	GOTO	_00174_DS_
                                           ;	.line	89; "MC32F7361.c"	EEDR = (EEDRH << 8) | EEDRL;
                                           	MOVAR	_EEDRH
                                           	MOVRA	r0x1032
                                           	MOVRA	r0x1030
                                           	CLRR	r0x1031
                                           ;;101	MOVAR	r0x1030
                                           	CLRR	r0x1033
                                           	MOVAR	_EEDRL
                                           	MOVRA	r0x1030
                                           	CLRR	r0x1031
                                           	MOVAR	r0x1030
                                           	ORRA	r0x1033
                                           	MOVAI	0x00
                                           	ORRA	r0x1032
                                           ;	.line	90; "MC32F7361.c"	return EEDR;
                                           	MOVAR	r0x1033
                                           	MOVRA	STK00
                                           	MOVAR	r0x1032
                                           ;	.line	91; "MC32F7361.c"	}
                                           	RETURN	
                                           ; exit point of _EEPROM_Read_Byte
                                           
                                           ;***
                                           ;  pBlock Stats: dbName = C
                                           ;***
                                           ;entry:  _EEPROM_Write_Byte	;Function start
                                           ; 2 exit points
                                           ;has an exit
                                           ;6 compiler assigned registers:
                                           ;   STK00
                                           ;   r0x1024
                                           ;   STK01
                                           ;   r0x1025
                                           ;   r0x1026
                                           ;   r0x1027
                                           ;; Starting pCode block
                                           _EEPROM_Write_Byte	;Function start
                                           ; 2 exit points
                                           ;	.line	54; "MC32F7361.c"	void EEPROM_Write_Byte(uint8_t addr, uint16_t data)
                                           	MOVRA	_EEAR
                                           	MOVAR	STK00
                                           	MOVRA	r0x1026
                                           ;;1	MOVRA	r0x1024
                                           	MOVAR	STK01
                                           	MOVRA	r0x1025
                                           ;	.line	56; "MC32F7361.c"	HFEN = 1;
                                           	BSET	_OSCMRbits,0
                                           ;;99	MOVAR	r0x1024
                                           ;;1	CLRR	r0x1027
                                           ;	.line	58; "MC32F7361.c"	EEDRH = (data >> 8) & 0xff;
                                           	MOVAR	r0x1026
                                           	MOVRA	_EEDRH
                                           ;	.line	59; "MC32F7361.c"	EEDRL = data & 0xff;
                                           	MOVAR	r0x1025
                                           	MOVRA	_EEDRL
                                           ;	.line	60; "MC32F7361.c"	GIE = 0;
                                           	BCLR	_MCRbits,7
                                           ;	.line	61; "MC32F7361.c"	EEPR = 0x5A;
                                           	MOVAI	0x5a
                                           	MOVRA	_EEPR
                                           ;	.line	62; "MC32F7361.c"	EEPR = 0xA5; // 
                                           	MOVAI	0xa5
                                           	MOVRA	_EEPR
                                           ;	.line	63; "MC32F7361.c"	EECR = 0x01; // EEPROM  
                                           	MOVAI	0x01
                                           	MOVRA	_EECR
                                           ;	.line	64; "MC32F7361.c"	Nop();
                                           	nop	
                                           ;	.line	65; "MC32F7361.c"	Nop();
                                           	nop	
                                           _00169_DS_
                                           ;	.line	66; "MC32F7361.c"	while (EEWRITE) //  EE 
                                           	JBCLR	_EECRbits,0
                                           	GOTO	_00169_DS_
                                           ;	.line	70; "MC32F7361.c"	GIE = 1;
                                           	BSET	_MCRbits,7
                                           ;	.line	71; "MC32F7361.c"	}
                                           	RETURN	
                                           ; exit point of _EEPROM_Write_Byte
                                           
                                           ;***
                                           ;  pBlock Stats: dbName = C
                                           ;***
                                           ;entry:  _delay_1_4ms	;Function start
                                           ; 2 exit points
                                           ;has an exit
                                           ;functions called:
                                           ;   _delay_100us
                                           ;   _delay_100us
                                           ;2 compiler assigned registers:
                                           ;   r0x1012
                                           ;   r0x1013
                                           ;; Starting pCode block
                                           _delay_1_4ms	;Function start
                                           ; 2 exit points
                                           ;	.line	42; "MC32F7361.c"	for (i = 0; i < 14; i++)
                                           	MOVAI	0x0e
                                           	MOVRA	r0x1012
                                           _00164_DS_
                                           ;	.line	44; "MC32F7361.c"	delay_100us();
                                           	CALL	_delay_100us
                                           	DECAR	r0x1012
                                           	MOVRA	r0x1012
                                           	MOVRA	r0x1013
                                           ;;100	MOVAR	r0x1013
                                           ;	.line	42; "MC32F7361.c"	for (i = 0; i < 14; i++)
                                           	MOVAI	0x00
                                           	ORAR	r0x1013
                                           	JBSET	PFLAG,2
                                           	GOTO	_00164_DS_
                                           ;	.line	46; "MC32F7361.c"	}
                                           	RETURN	
                                           ; exit point of _delay_1_4ms
                                           
                                           ;***
                                           ;  pBlock Stats: dbName = C
                                           ;***
                                           ;entry:  _delay_200us	;Function start
                                           ; 2 exit points
                                           ;has an exit
                                           ;2 compiler assigned registers:
                                           ;   r0x1034
                                           ;   r0x1035
                                           ;; Starting pCode block
                                           _delay_200us	;Function start
                                           ; 2 exit points
                                           ;	.line	32; "MC32F7361.c"	while (i--)
                                           	MOVAI	0x96
                                           	MOVRA	r0x1034
                                           _00153_DS_
                                           	MOVAR	r0x1034
                                           	MOVRA	r0x1035
                                           	DECR	r0x1034
                                           	MOVAI	0x00
                                           	ORAR	r0x1035
                                           	JBCLR	PFLAG,2
                                           	GOTO	_00156_DS_
                                           ;	.line	34; "MC32F7361.c"	Nop();
                                           	nop	
                                           	GOTO	_00153_DS_
                                           _00156_DS_
                                           ;	.line	36; "MC32F7361.c"	}
                                           	RETURN	
                                           ; exit point of _delay_200us
                                           
                                           ;***
                                           ;  pBlock Stats: dbName = C
                                           ;***
                                           ;entry:  _delay_100us	;Function start
                                           ; 2 exit points
                                           ;has an exit
                                           ;2 compiler assigned registers:
                                           ;   r0x1010
                                           ;   r0x1011
                                           ;; Starting pCode block
                                           _delay_100us	;Function start
                                           ; 2 exit points
                                           ;	.line	22; "MC32F7361.c"	while (i--)
                                           	MOVAI	0x4a
                                           	MOVRA	r0x1010
                                           _00145_DS_
                                           	MOVAR	r0x1010
                                           	MOVRA	r0x1011
                                           	DECR	r0x1010
                                           	MOVAI	0x00
                                           	ORAR	r0x1011
                                           	JBCLR	PFLAG,2
                                           	GOTO	_00148_DS_
                                           ;	.line	24; "MC32F7361.c"	Nop();
                                           	nop	
                                           	GOTO	_00145_DS_
                                           _00148_DS_
                                           ;	.line	26; "MC32F7361.c"	}
                                           	RETURN	
                                           ; exit point of _delay_100us
                                           
                                           ;***
                                           ;  pBlock Stats: dbName = C
                                           ;***
                                           ;entry:  _send_data_msb	;Function start
                                           ; 2 exit points
                                           ;has an exit
                                           ;functions called:
                                           ;   _delay_ms
                                           ;   _delay_ms
                                           ;   _delay_ms
                                           ;   _delay_ms
                                           ;   _delay_ms
                                           ;   _delay_ms
                                           ;   _delay_ms
                                           ;   _delay_ms
                                           ;   _delay_ms
                                           ;   _delay_ms
                                           ;   _delay_ms
                                           ;   _delay_ms
                                           ;   _delay_ms
                                           ;   _delay_ms
                                           ;   _delay_ms
                                           ;   _delay_ms
                                           ;13 compiler assigned registers:
                                           ;   r0x1036
                                           ;   STK00
                                           ;   r0x1037
                                           ;   STK01
                                           ;   r0x1038
                                           ;   STK02
                                           ;   r0x1039
                                           ;   r0x103A
                                           ;   r0x103B
                                           ;   r0x103C
                                           ;   r0x103D
                                           ;   r0x103E
                                           ;   r0x103F
                                           ;; Starting pCode block
                                           _send_data_msb	;Function start
                                           ; 2 exit points
                                           ;	.line	229; "user.h"	void send_data_msb(u32 send_data)
                                           	MOVRA	r0x1036
                                           	MOVAR	STK00
                                           	MOVRA	r0x1037
                                           	MOVAR	STK01
                                           	MOVRA	r0x1038
                                           	MOVAR	STK02
                                           	MOVRA	r0x1039
                                           ;	.line	233; "user.h"	DEBUG_PIN = 1;
                                           	BSET	_IOP2bits,2
                                           ;	.line	234; "user.h"	delay_ms(15);
                                           	MOVAI	0x0f
                                           	MOVRA	STK00
                                           	MOVAI	0x00
                                           	CALL	_delay_ms
                                           ;	.line	236; "user.h"	DEBUG_PIN = 0;
                                           	BCLR	_IOP2bits,2
                                           ;	.line	237; "user.h"	delay_ms(7); //
                                           	MOVAI	0x07
                                           	MOVRA	STK00
                                           	MOVAI	0x00
                                           	CALL	_delay_ms
                                           ;	.line	239; "user.h"	for (u8 i = 0; i < 32; i++)
                                           	CLRR	r0x103A
                                           ;;unsigned compare: left < lit(0x20=32), size=1
                                           _00121_DS_
                                           	MOVAI	0x20
                                           	RSUBAR	r0x103A
                                           	JBCLR	PFLAG,0
                                           	GOTO	_00119_DS_
                                           ;;genSkipc:3291: created from rifx:013B5EFC
                                           ;	.line	241; "user.h"	if ((send_data >> (32 - 1 - i)) & 0x01)
                                           	MOVAR	r0x103A
                                           	ISUBAI	0x1f
                                           	MOVRA	r0x103B
                                           	MOVAR	r0x1036
                                           	MOVRA	r0x103C
                                           	MOVAR	r0x1037
                                           	MOVRA	r0x103D
                                           	MOVAR	r0x1038
                                           	MOVRA	r0x103E
                                           	MOVAR	r0x1039
                                           	MOVRA	r0x103F
                                           	MOVAR	r0x103B
                                           	ISUBAI	0x00
                                           	JBCLR	PFLAG,2
                                           	GOTO	_00140_DS_
                                           _00139_DS_
                                           	RRR	r0x103C
                                           	RRR	r0x103D
                                           	RRR	r0x103E
                                           	RRR	r0x103F
                                           	ADDAI	0x01
                                           	JBSET	PFLAG,0
                                           	GOTO	_00139_DS_
                                           _00140_DS_
                                           	JBSET	r0x103F,0
                                           	GOTO	_00117_DS_
                                           ;	.line	245; "user.h"	DEBUG_PIN = 1;
                                           	BSET	_IOP2bits,2
                                           ;	.line	246; "user.h"	delay_ms(5); //
                                           	MOVAI	0x05
                                           	MOVRA	STK00
                                           	MOVAI	0x00
                                           	CALL	_delay_ms
                                           ;	.line	248; "user.h"	DEBUG_PIN = 0;
                                           	BCLR	_IOP2bits,2
                                           ;	.line	249; "user.h"	delay_ms(10); //
                                           	MOVAI	0x0a
                                           	MOVRA	STK00
                                           	MOVAI	0x00
                                           	CALL	_delay_ms
                                           	GOTO	_00122_DS_
                                           _00117_DS_
                                           ;	.line	255; "user.h"	DEBUG_PIN = 1;
                                           	BSET	_IOP2bits,2
                                           ;	.line	256; "user.h"	delay_ms(5); //
                                           	MOVAI	0x05
                                           	MOVRA	STK00
                                           	MOVAI	0x00
                                           	CALL	_delay_ms
                                           ;	.line	258; "user.h"	DEBUG_PIN = 0;
                                           	BCLR	_IOP2bits,2
                                           ;	.line	259; "user.h"	delay_ms(5); //
                                           	MOVAI	0x05
                                           	MOVRA	STK00
                                           	MOVAI	0x00
                                           	CALL	_delay_ms
                                           _00122_DS_
                                           ;	.line	239; "user.h"	for (u8 i = 0; i < 32; i++)
                                           	INCR	r0x103A
                                           	GOTO	_00121_DS_
                                           _00119_DS_
                                           ;	.line	265; "user.h"	DEBUG_PIN = 0;
                                           	BCLR	_IOP2bits,2
                                           ;	.line	266; "user.h"	delay_ms(1);
                                           	MOVAI	0x01
                                           	MOVRA	STK00
                                           	MOVAI	0x00
                                           	CALL	_delay_ms
                                           ;	.line	267; "user.h"	DEBUG_PIN = 1;
                                           	BSET	_IOP2bits,2
                                           ;	.line	268; "user.h"	delay_ms(1);
                                           	MOVAI	0x01
                                           	MOVRA	STK00
                                           	MOVAI	0x00
                                           	CALL	_delay_ms
                                           ;	.line	269; "user.h"	DEBUG_PIN = 0;
                                           	BCLR	_IOP2bits,2
                                           ;	.line	270; "user.h"	}
                                           	RETURN	
                                           ; exit point of _send_data_msb
                                           
                                           ;***
                                           ;  pBlock Stats: dbName = C
                                           ;***
                                           ;entry:  _delay_ms	;Function start
                                           ; 2 exit points
                                           ;has an exit
                                           ;7 compiler assigned registers:
                                           ;   r0x1010
                                           ;   STK00
                                           ;   r0x1011
                                           ;   r0x1012
                                           ;   r0x1013
                                           ;   r0x1014
                                           ;   r0x1015
                                           ;; Starting pCode block
                                           _delay_ms	;Function start
                                           ; 2 exit points
                                           ;	.line	207; "user.h"	void delay_ms(u16 xms)
                                           	MOVRA	r0x1010
                                           	MOVAR	STK00
                                           	MOVRA	r0x1011
                                           _00108_DS_
                                           ;	.line	209; "user.h"	while (xms)
                                           	MOVAR	r0x1011
                                           	ORAR	r0x1010
                                           	JBCLR	PFLAG,2
                                           	GOTO	_00111_DS_
                                           ;	.line	212; "user.h"	while (i--)
                                           	MOVAI	0x05
                                           	MOVRA	r0x1012
                                           	MOVAI	0x02
                                           	MOVRA	r0x1013
                                           _00105_DS_
                                           	MOVAR	r0x1012
                                           	MOVRA	r0x1014
                                           	MOVAR	r0x1013
                                           	MOVRA	r0x1015
                                           	MOVAI	0xff
                                           	ADDRA	r0x1012
                                           	JBSET	PFLAG,0
                                           	DECR	r0x1013
                                           	MOVAR	r0x1014
                                           	ORAR	r0x1015
                                           	JBCLR	PFLAG,2
                                           	GOTO	_00107_DS_
                                           ;	.line	214; "user.h"	Nop();
                                           	nop	
                                           	GOTO	_00105_DS_
                                           _00107_DS_
                                           ;	.line	216; "user.h"	xms--; //  --while()
                                           	MOVAI	0xff
                                           	ADDRA	r0x1011
                                           	JBSET	PFLAG,0
                                           	DECR	r0x1010
                                           ;	.line	220; "user.h"	__endasm;
                                           	;
                                           	clrwdt;
                                           	
                                           	GOTO	_00108_DS_
                                           _00111_DS_
                                           ;	.line	222; "user.h"	}
                                           	RETURN	
                                           ; exit point of _delay_ms
                                           
                                           
                                           ;	code size estimation:
                                           ;	  811+    0 =   811 instructions ( 1622 byte)
                                           
                                           	end


MEMORY USAGE MAP ('X' = Used,  '-' = Unused)

0000 : XX-------------- XXXXXXXXXXXXXXXX XXXXXXXXXXXXXXXX XXXXXXXXXXXXXXXX
0040 : XXXXXXXXXXXXXXXX XXXXXXXXXXXXXXXX XXXXXXXXXXXXXXXX XXXXXXXXXXXXXXXX
0080 : XXXXXXXXXXXXXXXX XXXXXXXXXXXXXXXX XXXXXXXXXXXXXXXX XXXXXXXXXXXXXXXX
00C0 : XXXXXXXXXXXXXXXX XXXXXXXXXXXXXXXX XXXXXXXXXXXXXXXX XXXXXXXXXXXXXXXX
0100 : XXXXXXXXXXXXXXXX XXXXXXXXXXXXXXXX XXXXXXXXXXXXXXXX XXXXXXXXXXXXXXXX
0140 : XXXXXXXXXXXXXXXX XXXXXXXXXXXXXXXX XXXXXXXXXXXXXXXX XXXXXXXXXXXXXXXX
0180 : XXXXXXXXXXXXXXXX XXXXXXXXXXXXXXXX XXXXXXXXXXXXXXXX XXXXXXXXXXXXXXXX
01C0 : XXXXXXXXXXXXXXXX XXXXXXXXXXXXXXXX XXXXXXXXXXXXXXXX XXXXXXXXXXXXXXXX
0200 : XXXXXXXXXXXXXXXX XXXXXXXXXXXXXXXX XXXXXXXXXXXXXXXX XXXXXXXXXXXXXXXX
0240 : XXXXXXXXXXXXXXXX XXXXXXXXXXXXXXXX XXXXXXXXXXXXXXXX XXXXXXXXXXXXXXXX
0280 : XXXXXXXXXXXXXXXX XXXXXXXXXXXXXXXX XXXXXXXXXXXXXXXX XXXXXXXXXXXXXXXX
02C0 : XXXXXXXXXXXXXXXX XXXXXXXXXXXXXXXX XXXXXXXXXXXXXXXX XXXXXXXXXXXXXXXX
0300 : XXXXXXXXXXXXXXXX XXXXXXXXXXXXXXXX XXXXXXXXXXXXXXXX XXXXXXXXXXXXXXXX
0340 : XXXXXXXXXXXXXXXX XXXXXXXXXXXXXXXX XXXXXXXXXXXXXXXX XXXXXXXXXXXXXXXX
0380 : XXXXXXXXXXXXXXXX XXXXXXXXXXXXXXXX XXXXXXXXXXXXXXXX XXXXXXXXXXXXXXXX
03C0 : XXXXXXXXXXXXXXXX XXXXXXXXXXXXXXXX XXXXXXXXXXXXXXXX XXXXXXXXXXXXXXXX
0400 : XXXXXXXXXXXXXXXX XXXXXXXXXXXXXXXX XXXXXXXXXXXXXXXX XXXXXXXXXXXXXXXX
0440 : XXXXXXXXXXXXXXXX XXXXXXXXXXXXXXXX XXXXXXXXXXXXXXXX XXXXXXXXXXXXXXXX
0480 : XXXXXXXXXXXXXXXX XXXXXXXXXXXXXXXX XXXXXXXXXXXXXXXX XXXXXXXXXXXXXXXX
04C0 : XXXXXXXXXXXXXXXX XXXXXXXXXXXXXXXX XXXXXXXXXXXXXXXX XXXXXXXXXXXXXXXX
0500 : XXXXXXXXXXXXXXXX XXXXXXXXXXXXXXXX XXXXXXXXXXXXXXXX XXXXXXXXXXXXXXXX
0540 : XXXXXXXXXXXXXXXX XXXXXXXXXXXXXXXX XXXXXXXXXXXXXXXX XXXXXXXXXXXXXXXX
0580 : XXXXXXXXXXXXXXXX XXXXXXXXXXXXXXXX XXXXXXXXXXXXXXXX XXXXXXXXXXXXXXXX
05C0 : XXXXXXXXXXXXXXXX XXXXXXXXXXXXXXXX XXXXXXXXXXXXXXXX XXXXXXXXXXXXXXXX
0600 : XXXXXXXXXXXXXXXX XXXXXXXXXXXXXXXX XXXXXXXXXXXXXXXX XXXXXXXXXXXXXXXX
0640 : XXXXXXXXXXXXXXXX XXXXXXXXXXXXXXXX XXXXXXXXXXXXXXXX XXXXXXXXXXXXXXXX
0680 : XXXXXXXXXXXXXXXX XXXXXXXXXXXXXXXX XXXXXXXXXXXXXXXX XXXXXXXXXXXXXXXX
06C0 : XXXXXXXXXXXXXXXX XXXXXXXXXXXXXXXX XXXXXXXXXXXXXXXX XXXXXXXXXXXXXXXX
0700 : XXXXXXXXXXXXXXXX XXXXXXXXXXXXXXXX XXXXXXXXXXXXXXXX XXXXXXXXXXXXXXXX
0740 : XXXXXXXXXXXXXXXX XXXXXXXXXXXXXXXX XXXXXXXXXXXXXXXX XXXXXXXXXXXXXXXX
0780 : XXXXXXXXXXXXXXXX XXXXXXXXXXXXXXXX XXXXXXXXXXXXXXXX XXXXXXXX--------

All other memory blocks unused.

Program Memory Words Used:   981

