gplink-2.2.37 (Jan 22 2024)
Listing File Generated: 2025-4-2  15:19:40
 
 
Address  Value    Disassembly              Source
-------  -----    -----------              ------
                                           ;--------------------------------------------------------
                                           ; external declarations
                                           ;--------------------------------------------------------
                                           	extern	_INDF0bits
                                           	extern	_INDF1bits
                                           	extern	_INDF2bits
                                           	extern	_HIBYTEbits
                                           	extern	_FSR0bits
                                           	extern	_FSR1bits
                                           	extern	_PCLbits
                                           	extern	_PFLAGbits
                                           	extern	_MCRbits
                                           	extern	_INDF3bits
                                           	extern	_INTEbits
                                           	extern	_INTFbits
                                           	extern	_DRVCRbits
                                           	extern	_P0KBCRbits
                                           	extern	_P1KBCRbits
                                           	extern	_P2KBCRbits
                                           	extern	_IOP0bits
                                           	extern	_OEP0bits
                                           	extern	_PUP0bits
                                           	extern	_PDP0bits
                                           	extern	_IOP1bits
                                           	extern	_OEP1bits
                                           	extern	_PUP1bits
                                           	extern	_PDP1bits
                                           	extern	_T0CRbits
                                           	extern	_T0CNTbits
                                           	extern	_T0LOADbits
                                           	extern	_T0DATAbits
                                           	extern	_T1CRbits
                                           	extern	_T1CNTbits
                                           	extern	_T1LOADbits
                                           	extern	_T1DATAbits
                                           	extern	_T2CRbits
                                           	extern	_T2CNTbits
                                           	extern	_T2LOADbits
                                           	extern	_T2DATAbits
                                           	extern	_T3CRbits
                                           	extern	_T3CNTbits
                                           	extern	_T3LOADbits
                                           	extern	_PWM0DRbits
                                           	extern	_PWM1DRbits
                                           	extern	_PWM2DRbits
                                           	extern	_PWMCR0bits
                                           	extern	_PWMCR1bits
                                           	extern	_OSCMRbits
                                           	extern	_LVDCRbits
                                           	extern	_ADCR0bits
                                           	extern	_ADCR1bits
                                           	extern	_ADCR2bits
                                           	extern	_OSADJCRbits
                                           	extern	_ADRHbits
                                           	extern	_ADRLbits
                                           	extern	_P0ADCRbits
                                           	extern	_P1ADCRbits
                                           	extern	_IOP2bits
                                           	extern	_OEP2bits
                                           	extern	_PUP2bits
                                           	extern	_PDP2bits
                                           	extern	_PMODbits
                                           	extern	_PWMCR3bits
                                           	extern	_PWMCR2bits
                                           	extern	_PFRCCRbits
                                           	extern	_PFRCCALbits
                                           	extern	_EECRbits
                                           	extern	_EEPRbits
                                           	extern	_EEARbits
                                           	extern	_EEDRHbits
                                           	extern	_EEDRLbits
                                           	extern	_DBGCRbits
                                           	extern	_DBGPRbits
                                           	extern	_HIRCCALbits
                                           	extern	_INDF0
                                           	extern	_INDF1
                                           	extern	_INDF2
                                           	extern	_HIBYTE
                                           	extern	_FSR0
                                           	extern	_FSR1
                                           	extern	_PCL
                                           	extern	_PFLAG
                                           	extern	_MCR
                                           	extern	_INDF3
                                           	extern	_INTE
                                           	extern	_INTF
                                           	extern	_DRVCR
                                           	extern	_P0KBCR
                                           	extern	_P1KBCR
                                           	extern	_P2KBCR
                                           	extern	_IOP0
                                           	extern	_OEP0
                                           	extern	_PUP0
                                           	extern	_PDP0
                                           	extern	_IOP1
                                           	extern	_OEP1
                                           	extern	_PUP1
                                           	extern	_PDP1
                                           	extern	_T0CR
                                           	extern	_T0CNT
                                           	extern	_T0LOAD
                                           	extern	_T0DATA
                                           	extern	_T1CR
                                           	extern	_T1CNT
                                           	extern	_T1LOAD
                                           	extern	_T1DATA
                                           	extern	_T2CR
                                           	extern	_T2CNT
                                           	extern	_T2LOAD
                                           	extern	_T2DATA
                                           	extern	_T3CR
                                           	extern	_T3CNT
                                           	extern	_T3LOAD
                                           	extern	_PWM0DR
                                           	extern	_PWM1DR
                                           	extern	_PWM2DR
                                           	extern	_PWMCR0
                                           	extern	_PWMCR1
                                           	extern	_OSCMR
                                           	extern	_LVDCR
                                           	extern	_ADCR0
                                           	extern	_ADCR1
                                           	extern	_ADCR2
                                           	extern	_OSADJCR
                                           	extern	_ADRH
                                           	extern	_ADRL
                                           	extern	_P0ADCR
                                           	extern	_P1ADCR
                                           	extern	_IOP2
                                           	extern	_OEP2
                                           	extern	_PUP2
                                           	extern	_PDP2
                                           	extern	_PMOD
                                           	extern	_PWMCR3
                                           	extern	_PWMCR2
                                           	extern	_PFRCCR
                                           	extern	_PFRCCAL
                                           	extern	_EECR
                                           	extern	_EEPR
                                           	extern	_EEAR
                                           	extern	_EEDRH
                                           	extern	_EEDRL
                                           	extern	_DBGCR
                                           	extern	_DBGPR
                                           	extern	_HIRCCAL
                                           	extern	__gptrget1
                                           	extern	__gptrget2
                                           ;--------------------------------------------------------
                                           ; global declarations
                                           ;--------------------------------------------------------
                                           	global	_delay_ms
                                           	global	_delay_100xus
                                           	global	_EEPROM_Write_Byte
                                           	global	_EEPROM_Read_Byte
                                           	global	_send_cmd_16bit
                                           	global	_Sys_Init
                                           	global	_key_event_same_deal_ex
                                           	global	_key_event_set_timer
                                           	global	_main
                                           	global	_int_isr
                                           	global	_abuf
                                           	global	_statusbuf
                                           	global	_flag1
                                           	global	_ir_data
                                           	global	_ir_type
                                           	global	_current_index
                                           	global	_start_index
                                           	global	_end_index
                                           	global	_next_frame_delay
                                           	global	_power_sta
                                           	global	_current_speed
                                           	global	_current_static
                                           	global	_cur_mechanical_key_sta
                                           	global	_timer_count
                                           	global	_eeprom_read_byte_index_0
                                           	global	_eeprom_read_byte_index_1
                                           	global	_eeprom_read_byte_index_2
                                           	global	_eeprom_read_byte_index_3
                                           	global	_main_table
                                           	global	_section_1_speed_table
                                           	global	_section_1_delay_table
                                           	global	_section_2_delay_table
                                           	global	_section_3_speed_table
                                           	global	_section_5_speed_table
                                           	global	_section_5_delay_table
                                           	global	_section_7_speed_table
                                           	global	_section_7_delay_table
                                           
                                           	global STK06
                                           	global STK05
                                           	global STK04
                                           	global STK03
                                           	global STK02
                                           	global STK01
                                           	global STK00
                                           
                                           sharebank udata_ovr 0x0000
                                           STK06	res 1
                                           STK05	res 1
                                           STK04	res 1
                                           STK03	res 1
                                           STK02	res 1
                                           STK01	res 1
                                           STK00	res 1
                                           
                                           ;--------------------------------------------------------
                                           ; global definitions
                                           ;--------------------------------------------------------
                                           UD_MC32F7361_0	udata
                                           _abuf	res	1
                                           
                                           UD_MC32F7361_1	udata
                                           _statusbuf	res	1
                                           
                                           UD_MC32F7361_2	udata
                                           _flag1	res	1
                                           
                                           UD_MC32F7361_3	udata
                                           _ir_data	res	1
                                           
                                           UD_MC32F7361_4	udata
                                           _ir_type	res	1
                                           
                                           UD_MC32F7361_5	udata
                                           _current_index	res	1
                                           
                                           UD_MC32F7361_6	udata
                                           _start_index	res	1
                                           
                                           UD_MC32F7361_7	udata
                                           _end_index	res	1
                                           
                                           UD_MC32F7361_8	udata
                                           _next_frame_delay	res	2
                                           
                                           UD_MC32F7361_9	udata
                                           _power_sta	res	1
                                           
                                           UD_MC32F7361_10	udata
                                           _current_speed	res	1
                                           
                                           UD_MC32F7361_11	udata
                                           _current_static	res	1
                                           
                                           UD_MC32F7361_12	udata
                                           _cur_mechanical_key_sta	res	1
                                           
                                           UD_MC32F7361_13	udata
                                           _eeprom_read_byte_index_0	res	1
                                           
                                           UD_MC32F7361_14	udata
                                           _eeprom_read_byte_index_1	res	1
                                           
                                           UD_MC32F7361_15	udata
                                           _eeprom_read_byte_index_2	res	1
                                           
                                           UD_MC32F7361_16	udata
                                           _eeprom_read_byte_index_3	res	1
                                           
                                           ;--------------------------------------------------------
                                           ; absolute symbol definitions
                                           ;--------------------------------------------------------
                                           ;--------------------------------------------------------
                                           ; compiler-defined variables
                                           ;--------------------------------------------------------
                                           UDL_MC32F7361_0	udata
                                           r0x101C	res	1
                                           r0x101B	res	1
                                           r0x101D	res	1
                                           r0x101E	res	1
                                           r0x101F	res	1
                                           r0x1020	res	1
                                           r0x1022	res	1
                                           r0x1021	res	1
                                           r0x1023	res	1
                                           r0x1024	res	1
                                           r0x1026	res	1
                                           r0x1025	res	1
                                           r0x1027	res	1
                                           r0x1028	res	1
                                           r0x102A	res	1
                                           r0x1029	res	1
                                           r0x102B	res	1
                                           r0x102C	res	1
                                           r0x102D	res	1
                                           r0x1030	res	1
                                           r0x102F	res	1
                                           r0x1031	res	1
                                           r0x1032	res	1
                                           r0x1033	res	1
                                           r0x1034	res	1
                                           r0x1035	res	1
                                           r0x1036	res	1
                                           r0x1037	res	1
                                           _int_isr_ir_level_cnt_196608_58	res	2
                                           _int_isr___ir_data_196608_58	res	4
                                           _int_isr_key_press_cnt_196608_73	res	2
                                           _int_isr__100us_count_131073_79	res	1
                                           ;--------------------------------------------------------
                                           ; initialized data
                                           ;--------------------------------------------------------
                                           
                                           ID_MC32F7361_0	idata
                                           _timer_count
                                           	db	0x00, 0x00, 0x00, 0x00
                                           
                                           
                                           ID_MC32F7361_1	code
                                           _main_table
00060a   0011     deca                     	dw 0x11
00060b   0022     dw      0x22             	dw 0x22
00060c   0044     dw      0x44             	dw 0x44
00060d   0033     dw      0x33             	dw 0x33
00060e   0055     dw      0x55             	dw 0x55
00060f   0066     dw      0x66             	dw 0x66
000610   0077     dw      0x77             	dw 0x77
000611   0088     dw      0x88             	dw 0x88
000612   00aa     dw      0xaa             	dw 0xaa
000613   00cc     dw      0xcc             	dw 0xcc
000614   0011     deca                     	dw 0x11
000615   0022     dw      0x22             	dw 0x22
000616   0044     dw      0x44             	dw 0x44
000617   0033     dw      0x33             	dw 0x33
000618   0055     dw      0x55             	dw 0x55
000619   0066     dw      0x66             	dw 0x66
00061a   0077     dw      0x77             	dw 0x77
00061b   0088     dw      0x88             	dw 0x88
00061c   00aa     dw      0xaa             	dw 0xaa
00061d   00cc     dw      0xcc             	dw 0xcc
00061e   0021     dw      0x21             	dw 0x21
00061f   0074     dw      0x74             	dw 0x74
000620   0053     dw      0x53             	dw 0x53
000621   0041     dw      0x41             	dw 0x41
000622   0024     dw      0x24             	dw 0x24
000623   0045     dw      0x45             	dw 0x45
000624   00e0     dw      0xe0             	dw 0xe0
000625   00a0     dw      0xa0             	dw 0xa0
000626   00c0     dw      0xc0             	dw 0xc0
000627   00ee     dw      0xee             	dw 0xee
000628   00ee     dw      0xee             	dw 0xee
000629   00ee     dw      0xee             	dw 0xee
00062a   00ee     dw      0xee             	dw 0xee
00062b   00ee     dw      0xee             	dw 0xee
00062c   00ee     dw      0xee             	dw 0xee
00062d   00ee     dw      0xee             	dw 0xee
00062e   00ee     dw      0xee             	dw 0xee
00062f   00ee     dw      0xee             	dw 0xee
000630   00ee     dw      0xee             	dw 0xee
000631   00aa     dw      0xaa             	dw 0xaa
000632   00aa     dw      0xaa             	dw 0xaa
000633   00aa     dw      0xaa             	dw 0xaa
000634   00aa     dw      0xaa             	dw 0xaa
000635   00aa     dw      0xaa             	dw 0xaa
000636   00aa     dw      0xaa             	dw 0xaa
000637   00aa     dw      0xaa             	dw 0xaa
000638   00aa     dw      0xaa             	dw 0xaa
000639   00aa     dw      0xaa             	dw 0xaa
00063a   00aa     dw      0xaa             	dw 0xaa
00063b   00cc     dw      0xcc             	dw 0xcc
00063c   00cc     dw      0xcc             	dw 0xcc
00063d   00cc     dw      0xcc             	dw 0xcc
00063e   00cc     dw      0xcc             	dw 0xcc
00063f   00cc     dw      0xcc             	dw 0xcc
000640   00cc     dw      0xcc             	dw 0xcc
000641   00cc     dw      0xcc             	dw 0xcc
000642   00cc     dw      0xcc             	dw 0xcc
000643   00cc     dw      0xcc             	dw 0xcc
000644   00cc     dw      0xcc             	dw 0xcc
000645   0017     dw      0x17             	dw 0x17
000646   0027     dw      0x27             	dw 0x27
000647   0047     dw      0x47             	dw 0x47
000648   0037     dw      0x37             	dw 0x37
000649   0057     dw      0x57             	dw 0x57
00064a   0067     dw      0x67             	dw 0x67
00064b   0077     dw      0x77             	dw 0x77
00064c   0087     dw      0x87             	dw 0x87
00064d   00a7     dw      0xa7             	dw 0xa7
00064e   00c7     dw      0xc7             	dw 0xc7
00064f   0011     deca                     	dw 0x11
000650   0012     jza                      	dw 0x12
000651   0022     dw      0x22             	dw 0x22
000652   0024     dw      0x24             	dw 0x24
000653   0044     dw      0x44             	dw 0x44
000654   0014     rla                      	dw 0x14
000655   0011     deca                     	dw 0x11
000656   0022     dw      0x22             	dw 0x22
000657   0044     dw      0x44             	dw 0x44
000658   0077     dw      0x77             	dw 0x77
000659   0033     dw      0x33             	dw 0x33
00065a   0066     dw      0x66             	dw 0x66
00065b   0055     dw      0x55             	dw 0x55
00065c   0033     dw      0x33             	dw 0x33
00065d   0066     dw      0x66             	dw 0x66
00065e   0055     dw      0x55             	dw 0x55
00065f   0033     dw      0x33             	dw 0x33
000660   0066     dw      0x66             	dw 0x66
000661   0055     dw      0x55             	dw 0x55
000662   0033     dw      0x33             	dw 0x33
000663   0066     dw      0x66             	dw 0x66
000664   0055     dw      0x55             	dw 0x55
000665   00ee     dw      0xee             	dw 0xee
000666   00aa     dw      0xaa             	dw 0xaa
000667   00cc     dw      0xcc             	dw 0xcc
                                           
                                           
                                           ID_MC32F7361_2	code
                                           _section_1_speed_table
0006be   000f     dw      0xf              	dw 0x0f
0006bf   000e     clrwdt                   	dw 0x0e
0006c0   000d     retie                    	dw 0x0d
0006c1   000c     return                   	dw 0x0c
                                           
                                           
                                           ID_MC32F7361_3	code
                                           _section_1_delay_table
000696   0010     djza                     	dw 0x10
000697   0027     dw      0x27             	dw 0x27
000698   007e     dw      0x7e             	dw 0x7e
000699   001d     dw      0x1d             	dw 0x1d
00069a   0023     dw      0x23             	dw 0x23
00069b   0014     rla                      	dw 0x14
00069c   00c8     dw      0xc8             	dw 0xc8
00069d   000a     daa                      	dw 0x0a
                                           
                                           
                                           ID_MC32F7361_4	code
                                           _section_2_delay_table
00069e   00a8     dw      0xa8             	dw 0xa8
00069f   0007     dw      0x7              	dw 0x07
0006a0   00c4     dw      0xc4             	dw 0xc4
0006a1   0003     dw      0x3              	dw 0x03
0006a2   00d1     dw      0xd1             	dw 0xd1
0006a3   0001     dw      0x1              	dw 0x01
0006a4   00a5     dw      0xa5             	dw 0xa5
0006a5   0000     nop                      	dw 0x00
                                           
                                           
                                           ID_MC32F7361_5	code
                                           _section_3_speed_table
0006c2   0008     dw      0x8              	dw 0x08
0006c3   000a     daa                      	dw 0x0a
0006c4   0009     dsa                      	dw 0x09
0006c5   000b     stop                     	dw 0x0b
                                           
                                           
                                           ID_MC32F7361_6	code
                                           _section_5_speed_table
0006c6   0000     nop                      	dw 0x00
0006c7   0000     nop                      	dw 0x00
0006c8   0000     nop                      	dw 0x00
0006c9   0000     nop                      	dw 0x00
                                           
                                           
                                           ID_MC32F7361_7	code
                                           _section_5_delay_table
0006a6   00a8     dw      0xa8             	dw 0xa8
0006a7   0007     dw      0x7              	dw 0x07
0006a8   00c4     dw      0xc4             	dw 0xc4
0006a9   0003     dw      0x3              	dw 0x03
0006aa   00d1     dw      0xd1             	dw 0xd1
0006ab   0001     dw      0x1              	dw 0x01
0006ac   00a5     dw      0xa5             	dw 0xa5
0006ad   0000     nop                      	dw 0x00
                                           
                                           
                                           ID_MC32F7361_8	code
                                           _section_7_speed_table
0006ca   0087     dw      0x87             	dw 0x87
0006cb   0086     dw      0x86             	dw 0x86
0006cc   0085     dw      0x85             	dw 0x85
0006cd   0084     dw      0x84             	dw 0x84
                                           
                                           
                                           ID_MC32F7361_9	code
                                           _section_7_delay_table
0006ae   00b5     dw      0xb5             	dw 0xb5
0006af   0015     rra                      	dw 0x15
0006b0   00d0     dw      0xd0             	dw 0xd0
0006b1   0011     deca                     	dw 0x11
0006b2   0020     dw      0x20             	dw 0x20
0006b3   000d     retie                    	dw 0x0d
0006b4   00d0     dw      0xd0             	dw 0xd0
0006b5   0007     dw      0x7              	dw 0x07
                                           
                                           
                                           ;@Allocation info for local variables in function 'delay_ms'
                                           ;@delay_ms delay_ms                  Allocated to registers ;size:2
                                           ;@delay_ms INDF0bits                 Allocated to registers ;size:1
                                           ;@delay_ms INDF1bits                 Allocated to registers ;size:1
                                           ;@delay_ms INDF2bits                 Allocated to registers ;size:1
                                           ;@delay_ms HIBYTEbits                Allocated to registers ;size:1
                                           ;@delay_ms FSR0bits                  Allocated to registers ;size:1
                                           ;@delay_ms FSR1bits                  Allocated to registers ;size:1
                                           ;@delay_ms PCLbits                   Allocated to registers ;size:1
                                           ;@delay_ms PFLAGbits                 Allocated to registers ;size:1
                                           ;@delay_ms MCRbits                   Allocated to registers ;size:1
                                           ;@delay_ms INDF3bits                 Allocated to registers ;size:1
                                           ;@delay_ms INTEbits                  Allocated to registers ;size:1
                                           ;@delay_ms INTFbits                  Allocated to registers ;size:1
                                           ;@delay_ms DRVCRbits                 Allocated to registers ;size:1
                                           ;@delay_ms P0KBCRbits                Allocated to registers ;size:1
                                           ;@delay_ms P1KBCRbits                Allocated to registers ;size:1
                                           ;@delay_ms P2KBCRbits                Allocated to registers ;size:1
                                           ;@delay_ms IOP0bits                  Allocated to registers ;size:1
                                           ;@delay_ms OEP0bits                  Allocated to registers ;size:1
                                           ;@delay_ms PUP0bits                  Allocated to registers ;size:1
                                           ;@delay_ms PDP0bits                  Allocated to registers ;size:1
                                           ;@delay_ms IOP1bits                  Allocated to registers ;size:1
                                           ;@delay_ms OEP1bits                  Allocated to registers ;size:1
                                           ;@delay_ms PUP1bits                  Allocated to registers ;size:1
                                           ;@delay_ms PDP1bits                  Allocated to registers ;size:1
                                           ;@delay_ms T0CRbits                  Allocated to registers ;size:1
                                           ;@delay_ms T0CNTbits                 Allocated to registers ;size:1
                                           ;@delay_ms T0LOADbits                Allocated to registers ;size:1
                                           ;@delay_ms T0DATAbits                Allocated to registers ;size:1
                                           ;@delay_ms T1CRbits                  Allocated to registers ;size:1
                                           ;@delay_ms T1CNTbits                 Allocated to registers ;size:1
                                           ;@delay_ms T1LOADbits                Allocated to registers ;size:1
                                           ;@delay_ms T1DATAbits                Allocated to registers ;size:1
                                           ;@delay_ms T2CRbits                  Allocated to registers ;size:1
                                           ;@delay_ms T2CNTbits                 Allocated to registers ;size:1
                                           ;@delay_ms T2LOADbits                Allocated to registers ;size:1
                                           ;@delay_ms T2DATAbits                Allocated to registers ;size:1
                                           ;@delay_ms T3CRbits                  Allocated to registers ;size:1
                                           ;@delay_ms T3CNTbits                 Allocated to registers ;size:1
                                           ;@delay_ms T3LOADbits                Allocated to registers ;size:1
                                           ;@delay_ms PWM0DRbits                Allocated to registers ;size:1
                                           ;@delay_ms PWM1DRbits                Allocated to registers ;size:1
                                           ;@delay_ms PWM2DRbits                Allocated to registers ;size:1
                                           ;@delay_ms PWMCR0bits                Allocated to registers ;size:1
                                           ;@delay_ms PWMCR1bits                Allocated to registers ;size:1
                                           ;@delay_ms OSCMRbits                 Allocated to registers ;size:1
                                           ;@delay_ms LVDCRbits                 Allocated to registers ;size:1
                                           ;@delay_ms ADCR0bits                 Allocated to registers ;size:1
                                           ;@delay_ms ADCR1bits                 Allocated to registers ;size:1
                                           ;@delay_ms ADCR2bits                 Allocated to registers ;size:1
                                           ;@delay_ms OSADJCRbits               Allocated to registers ;size:1
                                           ;@delay_ms ADRHbits                  Allocated to registers ;size:1
                                           ;@delay_ms ADRLbits                  Allocated to registers ;size:1
                                           ;@delay_ms P0ADCRbits                Allocated to registers ;size:1
                                           ;@delay_ms P1ADCRbits                Allocated to registers ;size:1
                                           ;@delay_ms IOP2bits                  Allocated to registers ;size:1
                                           ;@delay_ms OEP2bits                  Allocated to registers ;size:1
                                           ;@delay_ms PUP2bits                  Allocated to registers ;size:1
                                           ;@delay_ms PDP2bits                  Allocated to registers ;size:1
                                           ;@delay_ms PMODbits                  Allocated to registers ;size:1
                                           ;@delay_ms PWMCR3bits                Allocated to registers ;size:1
                                           ;@delay_ms PWMCR2bits                Allocated to registers ;size:1
                                           ;@delay_ms PFRCCRbits                Allocated to registers ;size:1
                                           ;@delay_ms PFRCCALbits               Allocated to registers ;size:1
                                           ;@delay_ms EECRbits                  Allocated to registers ;size:1
                                           ;@delay_ms EEPRbits                  Allocated to registers ;size:1
                                           ;@delay_ms EEARbits                  Allocated to registers ;size:1
                                           ;@delay_ms EEDRHbits                 Allocated to registers ;size:1
                                           ;@delay_ms EEDRLbits                 Allocated to registers ;size:1
                                           ;@delay_ms DBGCRbits                 Allocated to registers ;size:1
                                           ;@delay_ms DBGPRbits                 Allocated to registers ;size:1
                                           ;@delay_ms HIRCCALbits               Allocated to registers ;size:1
                                           ;@delay_ms abuf                      Allocated to registers ;size:1
                                           ;@delay_ms statusbuf                 Allocated to registers ;size:1
                                           ;@delay_ms flag1                     Allocated to registers ;size:1
                                           ;@delay_ms ir_data                   Allocated to registers ;size:1
                                           ;@delay_ms ir_type                   Allocated to registers ;size:1
                                           ;@delay_ms xms                       Allocated to registers ;size:2
                                           ;@delay_ms i                         Allocated to registers r0x101D r0x101E ;size:2
                                           ;@delay_ms INDF0                     Allocated to registers ;size:1
                                           ;@delay_ms INDF1                     Allocated to registers ;size:1
                                           ;@delay_ms INDF2                     Allocated to registers ;size:1
                                           ;@delay_ms HIBYTE                    Allocated to registers ;size:1
                                           ;@delay_ms FSR0                      Allocated to registers ;size:1
                                           ;@delay_ms FSR1                      Allocated to registers ;size:1
                                           ;@delay_ms PCL                       Allocated to registers ;size:1
                                           ;@delay_ms PFLAG                     Allocated to registers ;size:1
                                           ;@delay_ms MCR                       Allocated to registers ;size:1
                                           ;@delay_ms INDF3                     Allocated to registers ;size:1
                                           ;@delay_ms INTE                      Allocated to registers ;size:1
                                           ;@delay_ms INTF                      Allocated to registers ;size:1
                                           ;@delay_ms DRVCR                     Allocated to registers ;size:1
                                           ;@delay_ms P0KBCR                    Allocated to registers ;size:1
                                           ;@delay_ms P1KBCR                    Allocated to registers ;size:1
                                           ;@delay_ms P2KBCR                    Allocated to registers ;size:1
                                           ;@delay_ms IOP0                      Allocated to registers ;size:1
                                           ;@delay_ms OEP0                      Allocated to registers ;size:1
                                           ;@delay_ms PUP0                      Allocated to registers ;size:1
                                           ;@delay_ms PDP0                      Allocated to registers ;size:1
                                           ;@delay_ms IOP1                      Allocated to registers ;size:1
                                           ;@delay_ms OEP1                      Allocated to registers ;size:1
                                           ;@delay_ms PUP1                      Allocated to registers ;size:1
                                           ;@delay_ms PDP1                      Allocated to registers ;size:1
                                           ;@delay_ms T0CR                      Allocated to registers ;size:1
                                           ;@delay_ms T0CNT                     Allocated to registers ;size:1
                                           ;@delay_ms T0LOAD                    Allocated to registers ;size:1
                                           ;@delay_ms T0DATA                    Allocated to registers ;size:1
                                           ;@delay_ms T1CR                      Allocated to registers ;size:1
                                           ;@delay_ms T1CNT                     Allocated to registers ;size:1
                                           ;@delay_ms T1LOAD                    Allocated to registers ;size:1
                                           ;@delay_ms T1DATA                    Allocated to registers ;size:1
                                           ;@delay_ms T2CR                      Allocated to registers ;size:1
                                           ;@delay_ms T2CNT                     Allocated to registers ;size:1
                                           ;@delay_ms T2LOAD                    Allocated to registers ;size:1
                                           ;@delay_ms T2DATA                    Allocated to registers ;size:1
                                           ;@delay_ms T3CR                      Allocated to registers ;size:1
                                           ;@delay_ms T3CNT                     Allocated to registers ;size:1
                                           ;@delay_ms T3LOAD                    Allocated to registers ;size:1
                                           ;@delay_ms PWM0DR                    Allocated to registers ;size:1
                                           ;@delay_ms PWM1DR                    Allocated to registers ;size:1
                                           ;@delay_ms PWM2DR                    Allocated to registers ;size:1
                                           ;@delay_ms PWMCR0                    Allocated to registers ;size:1
                                           ;@delay_ms PWMCR1                    Allocated to registers ;size:1
                                           ;@delay_ms OSCMR                     Allocated to registers ;size:1
                                           ;@delay_ms LVDCR                     Allocated to registers ;size:1
                                           ;@delay_ms ADCR0                     Allocated to registers ;size:1
                                           ;@delay_ms ADCR1                     Allocated to registers ;size:1
                                           ;@delay_ms ADCR2                     Allocated to registers ;size:1
                                           ;@delay_ms OSADJCR                   Allocated to registers ;size:1
                                           ;@delay_ms ADRH                      Allocated to registers ;size:1
                                           ;@delay_ms ADRL                      Allocated to registers ;size:1
                                           ;@delay_ms P0ADCR                    Allocated to registers ;size:1
                                           ;@delay_ms P1ADCR                    Allocated to registers ;size:1
                                           ;@delay_ms IOP2                      Allocated to registers ;size:1
                                           ;@delay_ms OEP2                      Allocated to registers ;size:1
                                           ;@delay_ms PUP2                      Allocated to registers ;size:1
                                           ;@delay_ms PDP2                      Allocated to registers ;size:1
                                           ;@delay_ms PMOD                      Allocated to registers ;size:1
                                           ;@delay_ms PWMCR3                    Allocated to registers ;size:1
                                           ;@delay_ms PWMCR2                    Allocated to registers ;size:1
                                           ;@delay_ms PFRCCR                    Allocated to registers ;size:1
                                           ;@delay_ms PFRCCAL                   Allocated to registers ;size:1
                                           ;@delay_ms EECR                      Allocated to registers ;size:1
                                           ;@delay_ms EEPR                      Allocated to registers ;size:1
                                           ;@delay_ms EEAR                      Allocated to registers ;size:1
                                           ;@delay_ms EEDRH                     Allocated to registers ;size:1
                                           ;@delay_ms EEDRL                     Allocated to registers ;size:1
                                           ;@delay_ms DBGCR                     Allocated to registers ;size:1
                                           ;@delay_ms DBGPR                     Allocated to registers ;size:1
                                           ;@delay_ms HIRCCAL                   Allocated to registers ;size:1
                                           ;@end Allocation info for local variables in function 'delay_ms';
                                           ;@Allocation info for local variables in function 'delay_100xus'
                                           ;@delay_100xus i                         Allocated to registers ;size:1
                                           ;@delay_100xus j                         Allocated to registers r0x101C ;size:1
                                           ;@end Allocation info for local variables in function 'delay_100xus';
                                           ;@Allocation info for local variables in function 'EEPROM_Write_Byte'
                                           ;@EEPROM_Write_Byte data                      Allocated to registers r0x101C r0x101B ;size:2
                                           ;@EEPROM_Write_Byte addr                      Allocated to registers ;size:1
                                           ;@end Allocation info for local variables in function 'EEPROM_Write_Byte';
                                           ;@Allocation info for local variables in function 'EEPROM_Read_Byte'
                                           ;@EEPROM_Read_Byte addr                      Allocated to registers ;size:1
                                           ;@EEPROM_Read_Byte EEDR                      Allocated to registers r0x101E r0x101D ;size:2
                                           ;@end Allocation info for local variables in function 'EEPROM_Read_Byte';
                                           ;@Allocation info for local variables in function 'send_cmd_16bit'
                                           ;@send_cmd_16bit data                      Allocated to registers r0x1022 r0x1021 ;size:2
                                           ;@send_cmd_16bit i                         Allocated to registers r0x1023 ;size:1
                                           ;@end Allocation info for local variables in function 'send_cmd_16bit';
                                           ;@Allocation info for local variables in function 'Sys_Init'
                                           ;@end Allocation info for local variables in function 'Sys_Init';
                                           ;@Allocation info for local variables in function 'key_event_same_deal_ex'
                                           ;@key_event_same_deal_ex own_data1                 Allocated to registers r0x102A r0x1029 ;size:2
                                           ;@key_event_same_deal_ex end                       Allocated to registers r0x1028 ;size:1
                                           ;@key_event_same_deal_ex start                     Allocated to registers r0x1027 ;size:1
                                           ;@end Allocation info for local variables in function 'key_event_same_deal_ex';
                                           ;@Allocation info for local variables in function 'key_event_set_timer'
                                           ;@end Allocation info for local variables in function 'key_event_set_timer';
                                           ;@Allocation info for local variables in function 'main'
                                           ;@main speed_code                Allocated to registers r0x1031 r0x1032 ;size:2
                                           ;@end Allocation info for local variables in function 'main';
                                           ;@Allocation info for local variables in function 'int_isr'
                                           ;@int_isr ir_level_cnt              Allocated to registers ;size:2
                                           ;@int_isr __ir_data                 Allocated to registers ;size:4
                                           ;@int_isr key_press_cnt             Allocated to registers ;size:2
                                           ;@int_isr _100us_count              Allocated to registers ;size:1
                                           ;@end Allocation info for local variables in function 'int_isr';
                                           ;@Allocation info for local variables in function 'int_isr'
                                           ;@int_isr ir_level_cnt              Allocated to registers ;size:2
                                           ;@int_isr __ir_data                 Allocated to registers ;size:4
                                           ;@int_isr key_press_cnt             Allocated to registers ;size:2
                                           ;@int_isr _100us_count              Allocated to registers ;size:1
                                           ;@end Allocation info for local variables in function 'int_isr';
                                           
                                           ;--------------------------------------------------------
                                           ; overlayable items in internal ram 
                                           ;--------------------------------------------------------
                                           ;	udata_ovr
                                           ;--------------------------------------------------------
                                           ; reset vector 
                                           ;--------------------------------------------------------
                                           STARTUP	code 0x0000
000000   a115     goto    0x115            	goto	_main
                                           ;--------------------------------------------------------
                                           ; interrupt and initialization code
                                           ;--------------------------------------------------------
                                           c_interrupt	code	0x8
                                           __sdcc_interrupt
                                           ;***
                                           ;  pBlock Stats: dbName = I
                                           ;***
                                           ;entry:  _int_isr	;Function start
                                           ; 0 exit points
                                           ;4 compiler assigned registers:
                                           ;   r0x1034
                                           ;   r0x1035
                                           ;   r0x1036
                                           ;   r0x1037
                                           ;; Starting pCode block
                                           _int_isr	;Function start
                                           ; 0 exit points
                                           ;	.line	1323; "MC32F7361.c"	__endasm;
                                           	;
000008   5632     movra   0x32             	movra	_abuf;
000009   4587     swapar  0x187            	swapar	_PFLAG;
00000a   5633     movra   0x33             	movra	_statusbuf;
                                           	
                                           ;	.line	1337; "MC32F7361.c"	if (T2IF & T2IE)
00000b   761f     clrr    0x1f             	CLRR	r0x1034
00000c   fb8b     jbclr   0x18b, 0x5       	JBCLR	_INTFbits,5
00000d   661f     incr    0x1f             	INCR	r0x1034
00000e   7620     clrr    0x20             	CLRR	r0x1035
00000f   fb8a     jbclr   0x18a, 0x5       	JBCLR	_INTEbits,5
000010   6620     incr    0x20             	INCR	r0x1035
000011   5820     movar   0x20             	MOVAR	r0x1035
000012   7a1f     andra   0x1f             	ANDRA	r0x1034
000013   3c00     movai   0                	MOVAI	0x00
000014   5c1f     orar    0x1f             	ORAR	r0x1034
000015   f587     jbclr   0x187, 0x2       	JBCLR	PFLAG,2
000016   a110     goto    0x110            	GOTO	_00675_DS_
                                           ;	.line	1339; "MC32F7361.c"	T2IF = 0;
000017   db8b     bclr    0x18b, 0x5       	BCLR	_INTFbits,5
                                           ;;swapping arguments (AOP_TYPEs 1/3)
                                           ;;unsigned compare: left >= lit(0x515=1301), size=2
                                           ;	.line	1350; "MC32F7361.c"	if (ir_level_cnt <= 1300)
000018   3c05     movai   0x5              	MOVAI	0x05
000019   4824     rsubar  0x24             	RSUBAR	(_int_isr_ir_level_cnt_196608_58 + 1)
00001a   e587     jbset   0x187, 0x2       	JBSET	PFLAG,2
00001b   a01e     goto    0x1e             	GOTO	_00778_DS_
00001c   3c15     movai   0x15             	MOVAI	0x15
00001d   4823     rsubar  0x23             	RSUBAR	_int_isr_ir_level_cnt_196608_58
                                           _00778_DS_
00001e   f187     jbclr   0x187, 0         	JBCLR	PFLAG,0
00001f   a023     goto    0x23             	GOTO	_00622_DS_
                                           ;;genSkipc:3291: created from rifx:013B5EFC
                                           ;	.line	1351; "MC32F7361.c"	ir_level_cnt++;
000020   6623     incr    0x23             	INCR	_int_isr_ir_level_cnt_196608_58
000021   f587     jbclr   0x187, 0x2       	JBCLR	PFLAG,2
000022   6624     incr    0x24             	INCR	(_int_isr_ir_level_cnt_196608_58 + 1)
                                           _00622_DS_
                                           ;	.line	1366; "MC32F7361.c"	if (IR_RECV_PIN)
000023   eb94     jbset   0x194, 0x5       	JBSET	_IOP1bits,5
000024   a056     goto    0x56             	GOTO	_00652_DS_
                                           ;	.line	1368; "MC32F7361.c"	last_level_in_ir_pin = 1; // 
000025   c434     bset    0x34, 0x2        	BSET	_flag1,2
                                           ;;swapping arguments (AOP_TYPEs 1/3)
                                           ;;unsigned compare: left >= lit(0x4B1=1201), size=2
                                           ;	.line	1371; "MC32F7361.c"	if (ir_level_cnt > 1200) // (120000us,120ms)
000026   3c04     movai   0x4              	MOVAI	0x04
000027   4824     rsubar  0x24             	RSUBAR	(_int_isr_ir_level_cnt_196608_58 + 1)
000028   e587     jbset   0x187, 0x2       	JBSET	PFLAG,2
000029   a02c     goto    0x2c             	GOTO	_00779_DS_
00002a   3cb1     movai   0xb1             	MOVAI	0xb1
00002b   4823     rsubar  0x23             	RSUBAR	_int_isr_ir_level_cnt_196608_58
                                           _00779_DS_
00002c   e187     jbset   0x187, 0         	JBSET	PFLAG,0
00002d   a0b1     goto    0xb1             	GOTO	_00653_DS_
                                           ;;genSkipc:3291: created from rifx:013B5EFC
                                           ;	.line	1374; "MC32F7361.c"	if (__ir_data != 0) // (__ir_data)
00002e   5825     movar   0x25             	MOVAR	_int_isr___ir_data_196608_58
00002f   5c26     orar    0x26             	ORAR	(_int_isr___ir_data_196608_58 + 1)
000030   5c27     orar    0x27             	ORAR	(_int_isr___ir_data_196608_58 + 2)
000031   5c28     orar    0x28             	ORAR	(_int_isr___ir_data_196608_58 + 3)
000032   f587     jbclr   0x187, 0x2       	JBCLR	PFLAG,2
000033   a054     goto    0x54             	GOTO	_00628_DS_
                                           ;	.line	1383; "MC32F7361.c"	if (0 == flag_is_recved_data)
000034   f034     jbclr   0x34, 0          	JBCLR	_flag1,0
000035   a054     goto    0x54             	GOTO	_00628_DS_
                                           ;	.line	1387; "MC32F7361.c"	if ((__ir_data & 0xFF0000) == 0xFF0000)
000036   761f     clrr    0x1f             	CLRR	r0x1034
000037   7620     clrr    0x20             	CLRR	r0x1035
000038   5827     movar   0x27             	MOVAR	(_int_isr___ir_data_196608_58 + 2)
000039   5621     movra   0x21             	MOVRA	r0x1036
00003a   7622     clrr    0x22             	CLRR	r0x1037
00003b   3c00     movai   0                	MOVAI	0x00
00003c   3900     xorai   0                	XORAI	0x00
00003d   e587     jbset   0x187, 0x2       	JBSET	PFLAG,2
00003e   a054     goto    0x54             	GOTO	_00628_DS_
00003f   5820     movar   0x20             	MOVAR	r0x1035
000040   3900     xorai   0                	XORAI	0x00
000041   e587     jbset   0x187, 0x2       	JBSET	PFLAG,2
000042   a054     goto    0x54             	GOTO	_00628_DS_
000043   5821     movar   0x21             	MOVAR	r0x1036
000044   39ff     xorai   0xff             	XORAI	0xff
000045   e587     jbset   0x187, 0x2       	JBSET	PFLAG,2
000046   a054     goto    0x54             	GOTO	_00628_DS_
000047   5822     movar   0x22             	MOVAR	r0x1037
000048   3900     xorai   0                	XORAI	0x00
000049   e587     jbset   0x187, 0x2       	JBSET	PFLAG,2
00004a   a054     goto    0x54             	GOTO	_00628_DS_
                                           ;	.line	1389; "MC32F7361.c"	ir_data = ~__ir_data;
00004b   5825     movar   0x25             	MOVAR	_int_isr___ir_data_196608_58
00004c   561f     movra   0x1f             	MOVRA	r0x1034
00004d   701f     comar   0x1f             	COMAR	r0x1034
00004e   5635     movra   0x35             	MOVRA	_ir_data
                                           ;	.line	1390; "MC32F7361.c"	__ir_data = 0;
00004f   7625     clrr    0x25             	CLRR	_int_isr___ir_data_196608_58
000050   7626     clrr    0x26             	CLRR	(_int_isr___ir_data_196608_58 + 1)
000051   7627     clrr    0x27             	CLRR	(_int_isr___ir_data_196608_58 + 2)
000052   7628     clrr    0x28             	CLRR	(_int_isr___ir_data_196608_58 + 3)
                                           ;	.line	1391; "MC32F7361.c"	flag_is_recved_data = 1;
000053   c034     bset    0x34, 0          	BSET	_flag1,0
                                           _00628_DS_
                                           ;	.line	1410; "MC32F7361.c"	flag_is_recv_ir_repeat_code = 0; // 
000054   d834     bclr    0x34, 0x4        	BCLR	_flag1,4
000055   a0b1     goto    0xb1             	GOTO	_00653_DS_
                                           _00652_DS_
                                           ;	.line	1415; "MC32F7361.c"	if (last_level_in_ir_pin)
000056   e434     jbset   0x34, 0x2        	JBSET	_flag1,2
000057   a0b0     goto    0xb0             	GOTO	_00650_DS_
                                           ;;swapping arguments (AOP_TYPEs 1/3)
                                           ;;unsigned compare: left >= lit(0x9=9), size=2
                                           ;	.line	1418; "MC32F7361.c"	if (ir_level_cnt <= 8) // 800us
000058   3c00     movai   0                	MOVAI	0x00
000059   4824     rsubar  0x24             	RSUBAR	(_int_isr_ir_level_cnt_196608_58 + 1)
00005a   e587     jbset   0x187, 0x2       	JBSET	PFLAG,2
00005b   a05e     goto    0x5e             	GOTO	_00780_DS_
00005c   3c09     movai   0x9              	MOVAI	0x09
00005d   4823     rsubar  0x23             	RSUBAR	_int_isr_ir_level_cnt_196608_58
                                           _00780_DS_
00005e   e187     jbset   0x187, 0         	JBSET	PFLAG,0
00005f   a0ae     goto    0xae             	GOTO	_00648_DS_
                                           ;;genSkipc:3291: created from rifx:013B5EFC
                                           ;;swapping arguments (AOP_TYPEs 1/3)
                                           ;;unsigned compare: left >= lit(0x13=19), size=2
                                           ;	.line	1423; "MC32F7361.c"	else if (ir_level_cnt <= 18) // 1800us,0
000060   3c00     movai   0                	MOVAI	0x00
000061   4824     rsubar  0x24             	RSUBAR	(_int_isr_ir_level_cnt_196608_58 + 1)
000062   e587     jbset   0x187, 0x2       	JBSET	PFLAG,2
000063   a066     goto    0x66             	GOTO	_00781_DS_
000064   3c13     movai   0x13             	MOVAI	0x13
000065   4823     rsubar  0x23             	RSUBAR	_int_isr_ir_level_cnt_196608_58
                                           _00781_DS_
000066   f187     jbclr   0x187, 0         	JBCLR	PFLAG,0
000067   a06e     goto    0x6e             	GOTO	_00644_DS_
                                           ;;genSkipc:3291: created from rifx:013B5EFC
                                           ;	.line	1425; "MC32F7361.c"	__ir_data <<= 1;
000068   d187     bclr    0x187, 0         	BCLR	PFLAG,0
000069   5225     rlr     0x25             	RLR	_int_isr___ir_data_196608_58
00006a   5226     rlr     0x26             	RLR	(_int_isr___ir_data_196608_58 + 1)
00006b   5227     rlr     0x27             	RLR	(_int_isr___ir_data_196608_58 + 2)
00006c   5228     rlr     0x28             	RLR	(_int_isr___ir_data_196608_58 + 3)
00006d   a0ae     goto    0xae             	GOTO	_00648_DS_
                                           ;;swapping arguments (AOP_TYPEs 1/3)
                                           ;;unsigned compare: left >= lit(0x1B=27), size=2
                                           _00644_DS_
                                           ;	.line	1430; "MC32F7361.c"	else if (ir_level_cnt <= 26) // 2600us,1
00006e   3c00     movai   0                	MOVAI	0x00
00006f   4824     rsubar  0x24             	RSUBAR	(_int_isr_ir_level_cnt_196608_58 + 1)
000070   e587     jbset   0x187, 0x2       	JBSET	PFLAG,2
000071   a074     goto    0x74             	GOTO	_00782_DS_
000072   3c1b     movai   0x1b             	MOVAI	0x1b
000073   4823     rsubar  0x23             	RSUBAR	_int_isr_ir_level_cnt_196608_58
                                           _00782_DS_
000074   f187     jbclr   0x187, 0         	JBCLR	PFLAG,0
000075   a07d     goto    0x7d             	GOTO	_00641_DS_
                                           ;;genSkipc:3291: created from rifx:013B5EFC
                                           ;	.line	1432; "MC32F7361.c"	__ir_data <<= 1;
000076   d187     bclr    0x187, 0         	BCLR	PFLAG,0
000077   5225     rlr     0x25             	RLR	_int_isr___ir_data_196608_58
000078   5226     rlr     0x26             	RLR	(_int_isr___ir_data_196608_58 + 1)
000079   5227     rlr     0x27             	RLR	(_int_isr___ir_data_196608_58 + 2)
00007a   5228     rlr     0x28             	RLR	(_int_isr___ir_data_196608_58 + 3)
                                           ;	.line	1433; "MC32F7361.c"	__ir_data |= 0x01;
00007b   c025     bset    0x25, 0          	BSET	_int_isr___ir_data_196608_58,0
00007c   a0ae     goto    0xae             	GOTO	_00648_DS_
                                           ;;swapping arguments (AOP_TYPEs 1/3)
                                           ;;unsigned compare: left >= lit(0x97=151), size=2
                                           _00641_DS_
                                           ;	.line	1437; "MC32F7361.c"	else if (ir_level_cnt <= 150) // 15000us,
00007d   3c00     movai   0                	MOVAI	0x00
00007e   4824     rsubar  0x24             	RSUBAR	(_int_isr_ir_level_cnt_196608_58 + 1)
00007f   e587     jbset   0x187, 0x2       	JBSET	PFLAG,2
000080   a083     goto    0x83             	GOTO	_00783_DS_
000081   3c97     movai   0x97             	MOVAI	0x97
000082   4823     rsubar  0x23             	RSUBAR	_int_isr_ir_level_cnt_196608_58
                                           _00783_DS_
000083   e187     jbset   0x187, 0         	JBSET	PFLAG,0
000084   a0ae     goto    0xae             	GOTO	_00648_DS_
                                           ;;genSkipc:3291: created from rifx:013B5EFC
                                           ;;swapping arguments (AOP_TYPEs 1/3)
                                           ;;unsigned compare: left >= lit(0x1A5=421), size=2
                                           ;	.line	1442; "MC32F7361.c"	else if (ir_level_cnt <= 420) // 42ms,
000085   3c01     movai   0x1              	MOVAI	0x01
000086   4824     rsubar  0x24             	RSUBAR	(_int_isr_ir_level_cnt_196608_58 + 1)
000087   e587     jbset   0x187, 0x2       	JBSET	PFLAG,2
000088   a08b     goto    0x8b             	GOTO	_00784_DS_
000089   3ca5     movai   0xa5             	MOVAI	0xa5
00008a   4823     rsubar  0x23             	RSUBAR	_int_isr_ir_level_cnt_196608_58
                                           _00784_DS_
00008b   f187     jbclr   0x187, 0         	JBCLR	PFLAG,0
00008c   a0ae     goto    0xae             	GOTO	_00648_DS_
                                           ;;genSkipc:3291: created from rifx:013B5EFC
                                           ;	.line	1453; "MC32F7361.c"	if (0 == flag_is_recved_data)
00008d   f034     jbclr   0x34, 0          	JBCLR	_flag1,0
00008e   a0ae     goto    0xae             	GOTO	_00648_DS_
                                           ;	.line	1456; "MC32F7361.c"	if ((__ir_data & 0xFF0000) == 0xFF0000)
00008f   761f     clrr    0x1f             	CLRR	r0x1034
000090   7620     clrr    0x20             	CLRR	r0x1035
000091   5827     movar   0x27             	MOVAR	(_int_isr___ir_data_196608_58 + 2)
000092   5621     movra   0x21             	MOVRA	r0x1036
000093   7622     clrr    0x22             	CLRR	r0x1037
000094   3c00     movai   0                	MOVAI	0x00
000095   3900     xorai   0                	XORAI	0x00
000096   e587     jbset   0x187, 0x2       	JBSET	PFLAG,2
000097   a0ae     goto    0xae             	GOTO	_00648_DS_
000098   5820     movar   0x20             	MOVAR	r0x1035
000099   3900     xorai   0                	XORAI	0x00
00009a   e587     jbset   0x187, 0x2       	JBSET	PFLAG,2
00009b   a0ae     goto    0xae             	GOTO	_00648_DS_
00009c   5821     movar   0x21             	MOVAR	r0x1036
00009d   39ff     xorai   0xff             	XORAI	0xff
00009e   e587     jbset   0x187, 0x2       	JBSET	PFLAG,2
00009f   a0ae     goto    0xae             	GOTO	_00648_DS_
0000a0   5822     movar   0x22             	MOVAR	r0x1037
0000a1   3900     xorai   0                	XORAI	0x00
0000a2   e587     jbset   0x187, 0x2       	JBSET	PFLAG,2
0000a3   a0ae     goto    0xae             	GOTO	_00648_DS_
                                           ;	.line	1458; "MC32F7361.c"	ir_data = ~__ir_data;
0000a4   5825     movar   0x25             	MOVAR	_int_isr___ir_data_196608_58
0000a5   561f     movra   0x1f             	MOVRA	r0x1034
0000a6   701f     comar   0x1f             	COMAR	r0x1034
0000a7   5635     movra   0x35             	MOVRA	_ir_data
                                           ;	.line	1459; "MC32F7361.c"	__ir_data = 0;
0000a8   7625     clrr    0x25             	CLRR	_int_isr___ir_data_196608_58
0000a9   7626     clrr    0x26             	CLRR	(_int_isr___ir_data_196608_58 + 1)
0000aa   7627     clrr    0x27             	CLRR	(_int_isr___ir_data_196608_58 + 2)
0000ab   7628     clrr    0x28             	CLRR	(_int_isr___ir_data_196608_58 + 3)
                                           ;	.line	1460; "MC32F7361.c"	flag_is_recved_data = 1;
0000ac   c034     bset    0x34, 0          	BSET	_flag1,0
                                           ;	.line	1461; "MC32F7361.c"	flag_is_recv_ir_repeat_code = 1; //
0000ad   c834     bset    0x34, 0x4        	BSET	_flag1,4
                                           _00648_DS_
                                           ;	.line	1490; "MC32F7361.c"	ir_level_cnt = 0;
0000ae   7623     clrr    0x23             	CLRR	_int_isr_ir_level_cnt_196608_58
0000af   7624     clrr    0x24             	CLRR	(_int_isr_ir_level_cnt_196608_58 + 1)
                                           _00650_DS_
                                           ;	.line	1493; "MC32F7361.c"	last_level_in_ir_pin = 0; // 
0000b0   d434     bclr    0x34, 0x2        	BCLR	_flag1,2
                                           _00653_DS_
                                           ;	.line	1500; "MC32F7361.c"	if (0 == MECHANICAL_KEYING_PIN)
0000b1   fd94     jbclr   0x194, 0x6       	JBCLR	_IOP1bits,6
0000b2   a0cb     goto    0xcb             	GOTO	_00663_DS_
                                           ;	.line	1503; "MC32F7361.c"	if (key_press_cnt == 10000) // 
0000b3   5829     movar   0x29             	MOVAR	_int_isr_key_press_cnt_196608_73
0000b4   3910     xorai   0x10             	XORAI	0x10
0000b5   e587     jbset   0x187, 0x2       	JBSET	PFLAG,2
0000b6   a0bf     goto    0xbf             	GOTO	_00657_DS_
0000b7   582a     movar   0x2a             	MOVAR	(_int_isr_key_press_cnt_196608_73 + 1)
0000b8   3927     xorai   0x27             	XORAI	0x27
0000b9   e587     jbset   0x187, 0x2       	JBSET	PFLAG,2
0000ba   a0bf     goto    0xbf             	GOTO	_00657_DS_
                                           ;	.line	1505; "MC32F7361.c"	ir_data = IR_KEY_OFF;
0000bb   3cc0     movai   0xc0             	MOVAI	0xc0
0000bc   5635     movra   0x35             	MOVRA	_ir_data
                                           ;	.line	1506; "MC32F7361.c"	flag_is_recved_data = 1;
0000bd   c034     bset    0x34, 0          	BSET	_flag1,0
0000be   a0e0     goto    0xe0             	GOTO	_00664_DS_
                                           ;;unsigned compare: left < lit(0x2710=10000), size=2
                                           _00657_DS_
                                           ;	.line	1508; "MC32F7361.c"	else if (key_press_cnt < 10000)
0000bf   3c27     movai   0x27             	MOVAI	0x27
0000c0   482a     rsubar  0x2a             	RSUBAR	(_int_isr_key_press_cnt_196608_73 + 1)
0000c1   e587     jbset   0x187, 0x2       	JBSET	PFLAG,2
0000c2   a0c5     goto    0xc5             	GOTO	_00785_DS_
0000c3   3c10     movai   0x10             	MOVAI	0x10
0000c4   4829     rsubar  0x29             	RSUBAR	_int_isr_key_press_cnt_196608_73
                                           _00785_DS_
0000c5   f187     jbclr   0x187, 0         	JBCLR	PFLAG,0
0000c6   a0e0     goto    0xe0             	GOTO	_00664_DS_
                                           ;;genSkipc:3291: created from rifx:013B5EFC
                                           ;	.line	1510; "MC32F7361.c"	key_press_cnt++;
0000c7   6629     incr    0x29             	INCR	_int_isr_key_press_cnt_196608_73
0000c8   f587     jbclr   0x187, 0x2       	JBCLR	PFLAG,2
0000c9   662a     incr    0x2a             	INCR	(_int_isr_key_press_cnt_196608_73 + 1)
0000ca   a0e0     goto    0xe0             	GOTO	_00664_DS_
                                           ;;unsigned compare: left < lit(0x64=100), size=2
                                           _00663_DS_
                                           ;	.line	1515; "MC32F7361.c"	if (key_press_cnt >= 100 && key_press_cnt < 10000) // 
0000cb   3c00     movai   0                	MOVAI	0x00
0000cc   482a     rsubar  0x2a             	RSUBAR	(_int_isr_key_press_cnt_196608_73 + 1)
0000cd   e587     jbset   0x187, 0x2       	JBSET	PFLAG,2
0000ce   a0d1     goto    0xd1             	GOTO	_00786_DS_
0000cf   3c64     movai   0x64             	MOVAI	0x64
0000d0   4829     rsubar  0x29             	RSUBAR	_int_isr_key_press_cnt_196608_73
                                           _00786_DS_
0000d1   e187     jbset   0x187, 0         	JBSET	PFLAG,0
0000d2   a0de     goto    0xde             	GOTO	_00660_DS_
                                           ;;genSkipc:3291: created from rifx:013B5EFC
                                           ;;unsigned compare: left < lit(0x2710=10000), size=2
0000d3   3c27     movai   0x27             	MOVAI	0x27
0000d4   482a     rsubar  0x2a             	RSUBAR	(_int_isr_key_press_cnt_196608_73 + 1)
0000d5   e587     jbset   0x187, 0x2       	JBSET	PFLAG,2
0000d6   a0d9     goto    0xd9             	GOTO	_00787_DS_
0000d7   3c10     movai   0x10             	MOVAI	0x10
0000d8   4829     rsubar  0x29             	RSUBAR	_int_isr_key_press_cnt_196608_73
                                           _00787_DS_
0000d9   f187     jbclr   0x187, 0         	JBCLR	PFLAG,0
0000da   a0de     goto    0xde             	GOTO	_00660_DS_
                                           ;;genSkipc:3291: created from rifx:013B5EFC
                                           ;	.line	1517; "MC32F7361.c"	ir_data = IR_MECHANICAL_KEYING;
0000db   3c01     movai   0x1              	MOVAI	0x01
0000dc   5635     movra   0x35             	MOVRA	_ir_data
                                           ;	.line	1518; "MC32F7361.c"	flag_is_recved_data = 1;
0000dd   c034     bset    0x34, 0          	BSET	_flag1,0
                                           _00660_DS_
                                           ;	.line	1521; "MC32F7361.c"	key_press_cnt = 0;
0000de   7629     clrr    0x29             	CLRR	_int_isr_key_press_cnt_196608_73
0000df   762a     clrr    0x2a             	CLRR	(_int_isr_key_press_cnt_196608_73 + 1)
                                           _00664_DS_
                                           ;	.line	1583; "MC32F7361.c"	_100us_count++;
0000e0   662b     incr    0x2b             	INCR	_int_isr__100us_count_131073_79
                                           ;;unsigned compare: left < lit(0xA=10), size=1
                                           ;	.line	1584; "MC32F7361.c"	if (_100us_count >= 10)
0000e1   3c0a     movai   0xa              	MOVAI	0x0a
0000e2   482b     rsubar  0x2b             	RSUBAR	_int_isr__100us_count_131073_79
0000e3   e187     jbset   0x187, 0         	JBSET	PFLAG,0
0000e4   a110     goto    0x110            	GOTO	_00675_DS_
                                           ;;genSkipc:3291: created from rifx:013B5EFC
                                           ;	.line	1586; "MC32F7361.c"	_100us_count = 0;
0000e5   762b     clrr    0x2b             	CLRR	_int_isr__100us_count_131073_79
                                           ;	.line	1587; "MC32F7361.c"	if (next_frame_delay > 0 && next_frame_delay < 0xFFFF)
0000e6   5830     movar   0x30             	MOVAR	_next_frame_delay
0000e7   5c31     orar    0x31             	ORAR	(_next_frame_delay + 1)
0000e8   f587     jbclr   0x187, 0x2       	JBCLR	PFLAG,2
0000e9   a0f6     goto    0xf6             	GOTO	_00666_DS_
                                           ;;unsigned compare: left < lit(0xFFFF=65535), size=2
0000ea   3cff     movai   0xff             	MOVAI	0xff
0000eb   4831     rsubar  0x31             	RSUBAR	(_next_frame_delay + 1)
0000ec   e587     jbset   0x187, 0x2       	JBSET	PFLAG,2
0000ed   a0f0     goto    0xf0             	GOTO	_00789_DS_
0000ee   3cff     movai   0xff             	MOVAI	0xff
0000ef   4830     rsubar  0x30             	RSUBAR	_next_frame_delay
                                           _00789_DS_
0000f0   f187     jbclr   0x187, 0         	JBCLR	PFLAG,0
0000f1   a0f6     goto    0xf6             	GOTO	_00666_DS_
                                           ;;genSkipc:3291: created from rifx:013B5EFC
                                           ;	.line	1589; "MC32F7361.c"	next_frame_delay--;
0000f2   3cff     movai   0xff             	MOVAI	0xff
0000f3   7e30     addra   0x30             	ADDRA	_next_frame_delay
0000f4   e187     jbset   0x187, 0         	JBSET	PFLAG,0
0000f5   6e31     decr    0x31             	DECR	(_next_frame_delay + 1)
                                           _00666_DS_
                                           ;	.line	1592; "MC32F7361.c"	if (timer_count)
0000f6   582c     movar   0x2c             	MOVAR	_timer_count
0000f7   5c2d     orar    0x2d             	ORAR	(_timer_count + 1)
0000f8   5c2e     orar    0x2e             	ORAR	(_timer_count + 2)
0000f9   5c2f     orar    0x2f             	ORAR	(_timer_count + 3)
0000fa   f587     jbclr   0x187, 0x2       	JBCLR	PFLAG,2
0000fb   a110     goto    0x110            	GOTO	_00675_DS_
                                           ;	.line	1594; "MC32F7361.c"	timer_count--;
0000fc   3cff     movai   0xff             	MOVAI	0xff
0000fd   7e2c     addra   0x2c             	ADDRA	_timer_count
0000fe   3cff     movai   0xff             	MOVAI	0xff
0000ff   e187     jbset   0x187, 0         	JBSET	PFLAG,0
000100   7e2d     addra   0x2d             	ADDRA	(_timer_count + 1)
000101   3cff     movai   0xff             	MOVAI	0xff
000102   e187     jbset   0x187, 0         	JBSET	PFLAG,0
000103   7e2e     addra   0x2e             	ADDRA	(_timer_count + 2)
000104   3cff     movai   0xff             	MOVAI	0xff
000105   e187     jbset   0x187, 0         	JBSET	PFLAG,0
000106   7e2f     addra   0x2f             	ADDRA	(_timer_count + 3)
                                           ;	.line	1595; "MC32F7361.c"	if (timer_count == 0)
000107   582c     movar   0x2c             	MOVAR	_timer_count
000108   5c2d     orar    0x2d             	ORAR	(_timer_count + 1)
000109   5c2e     orar    0x2e             	ORAR	(_timer_count + 2)
00010a   5c2f     orar    0x2f             	ORAR	(_timer_count + 3)
00010b   e587     jbset   0x187, 0x2       	JBSET	PFLAG,2
00010c   a110     goto    0x110            	GOTO	_00675_DS_
                                           ;	.line	1597; "MC32F7361.c"	ir_data = IR_KEY_OFF;
00010d   3cc0     movai   0xc0             	MOVAI	0xc0
00010e   5635     movra   0x35             	MOVRA	_ir_data
                                           ;	.line	1598; "MC32F7361.c"	flag_is_recved_data = 1;
00010f   c034     bset    0x34, 0          	BSET	_flag1,0
                                           _00675_DS_
                                           ;	.line	1633; "MC32F7361.c"	__endasm;
                                           	;
000110   4433     swapar  0x33             	swapar	_statusbuf;
000111   5787     movra   0x187            	movra	_PFLAG;
000112   4632     swapr   0x32             	swapr	_abuf;
000113   4432     swapar  0x32             	swapar	_abuf;
                                           	
                                           END_OF_INTERRUPT
                                           ;	.line	1634; "MC32F7361.c"	}
000114   000d     retie                    	RETIE	
                                           
                                           ;--------------------------------------------------------
                                           ; code
                                           ;--------------------------------------------------------
                                           code_MC32F7361	code
                                           ;***
                                           ;  pBlock Stats: dbName = M
                                           ;***
                                           ;entry:  _main	;Function start
                                           ; 2 exit points
                                           ;has an exit
                                           ;functions called:
                                           ;   _Sys_Init
                                           ;   _delay_ms
                                           ;   _EEPROM_Read_Byte
                                           ;   _key_event_same_deal_ex
                                           ;   _key_event_same_deal_ex
                                           ;   _send_cmd_16bit
                                           ;   _key_event_same_deal_ex
                                           ;   _key_event_same_deal_ex
                                           ;   _key_event_same_deal_ex
                                           ;   _key_event_same_deal_ex
                                           ;   _key_event_same_deal_ex
                                           ;   _key_event_same_deal_ex
                                           ;   _key_event_same_deal_ex
                                           ;   _key_event_same_deal_ex
                                           ;   _key_event_same_deal_ex
                                           ;   _key_event_same_deal_ex
                                           ;   _key_event_same_deal_ex
                                           ;   _key_event_same_deal_ex
                                           ;   _key_event_same_deal_ex
                                           ;   _key_event_same_deal_ex
                                           ;   _key_event_same_deal_ex
                                           ;   _key_event_same_deal_ex
                                           ;   _key_event_same_deal_ex
                                           ;   _key_event_same_deal_ex
                                           ;   _key_event_same_deal_ex
                                           ;   _key_event_same_deal_ex
                                           ;   _key_event_same_deal_ex
                                           ;   _key_event_same_deal_ex
                                           ;   _key_event_same_deal_ex
                                           ;   _key_event_same_deal_ex
                                           ;   _key_event_same_deal_ex
                                           ;   _key_event_same_deal_ex
                                           ;   _key_event_same_deal_ex
                                           ;   _key_event_same_deal_ex
                                           ;   _key_event_same_deal_ex
                                           ;   _key_event_same_deal_ex
                                           ;   _key_event_same_deal_ex
                                           ;   _key_event_same_deal_ex
                                           ;   _key_event_same_deal_ex
                                           ;   _key_event_same_deal_ex
                                           ;   _key_event_set_timer
                                           ;   _key_event_set_timer
                                           ;   _key_event_set_timer
                                           ;   _key_event_set_timer
                                           ;   __gptrget1
                                           ;   __gptrget2
                                           ;   __gptrget2
                                           ;   __gptrget1
                                           ;   __gptrget2
                                           ;   __gptrget1
                                           ;   __gptrget2
                                           ;   __gptrget1
                                           ;   _send_cmd_16bit
                                           ;   _delay_ms
                                           ;   _delay_100xus
                                           ;   _delay_ms
                                           ;   _delay_100xus
                                           ;   _delay_ms
                                           ;   _delay_100xus
                                           ;   _delay_ms
                                           ;   _delay_100xus
                                           ;   _delay_ms
                                           ;   _EEPROM_Read_Byte
                                           ;   _EEPROM_Read_Byte
                                           ;   _EEPROM_Read_Byte
                                           ;   _key_event_same_deal_ex
                                           ;   _send_cmd_16bit
                                           ;   _send_cmd_16bit
                                           ;   _delay_ms
                                           ;   _Sys_Init
                                           ;   _delay_ms
                                           ;   _EEPROM_Read_Byte
                                           ;   _key_event_same_deal_ex
                                           ;   _key_event_same_deal_ex
                                           ;   _send_cmd_16bit
                                           ;   _key_event_same_deal_ex
                                           ;   _key_event_same_deal_ex
                                           ;   _key_event_same_deal_ex
                                           ;   _key_event_same_deal_ex
                                           ;   _key_event_same_deal_ex
                                           ;   _key_event_same_deal_ex
                                           ;   _key_event_same_deal_ex
                                           ;   _key_event_same_deal_ex
                                           ;   _key_event_same_deal_ex
                                           ;   _key_event_same_deal_ex
                                           ;   _key_event_same_deal_ex
                                           ;   _key_event_same_deal_ex
                                           ;   _key_event_same_deal_ex
                                           ;   _key_event_same_deal_ex
                                           ;   _key_event_same_deal_ex
                                           ;   _key_event_same_deal_ex
                                           ;   _key_event_same_deal_ex
                                           ;   _key_event_same_deal_ex
                                           ;   _key_event_same_deal_ex
                                           ;   _key_event_same_deal_ex
                                           ;   _key_event_same_deal_ex
                                           ;   _key_event_same_deal_ex
                                           ;   _key_event_same_deal_ex
                                           ;   _key_event_same_deal_ex
                                           ;   _key_event_same_deal_ex
                                           ;   _key_event_same_deal_ex
                                           ;   _key_event_same_deal_ex
                                           ;   _key_event_same_deal_ex
                                           ;   _key_event_same_deal_ex
                                           ;   _key_event_same_deal_ex
                                           ;   _key_event_same_deal_ex
                                           ;   _key_event_same_deal_ex
                                           ;   _key_event_same_deal_ex
                                           ;   _key_event_same_deal_ex
                                           ;   _key_event_set_timer
                                           ;   _key_event_set_timer
                                           ;   _key_event_set_timer
                                           ;   _key_event_set_timer
                                           ;   __gptrget1
                                           ;   __gptrget2
                                           ;   __gptrget2
                                           ;   __gptrget1
                                           ;   __gptrget2
                                           ;   __gptrget1
                                           ;   __gptrget2
                                           ;   __gptrget1
                                           ;   _send_cmd_16bit
                                           ;   _delay_ms
                                           ;   _delay_100xus
                                           ;   _delay_ms
                                           ;   _delay_100xus
                                           ;   _delay_ms
                                           ;   _delay_100xus
                                           ;   _delay_ms
                                           ;   _delay_100xus
                                           ;   _delay_ms
                                           ;   _EEPROM_Read_Byte
                                           ;   _EEPROM_Read_Byte
                                           ;   _EEPROM_Read_Byte
                                           ;   _key_event_same_deal_ex
                                           ;   _send_cmd_16bit
                                           ;   _send_cmd_16bit
                                           ;   _delay_ms
                                           ;8 compiler assigned registers:
                                           ;   STK00
                                           ;   r0x102F
                                           ;   r0x1030
                                           ;   STK02
                                           ;   STK01
                                           ;   r0x1031
                                           ;   r0x1032
                                           ;   r0x1033
                                           ;; Starting pCode block
                                           _main	;Function start
                                           ; 2 exit points
                                           ;	.line	733; "MC32F7361.c"	Sys_Init();
000115   854f     call    0x54f            	CALL	_Sys_Init
                                           ;	.line	734; "MC32F7361.c"	delay_ms(1); // 
000116   3c01     movai   0x1              	MOVAI	0x01
000117   5606     movra   0x6              	MOVRA	STK00
000118   3c00     movai   0                	MOVAI	0x00
000119   85ea     call    0x5ea            	CALL	_delay_ms
                                           ;	.line	749; "MC32F7361.c"	P15OE = 0; // 
00011a   db95     bclr    0x195, 0x5       	BCLR	_OEP1bits,5
                                           ;	.line	755; "MC32F7361.c"	P16OE = 0; // 
00011b   dd95     bclr    0x195, 0x6       	BCLR	_OEP1bits,6
                                           ;	.line	760; "MC32F7361.c"	if (EEPROM_Read_Byte(4) != 0xA5A5)
00011c   3c04     movai   0x4              	MOVAI	0x04
00011d   85ab     call    0x5ab            	CALL	_EEPROM_Read_Byte
00011e   561b     movra   0x1b             	MOVRA	r0x102F
00011f   5806     movar   0x6              	MOVAR	STK00
000120   561a     movra   0x1a             	MOVRA	r0x1030
000121   581a     movar   0x1a             	MOVAR	r0x1030
000122   39a5     xorai   0xa5             	XORAI	0xa5
000123   e587     jbset   0x187, 0x2       	JBSET	PFLAG,2
000124   a12a     goto    0x12a            	GOTO	_00583_DS_
000125   581b     movar   0x1b             	MOVAR	r0x102F
000126   39a5     xorai   0xa5             	XORAI	0xa5
000127   e587     jbset   0x187, 0x2       	JBSET	PFLAG,2
000128   a12a     goto    0x12a            	GOTO	_00583_DS_
000129   a133     goto    0x133            	GOTO	_00202_DS_
                                           _00583_DS_
                                           ;	.line	763; "MC32F7361.c"	key_event_same_deal(MODE_AUTO_START, MODE_AUTO_END, 0x9645, 0x9645);
00012a   3c45     movai   0x45             	MOVAI	0x45
00012b   5604     movra   0x4              	MOVRA	STK02
00012c   3c96     movai   0x96             	MOVAI	0x96
00012d   5605     movra   0x5              	MOVRA	STK01
00012e   3c4a     movai   0x4a             	MOVAI	0x4a
00012f   5606     movra   0x6              	MOVRA	STK00
000130   3c00     movai   0                	MOVAI	0x00
000131   84fd     call    0x4fd            	CALL	_key_event_same_deal_ex
000132   a135     goto    0x135            	GOTO	_00299_DS_
                                           _00202_DS_
                                           ;	.line	767; "MC32F7361.c"	power_sta = POWER_STA_PRE_ON;
000133   3c01     movai   0x1              	MOVAI	0x01
000134   563a     movra   0x3a             	MOVRA	_power_sta
                                           _00299_DS_
                                           ;	.line	773; "MC32F7361.c"	if (flag_is_recved_data)
000135   e034     jbset   0x34, 0          	JBSET	_flag1,0
000136   a3a7     goto    0x3a7            	GOTO	_00260_DS_
                                           ;	.line	882; "MC32F7361.c"	switch (ir_data)
000137   5835     movar   0x35             	MOVAR	_ir_data
000138   561a     movra   0x1a             	MOVRA	r0x1030
000139   581a     movar   0x1a             	MOVAR	r0x1030
00013a   e587     jbset   0x187, 0x2       	JBSET	PFLAG,2
00013b   a13d     goto    0x13d            	GOTO	_00584_DS_
00013c   a2a1     goto    0x2a1            	GOTO	_00232_DS_
                                           _00584_DS_
00013d   581a     movar   0x1a             	MOVAR	r0x1030
00013e   3901     xorai   0x1              	XORAI	0x01
00013f   e587     jbset   0x187, 0x2       	JBSET	PFLAG,2
000140   a142     goto    0x142            	GOTO	_00585_DS_
000141   a21a     goto    0x21a            	GOTO	_00215_DS_
                                           _00585_DS_
000142   581a     movar   0x1a             	MOVAR	r0x1030
000143   3902     xorai   0x2              	XORAI	0x02
000144   e587     jbset   0x187, 0x2       	JBSET	PFLAG,2
000145   a147     goto    0x147            	GOTO	_00586_DS_
000146   a34b     goto    0x34b            	GOTO	_00248_DS_
                                           _00586_DS_
000147   581a     movar   0x1a             	MOVAR	r0x1030
000148   3908     xorai   0x8              	XORAI	0x08
000149   e587     jbset   0x187, 0x2       	JBSET	PFLAG,2
00014a   a14c     goto    0x14c            	GOTO	_00587_DS_
00014b   a1de     goto    0x1de            	GOTO	_00204_DS_
                                           _00587_DS_
00014c   581a     movar   0x1a             	MOVAR	r0x1030
00014d   3912     xorai   0x12             	XORAI	0x12
00014e   e587     jbset   0x187, 0x2       	JBSET	PFLAG,2
00014f   a151     goto    0x151            	GOTO	_00588_DS_
000150   a390     goto    0x390            	GOTO	_00255_DS_
                                           _00588_DS_
000151   581a     movar   0x1a             	MOVAR	r0x1030
000152   3920     xorai   0x20             	XORAI	0x20
000153   e587     jbset   0x187, 0x2       	JBSET	PFLAG,2
000154   a156     goto    0x156            	GOTO	_00589_DS_
000155   a35f     goto    0x35f            	GOTO	_00250_DS_
                                           _00589_DS_
000156   581a     movar   0x1a             	MOVAR	r0x1030
000157   3928     xorai   0x28             	XORAI	0x28
000158   e587     jbset   0x187, 0x2       	JBSET	PFLAG,2
000159   a15b     goto    0x15b            	GOTO	_00590_DS_
00015a   a2c2     goto    0x2c2            	GOTO	_00235_DS_
                                           _00590_DS_
00015b   581a     movar   0x1a             	MOVAR	r0x1030
00015c   392a     xorai   0x2a             	XORAI	0x2a
00015d   e587     jbset   0x187, 0x2       	JBSET	PFLAG,2
00015e   a160     goto    0x160            	GOTO	_00591_DS_
00015f   a399     goto    0x399            	GOTO	_00256_DS_
                                           _00591_DS_
000160   581a     movar   0x1a             	MOVAR	r0x1030
000161   3930     xorai   0x30             	XORAI	0x30
000162   e587     jbset   0x187, 0x2       	JBSET	PFLAG,2
000163   a165     goto    0x165            	GOTO	_00592_DS_
000164   a2d8     goto    0x2d8            	GOTO	_00237_DS_
                                           _00592_DS_
000165   581a     movar   0x1a             	MOVAR	r0x1030
000166   3932     xorai   0x32             	XORAI	0x32
000167   e587     jbset   0x187, 0x2       	JBSET	PFLAG,2
000168   a16a     goto    0x16a            	GOTO	_00593_DS_
000169   a355     goto    0x355            	GOTO	_00249_DS_
                                           _00593_DS_
00016a   581a     movar   0x1a             	MOVAR	r0x1030
00016b   3938     xorai   0x38             	XORAI	0x38
00016c   e587     jbset   0x187, 0x2       	JBSET	PFLAG,2
00016d   a16f     goto    0x16f            	GOTO	_00594_DS_
00016e   a2b7     goto    0x2b7            	GOTO	_00234_DS_
                                           _00594_DS_
00016f   581a     movar   0x1a             	MOVAR	r0x1030
000170   3940     xorai   0x40             	XORAI	0x40
000171   e587     jbset   0x187, 0x2       	JBSET	PFLAG,2
000172   a174     goto    0x174            	GOTO	_00595_DS_
000173   a387     goto    0x387            	GOTO	_00254_DS_
                                           _00595_DS_
000174   581a     movar   0x1a             	MOVAR	r0x1030
000175   3948     xorai   0x48             	XORAI	0x48
000176   e587     jbset   0x187, 0x2       	JBSET	PFLAG,2
000177   a179     goto    0x179            	GOTO	_00596_DS_
000178   a337     goto    0x337            	GOTO	_00246_DS_
                                           _00596_DS_
000179   581a     movar   0x1a             	MOVAR	r0x1030
00017a   3950     xorai   0x50             	XORAI	0x50
00017b   e587     jbset   0x187, 0x2       	JBSET	PFLAG,2
00017c   a17e     goto    0x17e            	GOTO	_00597_DS_
00017d   a369     goto    0x369            	GOTO	_00251_DS_
                                           _00597_DS_
00017e   581a     movar   0x1a             	MOVAR	r0x1030
00017f   3958     xorai   0x58             	XORAI	0x58
000180   e587     jbset   0x187, 0x2       	JBSET	PFLAG,2
000181   a183     goto    0x183            	GOTO	_00598_DS_
000182   a2ac     goto    0x2ac            	GOTO	_00233_DS_
                                           _00598_DS_
000183   581a     movar   0x1a             	MOVAR	r0x1030
000184   3960     xorai   0x60             	XORAI	0x60
000185   e587     jbset   0x187, 0x2       	JBSET	PFLAG,2
000186   a188     goto    0x188            	GOTO	_00599_DS_
000187   a1ef     goto    0x1ef            	GOTO	_00207_DS_
                                           _00599_DS_
000188   581a     movar   0x1a             	MOVAR	r0x1030
000189   3968     xorai   0x68             	XORAI	0x68
00018a   e587     jbset   0x187, 0x2       	JBSET	PFLAG,2
00018b   a18d     goto    0x18d            	GOTO	_00600_DS_
00018c   a341     goto    0x341            	GOTO	_00247_DS_
                                           _00600_DS_
00018d   581a     movar   0x1a             	MOVAR	r0x1030
00018e   3970     xorai   0x70             	XORAI	0x70
00018f   e587     jbset   0x187, 0x2       	JBSET	PFLAG,2
000190   a192     goto    0x192            	GOTO	_00601_DS_
000191   a37d     goto    0x37d            	GOTO	_00253_DS_
                                           _00601_DS_
000192   581a     movar   0x1a             	MOVAR	r0x1030
000193   3978     xorai   0x78             	XORAI	0x78
000194   e587     jbset   0x187, 0x2       	JBSET	PFLAG,2
000195   a197     goto    0x197            	GOTO	_00602_DS_
000196   a373     goto    0x373            	GOTO	_00252_DS_
                                           _00602_DS_
000197   581a     movar   0x1a             	MOVAR	r0x1030
000198   3980     xorai   0x80             	XORAI	0x80
000199   e587     jbset   0x187, 0x2       	JBSET	PFLAG,2
00019a   a19c     goto    0x19c            	GOTO	_00603_DS_
00019b   a1e5     goto    0x1e5            	GOTO	_00206_DS_
                                           _00603_DS_
00019c   581a     movar   0x1a             	MOVAR	r0x1030
00019d   3988     xorai   0x88             	XORAI	0x88
00019e   e587     jbset   0x187, 0x2       	JBSET	PFLAG,2
00019f   a1a1     goto    0x1a1            	GOTO	_00604_DS_
0001a0   a323     goto    0x323            	GOTO	_00244_DS_
                                           _00604_DS_
0001a1   581a     movar   0x1a             	MOVAR	r0x1030
0001a2   3990     xorai   0x90             	XORAI	0x90
0001a3   e587     jbset   0x187, 0x2       	JBSET	PFLAG,2
0001a4   a1a6     goto    0x1a6            	GOTO	_00605_DS_
0001a5   a2e3     goto    0x2e3            	GOTO	_00238_DS_
                                           _00605_DS_
0001a6   581a     movar   0x1a             	MOVAR	r0x1030
0001a7   3998     xorai   0x98             	XORAI	0x98
0001a8   e587     jbset   0x187, 0x2       	JBSET	PFLAG,2
0001a9   a1ab     goto    0x1ab            	GOTO	_00606_DS_
0001aa   a30f     goto    0x30f            	GOTO	_00242_DS_
                                           _00606_DS_
0001ab   581a     movar   0x1a             	MOVAR	r0x1030
0001ac   39a0     xorai   0xa0             	XORAI	0xa0
0001ad   e587     jbset   0x187, 0x2       	JBSET	PFLAG,2
0001ae   a1b0     goto    0x1b0            	GOTO	_00607_DS_
0001af   a3a1     goto    0x3a1            	GOTO	_00257_DS_
                                           _00607_DS_
0001b0   581a     movar   0x1a             	MOVAR	r0x1030
0001b1   39a8     xorai   0xa8             	XORAI	0xa8
0001b2   e587     jbset   0x187, 0x2       	JBSET	PFLAG,2
0001b3   a1b5     goto    0x1b5            	GOTO	_00608_DS_
0001b4   a202     goto    0x202            	GOTO	_00212_DS_
                                           _00608_DS_
0001b5   581a     movar   0x1a             	MOVAR	r0x1030
0001b6   39b0     xorai   0xb0             	XORAI	0xb0
0001b7   e587     jbset   0x187, 0x2       	JBSET	PFLAG,2
0001b8   a1ba     goto    0x1ba            	GOTO	_00609_DS_
0001b9   a304     goto    0x304            	GOTO	_00241_DS_
                                           _00609_DS_
0001ba   581a     movar   0x1a             	MOVAR	r0x1030
0001bb   39b2     xorai   0xb2             	XORAI	0xb2
0001bc   e587     jbset   0x187, 0x2       	JBSET	PFLAG,2
0001bd   a1bf     goto    0x1bf            	GOTO	_00610_DS_
0001be   a296     goto    0x296            	GOTO	_00231_DS_
                                           _00610_DS_
0001bf   581a     movar   0x1a             	MOVAR	r0x1030
0001c0   39b8     xorai   0xb8             	XORAI	0xb8
0001c1   e587     jbset   0x187, 0x2       	JBSET	PFLAG,2
0001c2   a1c4     goto    0x1c4            	GOTO	_00611_DS_
0001c3   a2ee     goto    0x2ee            	GOTO	_00239_DS_
                                           _00611_DS_
0001c4   581a     movar   0x1a             	MOVAR	r0x1030
0001c5   39c0     xorai   0xc0             	XORAI	0xc0
0001c6   e587     jbset   0x187, 0x2       	JBSET	PFLAG,2
0001c7   a1c9     goto    0x1c9            	GOTO	_00612_DS_
0001c8   a1e1     goto    0x1e1            	GOTO	_00205_DS_
                                           _00612_DS_
0001c9   581a     movar   0x1a             	MOVAR	r0x1030
0001ca   39d8     xorai   0xd8             	XORAI	0xd8
0001cb   e587     jbset   0x187, 0x2       	JBSET	PFLAG,2
0001cc   a1ce     goto    0x1ce            	GOTO	_00613_DS_
0001cd   a319     goto    0x319            	GOTO	_00243_DS_
                                           _00613_DS_
0001ce   581a     movar   0x1a             	MOVAR	r0x1030
0001cf   39e8     xorai   0xe8             	XORAI	0xe8
0001d0   e587     jbset   0x187, 0x2       	JBSET	PFLAG,2
0001d1   a1d3     goto    0x1d3            	GOTO	_00614_DS_
0001d2   a32d     goto    0x32d            	GOTO	_00245_DS_
                                           _00614_DS_
0001d3   581a     movar   0x1a             	MOVAR	r0x1030
0001d4   39f0     xorai   0xf0             	XORAI	0xf0
0001d5   e587     jbset   0x187, 0x2       	JBSET	PFLAG,2
0001d6   a1d8     goto    0x1d8            	GOTO	_00615_DS_
0001d7   a2cd     goto    0x2cd            	GOTO	_00236_DS_
                                           _00615_DS_
0001d8   581a     movar   0x1a             	MOVAR	r0x1030
0001d9   39f8     xorai   0xf8             	XORAI	0xf8
0001da   e587     jbset   0x187, 0x2       	JBSET	PFLAG,2
0001db   a1dd     goto    0x1dd            	GOTO	_00616_DS_
0001dc   a2f9     goto    0x2f9            	GOTO	_00240_DS_
                                           _00616_DS_
0001dd   a3a6     goto    0x3a6            	GOTO	_00258_DS_
                                           _00204_DS_
                                           ;	.line	885; "MC32F7361.c"	power_sta = POWER_STA_PRE_ON;
0001de   3c01     movai   0x1              	MOVAI	0x01
0001df   563a     movra   0x3a             	MOVRA	_power_sta
                                           ;	.line	886; "MC32F7361.c"	break;
0001e0   a3a6     goto    0x3a6            	GOTO	_00258_DS_
                                           _00205_DS_
                                           ;	.line	889; "MC32F7361.c"	power_sta = POWER_STA_PRE_OFF;
0001e1   3c03     movai   0x3              	MOVAI	0x03
0001e2   563a     movra   0x3a             	MOVRA	_power_sta
                                           ;	.line	890; "MC32F7361.c"	cur_mechanical_key_sta = 0;
0001e3   763d     clrr    0x3d             	CLRR	_cur_mechanical_key_sta
                                           ;	.line	891; "MC32F7361.c"	break;
0001e4   a3a6     goto    0x3a6            	GOTO	_00258_DS_
                                           _00206_DS_
                                           ;	.line	894; "MC32F7361.c"	key_event_same_deal(MODE_AUTO_START, MODE_AUTO_END, 0x9645, 0x9645);
0001e5   3c45     movai   0x45             	MOVAI	0x45
0001e6   5604     movra   0x4              	MOVRA	STK02
0001e7   3c96     movai   0x96             	MOVAI	0x96
0001e8   5605     movra   0x5              	MOVRA	STK01
0001e9   3c4a     movai   0x4a             	MOVAI	0x4a
0001ea   5606     movra   0x6              	MOVRA	STK00
0001eb   3c00     movai   0                	MOVAI	0x00
0001ec   84fd     call    0x4fd            	CALL	_key_event_same_deal_ex
                                           ;	.line	896; "MC32F7361.c"	cur_mechanical_key_sta = 0;
0001ed   763d     clrr    0x3d             	CLRR	_cur_mechanical_key_sta
                                           ;	.line	897; "MC32F7361.c"	break;
0001ee   a3a6     goto    0x3a6            	GOTO	_00258_DS_
                                           _00207_DS_
                                           ;	.line	900; "MC32F7361.c"	if (power_sta != POWER_STA_OFF)
0001ef   3c00     movai   0                	MOVAI	0x00
0001f0   5c3a     orar    0x3a             	ORAR	_power_sta
0001f1   f587     jbclr   0x187, 0x2       	JBCLR	PFLAG,2
0001f2   a3a6     goto    0x3a6            	GOTO	_00258_DS_
                                           ;	.line	902; "MC32F7361.c"	current_speed++;
0001f3   663b     incr    0x3b             	INCR	_current_speed
                                           ;;unsigned compare: left < lit(0x4=4), size=1
                                           ;	.line	903; "MC32F7361.c"	if (current_speed >= 4)
0001f4   3c04     movai   0x4              	MOVAI	0x04
0001f5   483b     rsubar  0x3b             	RSUBAR	_current_speed
0001f6   e187     jbset   0x187, 0         	JBSET	PFLAG,0
0001f7   a1f9     goto    0x1f9            	GOTO	_00209_DS_
                                           ;;genSkipc:3291: created from rifx:013B5EFC
                                           ;	.line	904; "MC32F7361.c"	current_speed = 0;
0001f8   763b     clrr    0x3b             	CLRR	_current_speed
                                           _00209_DS_
                                           ;	.line	905; "MC32F7361.c"	current_index = start_index; // 
0001f9   5838     movar   0x38             	MOVAR	_start_index
0001fa   5637     movra   0x37             	MOVRA	_current_index
                                           ;	.line	906; "MC32F7361.c"	next_frame_delay = 0;        // 
0001fb   7630     clrr    0x30             	CLRR	_next_frame_delay
0001fc   7631     clrr    0x31             	CLRR	(_next_frame_delay + 1)
                                           ;	.line	907; "MC32F7361.c"	send_cmd_16bit(0x0C00);
0001fd   3c00     movai   0                	MOVAI	0x00
0001fe   5606     movra   0x6              	MOVRA	STK00
0001ff   3c0c     movai   0xc              	MOVAI	0x0c
000200   857c     call    0x57c            	CALL	_send_cmd_16bit
                                           ;	.line	909; "MC32F7361.c"	break;
000201   a3a6     goto    0x3a6            	GOTO	_00258_DS_
                                           _00212_DS_
                                           ;	.line	933; "MC32F7361.c"	current_static++;
000202   663c     incr    0x3c             	INCR	_current_static
                                           ;;swapping arguments (AOP_TYPEs 1/3)
                                           ;;unsigned compare: left >= lit(0x3=3), size=1
                                           ;	.line	934; "MC32F7361.c"	if (current_static > 2)
000203   3c03     movai   0x3              	MOVAI	0x03
000204   483c     rsubar  0x3c             	RSUBAR	_current_static
000205   e187     jbset   0x187, 0         	JBSET	PFLAG,0
000206   a208     goto    0x208            	GOTO	_00214_DS_
                                           ;;genSkipc:3291: created from rifx:013B5EFC
                                           ;	.line	935; "MC32F7361.c"	current_static = 0;
000207   763c     clrr    0x3c             	CLRR	_current_static
                                           _00214_DS_
                                           ;	.line	936; "MC32F7361.c"	key_event_same_deal(91 + current_static, 91 + current_static, 0xFFFF, 0xFFFF);
000208   583c     movar   0x3c             	MOVAR	_current_static
000209   561a     movra   0x1a             	MOVRA	r0x1030
00020a   3c5b     movai   0x5b             	MOVAI	0x5b
00020b   7e1a     addra   0x1a             	ADDRA	r0x1030
00020c   583c     movar   0x3c             	MOVAR	_current_static
00020d   561b     movra   0x1b             	MOVRA	r0x102F
00020e   3c5b     movai   0x5b             	MOVAI	0x5b
00020f   7e1b     addra   0x1b             	ADDRA	r0x102F
000210   3cff     movai   0xff             	MOVAI	0xff
000211   5604     movra   0x4              	MOVRA	STK02
000212   3cff     movai   0xff             	MOVAI	0xff
000213   5605     movra   0x5              	MOVRA	STK01
000214   581b     movar   0x1b             	MOVAR	r0x102F
000215   5606     movra   0x6              	MOVRA	STK00
000216   581a     movar   0x1a             	MOVAR	r0x1030
000217   84fd     call    0x4fd            	CALL	_key_event_same_deal_ex
                                           ;	.line	939; "MC32F7361.c"	cur_mechanical_key_sta = 0;
000218   763d     clrr    0x3d             	CLRR	_cur_mechanical_key_sta
                                           ;	.line	940; "MC32F7361.c"	break;
000219   a3a6     goto    0x3a6            	GOTO	_00258_DS_
                                           _00215_DS_
                                           ;	.line	943; "MC32F7361.c"	switch (cur_mechanical_key_sta)
00021a   583d     movar   0x3d             	MOVAR	_cur_mechanical_key_sta
00021b   561a     movra   0x1a             	MOVRA	r0x1030
                                           ;;swapping arguments (AOP_TYPEs 1/2)
                                           ;;unsigned compare: left >= lit(0xD=13), size=1
00021c   3c0d     movai   0xd              	MOVAI	0x0d
00021d   481a     rsubar  0x1a             	RSUBAR	r0x1030
00021e   f187     jbclr   0x187, 0         	JBCLR	PFLAG,0
00021f   a22f     goto    0x22f            	GOTO	_00216_DS_
                                           ;;genSkipc:3291: created from rifx:013B5EFC
000220   581a     movar   0x1a             	MOVAR	r0x1030
000221   7f86     addra   0x186            	ADDRA	PCL
000222   a230     goto    0x230            	GOTO	_00217_DS_
000223   a239     goto    0x239            	GOTO	_00220_DS_
000224   a239     goto    0x239            	GOTO	_00220_DS_
000225   a239     goto    0x239            	GOTO	_00220_DS_
000226   a24a     goto    0x24a            	GOTO	_00221_DS_
000227   a253     goto    0x253            	GOTO	_00222_DS_
000228   a25c     goto    0x25c            	GOTO	_00223_DS_
000229   a265     goto    0x265            	GOTO	_00224_DS_
00022a   a26e     goto    0x26e            	GOTO	_00225_DS_
00022b   a277     goto    0x277            	GOTO	_00226_DS_
00022c   a280     goto    0x280            	GOTO	_00227_DS_
00022d   a289     goto    0x289            	GOTO	_00228_DS_
00022e   a292     goto    0x292            	GOTO	_00229_DS_
                                           _00216_DS_
                                           ;	.line	947; "MC32F7361.c"	cur_mechanical_key_sta = 0;
00022f   763d     clrr    0x3d             	CLRR	_cur_mechanical_key_sta
                                           _00217_DS_
                                           ;	.line	949; "MC32F7361.c"	key_event_same_deal(MODE_AUTO_START, MODE_AUTO_END, 0x9645, 0x9645);
000230   3c45     movai   0x45             	MOVAI	0x45
000231   5604     movra   0x4              	MOVRA	STK02
000232   3c96     movai   0x96             	MOVAI	0x96
000233   5605     movra   0x5              	MOVRA	STK01
000234   3c4a     movai   0x4a             	MOVAI	0x4a
000235   5606     movra   0x6              	MOVRA	STK00
000236   3c00     movai   0                	MOVAI	0x00
000237   84fd     call    0x4fd            	CALL	_key_event_same_deal_ex
                                           ;	.line	950; "MC32F7361.c"	break;
000238   a294     goto    0x294            	GOTO	_00230_DS_
                                           _00220_DS_
                                           ;	.line	965; "MC32F7361.c"	key_event_same_deal(76 + cur_mechanical_key_sta, 76 + cur_mechanical_key_sta, 0xFFFF, 0xFFFF);
000239   583d     movar   0x3d             	MOVAR	_cur_mechanical_key_sta
00023a   561a     movra   0x1a             	MOVRA	r0x1030
00023b   3c4c     movai   0x4c             	MOVAI	0x4c
00023c   7e1a     addra   0x1a             	ADDRA	r0x1030
00023d   583d     movar   0x3d             	MOVAR	_cur_mechanical_key_sta
00023e   561b     movra   0x1b             	MOVRA	r0x102F
00023f   3c4c     movai   0x4c             	MOVAI	0x4c
000240   7e1b     addra   0x1b             	ADDRA	r0x102F
000241   3cff     movai   0xff             	MOVAI	0xff
000242   5604     movra   0x4              	MOVRA	STK02
000243   3cff     movai   0xff             	MOVAI	0xff
000244   5605     movra   0x5              	MOVRA	STK01
000245   581b     movar   0x1b             	MOVAR	r0x102F
000246   5606     movra   0x6              	MOVRA	STK00
000247   581a     movar   0x1a             	MOVAR	r0x1030
000248   84fd     call    0x4fd            	CALL	_key_event_same_deal_ex
                                           ;	.line	966; "MC32F7361.c"	break;
000249   a294     goto    0x294            	GOTO	_00230_DS_
                                           _00221_DS_
                                           ;	.line	969; "MC32F7361.c"	key_event_same_deal(MODE_R2C4_START, MODE_R2C4_END, 0x9645, 0x9645);
00024a   3c45     movai   0x45             	MOVAI	0x45
00024b   5604     movra   0x4              	MOVRA	STK02
00024c   3c96     movai   0x96             	MOVAI	0x96
00024d   5605     movra   0x5              	MOVRA	STK01
00024e   3c4e     movai   0x4e             	MOVAI	0x4e
00024f   5606     movra   0x6              	MOVRA	STK00
000250   3c4e     movai   0x4e             	MOVAI	0x4e
000251   84fd     call    0x4fd            	CALL	_key_event_same_deal_ex
                                           ;	.line	970; "MC32F7361.c"	break;
000252   a294     goto    0x294            	GOTO	_00230_DS_
                                           _00222_DS_
                                           ;	.line	972; "MC32F7361.c"	key_event_same_deal(MODE_FADE_START, MODE_FADE_END, 0x9645, 0x9645);
000253   3c45     movai   0x45             	MOVAI	0x45
000254   5604     movra   0x4              	MOVRA	STK02
000255   3c96     movai   0x96             	MOVAI	0x96
000256   5605     movra   0x5              	MOVRA	STK01
000257   3c09     movai   0x9              	MOVAI	0x09
000258   5606     movra   0x6              	MOVRA	STK00
000259   3c00     movai   0                	MOVAI	0x00
00025a   84fd     call    0x4fd            	CALL	_key_event_same_deal_ex
                                           ;	.line	973; "MC32F7361.c"	break;
00025b   a294     goto    0x294            	GOTO	_00230_DS_
                                           _00223_DS_
                                           ;	.line	975; "MC32F7361.c"	key_event_same_deal(MODE_JUMP_START, MODE_JUMP_END, 0x9645, 0x9645);
00025c   3c45     movai   0x45             	MOVAI	0x45
00025d   5604     movra   0x4              	MOVRA	STK02
00025e   3c96     movai   0x96             	MOVAI	0x96
00025f   5605     movra   0x5              	MOVRA	STK01
000260   3c13     movai   0x13             	MOVAI	0x13
000261   5606     movra   0x6              	MOVRA	STK00
000262   3c0a     movai   0xa              	MOVAI	0x0a
000263   84fd     call    0x4fd            	CALL	_key_event_same_deal_ex
                                           ;	.line	976; "MC32F7361.c"	break;
000264   a294     goto    0x294            	GOTO	_00230_DS_
                                           _00224_DS_
                                           ;	.line	978; "MC32F7361.c"	key_event_same_deal(MODE_ASYN_FADE_START, MODE_ASYN_FADE_END, 0x9645, 0x9645);
000265   3c45     movai   0x45             	MOVAI	0x45
000266   5604     movra   0x4              	MOVRA	STK02
000267   3c96     movai   0x96             	MOVAI	0x96
000268   5605     movra   0x5              	MOVRA	STK01
000269   3c19     movai   0x19             	MOVAI	0x19
00026a   5606     movra   0x6              	MOVRA	STK00
00026b   3c14     movai   0x14             	MOVAI	0x14
00026c   84fd     call    0x4fd            	CALL	_key_event_same_deal_ex
                                           ;	.line	979; "MC32F7361.c"	break;
00026d   a294     goto    0x294            	GOTO	_00230_DS_
                                           _00225_DS_
                                           ;	.line	982; "MC32F7361.c"	key_event_same_deal(MODE_ASYN_JUMP_START, MODE_ASYN_JUMP_END, 0x9645, 0x9645);
00026e   3c45     movai   0x45             	MOVAI	0x45
00026f   5604     movra   0x4              	MOVRA	STK02
000270   3c96     movai   0x96             	MOVAI	0x96
000271   5605     movra   0x5              	MOVRA	STK01
000272   3c1c     movai   0x1c             	MOVAI	0x1c
000273   5606     movra   0x6              	MOVRA	STK00
000274   3c1a     movai   0x1a             	MOVAI	0x1a
000275   84fd     call    0x4fd            	CALL	_key_event_same_deal_ex
                                           ;	.line	983; "MC32F7361.c"	break;
000276   a294     goto    0x294            	GOTO	_00230_DS_
                                           _00226_DS_
                                           ;	.line	986; "MC32F7361.c"	key_event_same_deal(MODE_TWINKLE_START, MODE_TWINKLE_END, 0x9645, 0x9645);
000277   3c45     movai   0x45             	MOVAI	0x45
000278   5604     movra   0x4              	MOVRA	STK02
000279   3c96     movai   0x96             	MOVAI	0x96
00027a   5605     movra   0x5              	MOVRA	STK01
00027b   3c3a     movai   0x3a             	MOVAI	0x3a
00027c   5606     movra   0x6              	MOVRA	STK00
00027d   3c1d     movai   0x1d             	MOVAI	0x1d
00027e   84fd     call    0x4fd            	CALL	_key_event_same_deal_ex
                                           ;	.line	987; "MC32F7361.c"	break;
00027f   a294     goto    0x294            	GOTO	_00230_DS_
                                           _00227_DS_
                                           ;	.line	990; "MC32F7361.c"	key_event_same_deal(MODE_STROBE_START, MODE_STROBE_END, 0x9645, 0x9645);
000280   3c45     movai   0x45             	MOVAI	0x45
000281   5604     movra   0x4              	MOVRA	STK02
000282   3c96     movai   0x96             	MOVAI	0x96
000283   5605     movra   0x5              	MOVRA	STK01
000284   3c44     movai   0x44             	MOVAI	0x44
000285   5606     movra   0x6              	MOVRA	STK00
000286   3c3b     movai   0x3b             	MOVAI	0x3b
000287   84fd     call    0x4fd            	CALL	_key_event_same_deal_ex
                                           ;	.line	991; "MC32F7361.c"	break;
000288   a294     goto    0x294            	GOTO	_00230_DS_
                                           _00228_DS_
                                           ;	.line	993; "MC32F7361.c"	key_event_same_deal(MODE_IN_WAVES_START, MODE_IN_WAVES_END, 0x9645, 0x9645);
000289   3c45     movai   0x45             	MOVAI	0x45
00028a   5604     movra   0x4              	MOVRA	STK02
00028b   3c96     movai   0x96             	MOVAI	0x96
00028c   5605     movra   0x5              	MOVRA	STK01
00028d   3c4a     movai   0x4a             	MOVAI	0x4a
00028e   5606     movra   0x6              	MOVRA	STK00
00028f   3c45     movai   0x45             	MOVAI	0x45
000290   84fd     call    0x4fd            	CALL	_key_event_same_deal_ex
                                           ;	.line	994; "MC32F7361.c"	break;
000291   a294     goto    0x294            	GOTO	_00230_DS_
                                           _00229_DS_
                                           ;	.line	997; "MC32F7361.c"	power_sta = POWER_STA_PRE_OFF;
000292   3c03     movai   0x3              	MOVAI	0x03
000293   563a     movra   0x3a             	MOVRA	_power_sta
                                           _00230_DS_
                                           ;	.line	1000; "MC32F7361.c"	cur_mechanical_key_sta++;
000294   663d     incr    0x3d             	INCR	_cur_mechanical_key_sta
                                           ;	.line	1001; "MC32F7361.c"	break;
000295   a3a6     goto    0x3a6            	GOTO	_00258_DS_
                                           _00231_DS_
                                           ;	.line	1003; "MC32F7361.c"	key_event_same_deal(MODE_FADE_START, MODE_FADE_END, 0x9645, 0x9645);
000296   3c45     movai   0x45             	MOVAI	0x45
000297   5604     movra   0x4              	MOVRA	STK02
000298   3c96     movai   0x96             	MOVAI	0x96
000299   5605     movra   0x5              	MOVRA	STK01
00029a   3c09     movai   0x9              	MOVAI	0x09
00029b   5606     movra   0x6              	MOVRA	STK00
00029c   3c00     movai   0                	MOVAI	0x00
00029d   84fd     call    0x4fd            	CALL	_key_event_same_deal_ex
                                           ;	.line	1004; "MC32F7361.c"	cur_mechanical_key_sta = 5;
00029e   3c05     movai   0x5              	MOVAI	0x05
00029f   563d     movra   0x3d             	MOVRA	_cur_mechanical_key_sta
                                           ;	.line	1005; "MC32F7361.c"	break;
0002a0   a3a6     goto    0x3a6            	GOTO	_00258_DS_
                                           _00232_DS_
                                           ;	.line	1008; "MC32F7361.c"	key_event_same_deal(MODE_JUMP_START, MODE_JUMP_END, 0x9645, 0x9645);
0002a1   3c45     movai   0x45             	MOVAI	0x45
0002a2   5604     movra   0x4              	MOVRA	STK02
0002a3   3c96     movai   0x96             	MOVAI	0x96
0002a4   5605     movra   0x5              	MOVRA	STK01
0002a5   3c13     movai   0x13             	MOVAI	0x13
0002a6   5606     movra   0x6              	MOVRA	STK00
0002a7   3c0a     movai   0xa              	MOVAI	0x0a
0002a8   84fd     call    0x4fd            	CALL	_key_event_same_deal_ex
                                           ;	.line	1009; "MC32F7361.c"	cur_mechanical_key_sta = 6;
0002a9   3c06     movai   0x6              	MOVAI	0x06
0002aa   563d     movra   0x3d             	MOVRA	_cur_mechanical_key_sta
                                           ;	.line	1010; "MC32F7361.c"	break;
0002ab   a3a6     goto    0x3a6            	GOTO	_00258_DS_
                                           _00233_DS_
                                           ;	.line	1013; "MC32F7361.c"	key_event_same_deal(MODE_ASYN_FADE_START, MODE_ASYN_FADE_END, 0x9645, 0x9645);
0002ac   3c45     movai   0x45             	MOVAI	0x45
0002ad   5604     movra   0x4              	MOVRA	STK02
0002ae   3c96     movai   0x96             	MOVAI	0x96
0002af   5605     movra   0x5              	MOVRA	STK01
0002b0   3c19     movai   0x19             	MOVAI	0x19
0002b1   5606     movra   0x6              	MOVRA	STK00
0002b2   3c14     movai   0x14             	MOVAI	0x14
0002b3   84fd     call    0x4fd            	CALL	_key_event_same_deal_ex
                                           ;	.line	1014; "MC32F7361.c"	cur_mechanical_key_sta = 7;
0002b4   3c07     movai   0x7              	MOVAI	0x07
0002b5   563d     movra   0x3d             	MOVRA	_cur_mechanical_key_sta
                                           ;	.line	1015; "MC32F7361.c"	break;
0002b6   a3a6     goto    0x3a6            	GOTO	_00258_DS_
                                           _00234_DS_
                                           ;	.line	1018; "MC32F7361.c"	key_event_same_deal(MODE_IN_WAVES_START, MODE_IN_WAVES_END, 0x9645, 0x9645);
0002b7   3c45     movai   0x45             	MOVAI	0x45
0002b8   5604     movra   0x4              	MOVRA	STK02
0002b9   3c96     movai   0x96             	MOVAI	0x96
0002ba   5605     movra   0x5              	MOVRA	STK01
0002bb   3c4a     movai   0x4a             	MOVAI	0x4a
0002bc   5606     movra   0x6              	MOVRA	STK00
0002bd   3c45     movai   0x45             	MOVAI	0x45
0002be   84fd     call    0x4fd            	CALL	_key_event_same_deal_ex
                                           ;	.line	1019; "MC32F7361.c"	cur_mechanical_key_sta = 11;
0002bf   3c0b     movai   0xb              	MOVAI	0x0b
0002c0   563d     movra   0x3d             	MOVRA	_cur_mechanical_key_sta
                                           ;	.line	1020; "MC32F7361.c"	break;
0002c1   a3a6     goto    0x3a6            	GOTO	_00258_DS_
                                           _00235_DS_
                                           ;	.line	1023; "MC32F7361.c"	key_event_same_deal(MODE_STROBE_START, MODE_STROBE_END, 0x9645, 0x9645);
0002c2   3c45     movai   0x45             	MOVAI	0x45
0002c3   5604     movra   0x4              	MOVRA	STK02
0002c4   3c96     movai   0x96             	MOVAI	0x96
0002c5   5605     movra   0x5              	MOVRA	STK01
0002c6   3c44     movai   0x44             	MOVAI	0x44
0002c7   5606     movra   0x6              	MOVRA	STK00
0002c8   3c3b     movai   0x3b             	MOVAI	0x3b
0002c9   84fd     call    0x4fd            	CALL	_key_event_same_deal_ex
                                           ;	.line	1024; "MC32F7361.c"	cur_mechanical_key_sta = 10;
0002ca   3c0a     movai   0xa              	MOVAI	0x0a
0002cb   563d     movra   0x3d             	MOVRA	_cur_mechanical_key_sta
                                           ;	.line	1025; "MC32F7361.c"	break;
0002cc   a3a6     goto    0x3a6            	GOTO	_00258_DS_
                                           _00236_DS_
                                           ;	.line	1028; "MC32F7361.c"	key_event_same_deal(MODE_TWINKLE_START, MODE_TWINKLE_END, 0x9645, 0x9645);
0002cd   3c45     movai   0x45             	MOVAI	0x45
0002ce   5604     movra   0x4              	MOVRA	STK02
0002cf   3c96     movai   0x96             	MOVAI	0x96
0002d0   5605     movra   0x5              	MOVRA	STK01
0002d1   3c3a     movai   0x3a             	MOVAI	0x3a
0002d2   5606     movra   0x6              	MOVRA	STK00
0002d3   3c1d     movai   0x1d             	MOVAI	0x1d
0002d4   84fd     call    0x4fd            	CALL	_key_event_same_deal_ex
                                           ;	.line	1029; "MC32F7361.c"	cur_mechanical_key_sta = 9;
0002d5   3c09     movai   0x9              	MOVAI	0x09
0002d6   563d     movra   0x3d             	MOVRA	_cur_mechanical_key_sta
                                           ;	.line	1030; "MC32F7361.c"	break;
0002d7   a3a6     goto    0x3a6            	GOTO	_00258_DS_
                                           _00237_DS_
                                           ;	.line	1033; "MC32F7361.c"	key_event_same_deal(MODE_ASYN_JUMP_START, MODE_ASYN_JUMP_END, 0x9645, 0x9645);
0002d8   3c45     movai   0x45             	MOVAI	0x45
0002d9   5604     movra   0x4              	MOVRA	STK02
0002da   3c96     movai   0x96             	MOVAI	0x96
0002db   5605     movra   0x5              	MOVRA	STK01
0002dc   3c1c     movai   0x1c             	MOVAI	0x1c
0002dd   5606     movra   0x6              	MOVRA	STK00
0002de   3c1a     movai   0x1a             	MOVAI	0x1a
0002df   84fd     call    0x4fd            	CALL	_key_event_same_deal_ex
                                           ;	.line	1034; "MC32F7361.c"	cur_mechanical_key_sta = 8;
0002e0   3c08     movai   0x8              	MOVAI	0x08
0002e1   563d     movra   0x3d             	MOVRA	_cur_mechanical_key_sta
                                           ;	.line	1035; "MC32F7361.c"	break;
0002e2   a3a6     goto    0x3a6            	GOTO	_00258_DS_
                                           _00238_DS_
                                           ;	.line	1038; "MC32F7361.c"	key_event_same_deal(MODE_R2C1_START, MODE_R2C1_END, 0xFFFF, 0xFFFF);
0002e3   3cff     movai   0xff             	MOVAI	0xff
0002e4   5604     movra   0x4              	MOVRA	STK02
0002e5   3cff     movai   0xff             	MOVAI	0xff
0002e6   5605     movra   0x5              	MOVRA	STK01
0002e7   3c4b     movai   0x4b             	MOVAI	0x4b
0002e8   5606     movra   0x6              	MOVRA	STK00
0002e9   3c4b     movai   0x4b             	MOVAI	0x4b
0002ea   84fd     call    0x4fd            	CALL	_key_event_same_deal_ex
                                           ;	.line	1039; "MC32F7361.c"	cur_mechanical_key_sta = 1;
0002eb   3c01     movai   0x1              	MOVAI	0x01
0002ec   563d     movra   0x3d             	MOVRA	_cur_mechanical_key_sta
                                           ;	.line	1040; "MC32F7361.c"	break;
0002ed   a3a6     goto    0x3a6            	GOTO	_00258_DS_
                                           _00239_DS_
                                           ;	.line	1042; "MC32F7361.c"	key_event_same_deal(MODE_R2C2_START, MODE_R2C2_END, 0xFFFF, 0xFFFF);
0002ee   3cff     movai   0xff             	MOVAI	0xff
0002ef   5604     movra   0x4              	MOVRA	STK02
0002f0   3cff     movai   0xff             	MOVAI	0xff
0002f1   5605     movra   0x5              	MOVRA	STK01
0002f2   3c4c     movai   0x4c             	MOVAI	0x4c
0002f3   5606     movra   0x6              	MOVRA	STK00
0002f4   3c4c     movai   0x4c             	MOVAI	0x4c
0002f5   84fd     call    0x4fd            	CALL	_key_event_same_deal_ex
                                           ;	.line	1043; "MC32F7361.c"	cur_mechanical_key_sta = 2;
0002f6   3c02     movai   0x2              	MOVAI	0x02
0002f7   563d     movra   0x3d             	MOVRA	_cur_mechanical_key_sta
                                           ;	.line	1044; "MC32F7361.c"	break;
0002f8   a3a6     goto    0x3a6            	GOTO	_00258_DS_
                                           _00240_DS_
                                           ;	.line	1046; "MC32F7361.c"	key_event_same_deal(MODE_R2C3_START, MODE_R2C3_END, 0xFFFF, 0xFFFF);
0002f9   3cff     movai   0xff             	MOVAI	0xff
0002fa   5604     movra   0x4              	MOVRA	STK02
0002fb   3cff     movai   0xff             	MOVAI	0xff
0002fc   5605     movra   0x5              	MOVRA	STK01
0002fd   3c4d     movai   0x4d             	MOVAI	0x4d
0002fe   5606     movra   0x6              	MOVRA	STK00
0002ff   3c4d     movai   0x4d             	MOVAI	0x4d
000300   84fd     call    0x4fd            	CALL	_key_event_same_deal_ex
                                           ;	.line	1047; "MC32F7361.c"	cur_mechanical_key_sta = 3;
000301   3c03     movai   0x3              	MOVAI	0x03
000302   563d     movra   0x3d             	MOVRA	_cur_mechanical_key_sta
                                           ;	.line	1048; "MC32F7361.c"	break;
000303   a3a6     goto    0x3a6            	GOTO	_00258_DS_
                                           _00241_DS_
                                           ;	.line	1050; "MC32F7361.c"	key_event_same_deal(MODE_R2C4_START, MODE_R2C4_END, 0x9645, 0x9645);
000304   3c45     movai   0x45             	MOVAI	0x45
000305   5604     movra   0x4              	MOVRA	STK02
000306   3c96     movai   0x96             	MOVAI	0x96
000307   5605     movra   0x5              	MOVRA	STK01
000308   3c4e     movai   0x4e             	MOVAI	0x4e
000309   5606     movra   0x6              	MOVRA	STK00
00030a   3c4e     movai   0x4e             	MOVAI	0x4e
00030b   84fd     call    0x4fd            	CALL	_key_event_same_deal_ex
                                           ;	.line	1051; "MC32F7361.c"	cur_mechanical_key_sta = 4;
00030c   3c04     movai   0x4              	MOVAI	0x04
00030d   563d     movra   0x3d             	MOVRA	_cur_mechanical_key_sta
                                           ;	.line	1052; "MC32F7361.c"	break;
00030e   a3a6     goto    0x3a6            	GOTO	_00258_DS_
                                           _00242_DS_
                                           ;	.line	1054; "MC32F7361.c"	key_event_same_deal(MODE_R3C1_START, MODE_R3C1_END, 0x9F00, 0x9F00);
00030f   3c00     movai   0                	MOVAI	0x00
000310   5604     movra   0x4              	MOVRA	STK02
000311   3c9f     movai   0x9f             	MOVAI	0x9f
000312   5605     movra   0x5              	MOVRA	STK01
000313   3c4f     movai   0x4f             	MOVAI	0x4f
000314   5606     movra   0x6              	MOVRA	STK00
000315   3c4f     movai   0x4f             	MOVAI	0x4f
000316   84fd     call    0x4fd            	CALL	_key_event_same_deal_ex
                                           ;	.line	1055; "MC32F7361.c"	cur_mechanical_key_sta = 0;
000317   763d     clrr    0x3d             	CLRR	_cur_mechanical_key_sta
                                           ;	.line	1056; "MC32F7361.c"	break;
000318   a3a6     goto    0x3a6            	GOTO	_00258_DS_
                                           _00243_DS_
                                           ;	.line	1058; "MC32F7361.c"	key_event_same_deal(MODE_R3C2_START, MODE_R3C2_END, 0x90F1, 0x90F1);
000319   3cf1     movai   0xf1             	MOVAI	0xf1
00031a   5604     movra   0x4              	MOVRA	STK02
00031b   3c90     movai   0x90             	MOVAI	0x90
00031c   5605     movra   0x5              	MOVRA	STK01
00031d   3c50     movai   0x50             	MOVAI	0x50
00031e   5606     movra   0x6              	MOVRA	STK00
00031f   3c50     movai   0x50             	MOVAI	0x50
000320   84fd     call    0x4fd            	CALL	_key_event_same_deal_ex
                                           ;	.line	1059; "MC32F7361.c"	cur_mechanical_key_sta = 0;
000321   763d     clrr    0x3d             	CLRR	_cur_mechanical_key_sta
                                           ;	.line	1060; "MC32F7361.c"	break;
000322   a3a6     goto    0x3a6            	GOTO	_00258_DS_
                                           _00244_DS_
                                           ;	.line	1062; "MC32F7361.c"	key_event_same_deal(MODE_R3C3_START, MODE_R3C3_END, 0x930F, 0x930F);
000323   3c0f     movai   0xf              	MOVAI	0x0f
000324   5604     movra   0x4              	MOVRA	STK02
000325   3c93     movai   0x93             	MOVAI	0x93
000326   5605     movra   0x5              	MOVRA	STK01
000327   3c51     movai   0x51             	MOVAI	0x51
000328   5606     movra   0x6              	MOVRA	STK00
000329   3c51     movai   0x51             	MOVAI	0x51
00032a   84fd     call    0x4fd            	CALL	_key_event_same_deal_ex
                                           ;	.line	1063; "MC32F7361.c"	cur_mechanical_key_sta = 0;
00032b   763d     clrr    0x3d             	CLRR	_cur_mechanical_key_sta
                                           ;	.line	1064; "MC32F7361.c"	break;
00032c   a3a6     goto    0x3a6            	GOTO	_00258_DS_
                                           _00245_DS_
                                           ;	.line	1066; "MC32F7361.c"	key_event_same_deal(MODE_R4C1_START, MODE_R4C1_END, 0x9F10, 0x9F10);
00032d   3c10     movai   0x10             	MOVAI	0x10
00032e   5604     movra   0x4              	MOVRA	STK02
00032f   3c9f     movai   0x9f             	MOVAI	0x9f
000330   5605     movra   0x5              	MOVRA	STK01
000331   3c52     movai   0x52             	MOVAI	0x52
000332   5606     movra   0x6              	MOVRA	STK00
000333   3c52     movai   0x52             	MOVAI	0x52
000334   84fd     call    0x4fd            	CALL	_key_event_same_deal_ex
                                           ;	.line	1067; "MC32F7361.c"	cur_mechanical_key_sta = 0;
000335   763d     clrr    0x3d             	CLRR	_cur_mechanical_key_sta
                                           ;	.line	1068; "MC32F7361.c"	break;
000336   a3a6     goto    0x3a6            	GOTO	_00258_DS_
                                           _00246_DS_
                                           ;	.line	1070; "MC32F7361.c"	key_event_same_deal(MODE_R4C2_START, MODE_R4C2_END, 0x90F8, 0x90F8);
000337   3cf8     movai   0xf8             	MOVAI	0xf8
000338   5604     movra   0x4              	MOVRA	STK02
000339   3c90     movai   0x90             	MOVAI	0x90
00033a   5605     movra   0x5              	MOVRA	STK01
00033b   3c53     movai   0x53             	MOVAI	0x53
00033c   5606     movra   0x6              	MOVRA	STK00
00033d   3c53     movai   0x53             	MOVAI	0x53
00033e   84fd     call    0x4fd            	CALL	_key_event_same_deal_ex
                                           ;	.line	1071; "MC32F7361.c"	cur_mechanical_key_sta = 0;
00033f   763d     clrr    0x3d             	CLRR	_cur_mechanical_key_sta
                                           ;	.line	1072; "MC32F7361.c"	break;
000340   a3a6     goto    0x3a6            	GOTO	_00258_DS_
                                           _00247_DS_
                                           ;	.line	1074; "MC32F7361.c"	key_event_same_deal(MODE_R4C3_START, MODE_R4C3_END, 0x980F, 0x980F);
000341   3c0f     movai   0xf              	MOVAI	0x0f
000342   5604     movra   0x4              	MOVRA	STK02
000343   3c98     movai   0x98             	MOVAI	0x98
000344   5605     movra   0x5              	MOVRA	STK01
000345   3c54     movai   0x54             	MOVAI	0x54
000346   5606     movra   0x6              	MOVRA	STK00
000347   3c54     movai   0x54             	MOVAI	0x54
000348   84fd     call    0x4fd            	CALL	_key_event_same_deal_ex
                                           ;	.line	1075; "MC32F7361.c"	cur_mechanical_key_sta = 0;
000349   763d     clrr    0x3d             	CLRR	_cur_mechanical_key_sta
                                           ;	.line	1076; "MC32F7361.c"	break;
00034a   a3a6     goto    0x3a6            	GOTO	_00258_DS_
                                           _00248_DS_
                                           ;	.line	1078; "MC32F7361.c"	key_event_same_deal(MODE_R5C1_START, MODE_R5C1_END, 0x9F30, 0x9F30);
00034b   3c30     movai   0x30             	MOVAI	0x30
00034c   5604     movra   0x4              	MOVRA	STK02
00034d   3c9f     movai   0x9f             	MOVAI	0x9f
00034e   5605     movra   0x5              	MOVRA	STK01
00034f   3c55     movai   0x55             	MOVAI	0x55
000350   5606     movra   0x6              	MOVRA	STK00
000351   3c55     movai   0x55             	MOVAI	0x55
000352   84fd     call    0x4fd            	CALL	_key_event_same_deal_ex
                                           ;	.line	1079; "MC32F7361.c"	cur_mechanical_key_sta = 0;
000353   763d     clrr    0x3d             	CLRR	_cur_mechanical_key_sta
                                           ;	.line	1080; "MC32F7361.c"	break;
000354   a3a6     goto    0x3a6            	GOTO	_00258_DS_
                                           _00249_DS_
                                           ;	.line	1082; "MC32F7361.c"	key_event_same_deal(MODE_R5C2_START, MODE_R5C2_END, 0x90FC, 0x90FC);
000355   3cfc     movai   0xfc             	MOVAI	0xfc
000356   5604     movra   0x4              	MOVRA	STK02
000357   3c90     movai   0x90             	MOVAI	0x90
000358   5605     movra   0x5              	MOVRA	STK01
000359   3c56     movai   0x56             	MOVAI	0x56
00035a   5606     movra   0x6              	MOVRA	STK00
00035b   3c56     movai   0x56             	MOVAI	0x56
00035c   84fd     call    0x4fd            	CALL	_key_event_same_deal_ex
                                           ;	.line	1083; "MC32F7361.c"	cur_mechanical_key_sta = 0;
00035d   763d     clrr    0x3d             	CLRR	_cur_mechanical_key_sta
                                           ;	.line	1084; "MC32F7361.c"	break;
00035e   a3a6     goto    0x3a6            	GOTO	_00258_DS_
                                           _00250_DS_
                                           ;	.line	1086; "MC32F7361.c"	key_event_same_deal(MODE_R5C3_START, MODE_R5C3_END, 0x9F0F, 0x9F0F);
00035f   3c0f     movai   0xf              	MOVAI	0x0f
000360   5604     movra   0x4              	MOVRA	STK02
000361   3c9f     movai   0x9f             	MOVAI	0x9f
000362   5605     movra   0x5              	MOVRA	STK01
000363   3c57     movai   0x57             	MOVAI	0x57
000364   5606     movra   0x6              	MOVRA	STK00
000365   3c57     movai   0x57             	MOVAI	0x57
000366   84fd     call    0x4fd            	CALL	_key_event_same_deal_ex
                                           ;	.line	1087; "MC32F7361.c"	cur_mechanical_key_sta = 0;
000367   763d     clrr    0x3d             	CLRR	_cur_mechanical_key_sta
                                           ;	.line	1088; "MC32F7361.c"	break;
000368   a3a6     goto    0x3a6            	GOTO	_00258_DS_
                                           _00251_DS_
                                           ;	.line	1090; "MC32F7361.c"	key_event_same_deal(MODE_R6C1_START, MODE_R6C1_END, 0x9FF0, 0x9FF0);
000369   3cf0     movai   0xf0             	MOVAI	0xf0
00036a   5604     movra   0x4              	MOVRA	STK02
00036b   3c9f     movai   0x9f             	MOVAI	0x9f
00036c   5605     movra   0x5              	MOVRA	STK01
00036d   3c58     movai   0x58             	MOVAI	0x58
00036e   5606     movra   0x6              	MOVRA	STK00
00036f   3c58     movai   0x58             	MOVAI	0x58
000370   84fd     call    0x4fd            	CALL	_key_event_same_deal_ex
                                           ;	.line	1091; "MC32F7361.c"	cur_mechanical_key_sta = 0;
000371   763d     clrr    0x3d             	CLRR	_cur_mechanical_key_sta
                                           ;	.line	1092; "MC32F7361.c"	break;
000372   a3a6     goto    0x3a6            	GOTO	_00258_DS_
                                           _00252_DS_
                                           ;	.line	1094; "MC32F7361.c"	key_event_same_deal(MODE_R6C2_START, MODE_R6C2_END, 0x90FF, 0x90FF);
000373   3cff     movai   0xff             	MOVAI	0xff
000374   5604     movra   0x4              	MOVRA	STK02
000375   3c90     movai   0x90             	MOVAI	0x90
000376   5605     movra   0x5              	MOVRA	STK01
000377   3c59     movai   0x59             	MOVAI	0x59
000378   5606     movra   0x6              	MOVRA	STK00
000379   3c59     movai   0x59             	MOVAI	0x59
00037a   84fd     call    0x4fd            	CALL	_key_event_same_deal_ex
                                           ;	.line	1095; "MC32F7361.c"	cur_mechanical_key_sta = 0;
00037b   763d     clrr    0x3d             	CLRR	_cur_mechanical_key_sta
                                           ;	.line	1096; "MC32F7361.c"	break;
00037c   a3a6     goto    0x3a6            	GOTO	_00258_DS_
                                           _00253_DS_
                                           ;	.line	1098; "MC32F7361.c"	key_event_same_deal(MODE_R6C3_START, MODE_R6C3_END, 0x9F03, 0x9F03);
00037d   3c03     movai   0x3              	MOVAI	0x03
00037e   5604     movra   0x4              	MOVRA	STK02
00037f   3c9f     movai   0x9f             	MOVAI	0x9f
000380   5605     movra   0x5              	MOVRA	STK01
000381   3c5a     movai   0x5a             	MOVAI	0x5a
000382   5606     movra   0x6              	MOVRA	STK00
000383   3c5a     movai   0x5a             	MOVAI	0x5a
000384   84fd     call    0x4fd            	CALL	_key_event_same_deal_ex
                                           ;	.line	1099; "MC32F7361.c"	cur_mechanical_key_sta = 0;
000385   763d     clrr    0x3d             	CLRR	_cur_mechanical_key_sta
                                           ;	.line	1100; "MC32F7361.c"	break;
000386   a3a6     goto    0x3a6            	GOTO	_00258_DS_
                                           _00254_DS_
                                           ;	.line	1103; "MC32F7361.c"	timer_count = 4 * 60 * 60 * 1000;
000387   762c     clrr    0x2c             	CLRR	_timer_count
000388   3cba     movai   0xba             	MOVAI	0xba
000389   562d     movra   0x2d             	MOVRA	(_timer_count + 1)
00038a   3cff     movai   0xff             	MOVAI	0xff
00038b   562e     movra   0x2e             	MOVRA	(_timer_count + 2)
00038c   562f     movra   0x2f             	MOVRA	(_timer_count + 3)
                                           ;	.line	1111; "MC32F7361.c"	key_event_set_timer();
00038d   84ef     call    0x4ef            	CALL	_key_event_set_timer
                                           ;	.line	1113; "MC32F7361.c"	LED_4H_PIN = LED_TIM_PIN_ON;
00038e   d794     bclr    0x194, 0x3       	BCLR	_IOP1bits,3
                                           ;	.line	1114; "MC32F7361.c"	break;
00038f   a3a6     goto    0x3a6            	GOTO	_00258_DS_
                                           _00255_DS_
                                           ;	.line	1116; "MC32F7361.c"	timer_count = 6 * 60 * 60 * 1000;
000390   762c     clrr    0x2c             	CLRR	_timer_count
000391   3c97     movai   0x97             	MOVAI	0x97
000392   562d     movra   0x2d             	MOVRA	(_timer_count + 1)
000393   3cff     movai   0xff             	MOVAI	0xff
000394   562e     movra   0x2e             	MOVRA	(_timer_count + 2)
000395   562f     movra   0x2f             	MOVRA	(_timer_count + 3)
                                           ;	.line	1124; "MC32F7361.c"	key_event_set_timer();
000396   84ef     call    0x4ef            	CALL	_key_event_set_timer
                                           ;	.line	1126; "MC32F7361.c"	LED_6H_PIN = LED_TIM_PIN_ON;
000397   df94     bclr    0x194, 0x7       	BCLR	_IOP1bits,7
                                           ;	.line	1127; "MC32F7361.c"	break;
000398   a3a6     goto    0x3a6            	GOTO	_00258_DS_
                                           _00256_DS_
                                           ;	.line	1129; "MC32F7361.c"	timer_count = 8 * 60 * 60 * 1000;
000399   762c     clrr    0x2c             	CLRR	_timer_count
00039a   3c74     movai   0x74             	MOVAI	0x74
00039b   562d     movra   0x2d             	MOVRA	(_timer_count + 1)
00039c   762e     clrr    0x2e             	CLRR	(_timer_count + 2)
00039d   762f     clrr    0x2f             	CLRR	(_timer_count + 3)
                                           ;	.line	1137; "MC32F7361.c"	key_event_set_timer();
00039e   84ef     call    0x4ef            	CALL	_key_event_set_timer
                                           ;	.line	1139; "MC32F7361.c"	LED_8H_PIN = LED_TIM_PIN_ON;
00039f   d190     bclr    0x190, 0         	BCLR	_IOP0bits,0
                                           ;	.line	1140; "MC32F7361.c"	break;
0003a0   a3a6     goto    0x3a6            	GOTO	_00258_DS_
                                           _00257_DS_
                                           ;	.line	1142; "MC32F7361.c"	timer_count = 0;
0003a1   762c     clrr    0x2c             	CLRR	_timer_count
0003a2   762d     clrr    0x2d             	CLRR	(_timer_count + 1)
0003a3   762e     clrr    0x2e             	CLRR	(_timer_count + 2)
0003a4   762f     clrr    0x2f             	CLRR	(_timer_count + 3)
                                           ;	.line	1150; "MC32F7361.c"	key_event_set_timer();
0003a5   84ef     call    0x4ef            	CALL	_key_event_set_timer
                                           _00258_DS_
                                           ;	.line	1156; "MC32F7361.c"	flag_is_recved_data = 0;
0003a6   d034     bclr    0x34, 0          	BCLR	_flag1,0
                                           _00260_DS_
                                           ;	.line	1160; "MC32F7361.c"	if (power_sta == POWER_STA_ON)
0003a7   583a     movar   0x3a             	MOVAR	_power_sta
0003a8   3902     xorai   0x2              	XORAI	0x02
0003a9   e587     jbset   0x187, 0x2       	JBSET	PFLAG,2
0003aa   a493     goto    0x493            	GOTO	_00296_DS_
                                           ;	.line	1163; "MC32F7361.c"	if (next_frame_delay == 0) // 
0003ab   5830     movar   0x30             	MOVAR	_next_frame_delay
0003ac   5c31     orar    0x31             	ORAR	(_next_frame_delay + 1)
0003ad   e587     jbset   0x187, 0x2       	JBSET	PFLAG,2
0003ae   a135     goto    0x135            	GOTO	_00299_DS_
                                           ;	.line	1165; "MC32F7361.c"	u16 speed_code = 0x00;
0003af   761a     clrr    0x1a             	CLRR	r0x1030
0003b0   761b     clrr    0x1b             	CLRR	r0x102F
                                           ;	.line	1167; "MC32F7361.c"	next_frame_delay = 0xFFFF;
0003b1   3cff     movai   0xff             	MOVAI	0xff
0003b2   5630     movra   0x30             	MOVRA	_next_frame_delay
0003b3   5631     movra   0x31             	MOVRA	(_next_frame_delay + 1)
                                           ;;swapping arguments (AOP_TYPEs 1/3)
                                           ;;unsigned compare: left >= lit(0xA=10), size=1
                                           ;	.line	1169; "MC32F7361.c"	if (current_index >= SECTION_1_START && current_index <= SECTION_1_END) // code
0003b4   3c0a     movai   0xa              	MOVAI	0x0a
0003b5   4837     rsubar  0x37             	RSUBAR	_current_index
0003b6   f187     jbclr   0x187, 0         	JBCLR	PFLAG,0
0003b7   a3dc     goto    0x3dc            	GOTO	_00283_DS_
                                           ;;genSkipc:3291: created from rifx:013B5EFC
                                           ;	.line	1171; "MC32F7361.c"	speed_code = section_1_speed_table[current_speed];       // code
0003b8   583b     movar   0x3b             	MOVAR	_current_speed
0003b9   3fbe     addai   0xbe             	ADDAI	(_section_1_speed_table + 0)
0003ba   561c     movra   0x1c             	MOVRA	r0x1031
0003bb   3c06     movai   0x6              	MOVAI	high (_section_1_speed_table + 0)
0003bc   f187     jbclr   0x187, 0         	JBCLR	PFLAG,0
0003bd   3f01     addai   0x1              	ADDAI	0x01
0003be   561d     movra   0x1d             	MOVRA	r0x1032
0003bf   581c     movar   0x1c             	MOVAR	r0x1031
0003c0   5605     movra   0x5              	MOVRA	STK01
0003c1   581d     movar   0x1d             	MOVAR	r0x1032
0003c2   5606     movra   0x6              	MOVRA	STK00
0003c3   3c80     movai   0x80             	MOVAI	0x80
0003c4   8668     call    0x668            	CALL	__gptrget1
0003c5   561a     movra   0x1a             	MOVRA	r0x1030
0003c6   561e     movra   0x1e             	MOVRA	r0x1033
                                           ;;109	MOVAR	r0x1033
0003c7   761b     clrr    0x1b             	CLRR	r0x102F
                                           ;	.line	1172; "MC32F7361.c"	next_frame_delay = section_1_delay_table[current_speed]; // 
0003c8   d187     bclr    0x187, 0         	BCLR	PFLAG,0
0003c9   503b     rlar    0x3b             	RLAR	_current_speed
0003ca   561c     movra   0x1c             	MOVRA	r0x1031
0003cb   581c     movar   0x1c             	MOVAR	r0x1031
0003cc   3f96     addai   0x96             	ADDAI	(_section_1_delay_table + 0)
0003cd   561c     movra   0x1c             	MOVRA	r0x1031
0003ce   3c06     movai   0x6              	MOVAI	high (_section_1_delay_table + 0)
0003cf   f187     jbclr   0x187, 0         	JBCLR	PFLAG,0
0003d0   3f01     addai   0x1              	ADDAI	0x01
0003d1   561d     movra   0x1d             	MOVRA	r0x1032
0003d2   581c     movar   0x1c             	MOVAR	r0x1031
0003d3   5605     movra   0x5              	MOVRA	STK01
0003d4   581d     movar   0x1d             	MOVAR	r0x1032
0003d5   5606     movra   0x6              	MOVRA	STK00
0003d6   3c80     movai   0x80             	MOVAI	0x80
0003d7   867a     call    0x67a            	CALL	__gptrget2
0003d8   5631     movra   0x31             	MOVRA	(_next_frame_delay + 1)
0003d9   5806     movar   0x6              	MOVAR	STK00
0003da   5630     movra   0x30             	MOVRA	_next_frame_delay
0003db   a470     goto    0x470            	GOTO	_00284_DS_
                                           ;;unsigned compare: left < lit(0xA=10), size=1
                                           _00283_DS_
                                           ;	.line	1176; "MC32F7361.c"	else if (current_index >= SECTION_2_START && current_index <= SECTION_2_END)
0003dc   3c0a     movai   0xa              	MOVAI	0x0a
0003dd   4837     rsubar  0x37             	RSUBAR	_current_index
0003de   e187     jbset   0x187, 0         	JBSET	PFLAG,0
0003df   a3f8     goto    0x3f8            	GOTO	_00279_DS_
                                           ;;genSkipc:3291: created from rifx:013B5EFC
                                           ;;swapping arguments (AOP_TYPEs 1/3)
                                           ;;unsigned compare: left >= lit(0x14=20), size=1
0003e0   3c14     movai   0x14             	MOVAI	0x14
0003e1   4837     rsubar  0x37             	RSUBAR	_current_index
0003e2   f187     jbclr   0x187, 0         	JBCLR	PFLAG,0
0003e3   a3f8     goto    0x3f8            	GOTO	_00279_DS_
                                           ;;genSkipc:3291: created from rifx:013B5EFC
                                           ;	.line	1179; "MC32F7361.c"	next_frame_delay = section_2_delay_table[current_speed];
0003e4   d187     bclr    0x187, 0         	BCLR	PFLAG,0
0003e5   503b     rlar    0x3b             	RLAR	_current_speed
0003e6   561c     movra   0x1c             	MOVRA	r0x1031
0003e7   581c     movar   0x1c             	MOVAR	r0x1031
0003e8   3f9e     addai   0x9e             	ADDAI	(_section_2_delay_table + 0)
0003e9   561c     movra   0x1c             	MOVRA	r0x1031
0003ea   3c06     movai   0x6              	MOVAI	high (_section_2_delay_table + 0)
0003eb   f187     jbclr   0x187, 0         	JBCLR	PFLAG,0
0003ec   3f01     addai   0x1              	ADDAI	0x01
0003ed   561d     movra   0x1d             	MOVRA	r0x1032
0003ee   581c     movar   0x1c             	MOVAR	r0x1031
0003ef   5605     movra   0x5              	MOVRA	STK01
0003f0   581d     movar   0x1d             	MOVAR	r0x1032
0003f1   5606     movra   0x6              	MOVRA	STK00
0003f2   3c80     movai   0x80             	MOVAI	0x80
0003f3   867a     call    0x67a            	CALL	__gptrget2
0003f4   5631     movra   0x31             	MOVRA	(_next_frame_delay + 1)
0003f5   5806     movar   0x6              	MOVAR	STK00
0003f6   5630     movra   0x30             	MOVRA	_next_frame_delay
0003f7   a470     goto    0x470            	GOTO	_00284_DS_
                                           ;;unsigned compare: left < lit(0x14=20), size=1
                                           _00279_DS_
                                           ;	.line	1183; "MC32F7361.c"	else if ((current_index >= SECTION_3_START &&                                  /*current_index <= SECTION_3_END) ||
0003f8   3c14     movai   0x14             	MOVAI	0x14
0003f9   4837     rsubar  0x37             	RSUBAR	_current_index
0003fa   e187     jbset   0x187, 0         	JBSET	PFLAG,0
0003fb   a400     goto    0x400            	GOTO	_00277_DS_
                                           ;;genSkipc:3291: created from rifx:013B5EFC
                                           ;;swapping arguments (AOP_TYPEs 1/3)
                                           ;;unsigned compare: left >= lit(0x1D=29), size=1
0003fc   3c1d     movai   0x1d             	MOVAI	0x1d
0003fd   4837     rsubar  0x37             	RSUBAR	_current_index
0003fe   e187     jbset   0x187, 0         	JBSET	PFLAG,0
0003ff   a408     goto    0x408            	GOTO	_00272_DS_
                                           ;;genSkipc:3291: created from rifx:013B5EFC
                                           ;;unsigned compare: left < lit(0x3B=59), size=1
                                           _00277_DS_
                                           ;	.line	1185; "MC32F7361.c"	(current_index >= SECTION_6_START && current_index <= SECTION_6_END)) // 
000400   3c3b     movai   0x3b             	MOVAI	0x3b
000401   4837     rsubar  0x37             	RSUBAR	_current_index
000402   e187     jbset   0x187, 0         	JBSET	PFLAG,0
000403   a41d     goto    0x41d            	GOTO	_00273_DS_
                                           ;;genSkipc:3291: created from rifx:013B5EFC
                                           ;;swapping arguments (AOP_TYPEs 1/3)
                                           ;;unsigned compare: left >= lit(0x45=69), size=1
000404   3c45     movai   0x45             	MOVAI	0x45
000405   4837     rsubar  0x37             	RSUBAR	_current_index
000406   f187     jbclr   0x187, 0         	JBCLR	PFLAG,0
000407   a41d     goto    0x41d            	GOTO	_00273_DS_
                                           ;;genSkipc:3291: created from rifx:013B5EFC
                                           _00272_DS_
                                           ;	.line	1188; "MC32F7361.c"	speed_code = section_3_speed_table[current_speed];
000408   583b     movar   0x3b             	MOVAR	_current_speed
000409   3fc2     addai   0xc2             	ADDAI	(_section_3_speed_table + 0)
00040a   561c     movra   0x1c             	MOVRA	r0x1031
00040b   3c06     movai   0x6              	MOVAI	high (_section_3_speed_table + 0)
00040c   f187     jbclr   0x187, 0         	JBCLR	PFLAG,0
00040d   3f01     addai   0x1              	ADDAI	0x01
00040e   561d     movra   0x1d             	MOVRA	r0x1032
00040f   581c     movar   0x1c             	MOVAR	r0x1031
000410   5605     movra   0x5              	MOVRA	STK01
000411   581d     movar   0x1d             	MOVAR	r0x1032
000412   5606     movra   0x6              	MOVRA	STK00
000413   3c80     movai   0x80             	MOVAI	0x80
000414   8668     call    0x668            	CALL	__gptrget1
000415   561a     movra   0x1a             	MOVRA	r0x1030
000416   561e     movra   0x1e             	MOVRA	r0x1033
                                           ;;108	MOVAR	r0x1033
000417   761b     clrr    0x1b             	CLRR	r0x102F
                                           ;	.line	1190; "MC32F7361.c"	next_frame_delay = 4960;
000418   3c60     movai   0x60             	MOVAI	0x60
000419   5630     movra   0x30             	MOVRA	_next_frame_delay
00041a   3c13     movai   0x13             	MOVAI	0x13
00041b   5631     movra   0x31             	MOVRA	(_next_frame_delay + 1)
00041c   a470     goto    0x470            	GOTO	_00284_DS_
                                           ;;unsigned compare: left < lit(0x1D=29), size=1
                                           _00273_DS_
                                           ;	.line	1207; "MC32F7361.c"	else if (current_index >= SECTION_5_START && current_index <= SECTION_5_END)
00041d   3c1d     movai   0x1d             	MOVAI	0x1d
00041e   4837     rsubar  0x37             	RSUBAR	_current_index
00041f   e187     jbset   0x187, 0         	JBSET	PFLAG,0
000420   a439     goto    0x439            	GOTO	_00269_DS_
                                           ;;genSkipc:3291: created from rifx:013B5EFC
                                           ;;swapping arguments (AOP_TYPEs 1/3)
                                           ;;unsigned compare: left >= lit(0x3B=59), size=1
000421   3c3b     movai   0x3b             	MOVAI	0x3b
000422   4837     rsubar  0x37             	RSUBAR	_current_index
000423   f187     jbclr   0x187, 0         	JBCLR	PFLAG,0
000424   a439     goto    0x439            	GOTO	_00269_DS_
                                           ;;genSkipc:3291: created from rifx:013B5EFC
                                           ;	.line	1210; "MC32F7361.c"	next_frame_delay = section_5_delay_table[current_speed];
000425   d187     bclr    0x187, 0         	BCLR	PFLAG,0
000426   503b     rlar    0x3b             	RLAR	_current_speed
000427   561c     movra   0x1c             	MOVRA	r0x1031
000428   581c     movar   0x1c             	MOVAR	r0x1031
000429   3fa6     addai   0xa6             	ADDAI	(_section_5_delay_table + 0)
00042a   561c     movra   0x1c             	MOVRA	r0x1031
00042b   3c06     movai   0x6              	MOVAI	high (_section_5_delay_table + 0)
00042c   f187     jbclr   0x187, 0         	JBCLR	PFLAG,0
00042d   3f01     addai   0x1              	ADDAI	0x01
00042e   561d     movra   0x1d             	MOVRA	r0x1032
00042f   581c     movar   0x1c             	MOVAR	r0x1031
000430   5605     movra   0x5              	MOVRA	STK01
000431   581d     movar   0x1d             	MOVAR	r0x1032
000432   5606     movra   0x6              	MOVRA	STK00
000433   3c80     movai   0x80             	MOVAI	0x80
000434   867a     call    0x67a            	CALL	__gptrget2
000435   5631     movra   0x31             	MOVRA	(_next_frame_delay + 1)
000436   5806     movar   0x6              	MOVAR	STK00
000437   5630     movra   0x30             	MOVRA	_next_frame_delay
000438   a470     goto    0x470            	GOTO	_00284_DS_
                                           ;;unsigned compare: left < lit(0x45=69), size=1
                                           _00269_DS_
                                           ;	.line	1222; "MC32F7361.c"	else if (current_index >= SECTION_7_START && current_index <= SECTION_7_END)
000439   3c45     movai   0x45             	MOVAI	0x45
00043a   4837     rsubar  0x37             	RSUBAR	_current_index
00043b   e187     jbset   0x187, 0         	JBSET	PFLAG,0
00043c   a465     goto    0x465            	GOTO	_00265_DS_
                                           ;;genSkipc:3291: created from rifx:013B5EFC
                                           ;;swapping arguments (AOP_TYPEs 1/3)
                                           ;;unsigned compare: left >= lit(0x4B=75), size=1
00043d   3c4b     movai   0x4b             	MOVAI	0x4b
00043e   4837     rsubar  0x37             	RSUBAR	_current_index
00043f   f187     jbclr   0x187, 0         	JBCLR	PFLAG,0
000440   a465     goto    0x465            	GOTO	_00265_DS_
                                           ;;genSkipc:3291: created from rifx:013B5EFC
                                           ;	.line	1224; "MC32F7361.c"	speed_code = section_7_speed_table[current_speed];
000441   583b     movar   0x3b             	MOVAR	_current_speed
000442   3fca     addai   0xca             	ADDAI	(_section_7_speed_table + 0)
000443   561c     movra   0x1c             	MOVRA	r0x1031
000444   3c06     movai   0x6              	MOVAI	high (_section_7_speed_table + 0)
000445   f187     jbclr   0x187, 0         	JBCLR	PFLAG,0
000446   3f01     addai   0x1              	ADDAI	0x01
000447   561d     movra   0x1d             	MOVRA	r0x1032
000448   581c     movar   0x1c             	MOVAR	r0x1031
000449   5605     movra   0x5              	MOVRA	STK01
00044a   581d     movar   0x1d             	MOVAR	r0x1032
00044b   5606     movra   0x6              	MOVRA	STK00
00044c   3c80     movai   0x80             	MOVAI	0x80
00044d   8668     call    0x668            	CALL	__gptrget1
00044e   561a     movra   0x1a             	MOVRA	r0x1030
00044f   561e     movra   0x1e             	MOVRA	r0x1033
                                           ;;107	MOVAR	r0x1033
000450   761b     clrr    0x1b             	CLRR	r0x102F
                                           ;	.line	1225; "MC32F7361.c"	next_frame_delay = section_7_delay_table[current_speed];
000451   d187     bclr    0x187, 0         	BCLR	PFLAG,0
000452   503b     rlar    0x3b             	RLAR	_current_speed
000453   561c     movra   0x1c             	MOVRA	r0x1031
000454   581c     movar   0x1c             	MOVAR	r0x1031
000455   3fae     addai   0xae             	ADDAI	(_section_7_delay_table + 0)
000456   561c     movra   0x1c             	MOVRA	r0x1031
000457   3c06     movai   0x6              	MOVAI	high (_section_7_delay_table + 0)
000458   f187     jbclr   0x187, 0         	JBCLR	PFLAG,0
000459   3f01     addai   0x1              	ADDAI	0x01
00045a   561d     movra   0x1d             	MOVRA	r0x1032
00045b   581c     movar   0x1c             	MOVAR	r0x1031
00045c   5605     movra   0x5              	MOVRA	STK01
00045d   581d     movar   0x1d             	MOVAR	r0x1032
00045e   5606     movra   0x6              	MOVRA	STK00
00045f   3c80     movai   0x80             	MOVAI	0x80
000460   867a     call    0x67a            	CALL	__gptrget2
000461   5631     movra   0x31             	MOVRA	(_next_frame_delay + 1)
000462   5806     movar   0x6              	MOVAR	STK00
000463   5630     movra   0x30             	MOVRA	_next_frame_delay
000464   a470     goto    0x470            	GOTO	_00284_DS_
                                           ;;unsigned compare: left < lit(0x4E=78), size=1
                                           _00265_DS_
                                           ;	.line	1240; "MC32F7361.c"	else if (current_index >= SECTION_9_START && current_index <= SECTION_9_END)
000465   3c4e     movai   0x4e             	MOVAI	0x4e
000466   4837     rsubar  0x37             	RSUBAR	_current_index
000467   e187     jbset   0x187, 0         	JBSET	PFLAG,0
000468   a470     goto    0x470            	GOTO	_00284_DS_
                                           ;;genSkipc:3291: created from rifx:013B5EFC
                                           ;;swapping arguments (AOP_TYPEs 1/3)
                                           ;;unsigned compare: left >= lit(0x5B=91), size=1
000469   3c5b     movai   0x5b             	MOVAI	0x5b
00046a   4837     rsubar  0x37             	RSUBAR	_current_index
00046b   f187     jbclr   0x187, 0         	JBCLR	PFLAG,0
00046c   a470     goto    0x470            	GOTO	_00284_DS_
                                           ;;genSkipc:3291: created from rifx:013B5EFC
                                           ;	.line	1246; "MC32F7361.c"	speed_code = 0x10;
00046d   3c10     movai   0x10             	MOVAI	0x10
00046e   561a     movra   0x1a             	MOVRA	r0x1030
00046f   761b     clrr    0x1b             	CLRR	r0x102F
                                           _00284_DS_
                                           ;	.line	1256; "MC32F7361.c"	speed_code <<= 8;
000470   581a     movar   0x1a             	MOVAR	r0x1030
000471   561d     movra   0x1d             	MOVRA	r0x1032
000472   761c     clrr    0x1c             	CLRR	r0x1031
                                           ;	.line	1257; "MC32F7361.c"	speed_code |= main_table[current_index];
000473   5837     movar   0x37             	MOVAR	_current_index
000474   3f0a     addai   0xa              	ADDAI	(_main_table + 0)
000475   561a     movra   0x1a             	MOVRA	r0x1030
000476   3c06     movai   0x6              	MOVAI	high (_main_table + 0)
000477   f187     jbclr   0x187, 0         	JBCLR	PFLAG,0
000478   3f01     addai   0x1              	ADDAI	0x01
000479   561b     movra   0x1b             	MOVRA	r0x102F
00047a   581a     movar   0x1a             	MOVAR	r0x1030
00047b   5605     movra   0x5              	MOVRA	STK01
00047c   581b     movar   0x1b             	MOVAR	r0x102F
00047d   5606     movra   0x6              	MOVRA	STK00
00047e   3c80     movai   0x80             	MOVAI	0x80
00047f   8668     call    0x668            	CALL	__gptrget1
000480   561a     movra   0x1a             	MOVRA	r0x1030
000481   561e     movra   0x1e             	MOVRA	r0x1033
                                           ;;105	MOVAR	r0x1033
000482   761b     clrr    0x1b             	CLRR	r0x102F
000483   581a     movar   0x1a             	MOVAR	r0x1030
000484   5e1c     orra    0x1c             	ORRA	r0x1031
000485   3c00     movai   0                	MOVAI	0x00
000486   5e1d     orra    0x1d             	ORRA	r0x1032
                                           ;	.line	1258; "MC32F7361.c"	send_cmd_16bit(speed_code);
000487   581c     movar   0x1c             	MOVAR	r0x1031
000488   5606     movra   0x6              	MOVRA	STK00
000489   581d     movar   0x1d             	MOVAR	r0x1032
00048a   857c     call    0x57c            	CALL	_send_cmd_16bit
                                           ;	.line	1260; "MC32F7361.c"	current_index++;
00048b   6637     incr    0x37             	INCR	_current_index
                                           ;	.line	1261; "MC32F7361.c"	if (current_index > end_index)
00048c   5837     movar   0x37             	MOVAR	_current_index
00048d   4839     rsubar  0x39             	RSUBAR	_end_index
00048e   f187     jbclr   0x187, 0         	JBCLR	PFLAG,0
00048f   a135     goto    0x135            	GOTO	_00299_DS_
                                           ;;genSkipc:3291: created from rifx:013B5EFC
                                           ;	.line	1262; "MC32F7361.c"	current_index = start_index;
000490   5838     movar   0x38             	MOVAR	_start_index
000491   5637     movra   0x37             	MOVRA	_current_index
000492   a135     goto    0x135            	GOTO	_00299_DS_
                                           _00296_DS_
                                           ;	.line	1265; "MC32F7361.c"	else if (power_sta == POWER_STA_PRE_ON)
000493   583a     movar   0x3a             	MOVAR	_power_sta
000494   3901     xorai   0x1              	XORAI	0x01
000495   e587     jbset   0x187, 0x2       	JBSET	PFLAG,2
000496   a4d8     goto    0x4d8            	GOTO	_00293_DS_
                                           ;	.line	1268; "MC32F7361.c"	LED_CTL_PIN = 1;
000497   c990     bset    0x190, 0x4       	BSET	_IOP0bits,4
                                           ;	.line	1269; "MC32F7361.c"	delay_ms(2);
000498   3c02     movai   0x2              	MOVAI	0x02
000499   5606     movra   0x6              	MOVRA	STK00
00049a   3c00     movai   0                	MOVAI	0x00
00049b   85ea     call    0x5ea            	CALL	_delay_ms
                                           ;	.line	1270; "MC32F7361.c"	LED_CTL_PIN = 0;
00049c   d990     bclr    0x190, 0x4       	BCLR	_IOP0bits,4
                                           ;	.line	1273; "MC32F7361.c"	delay_200us();
00049d   3c02     movai   0x2              	MOVAI	0x02
00049e   85d9     call    0x5d9            	CALL	_delay_100xus
                                           ;	.line	1274; "MC32F7361.c"	LED_CTL_PIN = 1;
00049f   c990     bset    0x190, 0x4       	BSET	_IOP0bits,4
                                           ;	.line	1275; "MC32F7361.c"	delay_ms(3);
0004a0   3c03     movai   0x3              	MOVAI	0x03
0004a1   5606     movra   0x6              	MOVRA	STK00
0004a2   3c00     movai   0                	MOVAI	0x00
0004a3   85ea     call    0x5ea            	CALL	_delay_ms
                                           ;	.line	1276; "MC32F7361.c"	LED_CTL_PIN = 0;
0004a4   d990     bclr    0x190, 0x4       	BCLR	_IOP0bits,4
                                           ;	.line	1279; "MC32F7361.c"	delay_200us();
0004a5   3c02     movai   0x2              	MOVAI	0x02
0004a6   85d9     call    0x5d9            	CALL	_delay_100xus
                                           ;	.line	1280; "MC32F7361.c"	LED_CTL_PIN = 1;
0004a7   c990     bset    0x190, 0x4       	BSET	_IOP0bits,4
                                           ;	.line	1281; "MC32F7361.c"	delay_ms(4);
0004a8   3c04     movai   0x4              	MOVAI	0x04
0004a9   5606     movra   0x6              	MOVRA	STK00
0004aa   3c00     movai   0                	MOVAI	0x00
0004ab   85ea     call    0x5ea            	CALL	_delay_ms
                                           ;	.line	1282; "MC32F7361.c"	LED_CTL_PIN = 0;
0004ac   d990     bclr    0x190, 0x4       	BCLR	_IOP0bits,4
                                           ;	.line	1285; "MC32F7361.c"	delay_200us();
0004ad   3c02     movai   0x2              	MOVAI	0x02
0004ae   85d9     call    0x5d9            	CALL	_delay_100xus
                                           ;	.line	1286; "MC32F7361.c"	LED_CTL_PIN = 1;
0004af   c990     bset    0x190, 0x4       	BSET	_IOP0bits,4
                                           ;	.line	1287; "MC32F7361.c"	delay_ms(5);
0004b0   3c05     movai   0x5              	MOVAI	0x05
0004b1   5606     movra   0x6              	MOVRA	STK00
0004b2   3c00     movai   0                	MOVAI	0x00
0004b3   85ea     call    0x5ea            	CALL	_delay_ms
                                           ;	.line	1288; "MC32F7361.c"	LED_CTL_PIN = 0;
0004b4   d990     bclr    0x190, 0x4       	BCLR	_IOP0bits,4
                                           ;	.line	1291; "MC32F7361.c"	delay_200us();
0004b5   3c02     movai   0x2              	MOVAI	0x02
0004b6   85d9     call    0x5d9            	CALL	_delay_100xus
                                           ;	.line	1292; "MC32F7361.c"	LED_CTL_PIN = 1;
0004b7   c990     bset    0x190, 0x4       	BSET	_IOP0bits,4
                                           ;	.line	1293; "MC32F7361.c"	delay_ms(51);
0004b8   3c33     movai   0x33             	MOVAI	0x33
0004b9   5606     movra   0x6              	MOVRA	STK00
0004ba   3c00     movai   0                	MOVAI	0x00
0004bb   85ea     call    0x5ea            	CALL	_delay_ms
                                           ;	.line	1295; "MC32F7361.c"	power_sta = POWER_STA_ON;
0004bc   3c02     movai   0x2              	MOVAI	0x02
0004bd   563a     movra   0x3a             	MOVRA	_power_sta
                                           ;	.line	1298; "MC32F7361.c"	key_event_same_deal(EEPROM_Read_Byte(0), EEPROM_Read_Byte(1), EEPROM_Read_Byte(2), EEPROM_Read_Byte(2));
0004be   3c00     movai   0                	MOVAI	0x00
0004bf   85ab     call    0x5ab            	CALL	_EEPROM_Read_Byte
0004c0   561b     movra   0x1b             	MOVRA	r0x102F
0004c1   5806     movar   0x6              	MOVAR	STK00
0004c2   561c     movra   0x1c             	MOVRA	r0x1031
0004c3   561a     movra   0x1a             	MOVRA	r0x1030
                                           ;;106	MOVAR	r0x1030
0004c4   3c01     movai   0x1              	MOVAI	0x01
0004c5   85ab     call    0x5ab            	CALL	_EEPROM_Read_Byte
0004c6   561b     movra   0x1b             	MOVRA	r0x102F
0004c7   5806     movar   0x6              	MOVAR	STK00
0004c8   561d     movra   0x1d             	MOVRA	r0x1032
0004c9   561a     movra   0x1a             	MOVRA	r0x1030
                                           ;;104	MOVAR	r0x1030
0004ca   3c02     movai   0x2              	MOVAI	0x02
0004cb   85ab     call    0x5ab            	CALL	_EEPROM_Read_Byte
0004cc   561b     movra   0x1b             	MOVRA	r0x102F
0004cd   5806     movar   0x6              	MOVAR	STK00
0004ce   561a     movra   0x1a             	MOVRA	r0x1030
0004cf   581a     movar   0x1a             	MOVAR	r0x1030
0004d0   5604     movra   0x4              	MOVRA	STK02
0004d1   581b     movar   0x1b             	MOVAR	r0x102F
0004d2   5605     movra   0x5              	MOVRA	STK01
0004d3   581d     movar   0x1d             	MOVAR	r0x1032
0004d4   5606     movra   0x6              	MOVRA	STK00
0004d5   581c     movar   0x1c             	MOVAR	r0x1031
0004d6   84fd     call    0x4fd            	CALL	_key_event_same_deal_ex
0004d7   a135     goto    0x135            	GOTO	_00299_DS_
                                           _00293_DS_
                                           ;	.line	1302; "MC32F7361.c"	else if (power_sta == POWER_STA_PRE_OFF)
0004d8   583a     movar   0x3a             	MOVAR	_power_sta
0004d9   3903     xorai   0x3              	XORAI	0x03
0004da   e587     jbset   0x187, 0x2       	JBSET	PFLAG,2
0004db   a135     goto    0x135            	GOTO	_00299_DS_
                                           ;	.line	1304; "MC32F7361.c"	power_sta = POWER_STA_OFF;
0004dc   763a     clrr    0x3a             	CLRR	_power_sta
                                           ;	.line	1306; "MC32F7361.c"	send_cmd_16bit(0x0C00);
0004dd   3c00     movai   0                	MOVAI	0x00
0004de   5606     movra   0x6              	MOVRA	STK00
0004df   3c0c     movai   0xc              	MOVAI	0x0c
0004e0   857c     call    0x57c            	CALL	_send_cmd_16bit
                                           ;	.line	1307; "MC32F7361.c"	send_cmd_16bit(0x0C00);
0004e1   3c00     movai   0                	MOVAI	0x00
0004e2   5606     movra   0x6              	MOVRA	STK00
0004e3   3c0c     movai   0xc              	MOVAI	0x0c
0004e4   857c     call    0x57c            	CALL	_send_cmd_16bit
                                           ;	.line	1308; "MC32F7361.c"	delay_ms(40);
0004e5   3c28     movai   0x28             	MOVAI	0x28
0004e6   5606     movra   0x6              	MOVRA	STK00
0004e7   3c00     movai   0                	MOVAI	0x00
0004e8   85ea     call    0x5ea            	CALL	_delay_ms
                                           ;	.line	1309; "MC32F7361.c"	LED_CTL_PIN = 0;
0004e9   d990     bclr    0x190, 0x4       	BCLR	_IOP0bits,4
                                           ;	.line	1310; "MC32F7361.c"	LED_4H_PIN = LED_TIM_PIN_OFF;
0004ea   c794     bset    0x194, 0x3       	BSET	_IOP1bits,3
                                           ;	.line	1311; "MC32F7361.c"	LED_6H_PIN = LED_TIM_PIN_OFF;
0004eb   cf94     bset    0x194, 0x7       	BSET	_IOP1bits,7
                                           ;	.line	1312; "MC32F7361.c"	LED_8H_PIN = LED_TIM_PIN_OFF;
0004ec   c190     bset    0x190, 0         	BSET	_IOP0bits,0
0004ed   a135     goto    0x135            	GOTO	_00299_DS_
                                           ;	.line	1315; "MC32F7361.c"	}
0004ee   000c     return                   	RETURN	
                                           ; exit point of _main
                                           
                                           ;***
                                           ;  pBlock Stats: dbName = C
                                           ;***
                                           ;entry:  _key_event_set_timer	;Function start
                                           ; 2 exit points
                                           ;has an exit
                                           ;functions called:
                                           ;   _key_event_same_deal_ex
                                           ;   _key_event_same_deal_ex
                                           ;5 compiler assigned registers:
                                           ;   r0x102D
                                           ;   r0x102E
                                           ;   STK02
                                           ;   STK01
                                           ;   STK00
                                           ;; Starting pCode block
                                           _key_event_set_timer	;Function start
                                           ; 2 exit points
                                           ;	.line	719; "MC32F7361.c"	key_event_same_deal(eeprom_read_byte_index_0, eeprom_read_byte_index_1, eeprom_read_byte_index_2, eeprom_read_byte_index_3);
0004ef   5840     movar   0x40             	MOVAR	_eeprom_read_byte_index_2
0004f0   5619     movra   0x19             	MOVRA	r0x102D
                                           ;;1	CLRR	r0x102E
0004f1   5819     movar   0x19             	MOVAR	r0x102D
0004f2   5604     movra   0x4              	MOVRA	STK02
0004f3   3c00     movai   0                	MOVAI	0x00
0004f4   5605     movra   0x5              	MOVRA	STK01
0004f5   583f     movar   0x3f             	MOVAR	_eeprom_read_byte_index_1
0004f6   5606     movra   0x6              	MOVRA	STK00
0004f7   583e     movar   0x3e             	MOVAR	_eeprom_read_byte_index_0
0004f8   84fd     call    0x4fd            	CALL	_key_event_same_deal_ex
                                           ;	.line	721; "MC32F7361.c"	LED_4H_PIN = LED_TIM_PIN_OFF;
0004f9   c794     bset    0x194, 0x3       	BSET	_IOP1bits,3
                                           ;	.line	722; "MC32F7361.c"	LED_6H_PIN = LED_TIM_PIN_OFF;
0004fa   cf94     bset    0x194, 0x7       	BSET	_IOP1bits,7
                                           ;	.line	723; "MC32F7361.c"	LED_8H_PIN = LED_TIM_PIN_OFF;
0004fb   c190     bset    0x190, 0         	BSET	_IOP0bits,0
                                           ;	.line	729; "MC32F7361.c"	}
0004fc   000c     return                   	RETURN	
                                           ; exit point of _key_event_set_timer
                                           
                                           ;***
                                           ;  pBlock Stats: dbName = C
                                           ;***
                                           ;entry:  _key_event_same_deal_ex	;Function start
                                           ; 2 exit points
                                           ;has an exit
                                           ;functions called:
                                           ;   _EEPROM_Write_Byte
                                           ;   _EEPROM_Write_Byte
                                           ;   _EEPROM_Write_Byte
                                           ;   _EEPROM_Write_Byte
                                           ;   _send_cmd_16bit
                                           ;   _send_cmd_16bit
                                           ;   _send_cmd_16bit
                                           ;   _EEPROM_Write_Byte
                                           ;   _EEPROM_Write_Byte
                                           ;   _EEPROM_Write_Byte
                                           ;   _EEPROM_Write_Byte
                                           ;   _send_cmd_16bit
                                           ;   _send_cmd_16bit
                                           ;   _send_cmd_16bit
                                           ;9 compiler assigned registers:
                                           ;   r0x1027
                                           ;   STK00
                                           ;   r0x1028
                                           ;   STK01
                                           ;   r0x1029
                                           ;   STK02
                                           ;   r0x102A
                                           ;   r0x102B
                                           ;   r0x102C
                                           ;; Starting pCode block
                                           _key_event_same_deal_ex	;Function start
                                           ; 2 exit points
0004fd   5617     movra   0x17             	MOVRA	r0x102B
                                           ;	.line	665; "MC32F7361.c"	void key_event_same_deal_ex(u8 start, u8 end, u16 own_data1)
0004fe   5613     movra   0x13             	MOVRA	r0x1027
0004ff   5806     movar   0x6              	MOVAR	STK00
000500   5614     movra   0x14             	MOVRA	r0x1028
000501   5805     movar   0x5              	MOVAR	STK01
000502   5616     movra   0x16             	MOVRA	r0x1029
000503   5804     movar   0x4              	MOVAR	STK02
000504   5615     movra   0x15             	MOVRA	r0x102A
                                           ;;101	MOVAR	r0x1027
                                           ;	.line	668; "MC32F7361.c"	EEPROM_Write_Byte(0, start);
000505   7618     clrr    0x18             	CLRR	r0x102C
000506   5817     movar   0x17             	MOVAR	r0x102B
000507   5605     movra   0x5              	MOVRA	STK01
000508   3c00     movai   0                	MOVAI	0x00
000509   5606     movra   0x6              	MOVRA	STK00
00050a   3c00     movai   0                	MOVAI	0x00
00050b   85c2     call    0x5c2            	CALL	_EEPROM_Write_Byte
                                           ;;103	MOVAR	r0x1028
                                           ;	.line	669; "MC32F7361.c"	EEPROM_Write_Byte(1, end);
00050c   7618     clrr    0x18             	CLRR	r0x102C
                                           ;;102	MOVAR	r0x102B
00050d   5814     movar   0x14             	MOVAR	r0x1028
00050e   5617     movra   0x17             	MOVRA	r0x102B
00050f   5605     movra   0x5              	MOVRA	STK01
000510   3c00     movai   0                	MOVAI	0x00
000511   5606     movra   0x6              	MOVRA	STK00
000512   3c01     movai   0x1              	MOVAI	0x01
000513   85c2     call    0x5c2            	CALL	_EEPROM_Write_Byte
                                           ;	.line	670; "MC32F7361.c"	EEPROM_Write_Byte(2, own_data1);
000514   5815     movar   0x15             	MOVAR	r0x102A
000515   5605     movra   0x5              	MOVRA	STK01
000516   5816     movar   0x16             	MOVAR	r0x1029
000517   5606     movra   0x6              	MOVRA	STK00
000518   3c02     movai   0x2              	MOVAI	0x02
000519   85c2     call    0x5c2            	CALL	_EEPROM_Write_Byte
                                           ;	.line	672; "MC32F7361.c"	EEPROM_Write_Byte(4, 0xA5A5);
00051a   3ca5     movai   0xa5             	MOVAI	0xa5
00051b   5605     movra   0x5              	MOVRA	STK01
00051c   3ca5     movai   0xa5             	MOVAI	0xa5
00051d   5606     movra   0x6              	MOVRA	STK00
00051e   3c04     movai   0x4              	MOVAI	0x04
00051f   85c2     call    0x5c2            	CALL	_EEPROM_Write_Byte
                                           ;	.line	674; "MC32F7361.c"	eeprom_read_byte_index_0 = start;
000520   5813     movar   0x13             	MOVAR	r0x1027
000521   563e     movra   0x3e             	MOVRA	_eeprom_read_byte_index_0
                                           ;	.line	675; "MC32F7361.c"	eeprom_read_byte_index_1 = end;
000522   5814     movar   0x14             	MOVAR	r0x1028
000523   563f     movra   0x3f             	MOVRA	_eeprom_read_byte_index_1
                                           ;	.line	676; "MC32F7361.c"	eeprom_read_byte_index_2 = own_data1;
000524   5815     movar   0x15             	MOVAR	r0x102A
000525   5640     movra   0x40             	MOVRA	_eeprom_read_byte_index_2
                                           ;	.line	679; "MC32F7361.c"	if (power_sta == POWER_STA_ON)
000526   583a     movar   0x3a             	MOVAR	_power_sta
000527   3902     xorai   0x2              	XORAI	0x02
000528   e587     jbset   0x187, 0x2       	JBSET	PFLAG,2
000529   a548     goto    0x548            	GOTO	_00176_DS_
                                           ;	.line	681; "MC32F7361.c"	start_index = start;
00052a   5813     movar   0x13             	MOVAR	r0x1027
00052b   5638     movra   0x38             	MOVRA	_start_index
                                           ;	.line	682; "MC32F7361.c"	end_index = end;
00052c   5814     movar   0x14             	MOVAR	r0x1028
00052d   5639     movra   0x39             	MOVRA	_end_index
                                           ;	.line	691; "MC32F7361.c"	send_cmd_16bit(0x0C00);
00052e   3c00     movai   0                	MOVAI	0x00
00052f   5606     movra   0x6              	MOVRA	STK00
000530   3c0c     movai   0xc              	MOVAI	0x0c
000531   857c     call    0x57c            	CALL	_send_cmd_16bit
                                           ;	.line	696; "MC32F7361.c"	if (own_data1 != 0xFFFF)
000532   5815     movar   0x15             	MOVAR	r0x102A
000533   39ff     xorai   0xff             	XORAI	0xff
000534   e587     jbset   0x187, 0x2       	JBSET	PFLAG,2
000535   a53b     goto    0x53b            	GOTO	_00192_DS_
000536   5816     movar   0x16             	MOVAR	r0x1029
000537   39ff     xorai   0xff             	XORAI	0xff
000538   e587     jbset   0x187, 0x2       	JBSET	PFLAG,2
000539   a53b     goto    0x53b            	GOTO	_00192_DS_
00053a   a543     goto    0x543            	GOTO	_00172_DS_
                                           _00192_DS_
                                           ;	.line	698; "MC32F7361.c"	send_cmd_16bit(own_data1);
00053b   5815     movar   0x15             	MOVAR	r0x102A
00053c   5606     movra   0x6              	MOVRA	STK00
00053d   5816     movar   0x16             	MOVAR	r0x1029
00053e   857c     call    0x57c            	CALL	_send_cmd_16bit
                                           ;	.line	699; "MC32F7361.c"	send_cmd_16bit(own_data1);
00053f   5815     movar   0x15             	MOVAR	r0x102A
000540   5606     movra   0x6              	MOVRA	STK00
000541   5816     movar   0x16             	MOVAR	r0x1029
000542   857c     call    0x57c            	CALL	_send_cmd_16bit
                                           _00172_DS_
                                           ;	.line	702; "MC32F7361.c"	current_index = start_index; // 
000543   5838     movar   0x38             	MOVAR	_start_index
000544   5637     movra   0x37             	MOVRA	_current_index
                                           ;	.line	703; "MC32F7361.c"	next_frame_delay = 0;        // 
000545   7630     clrr    0x30             	CLRR	_next_frame_delay
000546   7631     clrr    0x31             	CLRR	(_next_frame_delay + 1)
000547   a54e     goto    0x54e            	GOTO	_00178_DS_
                                           _00176_DS_
                                           ;	.line	705; "MC32F7361.c"	else if (power_sta == POWER_STA_OFF)
000548   3c00     movai   0                	MOVAI	0x00
000549   5c3a     orar    0x3a             	ORAR	_power_sta
00054a   e587     jbset   0x187, 0x2       	JBSET	PFLAG,2
00054b   a54e     goto    0x54e            	GOTO	_00178_DS_
                                           ;	.line	713; "MC32F7361.c"	power_sta = POWER_STA_PRE_ON;
00054c   3c01     movai   0x1              	MOVAI	0x01
00054d   563a     movra   0x3a             	MOVRA	_power_sta
                                           _00178_DS_
                                           ;	.line	715; "MC32F7361.c"	}
00054e   000c     return                   	RETURN	
                                           ; exit point of _key_event_same_deal_ex
                                           
                                           ;***
                                           ;  pBlock Stats: dbName = C
                                           ;***
                                           ;entry:  _Sys_Init	;Function start
                                           ; 2 exit points
                                           ;has an exit
                                           ;; Starting pCode block
                                           _Sys_Init	;Function start
                                           ; 2 exit points
                                           ;	.line	275; "MC32F7361.c"	GIE = 0;
00054f   df88     bclr    0x188, 0x7       	BCLR	_MCRbits,7
                                           ;	.line	278; "MC32F7361.c"	for (FSR0 = 0; FSR0 < 0xff; FSR0++)
000550   7784     clrr    0x184            	CLRR	_FSR0
                                           ;;unsigned compare: left < lit(0xFF=255), size=1
                                           _00166_DS_
000551   3cff     movai   0xff             	MOVAI	0xff
000552   4984     rsubar  0x184            	RSUBAR	_FSR0
000553   f187     jbclr   0x187, 0         	JBCLR	PFLAG,0
000554   a558     goto    0x558            	GOTO	_00164_DS_
                                           ;;genSkipc:3291: created from rifx:013B5EFC
                                           ;	.line	280; "MC32F7361.c"	INDF0 = 0x00;
000555   7780     clrr    0x180            	CLRR	_INDF0
                                           ;	.line	278; "MC32F7361.c"	for (FSR0 = 0; FSR0 < 0xff; FSR0++)
000556   6784     incr    0x184            	INCR	_FSR0
000557   a551     goto    0x551            	GOTO	_00166_DS_
                                           _00164_DS_
                                           ;	.line	282; "MC32F7361.c"	FSR0 = 0xFF;
000558   3cff     movai   0xff             	MOVAI	0xff
000559   5784     movra   0x184            	MOVRA	_FSR0
                                           ;	.line	283; "MC32F7361.c"	INDF0 = 0x00;
00055a   7780     clrr    0x180            	CLRR	_INDF0
                                           ;	.line	287; "MC32F7361.c"	IOP0 = 0x00;   // io
00055b   7790     clrr    0x190            	CLRR	_IOP0
                                           ;	.line	288; "MC32F7361.c"	OEP0 = 0x3F;   // io 1:out  0:in
00055c   3c3f     movai   0x3f             	MOVAI	0x3f
00055d   5791     movra   0x191            	MOVRA	_OEP0
                                           ;	.line	289; "MC32F7361.c"	PUP0 = 0x00;   // io   1:enable  0:disable
00055e   7792     clrr    0x192            	CLRR	_PUP0
                                           ;	.line	290; "MC32F7361.c"	PDP0 = 0x00;   // io   1:enable  0:disable
00055f   7793     clrr    0x193            	CLRR	_PDP0
                                           ;	.line	291; "MC32F7361.c"	P0ADCR = 0x00; // io  1:  0:io
000560   77b6     clrr    0x1b6            	CLRR	_P0ADCR
                                           ;	.line	293; "MC32F7361.c"	IOP1 = 0x00;   // io
000561   7794     clrr    0x194            	CLRR	_IOP1
                                           ;	.line	294; "MC32F7361.c"	OEP1 = 0xFF;   // io 1:out  0:in
000562   3cff     movai   0xff             	MOVAI	0xff
000563   5795     movra   0x195            	MOVRA	_OEP1
                                           ;	.line	295; "MC32F7361.c"	PUP1 = 0x00;   // io   1:enable  0:disable
000564   7796     clrr    0x196            	CLRR	_PUP1
                                           ;	.line	296; "MC32F7361.c"	PDP1 = 0x00;   // io   1:enable  0:disable
000565   7797     clrr    0x197            	CLRR	_PDP1
                                           ;	.line	297; "MC32F7361.c"	P1ADCR = 0x00; // io  1:  0:io
000566   77b7     clrr    0x1b7            	CLRR	_P1ADCR
                                           ;	.line	299; "MC32F7361.c"	IOP2 = 0x00; // io
000567   77b8     clrr    0x1b8            	CLRR	_IOP2
                                           ;	.line	300; "MC32F7361.c"	OEP2 = 0x0F; // io 1:out  0:in
000568   3c0f     movai   0xf              	MOVAI	0x0f
000569   57b9     movra   0x1b9            	MOVRA	_OEP2
                                           ;	.line	301; "MC32F7361.c"	PUP2 = 0x00; // io   1:enable  0:disable
00056a   77ba     clrr    0x1ba            	CLRR	_PUP2
                                           ;	.line	302; "MC32F7361.c"	PDP2 = 0x00; // io   1:enable  0:disablea
00056b   77bb     clrr    0x1bb            	CLRR	_PDP2
                                           ;	.line	304; "MC32F7361.c"	PMOD = 0x00;  // P00P01P13 io
00056c   77bc     clrr    0x1bc            	CLRR	_PMOD
                                           ;	.line	305; "MC32F7361.c"	DRVCR = 0x80; // 
00056d   3c80     movai   0x80             	MOVAI	0x80
00056e   578c     movra   0x18c            	MOVRA	_DRVCR
                                           ;	.line	311; "MC32F7361.c"	T2CR = DEF_SET_BIT0 | DEF_SET_BIT1; // CPU,8
00056f   3c03     movai   0x3              	MOVAI	0x03
000570   57a0     movra   0x1a0            	MOVRA	_T2CR
                                           ;	.line	312; "MC32F7361.c"	T2CNT = 100 - 1;
000571   3c63     movai   0x63             	MOVAI	0x63
000572   57a1     movra   0x1a1            	MOVRA	_T2CNT
                                           ;	.line	313; "MC32F7361.c"	T2LOAD = 100 - 1; // 100us
000573   3c63     movai   0x63             	MOVAI	0x63
000574   57a2     movra   0x1a2            	MOVRA	_T2LOAD
                                           ;	.line	314; "MC32F7361.c"	T2EN = 1;
000575   cfa0     bset    0x1a0, 0x7       	BSET	_T2CRbits,7
                                           ;	.line	315; "MC32F7361.c"	T2IE = 1;
000576   cb8a     bset    0x18a, 0x5       	BSET	_INTEbits,5
                                           ;	.line	319; "MC32F7361.c"	LED_4H_PIN = LED_TIM_PIN_OFF;
000577   c794     bset    0x194, 0x3       	BSET	_IOP1bits,3
                                           ;	.line	320; "MC32F7361.c"	LED_6H_PIN = LED_TIM_PIN_OFF;
000578   cf94     bset    0x194, 0x7       	BSET	_IOP1bits,7
                                           ;	.line	321; "MC32F7361.c"	LED_8H_PIN = LED_TIM_PIN_OFF;
000579   c190     bset    0x190, 0         	BSET	_IOP0bits,0
                                           ;	.line	322; "MC32F7361.c"	GIE = 1;
00057a   cf88     bset    0x188, 0x7       	BSET	_MCRbits,7
                                           ;	.line	323; "MC32F7361.c"	}
00057b   000c     return                   	RETURN	
                                           ; exit point of _Sys_Init
                                           
                                           ;***
                                           ;  pBlock Stats: dbName = C
                                           ;***
                                           ;entry:  _send_cmd_16bit	;Function start
                                           ; 2 exit points
                                           ;has an exit
                                           ;functions called:
                                           ;   _delay_100xus
                                           ;   _delay_ms
                                           ;   _delay_100xus
                                           ;   _delay_100xus
                                           ;   _delay_ms
                                           ;   _delay_100xus
                                           ;   _delay_ms
                                           ;   _delay_100xus
                                           ;   _delay_100xus
                                           ;   _delay_ms
                                           ;7 compiler assigned registers:
                                           ;   r0x1021
                                           ;   STK00
                                           ;   r0x1022
                                           ;   r0x1023
                                           ;   r0x1024
                                           ;   r0x1025
                                           ;   r0x1026
                                           ;; Starting pCode block
                                           _send_cmd_16bit	;Function start
                                           ; 2 exit points
                                           ;	.line	140; "MC32F7361.c"	void send_cmd_16bit(const u16 data)
00057c   560e     movra   0xe              	MOVRA	r0x1021
00057d   5806     movar   0x6              	MOVAR	STK00
00057e   560d     movra   0xd              	MOVRA	r0x1022
                                           ;	.line	149; "MC32F7361.c"	for (i = 0; i < 16; i++)
00057f   760f     clrr    0xf              	CLRR	r0x1023
                                           _00141_DS_
                                           ;	.line	151; "MC32F7361.c"	LED_CTL_PIN = 0;
000580   d990     bclr    0x190, 0x4       	BCLR	_IOP0bits,4
                                           ;	.line	152; "MC32F7361.c"	delay_100us();
000581   3c01     movai   0x1              	MOVAI	0x01
000582   85d9     call    0x5d9            	CALL	_delay_100xus
                                           ;	.line	153; "MC32F7361.c"	LED_CTL_PIN = 1;
000583   c990     bset    0x190, 0x4       	BSET	_IOP0bits,4
                                           ;	.line	154; "MC32F7361.c"	if ((data >> (15 - i)) & 0x01) // 1
000584   580f     movar   0xf              	MOVAR	r0x1023
000585   3a0f     isubai  0xf              	ISUBAI	0x0f
000586   5610     movra   0x10             	MOVRA	r0x1024
000587   580e     movar   0xe              	MOVAR	r0x1021
000588   5612     movra   0x12             	MOVRA	r0x1025
000589   580d     movar   0xd              	MOVAR	r0x1022
00058a   5611     movra   0x11             	MOVRA	r0x1026
00058b   5810     movar   0x10             	MOVAR	r0x1024
00058c   3a00     isubai  0                	ISUBAI	0x00
00058d   f587     jbclr   0x187, 0x2       	JBCLR	PFLAG,2
00058e   a594     goto    0x594            	GOTO	_00159_DS_
                                           _00158_DS_
00058f   4e12     rrr     0x12             	RRR	r0x1025
000590   4e11     rrr     0x11             	RRR	r0x1026
000591   3f01     addai   0x1              	ADDAI	0x01
000592   e187     jbset   0x187, 0         	JBSET	PFLAG,0
000593   a58f     goto    0x58f            	GOTO	_00158_DS_
                                           _00159_DS_
000594   e011     jbset   0x11, 0          	JBSET	r0x1026,0
000595   a59b     goto    0x59b            	GOTO	_00138_DS_
                                           ;	.line	156; "MC32F7361.c"	delay_ms(3);
000596   3c03     movai   0x3              	MOVAI	0x03
000597   5606     movra   0x6              	MOVRA	STK00
000598   3c00     movai   0                	MOVAI	0x00
000599   85ea     call    0x5ea            	CALL	_delay_ms
00059a   a59d     goto    0x59d            	GOTO	_00142_DS_
                                           _00138_DS_
                                           ;	.line	160; "MC32F7361.c"	delay_1_4ms();
00059b   3c0e     movai   0xe              	MOVAI	0x0e
00059c   85d9     call    0x5d9            	CALL	_delay_100xus
                                           _00142_DS_
                                           ;	.line	149; "MC32F7361.c"	for (i = 0; i < 16; i++)
00059d   660f     incr    0xf              	INCR	r0x1023
                                           ;;unsigned compare: left < lit(0x10=16), size=1
00059e   3c10     movai   0x10             	MOVAI	0x10
00059f   480f     rsubar  0xf              	RSUBAR	r0x1023
0005a0   e187     jbset   0x187, 0         	JBSET	PFLAG,0
0005a1   a580     goto    0x580            	GOTO	_00141_DS_
                                           ;;genSkipc:3291: created from rifx:013B5EFC
                                           ;	.line	164; "MC32F7361.c"	LED_CTL_PIN = 0;
0005a2   d990     bclr    0x190, 0x4       	BCLR	_IOP0bits,4
                                           ;	.line	165; "MC32F7361.c"	delay_100us();
0005a3   3c01     movai   0x1              	MOVAI	0x01
0005a4   85d9     call    0x5d9            	CALL	_delay_100xus
                                           ;	.line	166; "MC32F7361.c"	LED_CTL_PIN = 1;
0005a5   c990     bset    0x190, 0x4       	BSET	_IOP0bits,4
                                           ;	.line	167; "MC32F7361.c"	delay_ms(33);
0005a6   3c21     movai   0x21             	MOVAI	0x21
0005a7   5606     movra   0x6              	MOVRA	STK00
0005a8   3c00     movai   0                	MOVAI	0x00
0005a9   85ea     call    0x5ea            	CALL	_delay_ms
                                           ;	.line	169; "MC32F7361.c"	}
0005aa   000c     return                   	RETURN	
                                           ; exit point of _send_cmd_16bit
                                           
                                           ;***
                                           ;  pBlock Stats: dbName = C
                                           ;***
                                           ;entry:  _EEPROM_Read_Byte	;Function start
                                           ; 2 exit points
                                           ;has an exit
                                           ;5 compiler assigned registers:
                                           ;   r0x101B
                                           ;   r0x101C
                                           ;   r0x101D
                                           ;   r0x101E
                                           ;   STK00
                                           ;; Starting pCode block
                                           _EEPROM_Read_Byte	;Function start
                                           ; 2 exit points
                                           ;	.line	110; "MC32F7361.c"	uint16_t EEPROM_Read_Byte(u8 addr)
0005ab   57c5     movra   0x1c5            	MOVRA	_EEAR
                                           ;	.line	114; "MC32F7361.c"	EECR = 0x02; //  EE 
0005ac   3c02     movai   0x2              	MOVAI	0x02
0005ad   57c3     movra   0x1c3            	MOVRA	_EECR
                                           ;	.line	115; "MC32F7361.c"	Nop();
0005ae   0000     nop                      	nop	
                                           ;	.line	116; "MC32F7361.c"	Nop();
0005af   0000     nop                      	nop	
                                           _00132_DS_
                                           ;	.line	117; "MC32F7361.c"	while (EEREAD) //  EE 
0005b0   f3c3     jbclr   0x1c3, 0x1       	JBCLR	_EECRbits,1
0005b1   a5b0     goto    0x5b0            	GOTO	_00132_DS_
                                           ;	.line	121; "MC32F7361.c"	EEDR = (EEDRH << 8) | EEDRL;
0005b2   59c6     movar   0x1c6            	MOVAR	_EEDRH
0005b3   5609     movra   0x9              	MOVRA	r0x101D
0005b4   5608     movra   0x8              	MOVRA	r0x101B
0005b5   7607     clrr    0x7              	CLRR	r0x101C
                                           ;;100	MOVAR	r0x101B
0005b6   760a     clrr    0xa              	CLRR	r0x101E
0005b7   59c7     movar   0x1c7            	MOVAR	_EEDRL
0005b8   5608     movra   0x8              	MOVRA	r0x101B
0005b9   7607     clrr    0x7              	CLRR	r0x101C
0005ba   5808     movar   0x8              	MOVAR	r0x101B
0005bb   5e0a     orra    0xa              	ORRA	r0x101E
0005bc   3c00     movai   0                	MOVAI	0x00
0005bd   5e09     orra    0x9              	ORRA	r0x101D
                                           ;	.line	122; "MC32F7361.c"	return EEDR;
0005be   580a     movar   0xa              	MOVAR	r0x101E
0005bf   5606     movra   0x6              	MOVRA	STK00
0005c0   5809     movar   0x9              	MOVAR	r0x101D
                                           ;	.line	123; "MC32F7361.c"	}
0005c1   000c     return                   	RETURN	
                                           ; exit point of _EEPROM_Read_Byte
                                           
                                           ;***
                                           ;  pBlock Stats: dbName = C
                                           ;***
                                           ;entry:  _EEPROM_Write_Byte	;Function start
                                           ; 2 exit points
                                           ;has an exit
                                           ;6 compiler assigned registers:
                                           ;   STK00
                                           ;   r0x101B
                                           ;   STK01
                                           ;   r0x101C
                                           ;   r0x101D
                                           ;   r0x101E
                                           ;; Starting pCode block
                                           _EEPROM_Write_Byte	;Function start
                                           ; 2 exit points
                                           ;	.line	86; "MC32F7361.c"	void EEPROM_Write_Byte(uint8_t addr, uint16_t data)
0005c2   57c5     movra   0x1c5            	MOVRA	_EEAR
0005c3   5806     movar   0x6              	MOVAR	STK00
0005c4   5609     movra   0x9              	MOVRA	r0x101D
                                           ;;1	MOVRA	r0x101B
0005c5   5805     movar   0x5              	MOVAR	STK01
0005c6   5607     movra   0x7              	MOVRA	r0x101C
                                           ;	.line	88; "MC32F7361.c"	HFEN = 1;
0005c7   c1ae     bset    0x1ae, 0         	BSET	_OSCMRbits,0
                                           ;;99	MOVAR	r0x101B
                                           ;;1	CLRR	r0x101E
                                           ;	.line	90; "MC32F7361.c"	EEDRH = (data >> 8) & 0xff;
0005c8   5809     movar   0x9              	MOVAR	r0x101D
0005c9   57c6     movra   0x1c6            	MOVRA	_EEDRH
                                           ;	.line	91; "MC32F7361.c"	EEDRL = data & 0xff;
0005ca   5807     movar   0x7              	MOVAR	r0x101C
0005cb   57c7     movra   0x1c7            	MOVRA	_EEDRL
                                           ;	.line	92; "MC32F7361.c"	GIE = 0;
0005cc   df88     bclr    0x188, 0x7       	BCLR	_MCRbits,7
                                           ;	.line	93; "MC32F7361.c"	EEPR = 0x5A;
0005cd   3c5a     movai   0x5a             	MOVAI	0x5a
0005ce   57c4     movra   0x1c4            	MOVRA	_EEPR
                                           ;	.line	94; "MC32F7361.c"	EEPR = 0xA5; // 
0005cf   3ca5     movai   0xa5             	MOVAI	0xa5
0005d0   57c4     movra   0x1c4            	MOVRA	_EEPR
                                           ;	.line	95; "MC32F7361.c"	EECR = 0x01; // EEPROM  
0005d1   3c01     movai   0x1              	MOVAI	0x01
0005d2   57c3     movra   0x1c3            	MOVRA	_EECR
                                           ;	.line	96; "MC32F7361.c"	Nop();
0005d3   0000     nop                      	nop	
                                           ;	.line	97; "MC32F7361.c"	Nop();
0005d4   0000     nop                      	nop	
                                           _00127_DS_
                                           ;	.line	98; "MC32F7361.c"	while (EEWRITE) //  EE 
0005d5   f1c3     jbclr   0x1c3, 0         	JBCLR	_EECRbits,0
0005d6   a5d5     goto    0x5d5            	GOTO	_00127_DS_
                                           ;	.line	102; "MC32F7361.c"	GIE = 1;
0005d7   cf88     bset    0x188, 0x7       	BSET	_MCRbits,7
                                           ;	.line	103; "MC32F7361.c"	}
0005d8   000c     return                   	RETURN	
                                           ; exit point of _EEPROM_Write_Byte
                                           
                                           ;***
                                           ;  pBlock Stats: dbName = C
                                           ;***
                                           ;entry:  _delay_100xus	;Function start
                                           ; 2 exit points
                                           ;has an exit
                                           ;2 compiler assigned registers:
                                           ;   r0x101B
                                           ;   r0x101C
                                           ;; Starting pCode block
                                           _delay_100xus	;Function start
                                           ; 2 exit points
                                           ;	.line	52; "MC32F7361.c"	void delay_100xus(u8 i)
0005d9   5608     movra   0x8              	MOVRA	r0x101B
                                           _00119_DS_
                                           ;	.line	55; "MC32F7361.c"	while (i)
0005da   3c00     movai   0                	MOVAI	0x00
0005db   5c08     orar    0x8              	ORAR	r0x101B
0005dc   f587     jbclr   0x187, 0x2       	JBCLR	PFLAG,2
0005dd   a5e9     goto    0x5e9            	GOTO	_00122_DS_
                                           ;	.line	58; "MC32F7361.c"	while (j)
0005de   3c4a     movai   0x4a             	MOVAI	0x4a
0005df   5607     movra   0x7              	MOVRA	r0x101C
                                           _00116_DS_
0005e0   3c00     movai   0                	MOVAI	0x00
0005e1   5c07     orar    0x7              	ORAR	r0x101C
0005e2   f587     jbclr   0x187, 0x2       	JBCLR	PFLAG,2
0005e3   a5e7     goto    0x5e7            	GOTO	_00118_DS_
                                           ;	.line	60; "MC32F7361.c"	Nop();
0005e4   0000     nop                      	nop	
                                           ;	.line	61; "MC32F7361.c"	j--;
0005e5   6e07     decr    0x7              	DECR	r0x101C
0005e6   a5e0     goto    0x5e0            	GOTO	_00116_DS_
                                           _00118_DS_
                                           ;	.line	63; "MC32F7361.c"	i--;
0005e7   6e08     decr    0x8              	DECR	r0x101B
0005e8   a5da     goto    0x5da            	GOTO	_00119_DS_
                                           _00122_DS_
                                           ;	.line	65; "MC32F7361.c"	}
0005e9   000c     return                   	RETURN	
                                           ; exit point of _delay_100xus
                                           
                                           ;***
                                           ;  pBlock Stats: dbName = C
                                           ;***
                                           ;entry:  _delay_ms	;Function start
                                           ; 2 exit points
                                           ;has an exit
                                           ;7 compiler assigned registers:
                                           ;   r0x101B
                                           ;   STK00
                                           ;   r0x101C
                                           ;   r0x101D
                                           ;   r0x101E
                                           ;   r0x101F
                                           ;   r0x1020
                                           ;; Starting pCode block
                                           _delay_ms	;Function start
                                           ; 2 exit points
                                           ;	.line	260; "user.h"	void delay_ms(u16 xms)
0005ea   5608     movra   0x8              	MOVRA	r0x101B
0005eb   5806     movar   0x6              	MOVAR	STK00
0005ec   5607     movra   0x7              	MOVRA	r0x101C
                                           _00108_DS_
                                           ;	.line	262; "user.h"	while (xms)
0005ed   5807     movar   0x7              	MOVAR	r0x101C
0005ee   5c08     orar    0x8              	ORAR	r0x101B
0005ef   f587     jbclr   0x187, 0x2       	JBCLR	PFLAG,2
0005f0   a609     goto    0x609            	GOTO	_00111_DS_
                                           ;	.line	265; "user.h"	while (i--)
0005f1   3c05     movai   0x5              	MOVAI	0x05
0005f2   5609     movra   0x9              	MOVRA	r0x101D
0005f3   3c02     movai   0x2              	MOVAI	0x02
0005f4   560a     movra   0xa              	MOVRA	r0x101E
                                           _00105_DS_
0005f5   5809     movar   0x9              	MOVAR	r0x101D
0005f6   560b     movra   0xb              	MOVRA	r0x101F
0005f7   580a     movar   0xa              	MOVAR	r0x101E
0005f8   560c     movra   0xc              	MOVRA	r0x1020
0005f9   3cff     movai   0xff             	MOVAI	0xff
0005fa   7e09     addra   0x9              	ADDRA	r0x101D
0005fb   e187     jbset   0x187, 0         	JBSET	PFLAG,0
0005fc   6e0a     decr    0xa              	DECR	r0x101E
0005fd   580b     movar   0xb              	MOVAR	r0x101F
0005fe   5c0c     orar    0xc              	ORAR	r0x1020
0005ff   f587     jbclr   0x187, 0x2       	JBCLR	PFLAG,2
000600   a603     goto    0x603            	GOTO	_00107_DS_
                                           ;	.line	267; "user.h"	Nop();
000601   0000     nop                      	nop	
000602   a5f5     goto    0x5f5            	GOTO	_00105_DS_
                                           _00107_DS_
                                           ;	.line	269; "user.h"	xms--; //  --while()
000603   3cff     movai   0xff             	MOVAI	0xff
000604   7e07     addra   0x7              	ADDRA	r0x101C
000605   e187     jbset   0x187, 0         	JBSET	PFLAG,0
000606   6e08     decr    0x8              	DECR	r0x101B
                                           ;	.line	273; "user.h"	__endasm;
                                           	;
000607   000e     clrwdt                   	clrwdt;
                                           	
000608   a5ed     goto    0x5ed            	GOTO	_00108_DS_
                                           _00111_DS_
                                           ;	.line	275; "user.h"	}
000609   000c     return                   	RETURN	
                                           ; exit point of _delay_ms
                                           
                                           
                                           ;	code size estimation:
                                           ;	 1524+    0 =  1524 instructions ( 3048 byte)
                                           
                                           	end
                                           ;--------------------------------------------------------
                                           ; File Created by SN-SDCC : SinoMCU ANSI-C Compiler
                                           ; Version 2.0.0 (Dec 11 2019) (MINGW32)
                                           ; This file was generated Wed Apr 02 15:19:40 2025
                                           ;--------------------------------------------------------
                                           ; MC32 port for the RISC core
                                           ;--------------------------------------------------------
                                           ;	.file	"MC32F7361.c"
                                           	list	p=7361
                                           	radix dec
                                           	include "7361.inc"
                                           ;--------------------------------------------------------
                                           ; external declarations
                                           ;--------------------------------------------------------
                                           	extern	_INDF0bits
                                           	extern	_INDF1bits
                                           	extern	_INDF2bits
                                           	extern	_HIBYTEbits
                                           	extern	_FSR0bits
                                           	extern	_FSR1bits
                                           	extern	_PCLbits
                                           	extern	_PFLAGbits
                                           	extern	_MCRbits
                                           	extern	_INDF3bits
                                           	extern	_INTEbits
                                           	extern	_INTFbits
                                           	extern	_DRVCRbits
                                           	extern	_P0KBCRbits
                                           	extern	_P1KBCRbits
                                           	extern	_P2KBCRbits
                                           	extern	_IOP0bits
                                           	extern	_OEP0bits
                                           	extern	_PUP0bits
                                           	extern	_PDP0bits
                                           	extern	_IOP1bits
                                           	extern	_OEP1bits
                                           	extern	_PUP1bits
                                           	extern	_PDP1bits
                                           	extern	_T0CRbits
                                           	extern	_T0CNTbits
                                           	extern	_T0LOADbits
                                           	extern	_T0DATAbits
                                           	extern	_T1CRbits
                                           	extern	_T1CNTbits
                                           	extern	_T1LOADbits
                                           	extern	_T1DATAbits
                                           	extern	_T2CRbits
                                           	extern	_T2CNTbits
                                           	extern	_T2LOADbits
                                           	extern	_T2DATAbits
                                           	extern	_T3CRbits
                                           	extern	_T3CNTbits
                                           	extern	_T3LOADbits
                                           	extern	_PWM0DRbits
                                           	extern	_PWM1DRbits
                                           	extern	_PWM2DRbits
                                           	extern	_PWMCR0bits
                                           	extern	_PWMCR1bits
                                           	extern	_OSCMRbits
                                           	extern	_LVDCRbits
                                           	extern	_ADCR0bits
                                           	extern	_ADCR1bits
                                           	extern	_ADCR2bits
                                           	extern	_OSADJCRbits
                                           	extern	_ADRHbits
                                           	extern	_ADRLbits
                                           	extern	_P0ADCRbits
                                           	extern	_P1ADCRbits
                                           	extern	_IOP2bits
                                           	extern	_OEP2bits
                                           	extern	_PUP2bits
                                           	extern	_PDP2bits
                                           	extern	_PMODbits
                                           	extern	_PWMCR3bits
                                           	extern	_PWMCR2bits
                                           	extern	_PFRCCRbits
                                           	extern	_PFRCCALbits
                                           	extern	_EECRbits
                                           	extern	_EEPRbits
                                           	extern	_EEARbits
                                           	extern	_EEDRHbits
                                           	extern	_EEDRLbits
                                           	extern	_DBGCRbits
                                           	extern	_DBGPRbits
                                           	extern	_HIRCCALbits
                                           	extern	_INDF0
                                           	extern	_INDF1
                                           	extern	_INDF2
                                           	extern	_HIBYTE
                                           	extern	_FSR0
                                           	extern	_FSR1
                                           	extern	_PCL
                                           	extern	_PFLAG
                                           	extern	_MCR
                                           	extern	_INDF3
                                           	extern	_INTE
                                           	extern	_INTF
                                           	extern	_DRVCR
                                           	extern	_P0KBCR
                                           	extern	_P1KBCR
                                           	extern	_P2KBCR
                                           	extern	_IOP0
                                           	extern	_OEP0
                                           	extern	_PUP0
                                           	extern	_PDP0
                                           	extern	_IOP1
                                           	extern	_OEP1
                                           	extern	_PUP1
                                           	extern	_PDP1
                                           	extern	_T0CR
                                           	extern	_T0CNT
                                           	extern	_T0LOAD
                                           	extern	_T0DATA
                                           	extern	_T1CR
                                           	extern	_T1CNT
                                           	extern	_T1LOAD
                                           	extern	_T1DATA
                                           	extern	_T2CR
                                           	extern	_T2CNT
                                           	extern	_T2LOAD
                                           	extern	_T2DATA
                                           	extern	_T3CR
                                           	extern	_T3CNT
                                           	extern	_T3LOAD
                                           	extern	_PWM0DR
                                           	extern	_PWM1DR
                                           	extern	_PWM2DR
                                           	extern	_PWMCR0
                                           	extern	_PWMCR1
                                           	extern	_OSCMR
                                           	extern	_LVDCR
                                           	extern	_ADCR0
                                           	extern	_ADCR1
                                           	extern	_ADCR2
                                           	extern	_OSADJCR
                                           	extern	_ADRH
                                           	extern	_ADRL
                                           	extern	_P0ADCR
                                           	extern	_P1ADCR
                                           	extern	_IOP2
                                           	extern	_OEP2
                                           	extern	_PUP2
                                           	extern	_PDP2
                                           	extern	_PMOD
                                           	extern	_PWMCR3
                                           	extern	_PWMCR2
                                           	extern	_PFRCCR
                                           	extern	_PFRCCAL
                                           	extern	_EECR
                                           	extern	_EEPR
                                           	extern	_EEAR
                                           	extern	_EEDRH
                                           	extern	_EEDRL
                                           	extern	_DBGCR
                                           	extern	_DBGPR
                                           	extern	_HIRCCAL
                                           	extern	__gptrget1
                                           	extern	__gptrget2
                                           ;--------------------------------------------------------
                                           ; global declarations
                                           ;--------------------------------------------------------
                                           	global	_delay_ms
                                           	global	_delay_100xus
                                           	global	_EEPROM_Write_Byte
                                           	global	_EEPROM_Read_Byte
                                           	global	_send_cmd_16bit
                                           	global	_Sys_Init
                                           	global	_key_event_same_deal_ex
                                           	global	_key_event_set_timer
                                           	global	_main
                                           	global	_int_isr
                                           	global	_abuf
                                           	global	_statusbuf
                                           	global	_flag1
                                           	global	_ir_data
                                           	global	_ir_type
                                           	global	_current_index
                                           	global	_start_index
                                           	global	_end_index
                                           	global	_next_frame_delay
                                           	global	_power_sta
                                           	global	_current_speed
                                           	global	_current_static
                                           	global	_cur_mechanical_key_sta
                                           	global	_timer_count
                                           	global	_eeprom_read_byte_index_0
                                           	global	_eeprom_read_byte_index_1
                                           	global	_eeprom_read_byte_index_2
                                           	global	_eeprom_read_byte_index_3
                                           	global	_main_table
                                           	global	_section_1_speed_table
                                           	global	_section_1_delay_table
                                           	global	_section_2_delay_table
                                           	global	_section_3_speed_table
                                           	global	_section_5_speed_table
                                           	global	_section_5_delay_table
                                           	global	_section_7_speed_table
                                           	global	_section_7_delay_table
                                           
                                           	global STK06
                                           	global STK05
                                           	global STK04
                                           	global STK03
                                           	global STK02
                                           	global STK01
                                           	global STK00
                                           
                                           sharebank udata_ovr 0x0000
                                           STK06	res 1
                                           STK05	res 1
                                           STK04	res 1
                                           STK03	res 1
                                           STK02	res 1
                                           STK01	res 1
                                           STK00	res 1
                                           
                                           ;--------------------------------------------------------
                                           ; global definitions
                                           ;--------------------------------------------------------
                                           UD_MC32F7361_0	udata
                                           _abuf	res	1
                                           
                                           UD_MC32F7361_1	udata
                                           _statusbuf	res	1
                                           
                                           UD_MC32F7361_2	udata
                                           _flag1	res	1
                                           
                                           UD_MC32F7361_3	udata
                                           _ir_data	res	1
                                           
                                           UD_MC32F7361_4	udata
                                           _ir_type	res	1
                                           
                                           UD_MC32F7361_5	udata
                                           _current_index	res	1
                                           
                                           UD_MC32F7361_6	udata
                                           _start_index	res	1
                                           
                                           UD_MC32F7361_7	udata
                                           _end_index	res	1
                                           
                                           UD_MC32F7361_8	udata
                                           _next_frame_delay	res	2
                                           
                                           UD_MC32F7361_9	udata
                                           _power_sta	res	1
                                           
                                           UD_MC32F7361_10	udata
                                           _current_speed	res	1
                                           
                                           UD_MC32F7361_11	udata
                                           _current_static	res	1
                                           
                                           UD_MC32F7361_12	udata
                                           _cur_mechanical_key_sta	res	1
                                           
                                           UD_MC32F7361_13	udata
                                           _eeprom_read_byte_index_0	res	1
                                           
                                           UD_MC32F7361_14	udata
                                           _eeprom_read_byte_index_1	res	1
                                           
                                           UD_MC32F7361_15	udata
                                           _eeprom_read_byte_index_2	res	1
                                           
                                           UD_MC32F7361_16	udata
                                           _eeprom_read_byte_index_3	res	1
                                           
                                           ;--------------------------------------------------------
                                           ; absolute symbol definitions
                                           ;--------------------------------------------------------
                                           ;--------------------------------------------------------
                                           ; compiler-defined variables
                                           ;--------------------------------------------------------
                                           UDL_MC32F7361_0	udata
                                           r0x101C	res	1
                                           r0x101B	res	1
                                           r0x101D	res	1
                                           r0x101E	res	1
                                           r0x101F	res	1
                                           r0x1020	res	1
                                           r0x1022	res	1
                                           r0x1021	res	1
                                           r0x1023	res	1
                                           r0x1024	res	1
                                           r0x1026	res	1
                                           r0x1025	res	1
                                           r0x1027	res	1
                                           r0x1028	res	1
                                           r0x102A	res	1
                                           r0x1029	res	1
                                           r0x102B	res	1
                                           r0x102C	res	1
                                           r0x102D	res	1
                                           r0x1030	res	1
                                           r0x102F	res	1
                                           r0x1031	res	1
                                           r0x1032	res	1
                                           r0x1033	res	1
                                           r0x1034	res	1
                                           r0x1035	res	1
                                           r0x1036	res	1
                                           r0x1037	res	1
                                           _int_isr_ir_level_cnt_196608_58	res	2
                                           _int_isr___ir_data_196608_58	res	4
                                           _int_isr_key_press_cnt_196608_73	res	2
                                           _int_isr__100us_count_131073_79	res	1
                                           ;--------------------------------------------------------
                                           ; initialized data
                                           ;--------------------------------------------------------
                                           
                                           ID_MC32F7361_0	idata
                                           _timer_count
                                           	db	0x00, 0x00, 0x00, 0x00
                                           
                                           
                                           ID_MC32F7361_1	code
                                           _main_table
                                           	dw 0x11
                                           	dw 0x22
                                           	dw 0x44
                                           	dw 0x33
                                           	dw 0x55
                                           	dw 0x66
                                           	dw 0x77
                                           	dw 0x88
                                           	dw 0xaa
                                           	dw 0xcc
                                           	dw 0x11
                                           	dw 0x22
                                           	dw 0x44
                                           	dw 0x33
                                           	dw 0x55
                                           	dw 0x66
                                           	dw 0x77
                                           	dw 0x88
                                           	dw 0xaa
                                           	dw 0xcc
                                           	dw 0x21
                                           	dw 0x74
                                           	dw 0x53
                                           	dw 0x41
                                           	dw 0x24
                                           	dw 0x45
                                           	dw 0xe0
                                           	dw 0xa0
                                           	dw 0xc0
                                           	dw 0xee
                                           	dw 0xee
                                           	dw 0xee
                                           	dw 0xee
                                           	dw 0xee
                                           	dw 0xee
                                           	dw 0xee
                                           	dw 0xee
                                           	dw 0xee
                                           	dw 0xee
                                           	dw 0xaa
                                           	dw 0xaa
                                           	dw 0xaa
                                           	dw 0xaa
                                           	dw 0xaa
                                           	dw 0xaa
                                           	dw 0xaa
                                           	dw 0xaa
                                           	dw 0xaa
                                           	dw 0xaa
                                           	dw 0xcc
                                           	dw 0xcc
                                           	dw 0xcc
                                           	dw 0xcc
                                           	dw 0xcc
                                           	dw 0xcc
                                           	dw 0xcc
                                           	dw 0xcc
                                           	dw 0xcc
                                           	dw 0xcc
                                           	dw 0x17
                                           	dw 0x27
                                           	dw 0x47
                                           	dw 0x37
                                           	dw 0x57
                                           	dw 0x67
                                           	dw 0x77
                                           	dw 0x87
                                           	dw 0xa7
                                           	dw 0xc7
                                           	dw 0x11
                                           	dw 0x12
                                           	dw 0x22
                                           	dw 0x24
                                           	dw 0x44
                                           	dw 0x14
                                           	dw 0x11
                                           	dw 0x22
                                           	dw 0x44
                                           	dw 0x77
                                           	dw 0x33
                                           	dw 0x66
                                           	dw 0x55
                                           	dw 0x33
                                           	dw 0x66
                                           	dw 0x55
                                           	dw 0x33
                                           	dw 0x66
                                           	dw 0x55
                                           	dw 0x33
                                           	dw 0x66
                                           	dw 0x55
                                           	dw 0xee
                                           	dw 0xaa
                                           	dw 0xcc
                                           
                                           
                                           ID_MC32F7361_2	code
                                           _section_1_speed_table
                                           	dw 0x0f
                                           	dw 0x0e
                                           	dw 0x0d
                                           	dw 0x0c
                                           
                                           
                                           ID_MC32F7361_3	code
                                           _section_1_delay_table
                                           	dw 0x10
                                           	dw 0x27
                                           	dw 0x7e
                                           	dw 0x1d
                                           	dw 0x23
                                           	dw 0x14
                                           	dw 0xc8
                                           	dw 0x0a
                                           
                                           
                                           ID_MC32F7361_4	code
                                           _section_2_delay_table
                                           	dw 0xa8
                                           	dw 0x07
                                           	dw 0xc4
                                           	dw 0x03
                                           	dw 0xd1
                                           	dw 0x01
                                           	dw 0xa5
                                           	dw 0x00
                                           
                                           
                                           ID_MC32F7361_5	code
                                           _section_3_speed_table
                                           	dw 0x08
                                           	dw 0x0a
                                           	dw 0x09
                                           	dw 0x0b
                                           
                                           
                                           ID_MC32F7361_6	code
                                           _section_5_speed_table
                                           	dw 0x00
                                           	dw 0x00
                                           	dw 0x00
                                           	dw 0x00
                                           
                                           
                                           ID_MC32F7361_7	code
                                           _section_5_delay_table
                                           	dw 0xa8
                                           	dw 0x07
                                           	dw 0xc4
                                           	dw 0x03
                                           	dw 0xd1
                                           	dw 0x01
                                           	dw 0xa5
                                           	dw 0x00
                                           
                                           
                                           ID_MC32F7361_8	code
                                           _section_7_speed_table
                                           	dw 0x87
                                           	dw 0x86
                                           	dw 0x85
                                           	dw 0x84
                                           
                                           
                                           ID_MC32F7361_9	code
                                           _section_7_delay_table
                                           	dw 0xb5
                                           	dw 0x15
                                           	dw 0xd0
                                           	dw 0x11
                                           	dw 0x20
                                           	dw 0x0d
                                           	dw 0xd0
                                           	dw 0x07
                                           
                                           
                                           ;@Allocation info for local variables in function 'delay_ms'
                                           ;@delay_ms delay_ms                  Allocated to registers ;size:2
                                           ;@delay_ms INDF0bits                 Allocated to registers ;size:1
                                           ;@delay_ms INDF1bits                 Allocated to registers ;size:1
                                           ;@delay_ms INDF2bits                 Allocated to registers ;size:1
                                           ;@delay_ms HIBYTEbits                Allocated to registers ;size:1
                                           ;@delay_ms FSR0bits                  Allocated to registers ;size:1
                                           ;@delay_ms FSR1bits                  Allocated to registers ;size:1
                                           ;@delay_ms PCLbits                   Allocated to registers ;size:1
                                           ;@delay_ms PFLAGbits                 Allocated to registers ;size:1
                                           ;@delay_ms MCRbits                   Allocated to registers ;size:1
                                           ;@delay_ms INDF3bits                 Allocated to registers ;size:1
                                           ;@delay_ms INTEbits                  Allocated to registers ;size:1
                                           ;@delay_ms INTFbits                  Allocated to registers ;size:1
                                           ;@delay_ms DRVCRbits                 Allocated to registers ;size:1
                                           ;@delay_ms P0KBCRbits                Allocated to registers ;size:1
                                           ;@delay_ms P1KBCRbits                Allocated to registers ;size:1
                                           ;@delay_ms P2KBCRbits                Allocated to registers ;size:1
                                           ;@delay_ms IOP0bits                  Allocated to registers ;size:1
                                           ;@delay_ms OEP0bits                  Allocated to registers ;size:1
                                           ;@delay_ms PUP0bits                  Allocated to registers ;size:1
                                           ;@delay_ms PDP0bits                  Allocated to registers ;size:1
                                           ;@delay_ms IOP1bits                  Allocated to registers ;size:1
                                           ;@delay_ms OEP1bits                  Allocated to registers ;size:1
                                           ;@delay_ms PUP1bits                  Allocated to registers ;size:1
                                           ;@delay_ms PDP1bits                  Allocated to registers ;size:1
                                           ;@delay_ms T0CRbits                  Allocated to registers ;size:1
                                           ;@delay_ms T0CNTbits                 Allocated to registers ;size:1
                                           ;@delay_ms T0LOADbits                Allocated to registers ;size:1
                                           ;@delay_ms T0DATAbits                Allocated to registers ;size:1
                                           ;@delay_ms T1CRbits                  Allocated to registers ;size:1
                                           ;@delay_ms T1CNTbits                 Allocated to registers ;size:1
                                           ;@delay_ms T1LOADbits                Allocated to registers ;size:1
                                           ;@delay_ms T1DATAbits                Allocated to registers ;size:1
                                           ;@delay_ms T2CRbits                  Allocated to registers ;size:1
                                           ;@delay_ms T2CNTbits                 Allocated to registers ;size:1
                                           ;@delay_ms T2LOADbits                Allocated to registers ;size:1
                                           ;@delay_ms T2DATAbits                Allocated to registers ;size:1
                                           ;@delay_ms T3CRbits                  Allocated to registers ;size:1
                                           ;@delay_ms T3CNTbits                 Allocated to registers ;size:1
                                           ;@delay_ms T3LOADbits                Allocated to registers ;size:1
                                           ;@delay_ms PWM0DRbits                Allocated to registers ;size:1
                                           ;@delay_ms PWM1DRbits                Allocated to registers ;size:1
                                           ;@delay_ms PWM2DRbits                Allocated to registers ;size:1
                                           ;@delay_ms PWMCR0bits                Allocated to registers ;size:1
                                           ;@delay_ms PWMCR1bits                Allocated to registers ;size:1
                                           ;@delay_ms OSCMRbits                 Allocated to registers ;size:1
                                           ;@delay_ms LVDCRbits                 Allocated to registers ;size:1
                                           ;@delay_ms ADCR0bits                 Allocated to registers ;size:1
                                           ;@delay_ms ADCR1bits                 Allocated to registers ;size:1
                                           ;@delay_ms ADCR2bits                 Allocated to registers ;size:1
                                           ;@delay_ms OSADJCRbits               Allocated to registers ;size:1
                                           ;@delay_ms ADRHbits                  Allocated to registers ;size:1
                                           ;@delay_ms ADRLbits                  Allocated to registers ;size:1
                                           ;@delay_ms P0ADCRbits                Allocated to registers ;size:1
                                           ;@delay_ms P1ADCRbits                Allocated to registers ;size:1
                                           ;@delay_ms IOP2bits                  Allocated to registers ;size:1
                                           ;@delay_ms OEP2bits                  Allocated to registers ;size:1
                                           ;@delay_ms PUP2bits                  Allocated to registers ;size:1
                                           ;@delay_ms PDP2bits                  Allocated to registers ;size:1
                                           ;@delay_ms PMODbits                  Allocated to registers ;size:1
                                           ;@delay_ms PWMCR3bits                Allocated to registers ;size:1
                                           ;@delay_ms PWMCR2bits                Allocated to registers ;size:1
                                           ;@delay_ms PFRCCRbits                Allocated to registers ;size:1
                                           ;@delay_ms PFRCCALbits               Allocated to registers ;size:1
                                           ;@delay_ms EECRbits                  Allocated to registers ;size:1
                                           ;@delay_ms EEPRbits                  Allocated to registers ;size:1
                                           ;@delay_ms EEARbits                  Allocated to registers ;size:1
                                           ;@delay_ms EEDRHbits                 Allocated to registers ;size:1
                                           ;@delay_ms EEDRLbits                 Allocated to registers ;size:1
                                           ;@delay_ms DBGCRbits                 Allocated to registers ;size:1
                                           ;@delay_ms DBGPRbits                 Allocated to registers ;size:1
                                           ;@delay_ms HIRCCALbits               Allocated to registers ;size:1
                                           ;@delay_ms abuf                      Allocated to registers ;size:1
                                           ;@delay_ms statusbuf                 Allocated to registers ;size:1
                                           ;@delay_ms flag1                     Allocated to registers ;size:1
                                           ;@delay_ms ir_data                   Allocated to registers ;size:1
                                           ;@delay_ms ir_type                   Allocated to registers ;size:1
                                           ;@delay_ms xms                       Allocated to registers ;size:2
                                           ;@delay_ms i                         Allocated to registers r0x101D r0x101E ;size:2
                                           ;@delay_ms INDF0                     Allocated to registers ;size:1
                                           ;@delay_ms INDF1                     Allocated to registers ;size:1
                                           ;@delay_ms INDF2                     Allocated to registers ;size:1
                                           ;@delay_ms HIBYTE                    Allocated to registers ;size:1
                                           ;@delay_ms FSR0                      Allocated to registers ;size:1
                                           ;@delay_ms FSR1                      Allocated to registers ;size:1
                                           ;@delay_ms PCL                       Allocated to registers ;size:1
                                           ;@delay_ms PFLAG                     Allocated to registers ;size:1
                                           ;@delay_ms MCR                       Allocated to registers ;size:1
                                           ;@delay_ms INDF3                     Allocated to registers ;size:1
                                           ;@delay_ms INTE                      Allocated to registers ;size:1
                                           ;@delay_ms INTF                      Allocated to registers ;size:1
                                           ;@delay_ms DRVCR                     Allocated to registers ;size:1
                                           ;@delay_ms P0KBCR                    Allocated to registers ;size:1
                                           ;@delay_ms P1KBCR                    Allocated to registers ;size:1
                                           ;@delay_ms P2KBCR                    Allocated to registers ;size:1
                                           ;@delay_ms IOP0                      Allocated to registers ;size:1
                                           ;@delay_ms OEP0                      Allocated to registers ;size:1
                                           ;@delay_ms PUP0                      Allocated to registers ;size:1
                                           ;@delay_ms PDP0                      Allocated to registers ;size:1
                                           ;@delay_ms IOP1                      Allocated to registers ;size:1
                                           ;@delay_ms OEP1                      Allocated to registers ;size:1
                                           ;@delay_ms PUP1                      Allocated to registers ;size:1
                                           ;@delay_ms PDP1                      Allocated to registers ;size:1
                                           ;@delay_ms T0CR                      Allocated to registers ;size:1
                                           ;@delay_ms T0CNT                     Allocated to registers ;size:1
                                           ;@delay_ms T0LOAD                    Allocated to registers ;size:1
                                           ;@delay_ms T0DATA                    Allocated to registers ;size:1
                                           ;@delay_ms T1CR                      Allocated to registers ;size:1
                                           ;@delay_ms T1CNT                     Allocated to registers ;size:1
                                           ;@delay_ms T1LOAD                    Allocated to registers ;size:1
                                           ;@delay_ms T1DATA                    Allocated to registers ;size:1
                                           ;@delay_ms T2CR                      Allocated to registers ;size:1
                                           ;@delay_ms T2CNT                     Allocated to registers ;size:1
                                           ;@delay_ms T2LOAD                    Allocated to registers ;size:1
                                           ;@delay_ms T2DATA                    Allocated to registers ;size:1
                                           ;@delay_ms T3CR                      Allocated to registers ;size:1
                                           ;@delay_ms T3CNT                     Allocated to registers ;size:1
                                           ;@delay_ms T3LOAD                    Allocated to registers ;size:1
                                           ;@delay_ms PWM0DR                    Allocated to registers ;size:1
                                           ;@delay_ms PWM1DR                    Allocated to registers ;size:1
                                           ;@delay_ms PWM2DR                    Allocated to registers ;size:1
                                           ;@delay_ms PWMCR0                    Allocated to registers ;size:1
                                           ;@delay_ms PWMCR1                    Allocated to registers ;size:1
                                           ;@delay_ms OSCMR                     Allocated to registers ;size:1
                                           ;@delay_ms LVDCR                     Allocated to registers ;size:1
                                           ;@delay_ms ADCR0                     Allocated to registers ;size:1
                                           ;@delay_ms ADCR1                     Allocated to registers ;size:1
                                           ;@delay_ms ADCR2                     Allocated to registers ;size:1
                                           ;@delay_ms OSADJCR                   Allocated to registers ;size:1
                                           ;@delay_ms ADRH                      Allocated to registers ;size:1
                                           ;@delay_ms ADRL                      Allocated to registers ;size:1
                                           ;@delay_ms P0ADCR                    Allocated to registers ;size:1
                                           ;@delay_ms P1ADCR                    Allocated to registers ;size:1
                                           ;@delay_ms IOP2                      Allocated to registers ;size:1
                                           ;@delay_ms OEP2                      Allocated to registers ;size:1
                                           ;@delay_ms PUP2                      Allocated to registers ;size:1
                                           ;@delay_ms PDP2                      Allocated to registers ;size:1
                                           ;@delay_ms PMOD                      Allocated to registers ;size:1
                                           ;@delay_ms PWMCR3                    Allocated to registers ;size:1
                                           ;@delay_ms PWMCR2                    Allocated to registers ;size:1
                                           ;@delay_ms PFRCCR                    Allocated to registers ;size:1
                                           ;@delay_ms PFRCCAL                   Allocated to registers ;size:1
                                           ;@delay_ms EECR                      Allocated to registers ;size:1
                                           ;@delay_ms EEPR                      Allocated to registers ;size:1
                                           ;@delay_ms EEAR                      Allocated to registers ;size:1
                                           ;@delay_ms EEDRH                     Allocated to registers ;size:1
                                           ;@delay_ms EEDRL                     Allocated to registers ;size:1
                                           ;@delay_ms DBGCR                     Allocated to registers ;size:1
                                           ;@delay_ms DBGPR                     Allocated to registers ;size:1
                                           ;@delay_ms HIRCCAL                   Allocated to registers ;size:1
                                           ;@end Allocation info for local variables in function 'delay_ms';
                                           ;@Allocation info for local variables in function 'delay_100xus'
                                           ;@delay_100xus i                         Allocated to registers ;size:1
                                           ;@delay_100xus j                         Allocated to registers r0x101C ;size:1
                                           ;@end Allocation info for local variables in function 'delay_100xus';
                                           ;@Allocation info for local variables in function 'EEPROM_Write_Byte'
                                           ;@EEPROM_Write_Byte data                      Allocated to registers r0x101C r0x101B ;size:2
                                           ;@EEPROM_Write_Byte addr                      Allocated to registers ;size:1
                                           ;@end Allocation info for local variables in function 'EEPROM_Write_Byte';
                                           ;@Allocation info for local variables in function 'EEPROM_Read_Byte'
                                           ;@EEPROM_Read_Byte addr                      Allocated to registers ;size:1
                                           ;@EEPROM_Read_Byte EEDR                      Allocated to registers r0x101E r0x101D ;size:2
                                           ;@end Allocation info for local variables in function 'EEPROM_Read_Byte';
                                           ;@Allocation info for local variables in function 'send_cmd_16bit'
                                           ;@send_cmd_16bit data                      Allocated to registers r0x1022 r0x1021 ;size:2
                                           ;@send_cmd_16bit i                         Allocated to registers r0x1023 ;size:1
                                           ;@end Allocation info for local variables in function 'send_cmd_16bit';
                                           ;@Allocation info for local variables in function 'Sys_Init'
                                           ;@end Allocation info for local variables in function 'Sys_Init';
                                           ;@Allocation info for local variables in function 'key_event_same_deal_ex'
                                           ;@key_event_same_deal_ex own_data1                 Allocated to registers r0x102A r0x1029 ;size:2
                                           ;@key_event_same_deal_ex end                       Allocated to registers r0x1028 ;size:1
                                           ;@key_event_same_deal_ex start                     Allocated to registers r0x1027 ;size:1
                                           ;@end Allocation info for local variables in function 'key_event_same_deal_ex';
                                           ;@Allocation info for local variables in function 'key_event_set_timer'
                                           ;@end Allocation info for local variables in function 'key_event_set_timer';
                                           ;@Allocation info for local variables in function 'main'
                                           ;@main speed_code                Allocated to registers r0x1031 r0x1032 ;size:2
                                           ;@end Allocation info for local variables in function 'main';
                                           ;@Allocation info for local variables in function 'int_isr'
                                           ;@int_isr ir_level_cnt              Allocated to registers ;size:2
                                           ;@int_isr __ir_data                 Allocated to registers ;size:4
                                           ;@int_isr key_press_cnt             Allocated to registers ;size:2
                                           ;@int_isr _100us_count              Allocated to registers ;size:1
                                           ;@end Allocation info for local variables in function 'int_isr';
                                           ;@Allocation info for local variables in function 'int_isr'
                                           ;@int_isr ir_level_cnt              Allocated to registers ;size:2
                                           ;@int_isr __ir_data                 Allocated to registers ;size:4
                                           ;@int_isr key_press_cnt             Allocated to registers ;size:2
                                           ;@int_isr _100us_count              Allocated to registers ;size:1
                                           ;@end Allocation info for local variables in function 'int_isr';
                                           
                                           ;--------------------------------------------------------
                                           ; overlayable items in internal ram 
                                           ;--------------------------------------------------------
                                           ;	udata_ovr
                                           ;--------------------------------------------------------
                                           ; reset vector 
                                           ;--------------------------------------------------------
                                           STARTUP	code 0x0000
                                           	goto	_main
                                           ;--------------------------------------------------------
                                           ; interrupt and initialization code
                                           ;--------------------------------------------------------
                                           c_interrupt	code	0x8
                                           __sdcc_interrupt
                                           ;***
                                           ;  pBlock Stats: dbName = I
                                           ;***
                                           ;entry:  _int_isr	;Function start
                                           ; 0 exit points
                                           ;4 compiler assigned registers:
                                           ;   r0x1034
                                           ;   r0x1035
                                           ;   r0x1036
                                           ;   r0x1037
                                           ;; Starting pCode block
                                           _int_isr	;Function start
                                           ; 0 exit points
                                           ;	.line	1323; "MC32F7361.c"	__endasm;
                                           	;
                                           	movra	_abuf;
                                           	swapar	_PFLAG;
                                           	movra	_statusbuf;
                                           	
                                           ;	.line	1337; "MC32F7361.c"	if (T2IF & T2IE)
                                           	CLRR	r0x1034
                                           	JBCLR	_INTFbits,5
                                           	INCR	r0x1034
                                           	CLRR	r0x1035
                                           	JBCLR	_INTEbits,5
                                           	INCR	r0x1035
                                           	MOVAR	r0x1035
                                           	ANDRA	r0x1034
                                           	MOVAI	0x00
                                           	ORAR	r0x1034
                                           	JBCLR	PFLAG,2
                                           	GOTO	_00675_DS_
                                           ;	.line	1339; "MC32F7361.c"	T2IF = 0;
                                           	BCLR	_INTFbits,5
                                           ;;swapping arguments (AOP_TYPEs 1/3)
                                           ;;unsigned compare: left >= lit(0x515=1301), size=2
                                           ;	.line	1350; "MC32F7361.c"	if (ir_level_cnt <= 1300)
                                           	MOVAI	0x05
                                           	RSUBAR	(_int_isr_ir_level_cnt_196608_58 + 1)
                                           	JBSET	PFLAG,2
                                           	GOTO	_00778_DS_
                                           	MOVAI	0x15
                                           	RSUBAR	_int_isr_ir_level_cnt_196608_58
                                           _00778_DS_
                                           	JBCLR	PFLAG,0
                                           	GOTO	_00622_DS_
                                           ;;genSkipc:3291: created from rifx:013B5EFC
                                           ;	.line	1351; "MC32F7361.c"	ir_level_cnt++;
                                           	INCR	_int_isr_ir_level_cnt_196608_58
                                           	JBCLR	PFLAG,2
                                           	INCR	(_int_isr_ir_level_cnt_196608_58 + 1)
                                           _00622_DS_
                                           ;	.line	1366; "MC32F7361.c"	if (IR_RECV_PIN)
                                           	JBSET	_IOP1bits,5
                                           	GOTO	_00652_DS_
                                           ;	.line	1368; "MC32F7361.c"	last_level_in_ir_pin = 1; // 
                                           	BSET	_flag1,2
                                           ;;swapping arguments (AOP_TYPEs 1/3)
                                           ;;unsigned compare: left >= lit(0x4B1=1201), size=2
                                           ;	.line	1371; "MC32F7361.c"	if (ir_level_cnt > 1200) // (120000us,120ms)
                                           	MOVAI	0x04
                                           	RSUBAR	(_int_isr_ir_level_cnt_196608_58 + 1)
                                           	JBSET	PFLAG,2
                                           	GOTO	_00779_DS_
                                           	MOVAI	0xb1
                                           	RSUBAR	_int_isr_ir_level_cnt_196608_58
                                           _00779_DS_
                                           	JBSET	PFLAG,0
                                           	GOTO	_00653_DS_
                                           ;;genSkipc:3291: created from rifx:013B5EFC
                                           ;	.line	1374; "MC32F7361.c"	if (__ir_data != 0) // (__ir_data)
                                           	MOVAR	_int_isr___ir_data_196608_58
                                           	ORAR	(_int_isr___ir_data_196608_58 + 1)
                                           	ORAR	(_int_isr___ir_data_196608_58 + 2)
                                           	ORAR	(_int_isr___ir_data_196608_58 + 3)
                                           	JBCLR	PFLAG,2
                                           	GOTO	_00628_DS_
                                           ;	.line	1383; "MC32F7361.c"	if (0 == flag_is_recved_data)
                                           	JBCLR	_flag1,0
                                           	GOTO	_00628_DS_
                                           ;	.line	1387; "MC32F7361.c"	if ((__ir_data & 0xFF0000) == 0xFF0000)
                                           	CLRR	r0x1034
                                           	CLRR	r0x1035
                                           	MOVAR	(_int_isr___ir_data_196608_58 + 2)
                                           	MOVRA	r0x1036
                                           	CLRR	r0x1037
                                           	MOVAI	0x00
                                           	XORAI	0x00
                                           	JBSET	PFLAG,2
                                           	GOTO	_00628_DS_
                                           	MOVAR	r0x1035
                                           	XORAI	0x00
                                           	JBSET	PFLAG,2
                                           	GOTO	_00628_DS_
                                           	MOVAR	r0x1036
                                           	XORAI	0xff
                                           	JBSET	PFLAG,2
                                           	GOTO	_00628_DS_
                                           	MOVAR	r0x1037
                                           	XORAI	0x00
                                           	JBSET	PFLAG,2
                                           	GOTO	_00628_DS_
                                           ;	.line	1389; "MC32F7361.c"	ir_data = ~__ir_data;
                                           	MOVAR	_int_isr___ir_data_196608_58
                                           	MOVRA	r0x1034
                                           	COMAR	r0x1034
                                           	MOVRA	_ir_data
                                           ;	.line	1390; "MC32F7361.c"	__ir_data = 0;
                                           	CLRR	_int_isr___ir_data_196608_58
                                           	CLRR	(_int_isr___ir_data_196608_58 + 1)
                                           	CLRR	(_int_isr___ir_data_196608_58 + 2)
                                           	CLRR	(_int_isr___ir_data_196608_58 + 3)
                                           ;	.line	1391; "MC32F7361.c"	flag_is_recved_data = 1;
                                           	BSET	_flag1,0
                                           _00628_DS_
                                           ;	.line	1410; "MC32F7361.c"	flag_is_recv_ir_repeat_code = 0; // 
                                           	BCLR	_flag1,4
                                           	GOTO	_00653_DS_
                                           _00652_DS_
                                           ;	.line	1415; "MC32F7361.c"	if (last_level_in_ir_pin)
                                           	JBSET	_flag1,2
                                           	GOTO	_00650_DS_
                                           ;;swapping arguments (AOP_TYPEs 1/3)
                                           ;;unsigned compare: left >= lit(0x9=9), size=2
                                           ;	.line	1418; "MC32F7361.c"	if (ir_level_cnt <= 8) // 800us
                                           	MOVAI	0x00
                                           	RSUBAR	(_int_isr_ir_level_cnt_196608_58 + 1)
                                           	JBSET	PFLAG,2
                                           	GOTO	_00780_DS_
                                           	MOVAI	0x09
                                           	RSUBAR	_int_isr_ir_level_cnt_196608_58
                                           _00780_DS_
                                           	JBSET	PFLAG,0
                                           	GOTO	_00648_DS_
                                           ;;genSkipc:3291: created from rifx:013B5EFC
                                           ;;swapping arguments (AOP_TYPEs 1/3)
                                           ;;unsigned compare: left >= lit(0x13=19), size=2
                                           ;	.line	1423; "MC32F7361.c"	else if (ir_level_cnt <= 18) // 1800us,0
                                           	MOVAI	0x00
                                           	RSUBAR	(_int_isr_ir_level_cnt_196608_58 + 1)
                                           	JBSET	PFLAG,2
                                           	GOTO	_00781_DS_
                                           	MOVAI	0x13
                                           	RSUBAR	_int_isr_ir_level_cnt_196608_58
                                           _00781_DS_
                                           	JBCLR	PFLAG,0
                                           	GOTO	_00644_DS_
                                           ;;genSkipc:3291: created from rifx:013B5EFC
                                           ;	.line	1425; "MC32F7361.c"	__ir_data <<= 1;
                                           	BCLR	PFLAG,0
                                           	RLR	_int_isr___ir_data_196608_58
                                           	RLR	(_int_isr___ir_data_196608_58 + 1)
                                           	RLR	(_int_isr___ir_data_196608_58 + 2)
                                           	RLR	(_int_isr___ir_data_196608_58 + 3)
                                           	GOTO	_00648_DS_
                                           ;;swapping arguments (AOP_TYPEs 1/3)
                                           ;;unsigned compare: left >= lit(0x1B=27), size=2
                                           _00644_DS_
                                           ;	.line	1430; "MC32F7361.c"	else if (ir_level_cnt <= 26) // 2600us,1
                                           	MOVAI	0x00
                                           	RSUBAR	(_int_isr_ir_level_cnt_196608_58 + 1)
                                           	JBSET	PFLAG,2
                                           	GOTO	_00782_DS_
                                           	MOVAI	0x1b
                                           	RSUBAR	_int_isr_ir_level_cnt_196608_58
                                           _00782_DS_
                                           	JBCLR	PFLAG,0
                                           	GOTO	_00641_DS_
                                           ;;genSkipc:3291: created from rifx:013B5EFC
                                           ;	.line	1432; "MC32F7361.c"	__ir_data <<= 1;
                                           	BCLR	PFLAG,0
                                           	RLR	_int_isr___ir_data_196608_58
                                           	RLR	(_int_isr___ir_data_196608_58 + 1)
                                           	RLR	(_int_isr___ir_data_196608_58 + 2)
                                           	RLR	(_int_isr___ir_data_196608_58 + 3)
                                           ;	.line	1433; "MC32F7361.c"	__ir_data |= 0x01;
                                           	BSET	_int_isr___ir_data_196608_58,0
                                           	GOTO	_00648_DS_
                                           ;;swapping arguments (AOP_TYPEs 1/3)
                                           ;;unsigned compare: left >= lit(0x97=151), size=2
                                           _00641_DS_
                                           ;	.line	1437; "MC32F7361.c"	else if (ir_level_cnt <= 150) // 15000us,
                                           	MOVAI	0x00
                                           	RSUBAR	(_int_isr_ir_level_cnt_196608_58 + 1)
                                           	JBSET	PFLAG,2
                                           	GOTO	_00783_DS_
                                           	MOVAI	0x97
                                           	RSUBAR	_int_isr_ir_level_cnt_196608_58
                                           _00783_DS_
                                           	JBSET	PFLAG,0
                                           	GOTO	_00648_DS_
                                           ;;genSkipc:3291: created from rifx:013B5EFC
                                           ;;swapping arguments (AOP_TYPEs 1/3)
                                           ;;unsigned compare: left >= lit(0x1A5=421), size=2
                                           ;	.line	1442; "MC32F7361.c"	else if (ir_level_cnt <= 420) // 42ms,
                                           	MOVAI	0x01
                                           	RSUBAR	(_int_isr_ir_level_cnt_196608_58 + 1)
                                           	JBSET	PFLAG,2
                                           	GOTO	_00784_DS_
                                           	MOVAI	0xa5
                                           	RSUBAR	_int_isr_ir_level_cnt_196608_58
                                           _00784_DS_
                                           	JBCLR	PFLAG,0
                                           	GOTO	_00648_DS_
                                           ;;genSkipc:3291: created from rifx:013B5EFC
                                           ;	.line	1453; "MC32F7361.c"	if (0 == flag_is_recved_data)
                                           	JBCLR	_flag1,0
                                           	GOTO	_00648_DS_
                                           ;	.line	1456; "MC32F7361.c"	if ((__ir_data & 0xFF0000) == 0xFF0000)
                                           	CLRR	r0x1034
                                           	CLRR	r0x1035
                                           	MOVAR	(_int_isr___ir_data_196608_58 + 2)
                                           	MOVRA	r0x1036
                                           	CLRR	r0x1037
                                           	MOVAI	0x00
                                           	XORAI	0x00
                                           	JBSET	PFLAG,2
                                           	GOTO	_00648_DS_
                                           	MOVAR	r0x1035
                                           	XORAI	0x00
                                           	JBSET	PFLAG,2
                                           	GOTO	_00648_DS_
                                           	MOVAR	r0x1036
                                           	XORAI	0xff
                                           	JBSET	PFLAG,2
                                           	GOTO	_00648_DS_
                                           	MOVAR	r0x1037
                                           	XORAI	0x00
                                           	JBSET	PFLAG,2
                                           	GOTO	_00648_DS_
                                           ;	.line	1458; "MC32F7361.c"	ir_data = ~__ir_data;
                                           	MOVAR	_int_isr___ir_data_196608_58
                                           	MOVRA	r0x1034
                                           	COMAR	r0x1034
                                           	MOVRA	_ir_data
                                           ;	.line	1459; "MC32F7361.c"	__ir_data = 0;
                                           	CLRR	_int_isr___ir_data_196608_58
                                           	CLRR	(_int_isr___ir_data_196608_58 + 1)
                                           	CLRR	(_int_isr___ir_data_196608_58 + 2)
                                           	CLRR	(_int_isr___ir_data_196608_58 + 3)
                                           ;	.line	1460; "MC32F7361.c"	flag_is_recved_data = 1;
                                           	BSET	_flag1,0
                                           ;	.line	1461; "MC32F7361.c"	flag_is_recv_ir_repeat_code = 1; //
                                           	BSET	_flag1,4
                                           _00648_DS_
                                           ;	.line	1490; "MC32F7361.c"	ir_level_cnt = 0;
                                           	CLRR	_int_isr_ir_level_cnt_196608_58
                                           	CLRR	(_int_isr_ir_level_cnt_196608_58 + 1)
                                           _00650_DS_
                                           ;	.line	1493; "MC32F7361.c"	last_level_in_ir_pin = 0; // 
                                           	BCLR	_flag1,2
                                           _00653_DS_
                                           ;	.line	1500; "MC32F7361.c"	if (0 == MECHANICAL_KEYING_PIN)
                                           	JBCLR	_IOP1bits,6
                                           	GOTO	_00663_DS_
                                           ;	.line	1503; "MC32F7361.c"	if (key_press_cnt == 10000) // 
                                           	MOVAR	_int_isr_key_press_cnt_196608_73
                                           	XORAI	0x10
                                           	JBSET	PFLAG,2
                                           	GOTO	_00657_DS_
                                           	MOVAR	(_int_isr_key_press_cnt_196608_73 + 1)
                                           	XORAI	0x27
                                           	JBSET	PFLAG,2
                                           	GOTO	_00657_DS_
                                           ;	.line	1505; "MC32F7361.c"	ir_data = IR_KEY_OFF;
                                           	MOVAI	0xc0
                                           	MOVRA	_ir_data
                                           ;	.line	1506; "MC32F7361.c"	flag_is_recved_data = 1;
                                           	BSET	_flag1,0
                                           	GOTO	_00664_DS_
                                           ;;unsigned compare: left < lit(0x2710=10000), size=2
                                           _00657_DS_
                                           ;	.line	1508; "MC32F7361.c"	else if (key_press_cnt < 10000)
                                           	MOVAI	0x27
                                           	RSUBAR	(_int_isr_key_press_cnt_196608_73 + 1)
                                           	JBSET	PFLAG,2
                                           	GOTO	_00785_DS_
                                           	MOVAI	0x10
                                           	RSUBAR	_int_isr_key_press_cnt_196608_73
                                           _00785_DS_
                                           	JBCLR	PFLAG,0
                                           	GOTO	_00664_DS_
                                           ;;genSkipc:3291: created from rifx:013B5EFC
                                           ;	.line	1510; "MC32F7361.c"	key_press_cnt++;
                                           	INCR	_int_isr_key_press_cnt_196608_73
                                           	JBCLR	PFLAG,2
                                           	INCR	(_int_isr_key_press_cnt_196608_73 + 1)
                                           	GOTO	_00664_DS_
                                           ;;unsigned compare: left < lit(0x64=100), size=2
                                           _00663_DS_
                                           ;	.line	1515; "MC32F7361.c"	if (key_press_cnt >= 100 && key_press_cnt < 10000) // 
                                           	MOVAI	0x00
                                           	RSUBAR	(_int_isr_key_press_cnt_196608_73 + 1)
                                           	JBSET	PFLAG,2
                                           	GOTO	_00786_DS_
                                           	MOVAI	0x64
                                           	RSUBAR	_int_isr_key_press_cnt_196608_73
                                           _00786_DS_
                                           	JBSET	PFLAG,0
                                           	GOTO	_00660_DS_
                                           ;;genSkipc:3291: created from rifx:013B5EFC
                                           ;;unsigned compare: left < lit(0x2710=10000), size=2
                                           	MOVAI	0x27
                                           	RSUBAR	(_int_isr_key_press_cnt_196608_73 + 1)
                                           	JBSET	PFLAG,2
                                           	GOTO	_00787_DS_
                                           	MOVAI	0x10
                                           	RSUBAR	_int_isr_key_press_cnt_196608_73
                                           _00787_DS_
                                           	JBCLR	PFLAG,0
                                           	GOTO	_00660_DS_
                                           ;;genSkipc:3291: created from rifx:013B5EFC
                                           ;	.line	1517; "MC32F7361.c"	ir_data = IR_MECHANICAL_KEYING;
                                           	MOVAI	0x01
                                           	MOVRA	_ir_data
                                           ;	.line	1518; "MC32F7361.c"	flag_is_recved_data = 1;
                                           	BSET	_flag1,0
                                           _00660_DS_
                                           ;	.line	1521; "MC32F7361.c"	key_press_cnt = 0;
                                           	CLRR	_int_isr_key_press_cnt_196608_73
                                           	CLRR	(_int_isr_key_press_cnt_196608_73 + 1)
                                           _00664_DS_
                                           ;	.line	1583; "MC32F7361.c"	_100us_count++;
                                           	INCR	_int_isr__100us_count_131073_79
                                           ;;unsigned compare: left < lit(0xA=10), size=1
                                           ;	.line	1584; "MC32F7361.c"	if (_100us_count >= 10)
                                           	MOVAI	0x0a
                                           	RSUBAR	_int_isr__100us_count_131073_79
                                           	JBSET	PFLAG,0
                                           	GOTO	_00675_DS_
                                           ;;genSkipc:3291: created from rifx:013B5EFC
                                           ;	.line	1586; "MC32F7361.c"	_100us_count = 0;
                                           	CLRR	_int_isr__100us_count_131073_79
                                           ;	.line	1587; "MC32F7361.c"	if (next_frame_delay > 0 && next_frame_delay < 0xFFFF)
                                           	MOVAR	_next_frame_delay
                                           	ORAR	(_next_frame_delay + 1)
                                           	JBCLR	PFLAG,2
                                           	GOTO	_00666_DS_
                                           ;;unsigned compare: left < lit(0xFFFF=65535), size=2
                                           	MOVAI	0xff
                                           	RSUBAR	(_next_frame_delay + 1)
                                           	JBSET	PFLAG,2
                                           	GOTO	_00789_DS_
                                           	MOVAI	0xff
                                           	RSUBAR	_next_frame_delay
                                           _00789_DS_
                                           	JBCLR	PFLAG,0
                                           	GOTO	_00666_DS_
                                           ;;genSkipc:3291: created from rifx:013B5EFC
                                           ;	.line	1589; "MC32F7361.c"	next_frame_delay--;
                                           	MOVAI	0xff
                                           	ADDRA	_next_frame_delay
                                           	JBSET	PFLAG,0
                                           	DECR	(_next_frame_delay + 1)
                                           _00666_DS_
                                           ;	.line	1592; "MC32F7361.c"	if (timer_count)
                                           	MOVAR	_timer_count
                                           	ORAR	(_timer_count + 1)
                                           	ORAR	(_timer_count + 2)
                                           	ORAR	(_timer_count + 3)
                                           	JBCLR	PFLAG,2
                                           	GOTO	_00675_DS_
                                           ;	.line	1594; "MC32F7361.c"	timer_count--;
                                           	MOVAI	0xff
                                           	ADDRA	_timer_count
                                           	MOVAI	0xff
                                           	JBSET	PFLAG,0
                                           	ADDRA	(_timer_count + 1)
                                           	MOVAI	0xff
                                           	JBSET	PFLAG,0
                                           	ADDRA	(_timer_count + 2)
                                           	MOVAI	0xff
                                           	JBSET	PFLAG,0
                                           	ADDRA	(_timer_count + 3)
                                           ;	.line	1595; "MC32F7361.c"	if (timer_count == 0)
                                           	MOVAR	_timer_count
                                           	ORAR	(_timer_count + 1)
                                           	ORAR	(_timer_count + 2)
                                           	ORAR	(_timer_count + 3)
                                           	JBSET	PFLAG,2
                                           	GOTO	_00675_DS_
                                           ;	.line	1597; "MC32F7361.c"	ir_data = IR_KEY_OFF;
                                           	MOVAI	0xc0
                                           	MOVRA	_ir_data
                                           ;	.line	1598; "MC32F7361.c"	flag_is_recved_data = 1;
                                           	BSET	_flag1,0
                                           _00675_DS_
                                           ;	.line	1633; "MC32F7361.c"	__endasm;
                                           	;
                                           	swapar	_statusbuf;
                                           	movra	_PFLAG;
                                           	swapr	_abuf;
                                           	swapar	_abuf;
                                           	
                                           END_OF_INTERRUPT
                                           ;	.line	1634; "MC32F7361.c"	}
                                           	RETIE	
                                           
                                           ;--------------------------------------------------------
                                           ; code
                                           ;--------------------------------------------------------
                                           code_MC32F7361	code
                                           ;***
                                           ;  pBlock Stats: dbName = M
                                           ;***
                                           ;entry:  _main	;Function start
                                           ; 2 exit points
                                           ;has an exit
                                           ;functions called:
                                           ;   _Sys_Init
                                           ;   _delay_ms
                                           ;   _EEPROM_Read_Byte
                                           ;   _key_event_same_deal_ex
                                           ;   _key_event_same_deal_ex
                                           ;   _send_cmd_16bit
                                           ;   _key_event_same_deal_ex
                                           ;   _key_event_same_deal_ex
                                           ;   _key_event_same_deal_ex
                                           ;   _key_event_same_deal_ex
                                           ;   _key_event_same_deal_ex
                                           ;   _key_event_same_deal_ex
                                           ;   _key_event_same_deal_ex
                                           ;   _key_event_same_deal_ex
                                           ;   _key_event_same_deal_ex
                                           ;   _key_event_same_deal_ex
                                           ;   _key_event_same_deal_ex
                                           ;   _key_event_same_deal_ex
                                           ;   _key_event_same_deal_ex
                                           ;   _key_event_same_deal_ex
                                           ;   _key_event_same_deal_ex
                                           ;   _key_event_same_deal_ex
                                           ;   _key_event_same_deal_ex
                                           ;   _key_event_same_deal_ex
                                           ;   _key_event_same_deal_ex
                                           ;   _key_event_same_deal_ex
                                           ;   _key_event_same_deal_ex
                                           ;   _key_event_same_deal_ex
                                           ;   _key_event_same_deal_ex
                                           ;   _key_event_same_deal_ex
                                           ;   _key_event_same_deal_ex
                                           ;   _key_event_same_deal_ex
                                           ;   _key_event_same_deal_ex
                                           ;   _key_event_same_deal_ex
                                           ;   _key_event_same_deal_ex
                                           ;   _key_event_same_deal_ex
                                           ;   _key_event_same_deal_ex
                                           ;   _key_event_same_deal_ex
                                           ;   _key_event_same_deal_ex
                                           ;   _key_event_same_deal_ex
                                           ;   _key_event_set_timer
                                           ;   _key_event_set_timer
                                           ;   _key_event_set_timer
                                           ;   _key_event_set_timer
                                           ;   __gptrget1
                                           ;   __gptrget2
                                           ;   __gptrget2
                                           ;   __gptrget1
                                           ;   __gptrget2
                                           ;   __gptrget1
                                           ;   __gptrget2
                                           ;   __gptrget1
                                           ;   _send_cmd_16bit
                                           ;   _delay_ms
                                           ;   _delay_100xus
                                           ;   _delay_ms
                                           ;   _delay_100xus
                                           ;   _delay_ms
                                           ;   _delay_100xus
                                           ;   _delay_ms
                                           ;   _delay_100xus
                                           ;   _delay_ms
                                           ;   _EEPROM_Read_Byte
                                           ;   _EEPROM_Read_Byte
                                           ;   _EEPROM_Read_Byte
                                           ;   _key_event_same_deal_ex
                                           ;   _send_cmd_16bit
                                           ;   _send_cmd_16bit
                                           ;   _delay_ms
                                           ;   _Sys_Init
                                           ;   _delay_ms
                                           ;   _EEPROM_Read_Byte
                                           ;   _key_event_same_deal_ex
                                           ;   _key_event_same_deal_ex
                                           ;   _send_cmd_16bit
                                           ;   _key_event_same_deal_ex
                                           ;   _key_event_same_deal_ex
                                           ;   _key_event_same_deal_ex
                                           ;   _key_event_same_deal_ex
                                           ;   _key_event_same_deal_ex
                                           ;   _key_event_same_deal_ex
                                           ;   _key_event_same_deal_ex
                                           ;   _key_event_same_deal_ex
                                           ;   _key_event_same_deal_ex
                                           ;   _key_event_same_deal_ex
                                           ;   _key_event_same_deal_ex
                                           ;   _key_event_same_deal_ex
                                           ;   _key_event_same_deal_ex
                                           ;   _key_event_same_deal_ex
                                           ;   _key_event_same_deal_ex
                                           ;   _key_event_same_deal_ex
                                           ;   _key_event_same_deal_ex
                                           ;   _key_event_same_deal_ex
                                           ;   _key_event_same_deal_ex
                                           ;   _key_event_same_deal_ex
                                           ;   _key_event_same_deal_ex
                                           ;   _key_event_same_deal_ex
                                           ;   _key_event_same_deal_ex
                                           ;   _key_event_same_deal_ex
                                           ;   _key_event_same_deal_ex
                                           ;   _key_event_same_deal_ex
                                           ;   _key_event_same_deal_ex
                                           ;   _key_event_same_deal_ex
                                           ;   _key_event_same_deal_ex
                                           ;   _key_event_same_deal_ex
                                           ;   _key_event_same_deal_ex
                                           ;   _key_event_same_deal_ex
                                           ;   _key_event_same_deal_ex
                                           ;   _key_event_same_deal_ex
                                           ;   _key_event_set_timer
                                           ;   _key_event_set_timer
                                           ;   _key_event_set_timer
                                           ;   _key_event_set_timer
                                           ;   __gptrget1
                                           ;   __gptrget2
                                           ;   __gptrget2
                                           ;   __gptrget1
                                           ;   __gptrget2
                                           ;   __gptrget1
                                           ;   __gptrget2
                                           ;   __gptrget1
                                           ;   _send_cmd_16bit
                                           ;   _delay_ms
                                           ;   _delay_100xus
                                           ;   _delay_ms
                                           ;   _delay_100xus
                                           ;   _delay_ms
                                           ;   _delay_100xus
                                           ;   _delay_ms
                                           ;   _delay_100xus
                                           ;   _delay_ms
                                           ;   _EEPROM_Read_Byte
                                           ;   _EEPROM_Read_Byte
                                           ;   _EEPROM_Read_Byte
                                           ;   _key_event_same_deal_ex
                                           ;   _send_cmd_16bit
                                           ;   _send_cmd_16bit
                                           ;   _delay_ms
                                           ;8 compiler assigned registers:
                                           ;   STK00
                                           ;   r0x102F
                                           ;   r0x1030
                                           ;   STK02
                                           ;   STK01
                                           ;   r0x1031
                                           ;   r0x1032
                                           ;   r0x1033
                                           ;; Starting pCode block
                                           _main	;Function start
                                           ; 2 exit points
                                           ;	.line	733; "MC32F7361.c"	Sys_Init();
                                           	CALL	_Sys_Init
                                           ;	.line	734; "MC32F7361.c"	delay_ms(1); // 
                                           	MOVAI	0x01
                                           	MOVRA	STK00
                                           	MOVAI	0x00
                                           	CALL	_delay_ms
                                           ;	.line	749; "MC32F7361.c"	P15OE = 0; // 
                                           	BCLR	_OEP1bits,5
                                           ;	.line	755; "MC32F7361.c"	P16OE = 0; // 
                                           	BCLR	_OEP1bits,6
                                           ;	.line	760; "MC32F7361.c"	if (EEPROM_Read_Byte(4) != 0xA5A5)
                                           	MOVAI	0x04
                                           	CALL	_EEPROM_Read_Byte
                                           	MOVRA	r0x102F
                                           	MOVAR	STK00
                                           	MOVRA	r0x1030
                                           	MOVAR	r0x1030
                                           	XORAI	0xa5
                                           	JBSET	PFLAG,2
                                           	GOTO	_00583_DS_
                                           	MOVAR	r0x102F
                                           	XORAI	0xa5
                                           	JBSET	PFLAG,2
                                           	GOTO	_00583_DS_
                                           	GOTO	_00202_DS_
                                           _00583_DS_
                                           ;	.line	763; "MC32F7361.c"	key_event_same_deal(MODE_AUTO_START, MODE_AUTO_END, 0x9645, 0x9645);
                                           	MOVAI	0x45
                                           	MOVRA	STK02
                                           	MOVAI	0x96
                                           	MOVRA	STK01
                                           	MOVAI	0x4a
                                           	MOVRA	STK00
                                           	MOVAI	0x00
                                           	CALL	_key_event_same_deal_ex
                                           	GOTO	_00299_DS_
                                           _00202_DS_
                                           ;	.line	767; "MC32F7361.c"	power_sta = POWER_STA_PRE_ON;
                                           	MOVAI	0x01
                                           	MOVRA	_power_sta
                                           _00299_DS_
                                           ;	.line	773; "MC32F7361.c"	if (flag_is_recved_data)
                                           	JBSET	_flag1,0
                                           	GOTO	_00260_DS_
                                           ;	.line	882; "MC32F7361.c"	switch (ir_data)
                                           	MOVAR	_ir_data
                                           	MOVRA	r0x1030
                                           	MOVAR	r0x1030
                                           	JBSET	PFLAG,2
                                           	GOTO	_00584_DS_
                                           	GOTO	_00232_DS_
                                           _00584_DS_
                                           	MOVAR	r0x1030
                                           	XORAI	0x01
                                           	JBSET	PFLAG,2
                                           	GOTO	_00585_DS_
                                           	GOTO	_00215_DS_
                                           _00585_DS_
                                           	MOVAR	r0x1030
                                           	XORAI	0x02
                                           	JBSET	PFLAG,2
                                           	GOTO	_00586_DS_
                                           	GOTO	_00248_DS_
                                           _00586_DS_
                                           	MOVAR	r0x1030
                                           	XORAI	0x08
                                           	JBSET	PFLAG,2
                                           	GOTO	_00587_DS_
                                           	GOTO	_00204_DS_
                                           _00587_DS_
                                           	MOVAR	r0x1030
                                           	XORAI	0x12
                                           	JBSET	PFLAG,2
                                           	GOTO	_00588_DS_
                                           	GOTO	_00255_DS_
                                           _00588_DS_
                                           	MOVAR	r0x1030
                                           	XORAI	0x20
                                           	JBSET	PFLAG,2
                                           	GOTO	_00589_DS_
                                           	GOTO	_00250_DS_
                                           _00589_DS_
                                           	MOVAR	r0x1030
                                           	XORAI	0x28
                                           	JBSET	PFLAG,2
                                           	GOTO	_00590_DS_
                                           	GOTO	_00235_DS_
                                           _00590_DS_
                                           	MOVAR	r0x1030
                                           	XORAI	0x2a
                                           	JBSET	PFLAG,2
                                           	GOTO	_00591_DS_
                                           	GOTO	_00256_DS_
                                           _00591_DS_
                                           	MOVAR	r0x1030
                                           	XORAI	0x30
                                           	JBSET	PFLAG,2
                                           	GOTO	_00592_DS_
                                           	GOTO	_00237_DS_
                                           _00592_DS_
                                           	MOVAR	r0x1030
                                           	XORAI	0x32
                                           	JBSET	PFLAG,2
                                           	GOTO	_00593_DS_
                                           	GOTO	_00249_DS_
                                           _00593_DS_
                                           	MOVAR	r0x1030
                                           	XORAI	0x38
                                           	JBSET	PFLAG,2
                                           	GOTO	_00594_DS_
                                           	GOTO	_00234_DS_
                                           _00594_DS_
                                           	MOVAR	r0x1030
                                           	XORAI	0x40
                                           	JBSET	PFLAG,2
                                           	GOTO	_00595_DS_
                                           	GOTO	_00254_DS_
                                           _00595_DS_
                                           	MOVAR	r0x1030
                                           	XORAI	0x48
                                           	JBSET	PFLAG,2
                                           	GOTO	_00596_DS_
                                           	GOTO	_00246_DS_
                                           _00596_DS_
                                           	MOVAR	r0x1030
                                           	XORAI	0x50
                                           	JBSET	PFLAG,2
                                           	GOTO	_00597_DS_
                                           	GOTO	_00251_DS_
                                           _00597_DS_
                                           	MOVAR	r0x1030
                                           	XORAI	0x58
                                           	JBSET	PFLAG,2
                                           	GOTO	_00598_DS_
                                           	GOTO	_00233_DS_
                                           _00598_DS_
                                           	MOVAR	r0x1030
                                           	XORAI	0x60
                                           	JBSET	PFLAG,2
                                           	GOTO	_00599_DS_
                                           	GOTO	_00207_DS_
                                           _00599_DS_
                                           	MOVAR	r0x1030
                                           	XORAI	0x68
                                           	JBSET	PFLAG,2
                                           	GOTO	_00600_DS_
                                           	GOTO	_00247_DS_
                                           _00600_DS_
                                           	MOVAR	r0x1030
                                           	XORAI	0x70
                                           	JBSET	PFLAG,2
                                           	GOTO	_00601_DS_
                                           	GOTO	_00253_DS_
                                           _00601_DS_
                                           	MOVAR	r0x1030
                                           	XORAI	0x78
                                           	JBSET	PFLAG,2
                                           	GOTO	_00602_DS_
                                           	GOTO	_00252_DS_
                                           _00602_DS_
                                           	MOVAR	r0x1030
                                           	XORAI	0x80
                                           	JBSET	PFLAG,2
                                           	GOTO	_00603_DS_
                                           	GOTO	_00206_DS_
                                           _00603_DS_
                                           	MOVAR	r0x1030
                                           	XORAI	0x88
                                           	JBSET	PFLAG,2
                                           	GOTO	_00604_DS_
                                           	GOTO	_00244_DS_
                                           _00604_DS_
                                           	MOVAR	r0x1030
                                           	XORAI	0x90
                                           	JBSET	PFLAG,2
                                           	GOTO	_00605_DS_
                                           	GOTO	_00238_DS_
                                           _00605_DS_
                                           	MOVAR	r0x1030
                                           	XORAI	0x98
                                           	JBSET	PFLAG,2
                                           	GOTO	_00606_DS_
                                           	GOTO	_00242_DS_
                                           _00606_DS_
                                           	MOVAR	r0x1030
                                           	XORAI	0xa0
                                           	JBSET	PFLAG,2
                                           	GOTO	_00607_DS_
                                           	GOTO	_00257_DS_
                                           _00607_DS_
                                           	MOVAR	r0x1030
                                           	XORAI	0xa8
                                           	JBSET	PFLAG,2
                                           	GOTO	_00608_DS_
                                           	GOTO	_00212_DS_
                                           _00608_DS_
                                           	MOVAR	r0x1030
                                           	XORAI	0xb0
                                           	JBSET	PFLAG,2
                                           	GOTO	_00609_DS_
                                           	GOTO	_00241_DS_
                                           _00609_DS_
                                           	MOVAR	r0x1030
                                           	XORAI	0xb2
                                           	JBSET	PFLAG,2
                                           	GOTO	_00610_DS_
                                           	GOTO	_00231_DS_
                                           _00610_DS_
                                           	MOVAR	r0x1030
                                           	XORAI	0xb8
                                           	JBSET	PFLAG,2
                                           	GOTO	_00611_DS_
                                           	GOTO	_00239_DS_
                                           _00611_DS_
                                           	MOVAR	r0x1030
                                           	XORAI	0xc0
                                           	JBSET	PFLAG,2
                                           	GOTO	_00612_DS_
                                           	GOTO	_00205_DS_
                                           _00612_DS_
                                           	MOVAR	r0x1030
                                           	XORAI	0xd8
                                           	JBSET	PFLAG,2
                                           	GOTO	_00613_DS_
                                           	GOTO	_00243_DS_
                                           _00613_DS_
                                           	MOVAR	r0x1030
                                           	XORAI	0xe8
                                           	JBSET	PFLAG,2
                                           	GOTO	_00614_DS_
                                           	GOTO	_00245_DS_
                                           _00614_DS_
                                           	MOVAR	r0x1030
                                           	XORAI	0xf0
                                           	JBSET	PFLAG,2
                                           	GOTO	_00615_DS_
                                           	GOTO	_00236_DS_
                                           _00615_DS_
                                           	MOVAR	r0x1030
                                           	XORAI	0xf8
                                           	JBSET	PFLAG,2
                                           	GOTO	_00616_DS_
                                           	GOTO	_00240_DS_
                                           _00616_DS_
                                           	GOTO	_00258_DS_
                                           _00204_DS_
                                           ;	.line	885; "MC32F7361.c"	power_sta = POWER_STA_PRE_ON;
                                           	MOVAI	0x01
                                           	MOVRA	_power_sta
                                           ;	.line	886; "MC32F7361.c"	break;
                                           	GOTO	_00258_DS_
                                           _00205_DS_
                                           ;	.line	889; "MC32F7361.c"	power_sta = POWER_STA_PRE_OFF;
                                           	MOVAI	0x03
                                           	MOVRA	_power_sta
                                           ;	.line	890; "MC32F7361.c"	cur_mechanical_key_sta = 0;
                                           	CLRR	_cur_mechanical_key_sta
                                           ;	.line	891; "MC32F7361.c"	break;
                                           	GOTO	_00258_DS_
                                           _00206_DS_
                                           ;	.line	894; "MC32F7361.c"	key_event_same_deal(MODE_AUTO_START, MODE_AUTO_END, 0x9645, 0x9645);
                                           	MOVAI	0x45
                                           	MOVRA	STK02
                                           	MOVAI	0x96
                                           	MOVRA	STK01
                                           	MOVAI	0x4a
                                           	MOVRA	STK00
                                           	MOVAI	0x00
                                           	CALL	_key_event_same_deal_ex
                                           ;	.line	896; "MC32F7361.c"	cur_mechanical_key_sta = 0;
                                           	CLRR	_cur_mechanical_key_sta
                                           ;	.line	897; "MC32F7361.c"	break;
                                           	GOTO	_00258_DS_
                                           _00207_DS_
                                           ;	.line	900; "MC32F7361.c"	if (power_sta != POWER_STA_OFF)
                                           	MOVAI	0x00
                                           	ORAR	_power_sta
                                           	JBCLR	PFLAG,2
                                           	GOTO	_00258_DS_
                                           ;	.line	902; "MC32F7361.c"	current_speed++;
                                           	INCR	_current_speed
                                           ;;unsigned compare: left < lit(0x4=4), size=1
                                           ;	.line	903; "MC32F7361.c"	if (current_speed >= 4)
                                           	MOVAI	0x04
                                           	RSUBAR	_current_speed
                                           	JBSET	PFLAG,0
                                           	GOTO	_00209_DS_
                                           ;;genSkipc:3291: created from rifx:013B5EFC
                                           ;	.line	904; "MC32F7361.c"	current_speed = 0;
                                           	CLRR	_current_speed
                                           _00209_DS_
                                           ;	.line	905; "MC32F7361.c"	current_index = start_index; // 
                                           	MOVAR	_start_index
                                           	MOVRA	_current_index
                                           ;	.line	906; "MC32F7361.c"	next_frame_delay = 0;        // 
                                           	CLRR	_next_frame_delay
                                           	CLRR	(_next_frame_delay + 1)
                                           ;	.line	907; "MC32F7361.c"	send_cmd_16bit(0x0C00);
                                           	MOVAI	0x00
                                           	MOVRA	STK00
                                           	MOVAI	0x0c
                                           	CALL	_send_cmd_16bit
                                           ;	.line	909; "MC32F7361.c"	break;
                                           	GOTO	_00258_DS_
                                           _00212_DS_
                                           ;	.line	933; "MC32F7361.c"	current_static++;
                                           	INCR	_current_static
                                           ;;swapping arguments (AOP_TYPEs 1/3)
                                           ;;unsigned compare: left >= lit(0x3=3), size=1
                                           ;	.line	934; "MC32F7361.c"	if (current_static > 2)
                                           	MOVAI	0x03
                                           	RSUBAR	_current_static
                                           	JBSET	PFLAG,0
                                           	GOTO	_00214_DS_
                                           ;;genSkipc:3291: created from rifx:013B5EFC
                                           ;	.line	935; "MC32F7361.c"	current_static = 0;
                                           	CLRR	_current_static
                                           _00214_DS_
                                           ;	.line	936; "MC32F7361.c"	key_event_same_deal(91 + current_static, 91 + current_static, 0xFFFF, 0xFFFF);
                                           	MOVAR	_current_static
                                           	MOVRA	r0x1030
                                           	MOVAI	0x5b
                                           	ADDRA	r0x1030
                                           	MOVAR	_current_static
                                           	MOVRA	r0x102F
                                           	MOVAI	0x5b
                                           	ADDRA	r0x102F
                                           	MOVAI	0xff
                                           	MOVRA	STK02
                                           	MOVAI	0xff
                                           	MOVRA	STK01
                                           	MOVAR	r0x102F
                                           	MOVRA	STK00
                                           	MOVAR	r0x1030
                                           	CALL	_key_event_same_deal_ex
                                           ;	.line	939; "MC32F7361.c"	cur_mechanical_key_sta = 0;
                                           	CLRR	_cur_mechanical_key_sta
                                           ;	.line	940; "MC32F7361.c"	break;
                                           	GOTO	_00258_DS_
                                           _00215_DS_
                                           ;	.line	943; "MC32F7361.c"	switch (cur_mechanical_key_sta)
                                           	MOVAR	_cur_mechanical_key_sta
                                           	MOVRA	r0x1030
                                           ;;swapping arguments (AOP_TYPEs 1/2)
                                           ;;unsigned compare: left >= lit(0xD=13), size=1
                                           	MOVAI	0x0d
                                           	RSUBAR	r0x1030
                                           	JBCLR	PFLAG,0
                                           	GOTO	_00216_DS_
                                           ;;genSkipc:3291: created from rifx:013B5EFC
                                           	MOVAR	r0x1030
                                           	ADDRA	PCL
                                           	GOTO	_00217_DS_
                                           	GOTO	_00220_DS_
                                           	GOTO	_00220_DS_
                                           	GOTO	_00220_DS_
                                           	GOTO	_00221_DS_
                                           	GOTO	_00222_DS_
                                           	GOTO	_00223_DS_
                                           	GOTO	_00224_DS_
                                           	GOTO	_00225_DS_
                                           	GOTO	_00226_DS_
                                           	GOTO	_00227_DS_
                                           	GOTO	_00228_DS_
                                           	GOTO	_00229_DS_
                                           _00216_DS_
                                           ;	.line	947; "MC32F7361.c"	cur_mechanical_key_sta = 0;
                                           	CLRR	_cur_mechanical_key_sta
                                           _00217_DS_
                                           ;	.line	949; "MC32F7361.c"	key_event_same_deal(MODE_AUTO_START, MODE_AUTO_END, 0x9645, 0x9645);
                                           	MOVAI	0x45
                                           	MOVRA	STK02
                                           	MOVAI	0x96
                                           	MOVRA	STK01
                                           	MOVAI	0x4a
                                           	MOVRA	STK00
                                           	MOVAI	0x00
                                           	CALL	_key_event_same_deal_ex
                                           ;	.line	950; "MC32F7361.c"	break;
                                           	GOTO	_00230_DS_
                                           _00220_DS_
                                           ;	.line	965; "MC32F7361.c"	key_event_same_deal(76 + cur_mechanical_key_sta, 76 + cur_mechanical_key_sta, 0xFFFF, 0xFFFF);
                                           	MOVAR	_cur_mechanical_key_sta
                                           	MOVRA	r0x1030
                                           	MOVAI	0x4c
                                           	ADDRA	r0x1030
                                           	MOVAR	_cur_mechanical_key_sta
                                           	MOVRA	r0x102F
                                           	MOVAI	0x4c
                                           	ADDRA	r0x102F
                                           	MOVAI	0xff
                                           	MOVRA	STK02
                                           	MOVAI	0xff
                                           	MOVRA	STK01
                                           	MOVAR	r0x102F
                                           	MOVRA	STK00
                                           	MOVAR	r0x1030
                                           	CALL	_key_event_same_deal_ex
                                           ;	.line	966; "MC32F7361.c"	break;
                                           	GOTO	_00230_DS_
                                           _00221_DS_
                                           ;	.line	969; "MC32F7361.c"	key_event_same_deal(MODE_R2C4_START, MODE_R2C4_END, 0x9645, 0x9645);
                                           	MOVAI	0x45
                                           	MOVRA	STK02
                                           	MOVAI	0x96
                                           	MOVRA	STK01
                                           	MOVAI	0x4e
                                           	MOVRA	STK00
                                           	MOVAI	0x4e
                                           	CALL	_key_event_same_deal_ex
                                           ;	.line	970; "MC32F7361.c"	break;
                                           	GOTO	_00230_DS_
                                           _00222_DS_
                                           ;	.line	972; "MC32F7361.c"	key_event_same_deal(MODE_FADE_START, MODE_FADE_END, 0x9645, 0x9645);
                                           	MOVAI	0x45
                                           	MOVRA	STK02
                                           	MOVAI	0x96
                                           	MOVRA	STK01
                                           	MOVAI	0x09
                                           	MOVRA	STK00
                                           	MOVAI	0x00
                                           	CALL	_key_event_same_deal_ex
                                           ;	.line	973; "MC32F7361.c"	break;
                                           	GOTO	_00230_DS_
                                           _00223_DS_
                                           ;	.line	975; "MC32F7361.c"	key_event_same_deal(MODE_JUMP_START, MODE_JUMP_END, 0x9645, 0x9645);
                                           	MOVAI	0x45
                                           	MOVRA	STK02
                                           	MOVAI	0x96
                                           	MOVRA	STK01
                                           	MOVAI	0x13
                                           	MOVRA	STK00
                                           	MOVAI	0x0a
                                           	CALL	_key_event_same_deal_ex
                                           ;	.line	976; "MC32F7361.c"	break;
                                           	GOTO	_00230_DS_
                                           _00224_DS_
                                           ;	.line	978; "MC32F7361.c"	key_event_same_deal(MODE_ASYN_FADE_START, MODE_ASYN_FADE_END, 0x9645, 0x9645);
                                           	MOVAI	0x45
                                           	MOVRA	STK02
                                           	MOVAI	0x96
                                           	MOVRA	STK01
                                           	MOVAI	0x19
                                           	MOVRA	STK00
                                           	MOVAI	0x14
                                           	CALL	_key_event_same_deal_ex
                                           ;	.line	979; "MC32F7361.c"	break;
                                           	GOTO	_00230_DS_
                                           _00225_DS_
                                           ;	.line	982; "MC32F7361.c"	key_event_same_deal(MODE_ASYN_JUMP_START, MODE_ASYN_JUMP_END, 0x9645, 0x9645);
                                           	MOVAI	0x45
                                           	MOVRA	STK02
                                           	MOVAI	0x96
                                           	MOVRA	STK01
                                           	MOVAI	0x1c
                                           	MOVRA	STK00
                                           	MOVAI	0x1a
                                           	CALL	_key_event_same_deal_ex
                                           ;	.line	983; "MC32F7361.c"	break;
                                           	GOTO	_00230_DS_
                                           _00226_DS_
                                           ;	.line	986; "MC32F7361.c"	key_event_same_deal(MODE_TWINKLE_START, MODE_TWINKLE_END, 0x9645, 0x9645);
                                           	MOVAI	0x45
                                           	MOVRA	STK02
                                           	MOVAI	0x96
                                           	MOVRA	STK01
                                           	MOVAI	0x3a
                                           	MOVRA	STK00
                                           	MOVAI	0x1d
                                           	CALL	_key_event_same_deal_ex
                                           ;	.line	987; "MC32F7361.c"	break;
                                           	GOTO	_00230_DS_
                                           _00227_DS_
                                           ;	.line	990; "MC32F7361.c"	key_event_same_deal(MODE_STROBE_START, MODE_STROBE_END, 0x9645, 0x9645);
                                           	MOVAI	0x45
                                           	MOVRA	STK02
                                           	MOVAI	0x96
                                           	MOVRA	STK01
                                           	MOVAI	0x44
                                           	MOVRA	STK00
                                           	MOVAI	0x3b
                                           	CALL	_key_event_same_deal_ex
                                           ;	.line	991; "MC32F7361.c"	break;
                                           	GOTO	_00230_DS_
                                           _00228_DS_
                                           ;	.line	993; "MC32F7361.c"	key_event_same_deal(MODE_IN_WAVES_START, MODE_IN_WAVES_END, 0x9645, 0x9645);
                                           	MOVAI	0x45
                                           	MOVRA	STK02
                                           	MOVAI	0x96
                                           	MOVRA	STK01
                                           	MOVAI	0x4a
                                           	MOVRA	STK00
                                           	MOVAI	0x45
                                           	CALL	_key_event_same_deal_ex
                                           ;	.line	994; "MC32F7361.c"	break;
                                           	GOTO	_00230_DS_
                                           _00229_DS_
                                           ;	.line	997; "MC32F7361.c"	power_sta = POWER_STA_PRE_OFF;
                                           	MOVAI	0x03
                                           	MOVRA	_power_sta
                                           _00230_DS_
                                           ;	.line	1000; "MC32F7361.c"	cur_mechanical_key_sta++;
                                           	INCR	_cur_mechanical_key_sta
                                           ;	.line	1001; "MC32F7361.c"	break;
                                           	GOTO	_00258_DS_
                                           _00231_DS_
                                           ;	.line	1003; "MC32F7361.c"	key_event_same_deal(MODE_FADE_START, MODE_FADE_END, 0x9645, 0x9645);
                                           	MOVAI	0x45
                                           	MOVRA	STK02
                                           	MOVAI	0x96
                                           	MOVRA	STK01
                                           	MOVAI	0x09
                                           	MOVRA	STK00
                                           	MOVAI	0x00
                                           	CALL	_key_event_same_deal_ex
                                           ;	.line	1004; "MC32F7361.c"	cur_mechanical_key_sta = 5;
                                           	MOVAI	0x05
                                           	MOVRA	_cur_mechanical_key_sta
                                           ;	.line	1005; "MC32F7361.c"	break;
                                           	GOTO	_00258_DS_
                                           _00232_DS_
                                           ;	.line	1008; "MC32F7361.c"	key_event_same_deal(MODE_JUMP_START, MODE_JUMP_END, 0x9645, 0x9645);
                                           	MOVAI	0x45
                                           	MOVRA	STK02
                                           	MOVAI	0x96
                                           	MOVRA	STK01
                                           	MOVAI	0x13
                                           	MOVRA	STK00
                                           	MOVAI	0x0a
                                           	CALL	_key_event_same_deal_ex
                                           ;	.line	1009; "MC32F7361.c"	cur_mechanical_key_sta = 6;
                                           	MOVAI	0x06
                                           	MOVRA	_cur_mechanical_key_sta
                                           ;	.line	1010; "MC32F7361.c"	break;
                                           	GOTO	_00258_DS_
                                           _00233_DS_
                                           ;	.line	1013; "MC32F7361.c"	key_event_same_deal(MODE_ASYN_FADE_START, MODE_ASYN_FADE_END, 0x9645, 0x9645);
                                           	MOVAI	0x45
                                           	MOVRA	STK02
                                           	MOVAI	0x96
                                           	MOVRA	STK01
                                           	MOVAI	0x19
                                           	MOVRA	STK00
                                           	MOVAI	0x14
                                           	CALL	_key_event_same_deal_ex
                                           ;	.line	1014; "MC32F7361.c"	cur_mechanical_key_sta = 7;
                                           	MOVAI	0x07
                                           	MOVRA	_cur_mechanical_key_sta
                                           ;	.line	1015; "MC32F7361.c"	break;
                                           	GOTO	_00258_DS_
                                           _00234_DS_
                                           ;	.line	1018; "MC32F7361.c"	key_event_same_deal(MODE_IN_WAVES_START, MODE_IN_WAVES_END, 0x9645, 0x9645);
                                           	MOVAI	0x45
                                           	MOVRA	STK02
                                           	MOVAI	0x96
                                           	MOVRA	STK01
                                           	MOVAI	0x4a
                                           	MOVRA	STK00
                                           	MOVAI	0x45
                                           	CALL	_key_event_same_deal_ex
                                           ;	.line	1019; "MC32F7361.c"	cur_mechanical_key_sta = 11;
                                           	MOVAI	0x0b
                                           	MOVRA	_cur_mechanical_key_sta
                                           ;	.line	1020; "MC32F7361.c"	break;
                                           	GOTO	_00258_DS_
                                           _00235_DS_
                                           ;	.line	1023; "MC32F7361.c"	key_event_same_deal(MODE_STROBE_START, MODE_STROBE_END, 0x9645, 0x9645);
                                           	MOVAI	0x45
                                           	MOVRA	STK02
                                           	MOVAI	0x96
                                           	MOVRA	STK01
                                           	MOVAI	0x44
                                           	MOVRA	STK00
                                           	MOVAI	0x3b
                                           	CALL	_key_event_same_deal_ex
                                           ;	.line	1024; "MC32F7361.c"	cur_mechanical_key_sta = 10;
                                           	MOVAI	0x0a
                                           	MOVRA	_cur_mechanical_key_sta
                                           ;	.line	1025; "MC32F7361.c"	break;
                                           	GOTO	_00258_DS_
                                           _00236_DS_
                                           ;	.line	1028; "MC32F7361.c"	key_event_same_deal(MODE_TWINKLE_START, MODE_TWINKLE_END, 0x9645, 0x9645);
                                           	MOVAI	0x45
                                           	MOVRA	STK02
                                           	MOVAI	0x96
                                           	MOVRA	STK01
                                           	MOVAI	0x3a
                                           	MOVRA	STK00
                                           	MOVAI	0x1d
                                           	CALL	_key_event_same_deal_ex
                                           ;	.line	1029; "MC32F7361.c"	cur_mechanical_key_sta = 9;
                                           	MOVAI	0x09
                                           	MOVRA	_cur_mechanical_key_sta
                                           ;	.line	1030; "MC32F7361.c"	break;
                                           	GOTO	_00258_DS_
                                           _00237_DS_
                                           ;	.line	1033; "MC32F7361.c"	key_event_same_deal(MODE_ASYN_JUMP_START, MODE_ASYN_JUMP_END, 0x9645, 0x9645);
                                           	MOVAI	0x45
                                           	MOVRA	STK02
                                           	MOVAI	0x96
                                           	MOVRA	STK01
                                           	MOVAI	0x1c
                                           	MOVRA	STK00
                                           	MOVAI	0x1a
                                           	CALL	_key_event_same_deal_ex
                                           ;	.line	1034; "MC32F7361.c"	cur_mechanical_key_sta = 8;
                                           	MOVAI	0x08
                                           	MOVRA	_cur_mechanical_key_sta
                                           ;	.line	1035; "MC32F7361.c"	break;
                                           	GOTO	_00258_DS_
                                           _00238_DS_
                                           ;	.line	1038; "MC32F7361.c"	key_event_same_deal(MODE_R2C1_START, MODE_R2C1_END, 0xFFFF, 0xFFFF);
                                           	MOVAI	0xff
                                           	MOVRA	STK02
                                           	MOVAI	0xff
                                           	MOVRA	STK01
                                           	MOVAI	0x4b
                                           	MOVRA	STK00
                                           	MOVAI	0x4b
                                           	CALL	_key_event_same_deal_ex
                                           ;	.line	1039; "MC32F7361.c"	cur_mechanical_key_sta = 1;
                                           	MOVAI	0x01
                                           	MOVRA	_cur_mechanical_key_sta
                                           ;	.line	1040; "MC32F7361.c"	break;
                                           	GOTO	_00258_DS_
                                           _00239_DS_
                                           ;	.line	1042; "MC32F7361.c"	key_event_same_deal(MODE_R2C2_START, MODE_R2C2_END, 0xFFFF, 0xFFFF);
                                           	MOVAI	0xff
                                           	MOVRA	STK02
                                           	MOVAI	0xff
                                           	MOVRA	STK01
                                           	MOVAI	0x4c
                                           	MOVRA	STK00
                                           	MOVAI	0x4c
                                           	CALL	_key_event_same_deal_ex
                                           ;	.line	1043; "MC32F7361.c"	cur_mechanical_key_sta = 2;
                                           	MOVAI	0x02
                                           	MOVRA	_cur_mechanical_key_sta
                                           ;	.line	1044; "MC32F7361.c"	break;
                                           	GOTO	_00258_DS_
                                           _00240_DS_
                                           ;	.line	1046; "MC32F7361.c"	key_event_same_deal(MODE_R2C3_START, MODE_R2C3_END, 0xFFFF, 0xFFFF);
                                           	MOVAI	0xff
                                           	MOVRA	STK02
                                           	MOVAI	0xff
                                           	MOVRA	STK01
                                           	MOVAI	0x4d
                                           	MOVRA	STK00
                                           	MOVAI	0x4d
                                           	CALL	_key_event_same_deal_ex
                                           ;	.line	1047; "MC32F7361.c"	cur_mechanical_key_sta = 3;
                                           	MOVAI	0x03
                                           	MOVRA	_cur_mechanical_key_sta
                                           ;	.line	1048; "MC32F7361.c"	break;
                                           	GOTO	_00258_DS_
                                           _00241_DS_
                                           ;	.line	1050; "MC32F7361.c"	key_event_same_deal(MODE_R2C4_START, MODE_R2C4_END, 0x9645, 0x9645);
                                           	MOVAI	0x45
                                           	MOVRA	STK02
                                           	MOVAI	0x96
                                           	MOVRA	STK01
                                           	MOVAI	0x4e
                                           	MOVRA	STK00
                                           	MOVAI	0x4e
                                           	CALL	_key_event_same_deal_ex
                                           ;	.line	1051; "MC32F7361.c"	cur_mechanical_key_sta = 4;
                                           	MOVAI	0x04
                                           	MOVRA	_cur_mechanical_key_sta
                                           ;	.line	1052; "MC32F7361.c"	break;
                                           	GOTO	_00258_DS_
                                           _00242_DS_
                                           ;	.line	1054; "MC32F7361.c"	key_event_same_deal(MODE_R3C1_START, MODE_R3C1_END, 0x9F00, 0x9F00);
                                           	MOVAI	0x00
                                           	MOVRA	STK02
                                           	MOVAI	0x9f
                                           	MOVRA	STK01
                                           	MOVAI	0x4f
                                           	MOVRA	STK00
                                           	MOVAI	0x4f
                                           	CALL	_key_event_same_deal_ex
                                           ;	.line	1055; "MC32F7361.c"	cur_mechanical_key_sta = 0;
                                           	CLRR	_cur_mechanical_key_sta
                                           ;	.line	1056; "MC32F7361.c"	break;
                                           	GOTO	_00258_DS_
                                           _00243_DS_
                                           ;	.line	1058; "MC32F7361.c"	key_event_same_deal(MODE_R3C2_START, MODE_R3C2_END, 0x90F1, 0x90F1);
                                           	MOVAI	0xf1
                                           	MOVRA	STK02
                                           	MOVAI	0x90
                                           	MOVRA	STK01
                                           	MOVAI	0x50
                                           	MOVRA	STK00
                                           	MOVAI	0x50
                                           	CALL	_key_event_same_deal_ex
                                           ;	.line	1059; "MC32F7361.c"	cur_mechanical_key_sta = 0;
                                           	CLRR	_cur_mechanical_key_sta
                                           ;	.line	1060; "MC32F7361.c"	break;
                                           	GOTO	_00258_DS_
                                           _00244_DS_
                                           ;	.line	1062; "MC32F7361.c"	key_event_same_deal(MODE_R3C3_START, MODE_R3C3_END, 0x930F, 0x930F);
                                           	MOVAI	0x0f
                                           	MOVRA	STK02
                                           	MOVAI	0x93
                                           	MOVRA	STK01
                                           	MOVAI	0x51
                                           	MOVRA	STK00
                                           	MOVAI	0x51
                                           	CALL	_key_event_same_deal_ex
                                           ;	.line	1063; "MC32F7361.c"	cur_mechanical_key_sta = 0;
                                           	CLRR	_cur_mechanical_key_sta
                                           ;	.line	1064; "MC32F7361.c"	break;
                                           	GOTO	_00258_DS_
                                           _00245_DS_
                                           ;	.line	1066; "MC32F7361.c"	key_event_same_deal(MODE_R4C1_START, MODE_R4C1_END, 0x9F10, 0x9F10);
                                           	MOVAI	0x10
                                           	MOVRA	STK02
                                           	MOVAI	0x9f
                                           	MOVRA	STK01
                                           	MOVAI	0x52
                                           	MOVRA	STK00
                                           	MOVAI	0x52
                                           	CALL	_key_event_same_deal_ex
                                           ;	.line	1067; "MC32F7361.c"	cur_mechanical_key_sta = 0;
                                           	CLRR	_cur_mechanical_key_sta
                                           ;	.line	1068; "MC32F7361.c"	break;
                                           	GOTO	_00258_DS_
                                           _00246_DS_
                                           ;	.line	1070; "MC32F7361.c"	key_event_same_deal(MODE_R4C2_START, MODE_R4C2_END, 0x90F8, 0x90F8);
                                           	MOVAI	0xf8
                                           	MOVRA	STK02
                                           	MOVAI	0x90
                                           	MOVRA	STK01
                                           	MOVAI	0x53
                                           	MOVRA	STK00
                                           	MOVAI	0x53
                                           	CALL	_key_event_same_deal_ex
                                           ;	.line	1071; "MC32F7361.c"	cur_mechanical_key_sta = 0;
                                           	CLRR	_cur_mechanical_key_sta
                                           ;	.line	1072; "MC32F7361.c"	break;
                                           	GOTO	_00258_DS_
                                           _00247_DS_
                                           ;	.line	1074; "MC32F7361.c"	key_event_same_deal(MODE_R4C3_START, MODE_R4C3_END, 0x980F, 0x980F);
                                           	MOVAI	0x0f
                                           	MOVRA	STK02
                                           	MOVAI	0x98
                                           	MOVRA	STK01
                                           	MOVAI	0x54
                                           	MOVRA	STK00
                                           	MOVAI	0x54
                                           	CALL	_key_event_same_deal_ex
                                           ;	.line	1075; "MC32F7361.c"	cur_mechanical_key_sta = 0;
                                           	CLRR	_cur_mechanical_key_sta
                                           ;	.line	1076; "MC32F7361.c"	break;
                                           	GOTO	_00258_DS_
                                           _00248_DS_
                                           ;	.line	1078; "MC32F7361.c"	key_event_same_deal(MODE_R5C1_START, MODE_R5C1_END, 0x9F30, 0x9F30);
                                           	MOVAI	0x30
                                           	MOVRA	STK02
                                           	MOVAI	0x9f
                                           	MOVRA	STK01
                                           	MOVAI	0x55
                                           	MOVRA	STK00
                                           	MOVAI	0x55
                                           	CALL	_key_event_same_deal_ex
                                           ;	.line	1079; "MC32F7361.c"	cur_mechanical_key_sta = 0;
                                           	CLRR	_cur_mechanical_key_sta
                                           ;	.line	1080; "MC32F7361.c"	break;
                                           	GOTO	_00258_DS_
                                           _00249_DS_
                                           ;	.line	1082; "MC32F7361.c"	key_event_same_deal(MODE_R5C2_START, MODE_R5C2_END, 0x90FC, 0x90FC);
                                           	MOVAI	0xfc
                                           	MOVRA	STK02
                                           	MOVAI	0x90
                                           	MOVRA	STK01
                                           	MOVAI	0x56
                                           	MOVRA	STK00
                                           	MOVAI	0x56
                                           	CALL	_key_event_same_deal_ex
                                           ;	.line	1083; "MC32F7361.c"	cur_mechanical_key_sta = 0;
                                           	CLRR	_cur_mechanical_key_sta
                                           ;	.line	1084; "MC32F7361.c"	break;
                                           	GOTO	_00258_DS_
                                           _00250_DS_
                                           ;	.line	1086; "MC32F7361.c"	key_event_same_deal(MODE_R5C3_START, MODE_R5C3_END, 0x9F0F, 0x9F0F);
                                           	MOVAI	0x0f
                                           	MOVRA	STK02
                                           	MOVAI	0x9f
                                           	MOVRA	STK01
                                           	MOVAI	0x57
                                           	MOVRA	STK00
                                           	MOVAI	0x57
                                           	CALL	_key_event_same_deal_ex
                                           ;	.line	1087; "MC32F7361.c"	cur_mechanical_key_sta = 0;
                                           	CLRR	_cur_mechanical_key_sta
                                           ;	.line	1088; "MC32F7361.c"	break;
                                           	GOTO	_00258_DS_
                                           _00251_DS_
                                           ;	.line	1090; "MC32F7361.c"	key_event_same_deal(MODE_R6C1_START, MODE_R6C1_END, 0x9FF0, 0x9FF0);
                                           	MOVAI	0xf0
                                           	MOVRA	STK02
                                           	MOVAI	0x9f
                                           	MOVRA	STK01
                                           	MOVAI	0x58
                                           	MOVRA	STK00
                                           	MOVAI	0x58
                                           	CALL	_key_event_same_deal_ex
                                           ;	.line	1091; "MC32F7361.c"	cur_mechanical_key_sta = 0;
                                           	CLRR	_cur_mechanical_key_sta
                                           ;	.line	1092; "MC32F7361.c"	break;
                                           	GOTO	_00258_DS_
                                           _00252_DS_
                                           ;	.line	1094; "MC32F7361.c"	key_event_same_deal(MODE_R6C2_START, MODE_R6C2_END, 0x90FF, 0x90FF);
                                           	MOVAI	0xff
                                           	MOVRA	STK02
                                           	MOVAI	0x90
                                           	MOVRA	STK01
                                           	MOVAI	0x59
                                           	MOVRA	STK00
                                           	MOVAI	0x59
                                           	CALL	_key_event_same_deal_ex
                                           ;	.line	1095; "MC32F7361.c"	cur_mechanical_key_sta = 0;
                                           	CLRR	_cur_mechanical_key_sta
                                           ;	.line	1096; "MC32F7361.c"	break;
                                           	GOTO	_00258_DS_
                                           _00253_DS_
                                           ;	.line	1098; "MC32F7361.c"	key_event_same_deal(MODE_R6C3_START, MODE_R6C3_END, 0x9F03, 0x9F03);
                                           	MOVAI	0x03
                                           	MOVRA	STK02
                                           	MOVAI	0x9f
                                           	MOVRA	STK01
                                           	MOVAI	0x5a
                                           	MOVRA	STK00
                                           	MOVAI	0x5a
                                           	CALL	_key_event_same_deal_ex
                                           ;	.line	1099; "MC32F7361.c"	cur_mechanical_key_sta = 0;
                                           	CLRR	_cur_mechanical_key_sta
                                           ;	.line	1100; "MC32F7361.c"	break;
                                           	GOTO	_00258_DS_
                                           _00254_DS_
                                           ;	.line	1103; "MC32F7361.c"	timer_count = 4 * 60 * 60 * 1000;
                                           	CLRR	_timer_count
                                           	MOVAI	0xba
                                           	MOVRA	(_timer_count + 1)
                                           	MOVAI	0xff
                                           	MOVRA	(_timer_count + 2)
                                           	MOVRA	(_timer_count + 3)
                                           ;	.line	1111; "MC32F7361.c"	key_event_set_timer();
                                           	CALL	_key_event_set_timer
                                           ;	.line	1113; "MC32F7361.c"	LED_4H_PIN = LED_TIM_PIN_ON;
                                           	BCLR	_IOP1bits,3
                                           ;	.line	1114; "MC32F7361.c"	break;
                                           	GOTO	_00258_DS_
                                           _00255_DS_
                                           ;	.line	1116; "MC32F7361.c"	timer_count = 6 * 60 * 60 * 1000;
                                           	CLRR	_timer_count
                                           	MOVAI	0x97
                                           	MOVRA	(_timer_count + 1)
                                           	MOVAI	0xff
                                           	MOVRA	(_timer_count + 2)
                                           	MOVRA	(_timer_count + 3)
                                           ;	.line	1124; "MC32F7361.c"	key_event_set_timer();
                                           	CALL	_key_event_set_timer
                                           ;	.line	1126; "MC32F7361.c"	LED_6H_PIN = LED_TIM_PIN_ON;
                                           	BCLR	_IOP1bits,7
                                           ;	.line	1127; "MC32F7361.c"	break;
                                           	GOTO	_00258_DS_
                                           _00256_DS_
                                           ;	.line	1129; "MC32F7361.c"	timer_count = 8 * 60 * 60 * 1000;
                                           	CLRR	_timer_count
                                           	MOVAI	0x74
                                           	MOVRA	(_timer_count + 1)
                                           	CLRR	(_timer_count + 2)
                                           	CLRR	(_timer_count + 3)
                                           ;	.line	1137; "MC32F7361.c"	key_event_set_timer();
                                           	CALL	_key_event_set_timer
                                           ;	.line	1139; "MC32F7361.c"	LED_8H_PIN = LED_TIM_PIN_ON;
                                           	BCLR	_IOP0bits,0
                                           ;	.line	1140; "MC32F7361.c"	break;
                                           	GOTO	_00258_DS_
                                           _00257_DS_
                                           ;	.line	1142; "MC32F7361.c"	timer_count = 0;
                                           	CLRR	_timer_count
                                           	CLRR	(_timer_count + 1)
                                           	CLRR	(_timer_count + 2)
                                           	CLRR	(_timer_count + 3)
                                           ;	.line	1150; "MC32F7361.c"	key_event_set_timer();
                                           	CALL	_key_event_set_timer
                                           _00258_DS_
                                           ;	.line	1156; "MC32F7361.c"	flag_is_recved_data = 0;
                                           	BCLR	_flag1,0
                                           _00260_DS_
                                           ;	.line	1160; "MC32F7361.c"	if (power_sta == POWER_STA_ON)
                                           	MOVAR	_power_sta
                                           	XORAI	0x02
                                           	JBSET	PFLAG,2
                                           	GOTO	_00296_DS_
                                           ;	.line	1163; "MC32F7361.c"	if (next_frame_delay == 0) // 
                                           	MOVAR	_next_frame_delay
                                           	ORAR	(_next_frame_delay + 1)
                                           	JBSET	PFLAG,2
                                           	GOTO	_00299_DS_
                                           ;	.line	1165; "MC32F7361.c"	u16 speed_code = 0x00;
                                           	CLRR	r0x1030
                                           	CLRR	r0x102F
                                           ;	.line	1167; "MC32F7361.c"	next_frame_delay = 0xFFFF;
                                           	MOVAI	0xff
                                           	MOVRA	_next_frame_delay
                                           	MOVRA	(_next_frame_delay + 1)
                                           ;;swapping arguments (AOP_TYPEs 1/3)
                                           ;;unsigned compare: left >= lit(0xA=10), size=1
                                           ;	.line	1169; "MC32F7361.c"	if (current_index >= SECTION_1_START && current_index <= SECTION_1_END) // code
                                           	MOVAI	0x0a
                                           	RSUBAR	_current_index
                                           	JBCLR	PFLAG,0
                                           	GOTO	_00283_DS_
                                           ;;genSkipc:3291: created from rifx:013B5EFC
                                           ;	.line	1171; "MC32F7361.c"	speed_code = section_1_speed_table[current_speed];       // code
                                           	MOVAR	_current_speed
                                           	ADDAI	(_section_1_speed_table + 0)
                                           	MOVRA	r0x1031
                                           	MOVAI	high (_section_1_speed_table + 0)
                                           	JBCLR	PFLAG,0
                                           	ADDAI	0x01
                                           	MOVRA	r0x1032
                                           	MOVAR	r0x1031
                                           	MOVRA	STK01
                                           	MOVAR	r0x1032
                                           	MOVRA	STK00
                                           	MOVAI	0x80
                                           	CALL	__gptrget1
                                           	MOVRA	r0x1030
                                           	MOVRA	r0x1033
                                           ;;109	MOVAR	r0x1033
                                           	CLRR	r0x102F
                                           ;	.line	1172; "MC32F7361.c"	next_frame_delay = section_1_delay_table[current_speed]; // 
                                           	BCLR	PFLAG,0
                                           	RLAR	_current_speed
                                           	MOVRA	r0x1031
                                           	MOVAR	r0x1031
                                           	ADDAI	(_section_1_delay_table + 0)
                                           	MOVRA	r0x1031
                                           	MOVAI	high (_section_1_delay_table + 0)
                                           	JBCLR	PFLAG,0
                                           	ADDAI	0x01
                                           	MOVRA	r0x1032
                                           	MOVAR	r0x1031
                                           	MOVRA	STK01
                                           	MOVAR	r0x1032
                                           	MOVRA	STK00
                                           	MOVAI	0x80
                                           	CALL	__gptrget2
                                           	MOVRA	(_next_frame_delay + 1)
                                           	MOVAR	STK00
                                           	MOVRA	_next_frame_delay
                                           	GOTO	_00284_DS_
                                           ;;unsigned compare: left < lit(0xA=10), size=1
                                           _00283_DS_
                                           ;	.line	1176; "MC32F7361.c"	else if (current_index >= SECTION_2_START && current_index <= SECTION_2_END)
                                           	MOVAI	0x0a
                                           	RSUBAR	_current_index
                                           	JBSET	PFLAG,0
                                           	GOTO	_00279_DS_
                                           ;;genSkipc:3291: created from rifx:013B5EFC
                                           ;;swapping arguments (AOP_TYPEs 1/3)
                                           ;;unsigned compare: left >= lit(0x14=20), size=1
                                           	MOVAI	0x14
                                           	RSUBAR	_current_index
                                           	JBCLR	PFLAG,0
                                           	GOTO	_00279_DS_
                                           ;;genSkipc:3291: created from rifx:013B5EFC
                                           ;	.line	1179; "MC32F7361.c"	next_frame_delay = section_2_delay_table[current_speed];
                                           	BCLR	PFLAG,0
                                           	RLAR	_current_speed
                                           	MOVRA	r0x1031
                                           	MOVAR	r0x1031
                                           	ADDAI	(_section_2_delay_table + 0)
                                           	MOVRA	r0x1031
                                           	MOVAI	high (_section_2_delay_table + 0)
                                           	JBCLR	PFLAG,0
                                           	ADDAI	0x01
                                           	MOVRA	r0x1032
                                           	MOVAR	r0x1031
                                           	MOVRA	STK01
                                           	MOVAR	r0x1032
                                           	MOVRA	STK00
                                           	MOVAI	0x80
                                           	CALL	__gptrget2
                                           	MOVRA	(_next_frame_delay + 1)
                                           	MOVAR	STK00
                                           	MOVRA	_next_frame_delay
                                           	GOTO	_00284_DS_
                                           ;;unsigned compare: left < lit(0x14=20), size=1
                                           _00279_DS_
                                           ;	.line	1183; "MC32F7361.c"	else if ((current_index >= SECTION_3_START &&                                  /*current_index <= SECTION_3_END) ||
                                           	MOVAI	0x14
                                           	RSUBAR	_current_index
                                           	JBSET	PFLAG,0
                                           	GOTO	_00277_DS_
                                           ;;genSkipc:3291: created from rifx:013B5EFC
                                           ;;swapping arguments (AOP_TYPEs 1/3)
                                           ;;unsigned compare: left >= lit(0x1D=29), size=1
                                           	MOVAI	0x1d
                                           	RSUBAR	_current_index
                                           	JBSET	PFLAG,0
                                           	GOTO	_00272_DS_
                                           ;;genSkipc:3291: created from rifx:013B5EFC
                                           ;;unsigned compare: left < lit(0x3B=59), size=1
                                           _00277_DS_
                                           ;	.line	1185; "MC32F7361.c"	(current_index >= SECTION_6_START && current_index <= SECTION_6_END)) // 
                                           	MOVAI	0x3b
                                           	RSUBAR	_current_index
                                           	JBSET	PFLAG,0
                                           	GOTO	_00273_DS_
                                           ;;genSkipc:3291: created from rifx:013B5EFC
                                           ;;swapping arguments (AOP_TYPEs 1/3)
                                           ;;unsigned compare: left >= lit(0x45=69), size=1
                                           	MOVAI	0x45
                                           	RSUBAR	_current_index
                                           	JBCLR	PFLAG,0
                                           	GOTO	_00273_DS_
                                           ;;genSkipc:3291: created from rifx:013B5EFC
                                           _00272_DS_
                                           ;	.line	1188; "MC32F7361.c"	speed_code = section_3_speed_table[current_speed];
                                           	MOVAR	_current_speed
                                           	ADDAI	(_section_3_speed_table + 0)
                                           	MOVRA	r0x1031
                                           	MOVAI	high (_section_3_speed_table + 0)
                                           	JBCLR	PFLAG,0
                                           	ADDAI	0x01
                                           	MOVRA	r0x1032
                                           	MOVAR	r0x1031
                                           	MOVRA	STK01
                                           	MOVAR	r0x1032
                                           	MOVRA	STK00
                                           	MOVAI	0x80
                                           	CALL	__gptrget1
                                           	MOVRA	r0x1030
                                           	MOVRA	r0x1033
                                           ;;108	MOVAR	r0x1033
                                           	CLRR	r0x102F
                                           ;	.line	1190; "MC32F7361.c"	next_frame_delay = 4960;
                                           	MOVAI	0x60
                                           	MOVRA	_next_frame_delay
                                           	MOVAI	0x13
                                           	MOVRA	(_next_frame_delay + 1)
                                           	GOTO	_00284_DS_
                                           ;;unsigned compare: left < lit(0x1D=29), size=1
                                           _00273_DS_
                                           ;	.line	1207; "MC32F7361.c"	else if (current_index >= SECTION_5_START && current_index <= SECTION_5_END)
                                           	MOVAI	0x1d
                                           	RSUBAR	_current_index
                                           	JBSET	PFLAG,0
                                           	GOTO	_00269_DS_
                                           ;;genSkipc:3291: created from rifx:013B5EFC
                                           ;;swapping arguments (AOP_TYPEs 1/3)
                                           ;;unsigned compare: left >= lit(0x3B=59), size=1
                                           	MOVAI	0x3b
                                           	RSUBAR	_current_index
                                           	JBCLR	PFLAG,0
                                           	GOTO	_00269_DS_
                                           ;;genSkipc:3291: created from rifx:013B5EFC
                                           ;	.line	1210; "MC32F7361.c"	next_frame_delay = section_5_delay_table[current_speed];
                                           	BCLR	PFLAG,0
                                           	RLAR	_current_speed
                                           	MOVRA	r0x1031
                                           	MOVAR	r0x1031
                                           	ADDAI	(_section_5_delay_table + 0)
                                           	MOVRA	r0x1031
                                           	MOVAI	high (_section_5_delay_table + 0)
                                           	JBCLR	PFLAG,0
                                           	ADDAI	0x01
                                           	MOVRA	r0x1032
                                           	MOVAR	r0x1031
                                           	MOVRA	STK01
                                           	MOVAR	r0x1032
                                           	MOVRA	STK00
                                           	MOVAI	0x80
                                           	CALL	__gptrget2
                                           	MOVRA	(_next_frame_delay + 1)
                                           	MOVAR	STK00
                                           	MOVRA	_next_frame_delay
                                           	GOTO	_00284_DS_
                                           ;;unsigned compare: left < lit(0x45=69), size=1
                                           _00269_DS_
                                           ;	.line	1222; "MC32F7361.c"	else if (current_index >= SECTION_7_START && current_index <= SECTION_7_END)
                                           	MOVAI	0x45
                                           	RSUBAR	_current_index
                                           	JBSET	PFLAG,0
                                           	GOTO	_00265_DS_
                                           ;;genSkipc:3291: created from rifx:013B5EFC
                                           ;;swapping arguments (AOP_TYPEs 1/3)
                                           ;;unsigned compare: left >= lit(0x4B=75), size=1
                                           	MOVAI	0x4b
                                           	RSUBAR	_current_index
                                           	JBCLR	PFLAG,0
                                           	GOTO	_00265_DS_
                                           ;;genSkipc:3291: created from rifx:013B5EFC
                                           ;	.line	1224; "MC32F7361.c"	speed_code = section_7_speed_table[current_speed];
                                           	MOVAR	_current_speed
                                           	ADDAI	(_section_7_speed_table + 0)
                                           	MOVRA	r0x1031
                                           	MOVAI	high (_section_7_speed_table + 0)
                                           	JBCLR	PFLAG,0
                                           	ADDAI	0x01
                                           	MOVRA	r0x1032
                                           	MOVAR	r0x1031
                                           	MOVRA	STK01
                                           	MOVAR	r0x1032
                                           	MOVRA	STK00
                                           	MOVAI	0x80
                                           	CALL	__gptrget1
                                           	MOVRA	r0x1030
                                           	MOVRA	r0x1033
                                           ;;107	MOVAR	r0x1033
                                           	CLRR	r0x102F
                                           ;	.line	1225; "MC32F7361.c"	next_frame_delay = section_7_delay_table[current_speed];
                                           	BCLR	PFLAG,0
                                           	RLAR	_current_speed
                                           	MOVRA	r0x1031
                                           	MOVAR	r0x1031
                                           	ADDAI	(_section_7_delay_table + 0)
                                           	MOVRA	r0x1031
                                           	MOVAI	high (_section_7_delay_table + 0)
                                           	JBCLR	PFLAG,0
                                           	ADDAI	0x01
                                           	MOVRA	r0x1032
                                           	MOVAR	r0x1031
                                           	MOVRA	STK01
                                           	MOVAR	r0x1032
                                           	MOVRA	STK00
                                           	MOVAI	0x80
                                           	CALL	__gptrget2
                                           	MOVRA	(_next_frame_delay + 1)
                                           	MOVAR	STK00
                                           	MOVRA	_next_frame_delay
                                           	GOTO	_00284_DS_
                                           ;;unsigned compare: left < lit(0x4E=78), size=1
                                           _00265_DS_
                                           ;	.line	1240; "MC32F7361.c"	else if (current_index >= SECTION_9_START && current_index <= SECTION_9_END)
                                           	MOVAI	0x4e
                                           	RSUBAR	_current_index
                                           	JBSET	PFLAG,0
                                           	GOTO	_00284_DS_
                                           ;;genSkipc:3291: created from rifx:013B5EFC
                                           ;;swapping arguments (AOP_TYPEs 1/3)
                                           ;;unsigned compare: left >= lit(0x5B=91), size=1
                                           	MOVAI	0x5b
                                           	RSUBAR	_current_index
                                           	JBCLR	PFLAG,0
                                           	GOTO	_00284_DS_
                                           ;;genSkipc:3291: created from rifx:013B5EFC
                                           ;	.line	1246; "MC32F7361.c"	speed_code = 0x10;
                                           	MOVAI	0x10
                                           	MOVRA	r0x1030
                                           	CLRR	r0x102F
                                           _00284_DS_
                                           ;	.line	1256; "MC32F7361.c"	speed_code <<= 8;
                                           	MOVAR	r0x1030
                                           	MOVRA	r0x1032
                                           	CLRR	r0x1031
                                           ;	.line	1257; "MC32F7361.c"	speed_code |= main_table[current_index];
                                           	MOVAR	_current_index
                                           	ADDAI	(_main_table + 0)
                                           	MOVRA	r0x1030
                                           	MOVAI	high (_main_table + 0)
                                           	JBCLR	PFLAG,0
                                           	ADDAI	0x01
                                           	MOVRA	r0x102F
                                           	MOVAR	r0x1030
                                           	MOVRA	STK01
                                           	MOVAR	r0x102F
                                           	MOVRA	STK00
                                           	MOVAI	0x80
                                           	CALL	__gptrget1
                                           	MOVRA	r0x1030
                                           	MOVRA	r0x1033
                                           ;;105	MOVAR	r0x1033
                                           	CLRR	r0x102F
                                           	MOVAR	r0x1030
                                           	ORRA	r0x1031
                                           	MOVAI	0x00
                                           	ORRA	r0x1032
                                           ;	.line	1258; "MC32F7361.c"	send_cmd_16bit(speed_code);
                                           	MOVAR	r0x1031
                                           	MOVRA	STK00
                                           	MOVAR	r0x1032
                                           	CALL	_send_cmd_16bit
                                           ;	.line	1260; "MC32F7361.c"	current_index++;
                                           	INCR	_current_index
                                           ;	.line	1261; "MC32F7361.c"	if (current_index > end_index)
                                           	MOVAR	_current_index
                                           	RSUBAR	_end_index
                                           	JBCLR	PFLAG,0
                                           	GOTO	_00299_DS_
                                           ;;genSkipc:3291: created from rifx:013B5EFC
                                           ;	.line	1262; "MC32F7361.c"	current_index = start_index;
                                           	MOVAR	_start_index
                                           	MOVRA	_current_index
                                           	GOTO	_00299_DS_
                                           _00296_DS_
                                           ;	.line	1265; "MC32F7361.c"	else if (power_sta == POWER_STA_PRE_ON)
                                           	MOVAR	_power_sta
                                           	XORAI	0x01
                                           	JBSET	PFLAG,2
                                           	GOTO	_00293_DS_
                                           ;	.line	1268; "MC32F7361.c"	LED_CTL_PIN = 1;
                                           	BSET	_IOP0bits,4
                                           ;	.line	1269; "MC32F7361.c"	delay_ms(2);
                                           	MOVAI	0x02
                                           	MOVRA	STK00
                                           	MOVAI	0x00
                                           	CALL	_delay_ms
                                           ;	.line	1270; "MC32F7361.c"	LED_CTL_PIN = 0;
                                           	BCLR	_IOP0bits,4
                                           ;	.line	1273; "MC32F7361.c"	delay_200us();
                                           	MOVAI	0x02
                                           	CALL	_delay_100xus
                                           ;	.line	1274; "MC32F7361.c"	LED_CTL_PIN = 1;
                                           	BSET	_IOP0bits,4
                                           ;	.line	1275; "MC32F7361.c"	delay_ms(3);
                                           	MOVAI	0x03
                                           	MOVRA	STK00
                                           	MOVAI	0x00
                                           	CALL	_delay_ms
                                           ;	.line	1276; "MC32F7361.c"	LED_CTL_PIN = 0;
                                           	BCLR	_IOP0bits,4
                                           ;	.line	1279; "MC32F7361.c"	delay_200us();
                                           	MOVAI	0x02
                                           	CALL	_delay_100xus
                                           ;	.line	1280; "MC32F7361.c"	LED_CTL_PIN = 1;
                                           	BSET	_IOP0bits,4
                                           ;	.line	1281; "MC32F7361.c"	delay_ms(4);
                                           	MOVAI	0x04
                                           	MOVRA	STK00
                                           	MOVAI	0x00
                                           	CALL	_delay_ms
                                           ;	.line	1282; "MC32F7361.c"	LED_CTL_PIN = 0;
                                           	BCLR	_IOP0bits,4
                                           ;	.line	1285; "MC32F7361.c"	delay_200us();
                                           	MOVAI	0x02
                                           	CALL	_delay_100xus
                                           ;	.line	1286; "MC32F7361.c"	LED_CTL_PIN = 1;
                                           	BSET	_IOP0bits,4
                                           ;	.line	1287; "MC32F7361.c"	delay_ms(5);
                                           	MOVAI	0x05
                                           	MOVRA	STK00
                                           	MOVAI	0x00
                                           	CALL	_delay_ms
                                           ;	.line	1288; "MC32F7361.c"	LED_CTL_PIN = 0;
                                           	BCLR	_IOP0bits,4
                                           ;	.line	1291; "MC32F7361.c"	delay_200us();
                                           	MOVAI	0x02
                                           	CALL	_delay_100xus
                                           ;	.line	1292; "MC32F7361.c"	LED_CTL_PIN = 1;
                                           	BSET	_IOP0bits,4
                                           ;	.line	1293; "MC32F7361.c"	delay_ms(51);
                                           	MOVAI	0x33
                                           	MOVRA	STK00
                                           	MOVAI	0x00
                                           	CALL	_delay_ms
                                           ;	.line	1295; "MC32F7361.c"	power_sta = POWER_STA_ON;
                                           	MOVAI	0x02
                                           	MOVRA	_power_sta
                                           ;	.line	1298; "MC32F7361.c"	key_event_same_deal(EEPROM_Read_Byte(0), EEPROM_Read_Byte(1), EEPROM_Read_Byte(2), EEPROM_Read_Byte(2));
                                           	MOVAI	0x00
                                           	CALL	_EEPROM_Read_Byte
                                           	MOVRA	r0x102F
                                           	MOVAR	STK00
                                           	MOVRA	r0x1031
                                           	MOVRA	r0x1030
                                           ;;106	MOVAR	r0x1030
                                           	MOVAI	0x01
                                           	CALL	_EEPROM_Read_Byte
                                           	MOVRA	r0x102F
                                           	MOVAR	STK00
                                           	MOVRA	r0x1032
                                           	MOVRA	r0x1030
                                           ;;104	MOVAR	r0x1030
                                           	MOVAI	0x02
                                           	CALL	_EEPROM_Read_Byte
                                           	MOVRA	r0x102F
                                           	MOVAR	STK00
                                           	MOVRA	r0x1030
                                           	MOVAR	r0x1030
                                           	MOVRA	STK02
                                           	MOVAR	r0x102F
                                           	MOVRA	STK01
                                           	MOVAR	r0x1032
                                           	MOVRA	STK00
                                           	MOVAR	r0x1031
                                           	CALL	_key_event_same_deal_ex
                                           	GOTO	_00299_DS_
                                           _00293_DS_
                                           ;	.line	1302; "MC32F7361.c"	else if (power_sta == POWER_STA_PRE_OFF)
                                           	MOVAR	_power_sta
                                           	XORAI	0x03
                                           	JBSET	PFLAG,2
                                           	GOTO	_00299_DS_
                                           ;	.line	1304; "MC32F7361.c"	power_sta = POWER_STA_OFF;
                                           	CLRR	_power_sta
                                           ;	.line	1306; "MC32F7361.c"	send_cmd_16bit(0x0C00);
                                           	MOVAI	0x00
                                           	MOVRA	STK00
                                           	MOVAI	0x0c
                                           	CALL	_send_cmd_16bit
                                           ;	.line	1307; "MC32F7361.c"	send_cmd_16bit(0x0C00);
                                           	MOVAI	0x00
                                           	MOVRA	STK00
                                           	MOVAI	0x0c
                                           	CALL	_send_cmd_16bit
                                           ;	.line	1308; "MC32F7361.c"	delay_ms(40);
                                           	MOVAI	0x28
                                           	MOVRA	STK00
                                           	MOVAI	0x00
                                           	CALL	_delay_ms
                                           ;	.line	1309; "MC32F7361.c"	LED_CTL_PIN = 0;
                                           	BCLR	_IOP0bits,4
                                           ;	.line	1310; "MC32F7361.c"	LED_4H_PIN = LED_TIM_PIN_OFF;
                                           	BSET	_IOP1bits,3
                                           ;	.line	1311; "MC32F7361.c"	LED_6H_PIN = LED_TIM_PIN_OFF;
                                           	BSET	_IOP1bits,7
                                           ;	.line	1312; "MC32F7361.c"	LED_8H_PIN = LED_TIM_PIN_OFF;
                                           	BSET	_IOP0bits,0
                                           	GOTO	_00299_DS_
                                           ;	.line	1315; "MC32F7361.c"	}
                                           	RETURN	
                                           ; exit point of _main
                                           
                                           ;***
                                           ;  pBlock Stats: dbName = C
                                           ;***
                                           ;entry:  _key_event_set_timer	;Function start
                                           ; 2 exit points
                                           ;has an exit
                                           ;functions called:
                                           ;   _key_event_same_deal_ex
                                           ;   _key_event_same_deal_ex
                                           ;5 compiler assigned registers:
                                           ;   r0x102D
                                           ;   r0x102E
                                           ;   STK02
                                           ;   STK01
                                           ;   STK00
                                           ;; Starting pCode block
                                           _key_event_set_timer	;Function start
                                           ; 2 exit points
                                           ;	.line	719; "MC32F7361.c"	key_event_same_deal(eeprom_read_byte_index_0, eeprom_read_byte_index_1, eeprom_read_byte_index_2, eeprom_read_byte_index_3);
                                           	MOVAR	_eeprom_read_byte_index_2
                                           	MOVRA	r0x102D
                                           ;;1	CLRR	r0x102E
                                           	MOVAR	r0x102D
                                           	MOVRA	STK02
                                           	MOVAI	0x00
                                           	MOVRA	STK01
                                           	MOVAR	_eeprom_read_byte_index_1
                                           	MOVRA	STK00
                                           	MOVAR	_eeprom_read_byte_index_0
                                           	CALL	_key_event_same_deal_ex
                                           ;	.line	721; "MC32F7361.c"	LED_4H_PIN = LED_TIM_PIN_OFF;
                                           	BSET	_IOP1bits,3
                                           ;	.line	722; "MC32F7361.c"	LED_6H_PIN = LED_TIM_PIN_OFF;
                                           	BSET	_IOP1bits,7
                                           ;	.line	723; "MC32F7361.c"	LED_8H_PIN = LED_TIM_PIN_OFF;
                                           	BSET	_IOP0bits,0
                                           ;	.line	729; "MC32F7361.c"	}
                                           	RETURN	
                                           ; exit point of _key_event_set_timer
                                           
                                           ;***
                                           ;  pBlock Stats: dbName = C
                                           ;***
                                           ;entry:  _key_event_same_deal_ex	;Function start
                                           ; 2 exit points
                                           ;has an exit
                                           ;functions called:
                                           ;   _EEPROM_Write_Byte
                                           ;   _EEPROM_Write_Byte
                                           ;   _EEPROM_Write_Byte
                                           ;   _EEPROM_Write_Byte
                                           ;   _send_cmd_16bit
                                           ;   _send_cmd_16bit
                                           ;   _send_cmd_16bit
                                           ;   _EEPROM_Write_Byte
                                           ;   _EEPROM_Write_Byte
                                           ;   _EEPROM_Write_Byte
                                           ;   _EEPROM_Write_Byte
                                           ;   _send_cmd_16bit
                                           ;   _send_cmd_16bit
                                           ;   _send_cmd_16bit
                                           ;9 compiler assigned registers:
                                           ;   r0x1027
                                           ;   STK00
                                           ;   r0x1028
                                           ;   STK01
                                           ;   r0x1029
                                           ;   STK02
                                           ;   r0x102A
                                           ;   r0x102B
                                           ;   r0x102C
                                           ;; Starting pCode block
                                           _key_event_same_deal_ex	;Function start
                                           ; 2 exit points
                                           	MOVRA	r0x102B
                                           ;	.line	665; "MC32F7361.c"	void key_event_same_deal_ex(u8 start, u8 end, u16 own_data1)
                                           	MOVRA	r0x1027
                                           	MOVAR	STK00
                                           	MOVRA	r0x1028
                                           	MOVAR	STK01
                                           	MOVRA	r0x1029
                                           	MOVAR	STK02
                                           	MOVRA	r0x102A
                                           ;;101	MOVAR	r0x1027
                                           ;	.line	668; "MC32F7361.c"	EEPROM_Write_Byte(0, start);
                                           	CLRR	r0x102C
                                           	MOVAR	r0x102B
                                           	MOVRA	STK01
                                           	MOVAI	0x00
                                           	MOVRA	STK00
                                           	MOVAI	0x00
                                           	CALL	_EEPROM_Write_Byte
                                           ;;103	MOVAR	r0x1028
                                           ;	.line	669; "MC32F7361.c"	EEPROM_Write_Byte(1, end);
                                           	CLRR	r0x102C
                                           ;;102	MOVAR	r0x102B
                                           	MOVAR	r0x1028
                                           	MOVRA	r0x102B
                                           	MOVRA	STK01
                                           	MOVAI	0x00
                                           	MOVRA	STK00
                                           	MOVAI	0x01
                                           	CALL	_EEPROM_Write_Byte
                                           ;	.line	670; "MC32F7361.c"	EEPROM_Write_Byte(2, own_data1);
                                           	MOVAR	r0x102A
                                           	MOVRA	STK01
                                           	MOVAR	r0x1029
                                           	MOVRA	STK00
                                           	MOVAI	0x02
                                           	CALL	_EEPROM_Write_Byte
                                           ;	.line	672; "MC32F7361.c"	EEPROM_Write_Byte(4, 0xA5A5);
                                           	MOVAI	0xa5
                                           	MOVRA	STK01
                                           	MOVAI	0xa5
                                           	MOVRA	STK00
                                           	MOVAI	0x04
                                           	CALL	_EEPROM_Write_Byte
                                           ;	.line	674; "MC32F7361.c"	eeprom_read_byte_index_0 = start;
                                           	MOVAR	r0x1027
                                           	MOVRA	_eeprom_read_byte_index_0
                                           ;	.line	675; "MC32F7361.c"	eeprom_read_byte_index_1 = end;
                                           	MOVAR	r0x1028
                                           	MOVRA	_eeprom_read_byte_index_1
                                           ;	.line	676; "MC32F7361.c"	eeprom_read_byte_index_2 = own_data1;
                                           	MOVAR	r0x102A
                                           	MOVRA	_eeprom_read_byte_index_2
                                           ;	.line	679; "MC32F7361.c"	if (power_sta == POWER_STA_ON)
                                           	MOVAR	_power_sta
                                           	XORAI	0x02
                                           	JBSET	PFLAG,2
                                           	GOTO	_00176_DS_
                                           ;	.line	681; "MC32F7361.c"	start_index = start;
                                           	MOVAR	r0x1027
                                           	MOVRA	_start_index
                                           ;	.line	682; "MC32F7361.c"	end_index = end;
                                           	MOVAR	r0x1028
                                           	MOVRA	_end_index
                                           ;	.line	691; "MC32F7361.c"	send_cmd_16bit(0x0C00);
                                           	MOVAI	0x00
                                           	MOVRA	STK00
                                           	MOVAI	0x0c
                                           	CALL	_send_cmd_16bit
                                           ;	.line	696; "MC32F7361.c"	if (own_data1 != 0xFFFF)
                                           	MOVAR	r0x102A
                                           	XORAI	0xff
                                           	JBSET	PFLAG,2
                                           	GOTO	_00192_DS_
                                           	MOVAR	r0x1029
                                           	XORAI	0xff
                                           	JBSET	PFLAG,2
                                           	GOTO	_00192_DS_
                                           	GOTO	_00172_DS_
                                           _00192_DS_
                                           ;	.line	698; "MC32F7361.c"	send_cmd_16bit(own_data1);
                                           	MOVAR	r0x102A
                                           	MOVRA	STK00
                                           	MOVAR	r0x1029
                                           	CALL	_send_cmd_16bit
                                           ;	.line	699; "MC32F7361.c"	send_cmd_16bit(own_data1);
                                           	MOVAR	r0x102A
                                           	MOVRA	STK00
                                           	MOVAR	r0x1029
                                           	CALL	_send_cmd_16bit
                                           _00172_DS_
                                           ;	.line	702; "MC32F7361.c"	current_index = start_index; // 
                                           	MOVAR	_start_index
                                           	MOVRA	_current_index
                                           ;	.line	703; "MC32F7361.c"	next_frame_delay = 0;        // 
                                           	CLRR	_next_frame_delay
                                           	CLRR	(_next_frame_delay + 1)
                                           	GOTO	_00178_DS_
                                           _00176_DS_
                                           ;	.line	705; "MC32F7361.c"	else if (power_sta == POWER_STA_OFF)
                                           	MOVAI	0x00
                                           	ORAR	_power_sta
                                           	JBSET	PFLAG,2
                                           	GOTO	_00178_DS_
                                           ;	.line	713; "MC32F7361.c"	power_sta = POWER_STA_PRE_ON;
                                           	MOVAI	0x01
                                           	MOVRA	_power_sta
                                           _00178_DS_
                                           ;	.line	715; "MC32F7361.c"	}
                                           	RETURN	
                                           ; exit point of _key_event_same_deal_ex
                                           
                                           ;***
                                           ;  pBlock Stats: dbName = C
                                           ;***
                                           ;entry:  _Sys_Init	;Function start
                                           ; 2 exit points
                                           ;has an exit
                                           ;; Starting pCode block
                                           _Sys_Init	;Function start
                                           ; 2 exit points
                                           ;	.line	275; "MC32F7361.c"	GIE = 0;
                                           	BCLR	_MCRbits,7
                                           ;	.line	278; "MC32F7361.c"	for (FSR0 = 0; FSR0 < 0xff; FSR0++)
                                           	CLRR	_FSR0
                                           ;;unsigned compare: left < lit(0xFF=255), size=1
                                           _00166_DS_
                                           	MOVAI	0xff
                                           	RSUBAR	_FSR0
                                           	JBCLR	PFLAG,0
                                           	GOTO	_00164_DS_
                                           ;;genSkipc:3291: created from rifx:013B5EFC
                                           ;	.line	280; "MC32F7361.c"	INDF0 = 0x00;
                                           	CLRR	_INDF0
                                           ;	.line	278; "MC32F7361.c"	for (FSR0 = 0; FSR0 < 0xff; FSR0++)
                                           	INCR	_FSR0
                                           	GOTO	_00166_DS_
                                           _00164_DS_
                                           ;	.line	282; "MC32F7361.c"	FSR0 = 0xFF;
                                           	MOVAI	0xff
                                           	MOVRA	_FSR0
                                           ;	.line	283; "MC32F7361.c"	INDF0 = 0x00;
                                           	CLRR	_INDF0
                                           ;	.line	287; "MC32F7361.c"	IOP0 = 0x00;   // io
                                           	CLRR	_IOP0
                                           ;	.line	288; "MC32F7361.c"	OEP0 = 0x3F;   // io 1:out  0:in
                                           	MOVAI	0x3f
                                           	MOVRA	_OEP0
                                           ;	.line	289; "MC32F7361.c"	PUP0 = 0x00;   // io   1:enable  0:disable
                                           	CLRR	_PUP0
                                           ;	.line	290; "MC32F7361.c"	PDP0 = 0x00;   // io   1:enable  0:disable
                                           	CLRR	_PDP0
                                           ;	.line	291; "MC32F7361.c"	P0ADCR = 0x00; // io  1:  0:io
                                           	CLRR	_P0ADCR
                                           ;	.line	293; "MC32F7361.c"	IOP1 = 0x00;   // io
                                           	CLRR	_IOP1
                                           ;	.line	294; "MC32F7361.c"	OEP1 = 0xFF;   // io 1:out  0:in
                                           	MOVAI	0xff
                                           	MOVRA	_OEP1
                                           ;	.line	295; "MC32F7361.c"	PUP1 = 0x00;   // io   1:enable  0:disable
                                           	CLRR	_PUP1
                                           ;	.line	296; "MC32F7361.c"	PDP1 = 0x00;   // io   1:enable  0:disable
                                           	CLRR	_PDP1
                                           ;	.line	297; "MC32F7361.c"	P1ADCR = 0x00; // io  1:  0:io
                                           	CLRR	_P1ADCR
                                           ;	.line	299; "MC32F7361.c"	IOP2 = 0x00; // io
                                           	CLRR	_IOP2
                                           ;	.line	300; "MC32F7361.c"	OEP2 = 0x0F; // io 1:out  0:in
                                           	MOVAI	0x0f
                                           	MOVRA	_OEP2
                                           ;	.line	301; "MC32F7361.c"	PUP2 = 0x00; // io   1:enable  0:disable
                                           	CLRR	_PUP2
                                           ;	.line	302; "MC32F7361.c"	PDP2 = 0x00; // io   1:enable  0:disablea
                                           	CLRR	_PDP2
                                           ;	.line	304; "MC32F7361.c"	PMOD = 0x00;  // P00P01P13 io
                                           	CLRR	_PMOD
                                           ;	.line	305; "MC32F7361.c"	DRVCR = 0x80; // 
                                           	MOVAI	0x80
                                           	MOVRA	_DRVCR
                                           ;	.line	311; "MC32F7361.c"	T2CR = DEF_SET_BIT0 | DEF_SET_BIT1; // CPU,8
                                           	MOVAI	0x03
                                           	MOVRA	_T2CR
                                           ;	.line	312; "MC32F7361.c"	T2CNT = 100 - 1;
                                           	MOVAI	0x63
                                           	MOVRA	_T2CNT
                                           ;	.line	313; "MC32F7361.c"	T2LOAD = 100 - 1; // 100us
                                           	MOVAI	0x63
                                           	MOVRA	_T2LOAD
                                           ;	.line	314; "MC32F7361.c"	T2EN = 1;
                                           	BSET	_T2CRbits,7
                                           ;	.line	315; "MC32F7361.c"	T2IE = 1;
                                           	BSET	_INTEbits,5
                                           ;	.line	319; "MC32F7361.c"	LED_4H_PIN = LED_TIM_PIN_OFF;
                                           	BSET	_IOP1bits,3
                                           ;	.line	320; "MC32F7361.c"	LED_6H_PIN = LED_TIM_PIN_OFF;
                                           	BSET	_IOP1bits,7
                                           ;	.line	321; "MC32F7361.c"	LED_8H_PIN = LED_TIM_PIN_OFF;
                                           	BSET	_IOP0bits,0
                                           ;	.line	322; "MC32F7361.c"	GIE = 1;
                                           	BSET	_MCRbits,7
                                           ;	.line	323; "MC32F7361.c"	}
                                           	RETURN	
                                           ; exit point of _Sys_Init
                                           
                                           ;***
                                           ;  pBlock Stats: dbName = C
                                           ;***
                                           ;entry:  _send_cmd_16bit	;Function start
                                           ; 2 exit points
                                           ;has an exit
                                           ;functions called:
                                           ;   _delay_100xus
                                           ;   _delay_ms
                                           ;   _delay_100xus
                                           ;   _delay_100xus
                                           ;   _delay_ms
                                           ;   _delay_100xus
                                           ;   _delay_ms
                                           ;   _delay_100xus
                                           ;   _delay_100xus
                                           ;   _delay_ms
                                           ;7 compiler assigned registers:
                                           ;   r0x1021
                                           ;   STK00
                                           ;   r0x1022
                                           ;   r0x1023
                                           ;   r0x1024
                                           ;   r0x1025
                                           ;   r0x1026
                                           ;; Starting pCode block
                                           _send_cmd_16bit	;Function start
                                           ; 2 exit points
                                           ;	.line	140; "MC32F7361.c"	void send_cmd_16bit(const u16 data)
                                           	MOVRA	r0x1021
                                           	MOVAR	STK00
                                           	MOVRA	r0x1022
                                           ;	.line	149; "MC32F7361.c"	for (i = 0; i < 16; i++)
                                           	CLRR	r0x1023
                                           _00141_DS_
                                           ;	.line	151; "MC32F7361.c"	LED_CTL_PIN = 0;
                                           	BCLR	_IOP0bits,4
                                           ;	.line	152; "MC32F7361.c"	delay_100us();
                                           	MOVAI	0x01
                                           	CALL	_delay_100xus
                                           ;	.line	153; "MC32F7361.c"	LED_CTL_PIN = 1;
                                           	BSET	_IOP0bits,4
                                           ;	.line	154; "MC32F7361.c"	if ((data >> (15 - i)) & 0x01) // 1
                                           	MOVAR	r0x1023
                                           	ISUBAI	0x0f
                                           	MOVRA	r0x1024
                                           	MOVAR	r0x1021
                                           	MOVRA	r0x1025
                                           	MOVAR	r0x1022
                                           	MOVRA	r0x1026
                                           	MOVAR	r0x1024
                                           	ISUBAI	0x00
                                           	JBCLR	PFLAG,2
                                           	GOTO	_00159_DS_
                                           _00158_DS_
                                           	RRR	r0x1025
                                           	RRR	r0x1026
                                           	ADDAI	0x01
                                           	JBSET	PFLAG,0
                                           	GOTO	_00158_DS_
                                           _00159_DS_
                                           	JBSET	r0x1026,0
                                           	GOTO	_00138_DS_
                                           ;	.line	156; "MC32F7361.c"	delay_ms(3);
                                           	MOVAI	0x03
                                           	MOVRA	STK00
                                           	MOVAI	0x00
                                           	CALL	_delay_ms
                                           	GOTO	_00142_DS_
                                           _00138_DS_
                                           ;	.line	160; "MC32F7361.c"	delay_1_4ms();
                                           	MOVAI	0x0e
                                           	CALL	_delay_100xus
                                           _00142_DS_
                                           ;	.line	149; "MC32F7361.c"	for (i = 0; i < 16; i++)
                                           	INCR	r0x1023
                                           ;;unsigned compare: left < lit(0x10=16), size=1
                                           	MOVAI	0x10
                                           	RSUBAR	r0x1023
                                           	JBSET	PFLAG,0
                                           	GOTO	_00141_DS_
                                           ;;genSkipc:3291: created from rifx:013B5EFC
                                           ;	.line	164; "MC32F7361.c"	LED_CTL_PIN = 0;
                                           	BCLR	_IOP0bits,4
                                           ;	.line	165; "MC32F7361.c"	delay_100us();
                                           	MOVAI	0x01
                                           	CALL	_delay_100xus
                                           ;	.line	166; "MC32F7361.c"	LED_CTL_PIN = 1;
                                           	BSET	_IOP0bits,4
                                           ;	.line	167; "MC32F7361.c"	delay_ms(33);
                                           	MOVAI	0x21
                                           	MOVRA	STK00
                                           	MOVAI	0x00
                                           	CALL	_delay_ms
                                           ;	.line	169; "MC32F7361.c"	}
                                           	RETURN	
                                           ; exit point of _send_cmd_16bit
                                           
                                           ;***
                                           ;  pBlock Stats: dbName = C
                                           ;***
                                           ;entry:  _EEPROM_Read_Byte	;Function start
                                           ; 2 exit points
                                           ;has an exit
                                           ;5 compiler assigned registers:
                                           ;   r0x101B
                                           ;   r0x101C
                                           ;   r0x101D
                                           ;   r0x101E
                                           ;   STK00
                                           ;; Starting pCode block
                                           _EEPROM_Read_Byte	;Function start
                                           ; 2 exit points
                                           ;	.line	110; "MC32F7361.c"	uint16_t EEPROM_Read_Byte(u8 addr)
                                           	MOVRA	_EEAR
                                           ;	.line	114; "MC32F7361.c"	EECR = 0x02; //  EE 
                                           	MOVAI	0x02
                                           	MOVRA	_EECR
                                           ;	.line	115; "MC32F7361.c"	Nop();
                                           	nop	
                                           ;	.line	116; "MC32F7361.c"	Nop();
                                           	nop	
                                           _00132_DS_
                                           ;	.line	117; "MC32F7361.c"	while (EEREAD) //  EE 
                                           	JBCLR	_EECRbits,1
                                           	GOTO	_00132_DS_
                                           ;	.line	121; "MC32F7361.c"	EEDR = (EEDRH << 8) | EEDRL;
                                           	MOVAR	_EEDRH
                                           	MOVRA	r0x101D
                                           	MOVRA	r0x101B
                                           	CLRR	r0x101C
                                           ;;100	MOVAR	r0x101B
                                           	CLRR	r0x101E
                                           	MOVAR	_EEDRL
                                           	MOVRA	r0x101B
                                           	CLRR	r0x101C
                                           	MOVAR	r0x101B
                                           	ORRA	r0x101E
                                           	MOVAI	0x00
                                           	ORRA	r0x101D
                                           ;	.line	122; "MC32F7361.c"	return EEDR;
                                           	MOVAR	r0x101E
                                           	MOVRA	STK00
                                           	MOVAR	r0x101D
                                           ;	.line	123; "MC32F7361.c"	}
                                           	RETURN	
                                           ; exit point of _EEPROM_Read_Byte
                                           
                                           ;***
                                           ;  pBlock Stats: dbName = C
                                           ;***
                                           ;entry:  _EEPROM_Write_Byte	;Function start
                                           ; 2 exit points
                                           ;has an exit
                                           ;6 compiler assigned registers:
                                           ;   STK00
                                           ;   r0x101B
                                           ;   STK01
                                           ;   r0x101C
                                           ;   r0x101D
                                           ;   r0x101E
                                           ;; Starting pCode block
                                           _EEPROM_Write_Byte	;Function start
                                           ; 2 exit points
                                           ;	.line	86; "MC32F7361.c"	void EEPROM_Write_Byte(uint8_t addr, uint16_t data)
                                           	MOVRA	_EEAR
                                           	MOVAR	STK00
                                           	MOVRA	r0x101D
                                           ;;1	MOVRA	r0x101B
                                           	MOVAR	STK01
                                           	MOVRA	r0x101C
                                           ;	.line	88; "MC32F7361.c"	HFEN = 1;
                                           	BSET	_OSCMRbits,0
                                           ;;99	MOVAR	r0x101B
                                           ;;1	CLRR	r0x101E
                                           ;	.line	90; "MC32F7361.c"	EEDRH = (data >> 8) & 0xff;
                                           	MOVAR	r0x101D
                                           	MOVRA	_EEDRH
                                           ;	.line	91; "MC32F7361.c"	EEDRL = data & 0xff;
                                           	MOVAR	r0x101C
                                           	MOVRA	_EEDRL
                                           ;	.line	92; "MC32F7361.c"	GIE = 0;
                                           	BCLR	_MCRbits,7
                                           ;	.line	93; "MC32F7361.c"	EEPR = 0x5A;
                                           	MOVAI	0x5a
                                           	MOVRA	_EEPR
                                           ;	.line	94; "MC32F7361.c"	EEPR = 0xA5; // 
                                           	MOVAI	0xa5
                                           	MOVRA	_EEPR
                                           ;	.line	95; "MC32F7361.c"	EECR = 0x01; // EEPROM  
                                           	MOVAI	0x01
                                           	MOVRA	_EECR
                                           ;	.line	96; "MC32F7361.c"	Nop();
                                           	nop	
                                           ;	.line	97; "MC32F7361.c"	Nop();
                                           	nop	
                                           _00127_DS_
                                           ;	.line	98; "MC32F7361.c"	while (EEWRITE) //  EE 
                                           	JBCLR	_EECRbits,0
                                           	GOTO	_00127_DS_
                                           ;	.line	102; "MC32F7361.c"	GIE = 1;
                                           	BSET	_MCRbits,7
                                           ;	.line	103; "MC32F7361.c"	}
                                           	RETURN	
                                           ; exit point of _EEPROM_Write_Byte
                                           
                                           ;***
                                           ;  pBlock Stats: dbName = C
                                           ;***
                                           ;entry:  _delay_100xus	;Function start
                                           ; 2 exit points
                                           ;has an exit
                                           ;2 compiler assigned registers:
                                           ;   r0x101B
                                           ;   r0x101C
                                           ;; Starting pCode block
                                           _delay_100xus	;Function start
                                           ; 2 exit points
                                           ;	.line	52; "MC32F7361.c"	void delay_100xus(u8 i)
                                           	MOVRA	r0x101B
                                           _00119_DS_
                                           ;	.line	55; "MC32F7361.c"	while (i)
                                           	MOVAI	0x00
                                           	ORAR	r0x101B
                                           	JBCLR	PFLAG,2
                                           	GOTO	_00122_DS_
                                           ;	.line	58; "MC32F7361.c"	while (j)
                                           	MOVAI	0x4a
                                           	MOVRA	r0x101C
                                           _00116_DS_
                                           	MOVAI	0x00
                                           	ORAR	r0x101C
                                           	JBCLR	PFLAG,2
                                           	GOTO	_00118_DS_
                                           ;	.line	60; "MC32F7361.c"	Nop();
                                           	nop	
                                           ;	.line	61; "MC32F7361.c"	j--;
                                           	DECR	r0x101C
                                           	GOTO	_00116_DS_
                                           _00118_DS_
                                           ;	.line	63; "MC32F7361.c"	i--;
                                           	DECR	r0x101B
                                           	GOTO	_00119_DS_
                                           _00122_DS_
                                           ;	.line	65; "MC32F7361.c"	}
                                           	RETURN	
                                           ; exit point of _delay_100xus
                                           
                                           ;***
                                           ;  pBlock Stats: dbName = C
                                           ;***
                                           ;entry:  _delay_ms	;Function start
                                           ; 2 exit points
                                           ;has an exit
                                           ;7 compiler assigned registers:
                                           ;   r0x101B
                                           ;   STK00
                                           ;   r0x101C
                                           ;   r0x101D
                                           ;   r0x101E
                                           ;   r0x101F
                                           ;   r0x1020
                                           ;; Starting pCode block
                                           _delay_ms	;Function start
                                           ; 2 exit points
                                           ;	.line	260; "user.h"	void delay_ms(u16 xms)
                                           	MOVRA	r0x101B
                                           	MOVAR	STK00
                                           	MOVRA	r0x101C
                                           _00108_DS_
                                           ;	.line	262; "user.h"	while (xms)
                                           	MOVAR	r0x101C
                                           	ORAR	r0x101B
                                           	JBCLR	PFLAG,2
                                           	GOTO	_00111_DS_
                                           ;	.line	265; "user.h"	while (i--)
                                           	MOVAI	0x05
                                           	MOVRA	r0x101D
                                           	MOVAI	0x02
                                           	MOVRA	r0x101E
                                           _00105_DS_
                                           	MOVAR	r0x101D
                                           	MOVRA	r0x101F
                                           	MOVAR	r0x101E
                                           	MOVRA	r0x1020
                                           	MOVAI	0xff
                                           	ADDRA	r0x101D
                                           	JBSET	PFLAG,0
                                           	DECR	r0x101E
                                           	MOVAR	r0x101F
                                           	ORAR	r0x1020
                                           	JBCLR	PFLAG,2
                                           	GOTO	_00107_DS_
                                           ;	.line	267; "user.h"	Nop();
                                           	nop	
                                           	GOTO	_00105_DS_
                                           _00107_DS_
                                           ;	.line	269; "user.h"	xms--; //  --while()
                                           	MOVAI	0xff
                                           	ADDRA	r0x101C
                                           	JBSET	PFLAG,0
                                           	DECR	r0x101B
                                           ;	.line	273; "user.h"	__endasm;
                                           	;
                                           	clrwdt;
                                           	
                                           	GOTO	_00108_DS_
                                           _00111_DS_
                                           ;	.line	275; "user.h"	}
                                           	RETURN	
                                           ; exit point of _delay_ms
                                           
                                           
                                           ;	code size estimation:
                                           ;	 1524+    0 =  1524 instructions ( 3048 byte)
                                           
                                           	end


MEMORY USAGE MAP ('X' = Used,  '-' = Unused)

0000 : XXXXXXXXXX------ XXXXXXXXXXXXXXXX XXXXXXXXXXXXXXXX XXXXXXXXXXXXXXXX
0040 : XXXXXXXXXXXXXXXX XXXXXXXXXXXXXXXX XXXXXXXXXXXXXXXX XXXXXXXXXXXXXXXX
0080 : XXXXXXXXXXXXXXXX XXXXXXXXXXXXXXXX XXXXXXXXXXXXXXXX XXXXXXXXXXXXXXXX
00C0 : XXXXXXXXXXXXXXXX XXXXXXXXXXXXXXXX XXXXXXXXXXXXXXXX XXXXXXXXXXXXXXXX
0100 : XXXXXXXXXXXXXXXX XXXXXXXXXXXXXXXX XXXXXXXXXXXXXXXX XXXXXXXXXXXXXXXX
0140 : XXXXXXXXXXXXXXXX XXXXXXXXXXXXXXXX XXXXXXXXXXXXXXXX XXXXXXXXXXXXXXXX
0180 : XXXXXXXXXXXXXXXX XXXXXXXXXXXXXXXX XXXXXXXXXXXXXXXX XXXXXXXXXXXXXXXX
01C0 : XXXXXXXXXXXXXXXX XXXXXXXXXXXXXXXX XXXXXXXXXXXXXXXX XXXXXXXXXXXXXXXX
0200 : XXXXXXXXXXXXXXXX XXXXXXXXXXXXXXXX XXXXXXXXXXXXXXXX XXXXXXXXXXXXXXXX
0240 : XXXXXXXXXXXXXXXX XXXXXXXXXXXXXXXX XXXXXXXXXXXXXXXX XXXXXXXXXXXXXXXX
0280 : XXXXXXXXXXXXXXXX XXXXXXXXXXXXXXXX XXXXXXXXXXXXXXXX XXXXXXXXXXXXXXXX
02C0 : XXXXXXXXXXXXXXXX XXXXXXXXXXXXXXXX XXXXXXXXXXXXXXXX XXXXXXXXXXXXXXXX
0300 : XXXXXXXXXXXXXXXX XXXXXXXXXXXXXXXX XXXXXXXXXXXXXXXX XXXXXXXXXXXXXXXX
0340 : XXXXXXXXXXXXXXXX XXXXXXXXXXXXXXXX XXXXXXXXXXXXXXXX XXXXXXXXXXXXXXXX
0380 : XXXXXXXXXXXXXXXX XXXXXXXXXXXXXXXX XXXXXXXXXXXXXXXX XXXXXXXXXXXXXXXX
03C0 : XXXXXXXXXXXXXXXX XXXXXXXXXXXXXXXX XXXXXXXXXXXXXXXX XXXXXXXXXXXXXXXX
0400 : XXXXXXXXXXXXXXXX XXXXXXXXXXXXXXXX XXXXXXXXXXXXXXXX XXXXXXXXXXXXXXXX
0440 : XXXXXXXXXXXXXXXX XXXXXXXXXXXXXXXX XXXXXXXXXXXXXXXX XXXXXXXXXXXXXXXX
0480 : XXXXXXXXXXXXXXXX XXXXXXXXXXXXXXXX XXXXXXXXXXXXXXXX XXXXXXXXXXXXXXXX
04C0 : XXXXXXXXXXXXXXXX XXXXXXXXXXXXXXXX XXXXXXXXXXXXXXXX XXXXXXXXXXXXXXXX
0500 : XXXXXXXXXXXXXXXX XXXXXXXXXXXXXXXX XXXXXXXXXXXXXXXX XXXXXXXXXXXXXXXX
0540 : XXXXXXXXXXXXXXXX XXXXXXXXXXXXXXXX XXXXXXXXXXXXXXXX XXXXXXXXXXXXXXXX
0580 : XXXXXXXXXXXXXXXX XXXXXXXXXXXXXXXX XXXXXXXXXXXXXXXX XXXXXXXXXXXXXXXX
05C0 : XXXXXXXXXXXXXXXX XXXXXXXXXXXXXXXX XXXXXXXXXXXXXXXX XXXXXXXXXXXXXXXX
0600 : XXXXXXXXXXXXXXXX XXXXXXXXXXXXXXXX XXXXXXXXXXXXXXXX XXXXXXXXXXXXXXXX
0640 : XXXXXXXXXXXXXXXX XXXXXXXXXXXXXXXX XXXXXXXXXXXXXXXX XXXXXXXXXXXXXXXX
0680 : XXXXXXXXXXXXXXXX XXXXXXXXXXXXXXXX XXXXXXXXXXXXXXXX XXXXXXXXXXXXXXXX
06C0 : XXXXXXXXXXXXXXXX XXXXXXXXXXXXXXXX XXXXXXXXXXXXXXXX XXXXXXXXXXXXXXXX
0700 : XXXXXXXXXXXXXXXX XXXXXXXXXXXXXXXX XXXXXXXXXXXXXXXX XXXXXXXXXXXXXXXX
0740 : XXXXXXXXXXXXXXXX XXXXXXXXXXXXXXXX XXXXXXXXXXXXXXXX XXXXXXXXXXXXXXXX
0780 : XXXXXXXXXXXXXXXX XXXXXXXXXXXXXXXX XXXXXXXXXXXXXXXX XXXXXXXXXXXXXXXX
07C0 : XXXXXXXXXXXXXXXX XXXXXXXXXXXXXXXX XXXXXXXXXXXXXXXX XXXXXXXXXXXXXXXX
0800 : XXXXXXXXXXXXXXXX XXXXXXXXXXXXXXXX XXXXXXXXXXXXXXXX XXXXXXXXXXXXXXXX
0840 : XXXXXXXXXXXXXXXX XXXXXXXXXXXXXXXX XXXXXXXXXXXXXXXX XXXXXXXXXXXXXXXX
0880 : XXXXXXXXXXXXXXXX XXXXXXXXXXXXXXXX XXXXXXXXXXXXXXXX XXXXXXXXXXXXXXXX
08C0 : XXXXXXXXXXXXXXXX XXXXXXXXXXXXXXXX XXXXXXXXXXXXXXXX XXXXXXXXXXXXXXXX
0900 : XXXXXXXXXXXXXXXX XXXXXXXXXXXXXXXX XXXXXXXXXXXXXXXX XXXXXXXXXXXXXXXX
0940 : XXXXXXXXXXXXXXXX XXXXXXXXXXXXXXXX XXXXXXXXXXXXXXXX XXXXXXXXXXXXXXXX
0980 : XXXXXXXXXXXXXXXX XXXXXXXXXXXXXXXX XXXXXXXXXXXXXXXX XXXXXXXXXXXXXXXX
09C0 : XXXXXXXXXXXXXXXX XXXXXXXXXXXXXXXX XXXXXXXXXXXXXXXX XXXXXXXXXXXXXXXX
0A00 : XXXXXXXXXXXXXXXX XXXXXXXXXXXXXXXX XXXXXXXXXXXXXXXX XXXXXXXXXXXXXXXX
0A40 : XXXXXXXXXXXXXXXX XXXXXXXXXXXXXXXX XXXXXXXXXXXXXXXX XXXXXXXXXXXXXXXX
0A80 : XXXXXXXXXXXXXXXX XXXXXXXXXXXXXXXX XXXXXXXXXXXXXXXX XXXXXXXXXXXXXXXX
0AC0 : XXXXXXXXXXXXXXXX XXXXXXXXXXXXXXXX XXXXXXXXXXXXXXXX XXXXXXXXXXXXXXXX
0B00 : XXXXXXXXXXXXXXXX XXXXXXXXXXXXXXXX XXXXXXXXXXXXXXXX XXXXXXXXXXXXXXXX
0B40 : XXXXXXXXXXXXXXXX XXXXXXXXXXXXXXXX XXXXXXXXXXXXXXXX XXXXXXXXXXXXXXXX
0B80 : XXXXXXXXXXXXXXXX XXXXXXXXXXXXXXXX XXXXXXXXXXXXXXXX XXXXXXXXXXXXXXXX
0BC0 : XXXXXXXXXXXXXXXX XXXXXXXXXXXXXXXX XXXXXXXXXXXXXXXX XXXXXXXXXXXXXXXX
0C00 : XXXXXXXXXXXXXXXX XXXXXXXXXXXXXXXX XXXXXXXXXXXXXXXX XXXXXXXXXXXXXXXX
0C40 : XXXXXXXXXXXXXXXX XXXXXXXXXXXXXXXX XXXXXXXXXXXXXXXX XXXXXXXXXXXXXXXX
0C80 : XXXXXXXXXXXXXXXX XXXXXXXXXXXXXXXX XXXXXXXXXXXXXXXX XXXXXXXXXXXXXXXX
0CC0 : XXXXXXXXXXXXXXXX XXXXXXXXXXXXXXXX XXXXXXXXXXXXXXXX XXXXXXXXXXXXXXXX
0D00 : XXXXXXXXXXXXXXXX XXXXXXXXXXXXXXXX XXXXXXXXXXXXXXXX XXXXXXXXXXXXXXXX
0D40 : XXXXXXXXXXXXXXXX XXXXXXXXXXXXXXXX XXXXXXXXXXXXXXXX XXXXXXXXXXXXXXXX
0D80 : XXXXXXXXXXXXXXXX XXXXXXXXXXXX---- ---------------- ----------------

All other memory blocks unused.

Program Memory Words Used:  1739

