gplink-2.2.37 (Jan 22 2024)
Listing File Generated: 2025-4-1  17:11:39
 
 
Address  Value    Disassembly              Source
-------  -----    -----------              ------
                                           ;--------------------------------------------------------
                                           ; external declarations
                                           ;--------------------------------------------------------
                                           	extern	_INDF0bits
                                           	extern	_INDF1bits
                                           	extern	_INDF2bits
                                           	extern	_HIBYTEbits
                                           	extern	_FSR0bits
                                           	extern	_FSR1bits
                                           	extern	_PCLbits
                                           	extern	_PFLAGbits
                                           	extern	_MCRbits
                                           	extern	_INDF3bits
                                           	extern	_INTEbits
                                           	extern	_INTFbits
                                           	extern	_DRVCRbits
                                           	extern	_P0KBCRbits
                                           	extern	_P1KBCRbits
                                           	extern	_P2KBCRbits
                                           	extern	_IOP0bits
                                           	extern	_OEP0bits
                                           	extern	_PUP0bits
                                           	extern	_PDP0bits
                                           	extern	_IOP1bits
                                           	extern	_OEP1bits
                                           	extern	_PUP1bits
                                           	extern	_PDP1bits
                                           	extern	_T0CRbits
                                           	extern	_T0CNTbits
                                           	extern	_T0LOADbits
                                           	extern	_T0DATAbits
                                           	extern	_T1CRbits
                                           	extern	_T1CNTbits
                                           	extern	_T1LOADbits
                                           	extern	_T1DATAbits
                                           	extern	_T2CRbits
                                           	extern	_T2CNTbits
                                           	extern	_T2LOADbits
                                           	extern	_T2DATAbits
                                           	extern	_T3CRbits
                                           	extern	_T3CNTbits
                                           	extern	_T3LOADbits
                                           	extern	_PWM0DRbits
                                           	extern	_PWM1DRbits
                                           	extern	_PWM2DRbits
                                           	extern	_PWMCR0bits
                                           	extern	_PWMCR1bits
                                           	extern	_OSCMRbits
                                           	extern	_LVDCRbits
                                           	extern	_ADCR0bits
                                           	extern	_ADCR1bits
                                           	extern	_ADCR2bits
                                           	extern	_OSADJCRbits
                                           	extern	_ADRHbits
                                           	extern	_ADRLbits
                                           	extern	_P0ADCRbits
                                           	extern	_P1ADCRbits
                                           	extern	_IOP2bits
                                           	extern	_OEP2bits
                                           	extern	_PUP2bits
                                           	extern	_PDP2bits
                                           	extern	_PMODbits
                                           	extern	_PWMCR3bits
                                           	extern	_PWMCR2bits
                                           	extern	_PFRCCRbits
                                           	extern	_PFRCCALbits
                                           	extern	_EECRbits
                                           	extern	_EEPRbits
                                           	extern	_EEARbits
                                           	extern	_EEDRHbits
                                           	extern	_EEDRLbits
                                           	extern	_DBGCRbits
                                           	extern	_DBGPRbits
                                           	extern	_HIRCCALbits
                                           	extern	_INDF0
                                           	extern	_INDF1
                                           	extern	_INDF2
                                           	extern	_HIBYTE
                                           	extern	_FSR0
                                           	extern	_FSR1
                                           	extern	_PCL
                                           	extern	_PFLAG
                                           	extern	_MCR
                                           	extern	_INDF3
                                           	extern	_INTE
                                           	extern	_INTF
                                           	extern	_DRVCR
                                           	extern	_P0KBCR
                                           	extern	_P1KBCR
                                           	extern	_P2KBCR
                                           	extern	_IOP0
                                           	extern	_OEP0
                                           	extern	_PUP0
                                           	extern	_PDP0
                                           	extern	_IOP1
                                           	extern	_OEP1
                                           	extern	_PUP1
                                           	extern	_PDP1
                                           	extern	_T0CR
                                           	extern	_T0CNT
                                           	extern	_T0LOAD
                                           	extern	_T0DATA
                                           	extern	_T1CR
                                           	extern	_T1CNT
                                           	extern	_T1LOAD
                                           	extern	_T1DATA
                                           	extern	_T2CR
                                           	extern	_T2CNT
                                           	extern	_T2LOAD
                                           	extern	_T2DATA
                                           	extern	_T3CR
                                           	extern	_T3CNT
                                           	extern	_T3LOAD
                                           	extern	_PWM0DR
                                           	extern	_PWM1DR
                                           	extern	_PWM2DR
                                           	extern	_PWMCR0
                                           	extern	_PWMCR1
                                           	extern	_OSCMR
                                           	extern	_LVDCR
                                           	extern	_ADCR0
                                           	extern	_ADCR1
                                           	extern	_ADCR2
                                           	extern	_OSADJCR
                                           	extern	_ADRH
                                           	extern	_ADRL
                                           	extern	_P0ADCR
                                           	extern	_P1ADCR
                                           	extern	_IOP2
                                           	extern	_OEP2
                                           	extern	_PUP2
                                           	extern	_PDP2
                                           	extern	_PMOD
                                           	extern	_PWMCR3
                                           	extern	_PWMCR2
                                           	extern	_PFRCCR
                                           	extern	_PFRCCAL
                                           	extern	_EECR
                                           	extern	_EEPR
                                           	extern	_EEAR
                                           	extern	_EEDRH
                                           	extern	_EEDRL
                                           	extern	_DBGCR
                                           	extern	_DBGPR
                                           	extern	_HIRCCAL
                                           	extern	__gptrget1
                                           	extern	__gptrget2
                                           ;--------------------------------------------------------
                                           ; global declarations
                                           ;--------------------------------------------------------
                                           	global	_delay_ms
                                           	global	_delay_100xus
                                           	global	_EEPROM_Write_Byte
                                           	global	_EEPROM_Read_Byte
                                           	global	_send_cmd_16bit
                                           	global	_Sys_Init
                                           	global	_key_event_same_deal_ex
                                           	global	_key_event_set_timer
                                           	global	_main
                                           	global	_int_isr
                                           	global	_abuf
                                           	global	_statusbuf
                                           	global	_flag1
                                           	global	_ir_data
                                           	global	_ir_type
                                           	global	_current_index
                                           	global	_start_index
                                           	global	_end_index
                                           	global	_next_frame_delay
                                           	global	_power_sta
                                           	global	_current_speed
                                           	global	_current_static
                                           	global	_cur_mechanical_key_sta
                                           	global	_timer_count
                                           	global	_eeprom_read_byte_index_0
                                           	global	_eeprom_read_byte_index_1
                                           	global	_eeprom_read_byte_index_2
                                           	global	_eeprom_read_byte_index_3
                                           	global	_main_table
                                           	global	_section_1_speed_table
                                           	global	_section_1_delay_table
                                           	global	_section_2_delay_table
                                           	global	_section_3_speed_table
                                           	global	_section_5_speed_table
                                           	global	_section_5_delay_table
                                           	global	_section_7_speed_table
                                           	global	_section_7_delay_table
                                           
                                           	global STK06
                                           	global STK05
                                           	global STK04
                                           	global STK03
                                           	global STK02
                                           	global STK01
                                           	global STK00
                                           
                                           sharebank udata_ovr 0x0000
                                           STK06	res 1
                                           STK05	res 1
                                           STK04	res 1
                                           STK03	res 1
                                           STK02	res 1
                                           STK01	res 1
                                           STK00	res 1
                                           
                                           ;--------------------------------------------------------
                                           ; global definitions
                                           ;--------------------------------------------------------
                                           UD_MC32F7361_0	udata
                                           _abuf	res	1
                                           
                                           UD_MC32F7361_1	udata
                                           _statusbuf	res	1
                                           
                                           UD_MC32F7361_2	udata
                                           _flag1	res	1
                                           
                                           UD_MC32F7361_3	udata
                                           _ir_data	res	1
                                           
                                           UD_MC32F7361_4	udata
                                           _ir_type	res	1
                                           
                                           UD_MC32F7361_5	udata
                                           _current_index	res	1
                                           
                                           UD_MC32F7361_6	udata
                                           _start_index	res	1
                                           
                                           UD_MC32F7361_7	udata
                                           _end_index	res	1
                                           
                                           UD_MC32F7361_8	udata
                                           _next_frame_delay	res	2
                                           
                                           UD_MC32F7361_9	udata
                                           _power_sta	res	1
                                           
                                           UD_MC32F7361_10	udata
                                           _current_speed	res	1
                                           
                                           UD_MC32F7361_11	udata
                                           _current_static	res	1
                                           
                                           UD_MC32F7361_12	udata
                                           _cur_mechanical_key_sta	res	1
                                           
                                           UD_MC32F7361_13	udata
                                           _eeprom_read_byte_index_0	res	1
                                           
                                           UD_MC32F7361_14	udata
                                           _eeprom_read_byte_index_1	res	1
                                           
                                           UD_MC32F7361_15	udata
                                           _eeprom_read_byte_index_2	res	1
                                           
                                           UD_MC32F7361_16	udata
                                           _eeprom_read_byte_index_3	res	1
                                           
                                           ;--------------------------------------------------------
                                           ; absolute symbol definitions
                                           ;--------------------------------------------------------
                                           ;--------------------------------------------------------
                                           ; compiler-defined variables
                                           ;--------------------------------------------------------
                                           UDL_MC32F7361_0	udata
                                           r0x101D	res	1
                                           r0x101C	res	1
                                           r0x101E	res	1
                                           r0x101F	res	1
                                           r0x1020	res	1
                                           r0x1021	res	1
                                           r0x1023	res	1
                                           r0x1022	res	1
                                           r0x1024	res	1
                                           r0x1025	res	1
                                           r0x1027	res	1
                                           r0x1026	res	1
                                           r0x1028	res	1
                                           r0x1029	res	1
                                           r0x102B	res	1
                                           r0x102A	res	1
                                           r0x102C	res	1
                                           r0x102D	res	1
                                           r0x102E	res	1
                                           r0x1031	res	1
                                           r0x1030	res	1
                                           r0x1032	res	1
                                           r0x1033	res	1
                                           r0x1034	res	1
                                           r0x1035	res	1
                                           r0x1036	res	1
                                           r0x1037	res	1
                                           r0x1038	res	1
                                           _int_isr_ir_level_cnt_196608_60	res	2
                                           _int_isr___ir_data_196608_60	res	4
                                           _int_isr_key_press_cnt_196608_73	res	2
                                           _int_isr__100us_count_131073_79	res	1
                                           ;--------------------------------------------------------
                                           ; initialized data
                                           ;--------------------------------------------------------
                                           
                                           ID_MC32F7361_0	idata
                                           _timer_count
                                           	db	0x00, 0x00, 0x00, 0x00
                                           
                                           
                                           ID_MC32F7361_1	code
                                           _main_table
000717   0011     deca                     	dw 0x11
000718   0022     dw      0x22             	dw 0x22
000719   0044     dw      0x44             	dw 0x44
00071a   0033     dw      0x33             	dw 0x33
00071b   0055     dw      0x55             	dw 0x55
00071c   0066     dw      0x66             	dw 0x66
00071d   0077     dw      0x77             	dw 0x77
00071e   0088     dw      0x88             	dw 0x88
00071f   00aa     dw      0xaa             	dw 0xaa
000720   00cc     dw      0xcc             	dw 0xcc
000721   0011     deca                     	dw 0x11
000722   0022     dw      0x22             	dw 0x22
000723   0044     dw      0x44             	dw 0x44
000724   0033     dw      0x33             	dw 0x33
000725   0055     dw      0x55             	dw 0x55
000726   0066     dw      0x66             	dw 0x66
000727   0077     dw      0x77             	dw 0x77
000728   0088     dw      0x88             	dw 0x88
000729   00aa     dw      0xaa             	dw 0xaa
00072a   00cc     dw      0xcc             	dw 0xcc
00072b   0021     dw      0x21             	dw 0x21
00072c   0074     dw      0x74             	dw 0x74
00072d   0053     dw      0x53             	dw 0x53
00072e   0041     dw      0x41             	dw 0x41
00072f   0024     dw      0x24             	dw 0x24
000730   0045     dw      0x45             	dw 0x45
000731   00e0     dw      0xe0             	dw 0xe0
000732   00a0     dw      0xa0             	dw 0xa0
000733   00c0     dw      0xc0             	dw 0xc0
000734   00ee     dw      0xee             	dw 0xee
000735   00ee     dw      0xee             	dw 0xee
000736   00ee     dw      0xee             	dw 0xee
000737   00ee     dw      0xee             	dw 0xee
000738   00ee     dw      0xee             	dw 0xee
000739   00ee     dw      0xee             	dw 0xee
00073a   00ee     dw      0xee             	dw 0xee
00073b   00ee     dw      0xee             	dw 0xee
00073c   00ee     dw      0xee             	dw 0xee
00073d   00ee     dw      0xee             	dw 0xee
00073e   00aa     dw      0xaa             	dw 0xaa
00073f   00aa     dw      0xaa             	dw 0xaa
000740   00aa     dw      0xaa             	dw 0xaa
000741   00aa     dw      0xaa             	dw 0xaa
000742   00aa     dw      0xaa             	dw 0xaa
000743   00aa     dw      0xaa             	dw 0xaa
000744   00aa     dw      0xaa             	dw 0xaa
000745   00aa     dw      0xaa             	dw 0xaa
000746   00aa     dw      0xaa             	dw 0xaa
000747   00aa     dw      0xaa             	dw 0xaa
000748   00cc     dw      0xcc             	dw 0xcc
000749   00cc     dw      0xcc             	dw 0xcc
00074a   00cc     dw      0xcc             	dw 0xcc
00074b   00cc     dw      0xcc             	dw 0xcc
00074c   00cc     dw      0xcc             	dw 0xcc
00074d   00cc     dw      0xcc             	dw 0xcc
00074e   00cc     dw      0xcc             	dw 0xcc
00074f   00cc     dw      0xcc             	dw 0xcc
000750   00cc     dw      0xcc             	dw 0xcc
000751   00cc     dw      0xcc             	dw 0xcc
000752   0017     dw      0x17             	dw 0x17
000753   0027     dw      0x27             	dw 0x27
000754   0047     dw      0x47             	dw 0x47
000755   0037     dw      0x37             	dw 0x37
000756   0057     dw      0x57             	dw 0x57
000757   0067     dw      0x67             	dw 0x67
000758   0077     dw      0x77             	dw 0x77
000759   0087     dw      0x87             	dw 0x87
00075a   00a7     dw      0xa7             	dw 0xa7
00075b   00c7     dw      0xc7             	dw 0xc7
00075c   0011     deca                     	dw 0x11
00075d   0012     jza                      	dw 0x12
00075e   0022     dw      0x22             	dw 0x22
00075f   0024     dw      0x24             	dw 0x24
000760   0044     dw      0x44             	dw 0x44
000761   0014     rla                      	dw 0x14
000762   0011     deca                     	dw 0x11
000763   0022     dw      0x22             	dw 0x22
000764   0044     dw      0x44             	dw 0x44
000765   0077     dw      0x77             	dw 0x77
000766   0033     dw      0x33             	dw 0x33
000767   0066     dw      0x66             	dw 0x66
000768   0055     dw      0x55             	dw 0x55
000769   0033     dw      0x33             	dw 0x33
00076a   0066     dw      0x66             	dw 0x66
00076b   0055     dw      0x55             	dw 0x55
00076c   0033     dw      0x33             	dw 0x33
00076d   0066     dw      0x66             	dw 0x66
00076e   0055     dw      0x55             	dw 0x55
00076f   0033     dw      0x33             	dw 0x33
000770   0066     dw      0x66             	dw 0x66
000771   0055     dw      0x55             	dw 0x55
000772   00ee     dw      0xee             	dw 0xee
000773   00aa     dw      0xaa             	dw 0xaa
000774   00cc     dw      0xcc             	dw 0xcc
                                           
                                           
                                           ID_MC32F7361_2	code
                                           _section_1_speed_table
0007cb   000f     dw      0xf              	dw 0x0f
0007cc   000e     clrwdt                   	dw 0x0e
0007cd   000d     retie                    	dw 0x0d
0007ce   000c     return                   	dw 0x0c
                                           
                                           
                                           ID_MC32F7361_3	code
                                           _section_1_delay_table
0007a3   0010     djza                     	dw 0x10
0007a4   0027     dw      0x27             	dw 0x27
0007a5   007e     dw      0x7e             	dw 0x7e
0007a6   001d     dw      0x1d             	dw 0x1d
0007a7   0023     dw      0x23             	dw 0x23
0007a8   0014     rla                      	dw 0x14
0007a9   00c8     dw      0xc8             	dw 0xc8
0007aa   000a     daa                      	dw 0x0a
                                           
                                           
                                           ID_MC32F7361_4	code
                                           _section_2_delay_table
0007ab   00a8     dw      0xa8             	dw 0xa8
0007ac   0007     dw      0x7              	dw 0x07
0007ad   00c4     dw      0xc4             	dw 0xc4
0007ae   0003     dw      0x3              	dw 0x03
0007af   00d1     dw      0xd1             	dw 0xd1
0007b0   0001     dw      0x1              	dw 0x01
0007b1   00a5     dw      0xa5             	dw 0xa5
0007b2   0000     nop                      	dw 0x00
                                           
                                           
                                           ID_MC32F7361_5	code
                                           _section_3_speed_table
0007cf   0008     dw      0x8              	dw 0x08
0007d0   000a     daa                      	dw 0x0a
0007d1   0009     dsa                      	dw 0x09
0007d2   000b     stop                     	dw 0x0b
                                           
                                           
                                           ID_MC32F7361_6	code
                                           _section_5_speed_table
0007d3   0000     nop                      	dw 0x00
0007d4   0000     nop                      	dw 0x00
0007d5   0000     nop                      	dw 0x00
0007d6   0000     nop                      	dw 0x00
                                           
                                           
                                           ID_MC32F7361_7	code
                                           _section_5_delay_table
0007b3   00a8     dw      0xa8             	dw 0xa8
0007b4   0007     dw      0x7              	dw 0x07
0007b5   00c4     dw      0xc4             	dw 0xc4
0007b6   0003     dw      0x3              	dw 0x03
0007b7   00d1     dw      0xd1             	dw 0xd1
0007b8   0001     dw      0x1              	dw 0x01
0007b9   00a5     dw      0xa5             	dw 0xa5
0007ba   0000     nop                      	dw 0x00
                                           
                                           
                                           ID_MC32F7361_8	code
                                           _section_7_speed_table
0007d7   0087     dw      0x87             	dw 0x87
0007d8   0086     dw      0x86             	dw 0x86
0007d9   0085     dw      0x85             	dw 0x85
0007da   0084     dw      0x84             	dw 0x84
                                           
                                           
                                           ID_MC32F7361_9	code
                                           _section_7_delay_table
0007bb   00b5     dw      0xb5             	dw 0xb5
0007bc   0015     rra                      	dw 0x15
0007bd   00d0     dw      0xd0             	dw 0xd0
0007be   0011     deca                     	dw 0x11
0007bf   0020     dw      0x20             	dw 0x20
0007c0   000d     retie                    	dw 0x0d
0007c1   00d0     dw      0xd0             	dw 0xd0
0007c2   0007     dw      0x7              	dw 0x07
                                           
                                           
                                           ;@Allocation info for local variables in function 'delay_ms'
                                           ;@delay_ms delay_ms                  Allocated to registers ;size:2
                                           ;@delay_ms INDF0bits                 Allocated to registers ;size:1
                                           ;@delay_ms INDF1bits                 Allocated to registers ;size:1
                                           ;@delay_ms INDF2bits                 Allocated to registers ;size:1
                                           ;@delay_ms HIBYTEbits                Allocated to registers ;size:1
                                           ;@delay_ms FSR0bits                  Allocated to registers ;size:1
                                           ;@delay_ms FSR1bits                  Allocated to registers ;size:1
                                           ;@delay_ms PCLbits                   Allocated to registers ;size:1
                                           ;@delay_ms PFLAGbits                 Allocated to registers ;size:1
                                           ;@delay_ms MCRbits                   Allocated to registers ;size:1
                                           ;@delay_ms INDF3bits                 Allocated to registers ;size:1
                                           ;@delay_ms INTEbits                  Allocated to registers ;size:1
                                           ;@delay_ms INTFbits                  Allocated to registers ;size:1
                                           ;@delay_ms DRVCRbits                 Allocated to registers ;size:1
                                           ;@delay_ms P0KBCRbits                Allocated to registers ;size:1
                                           ;@delay_ms P1KBCRbits                Allocated to registers ;size:1
                                           ;@delay_ms P2KBCRbits                Allocated to registers ;size:1
                                           ;@delay_ms IOP0bits                  Allocated to registers ;size:1
                                           ;@delay_ms OEP0bits                  Allocated to registers ;size:1
                                           ;@delay_ms PUP0bits                  Allocated to registers ;size:1
                                           ;@delay_ms PDP0bits                  Allocated to registers ;size:1
                                           ;@delay_ms IOP1bits                  Allocated to registers ;size:1
                                           ;@delay_ms OEP1bits                  Allocated to registers ;size:1
                                           ;@delay_ms PUP1bits                  Allocated to registers ;size:1
                                           ;@delay_ms PDP1bits                  Allocated to registers ;size:1
                                           ;@delay_ms T0CRbits                  Allocated to registers ;size:1
                                           ;@delay_ms T0CNTbits                 Allocated to registers ;size:1
                                           ;@delay_ms T0LOADbits                Allocated to registers ;size:1
                                           ;@delay_ms T0DATAbits                Allocated to registers ;size:1
                                           ;@delay_ms T1CRbits                  Allocated to registers ;size:1
                                           ;@delay_ms T1CNTbits                 Allocated to registers ;size:1
                                           ;@delay_ms T1LOADbits                Allocated to registers ;size:1
                                           ;@delay_ms T1DATAbits                Allocated to registers ;size:1
                                           ;@delay_ms T2CRbits                  Allocated to registers ;size:1
                                           ;@delay_ms T2CNTbits                 Allocated to registers ;size:1
                                           ;@delay_ms T2LOADbits                Allocated to registers ;size:1
                                           ;@delay_ms T2DATAbits                Allocated to registers ;size:1
                                           ;@delay_ms T3CRbits                  Allocated to registers ;size:1
                                           ;@delay_ms T3CNTbits                 Allocated to registers ;size:1
                                           ;@delay_ms T3LOADbits                Allocated to registers ;size:1
                                           ;@delay_ms PWM0DRbits                Allocated to registers ;size:1
                                           ;@delay_ms PWM1DRbits                Allocated to registers ;size:1
                                           ;@delay_ms PWM2DRbits                Allocated to registers ;size:1
                                           ;@delay_ms PWMCR0bits                Allocated to registers ;size:1
                                           ;@delay_ms PWMCR1bits                Allocated to registers ;size:1
                                           ;@delay_ms OSCMRbits                 Allocated to registers ;size:1
                                           ;@delay_ms LVDCRbits                 Allocated to registers ;size:1
                                           ;@delay_ms ADCR0bits                 Allocated to registers ;size:1
                                           ;@delay_ms ADCR1bits                 Allocated to registers ;size:1
                                           ;@delay_ms ADCR2bits                 Allocated to registers ;size:1
                                           ;@delay_ms OSADJCRbits               Allocated to registers ;size:1
                                           ;@delay_ms ADRHbits                  Allocated to registers ;size:1
                                           ;@delay_ms ADRLbits                  Allocated to registers ;size:1
                                           ;@delay_ms P0ADCRbits                Allocated to registers ;size:1
                                           ;@delay_ms P1ADCRbits                Allocated to registers ;size:1
                                           ;@delay_ms IOP2bits                  Allocated to registers ;size:1
                                           ;@delay_ms OEP2bits                  Allocated to registers ;size:1
                                           ;@delay_ms PUP2bits                  Allocated to registers ;size:1
                                           ;@delay_ms PDP2bits                  Allocated to registers ;size:1
                                           ;@delay_ms PMODbits                  Allocated to registers ;size:1
                                           ;@delay_ms PWMCR3bits                Allocated to registers ;size:1
                                           ;@delay_ms PWMCR2bits                Allocated to registers ;size:1
                                           ;@delay_ms PFRCCRbits                Allocated to registers ;size:1
                                           ;@delay_ms PFRCCALbits               Allocated to registers ;size:1
                                           ;@delay_ms EECRbits                  Allocated to registers ;size:1
                                           ;@delay_ms EEPRbits                  Allocated to registers ;size:1
                                           ;@delay_ms EEARbits                  Allocated to registers ;size:1
                                           ;@delay_ms EEDRHbits                 Allocated to registers ;size:1
                                           ;@delay_ms EEDRLbits                 Allocated to registers ;size:1
                                           ;@delay_ms DBGCRbits                 Allocated to registers ;size:1
                                           ;@delay_ms DBGPRbits                 Allocated to registers ;size:1
                                           ;@delay_ms HIRCCALbits               Allocated to registers ;size:1
                                           ;@delay_ms abuf                      Allocated to registers ;size:1
                                           ;@delay_ms statusbuf                 Allocated to registers ;size:1
                                           ;@delay_ms flag1                     Allocated to registers ;size:1
                                           ;@delay_ms ir_data                   Allocated to registers ;size:1
                                           ;@delay_ms ir_type                   Allocated to registers ;size:1
                                           ;@delay_ms xms                       Allocated to registers ;size:2
                                           ;@delay_ms i                         Allocated to registers r0x101E r0x101F ;size:2
                                           ;@delay_ms INDF0                     Allocated to registers ;size:1
                                           ;@delay_ms INDF1                     Allocated to registers ;size:1
                                           ;@delay_ms INDF2                     Allocated to registers ;size:1
                                           ;@delay_ms HIBYTE                    Allocated to registers ;size:1
                                           ;@delay_ms FSR0                      Allocated to registers ;size:1
                                           ;@delay_ms FSR1                      Allocated to registers ;size:1
                                           ;@delay_ms PCL                       Allocated to registers ;size:1
                                           ;@delay_ms PFLAG                     Allocated to registers ;size:1
                                           ;@delay_ms MCR                       Allocated to registers ;size:1
                                           ;@delay_ms INDF3                     Allocated to registers ;size:1
                                           ;@delay_ms INTE                      Allocated to registers ;size:1
                                           ;@delay_ms INTF                      Allocated to registers ;size:1
                                           ;@delay_ms DRVCR                     Allocated to registers ;size:1
                                           ;@delay_ms P0KBCR                    Allocated to registers ;size:1
                                           ;@delay_ms P1KBCR                    Allocated to registers ;size:1
                                           ;@delay_ms P2KBCR                    Allocated to registers ;size:1
                                           ;@delay_ms IOP0                      Allocated to registers ;size:1
                                           ;@delay_ms OEP0                      Allocated to registers ;size:1
                                           ;@delay_ms PUP0                      Allocated to registers ;size:1
                                           ;@delay_ms PDP0                      Allocated to registers ;size:1
                                           ;@delay_ms IOP1                      Allocated to registers ;size:1
                                           ;@delay_ms OEP1                      Allocated to registers ;size:1
                                           ;@delay_ms PUP1                      Allocated to registers ;size:1
                                           ;@delay_ms PDP1                      Allocated to registers ;size:1
                                           ;@delay_ms T0CR                      Allocated to registers ;size:1
                                           ;@delay_ms T0CNT                     Allocated to registers ;size:1
                                           ;@delay_ms T0LOAD                    Allocated to registers ;size:1
                                           ;@delay_ms T0DATA                    Allocated to registers ;size:1
                                           ;@delay_ms T1CR                      Allocated to registers ;size:1
                                           ;@delay_ms T1CNT                     Allocated to registers ;size:1
                                           ;@delay_ms T1LOAD                    Allocated to registers ;size:1
                                           ;@delay_ms T1DATA                    Allocated to registers ;size:1
                                           ;@delay_ms T2CR                      Allocated to registers ;size:1
                                           ;@delay_ms T2CNT                     Allocated to registers ;size:1
                                           ;@delay_ms T2LOAD                    Allocated to registers ;size:1
                                           ;@delay_ms T2DATA                    Allocated to registers ;size:1
                                           ;@delay_ms T3CR                      Allocated to registers ;size:1
                                           ;@delay_ms T3CNT                     Allocated to registers ;size:1
                                           ;@delay_ms T3LOAD                    Allocated to registers ;size:1
                                           ;@delay_ms PWM0DR                    Allocated to registers ;size:1
                                           ;@delay_ms PWM1DR                    Allocated to registers ;size:1
                                           ;@delay_ms PWM2DR                    Allocated to registers ;size:1
                                           ;@delay_ms PWMCR0                    Allocated to registers ;size:1
                                           ;@delay_ms PWMCR1                    Allocated to registers ;size:1
                                           ;@delay_ms OSCMR                     Allocated to registers ;size:1
                                           ;@delay_ms LVDCR                     Allocated to registers ;size:1
                                           ;@delay_ms ADCR0                     Allocated to registers ;size:1
                                           ;@delay_ms ADCR1                     Allocated to registers ;size:1
                                           ;@delay_ms ADCR2                     Allocated to registers ;size:1
                                           ;@delay_ms OSADJCR                   Allocated to registers ;size:1
                                           ;@delay_ms ADRH                      Allocated to registers ;size:1
                                           ;@delay_ms ADRL                      Allocated to registers ;size:1
                                           ;@delay_ms P0ADCR                    Allocated to registers ;size:1
                                           ;@delay_ms P1ADCR                    Allocated to registers ;size:1
                                           ;@delay_ms IOP2                      Allocated to registers ;size:1
                                           ;@delay_ms OEP2                      Allocated to registers ;size:1
                                           ;@delay_ms PUP2                      Allocated to registers ;size:1
                                           ;@delay_ms PDP2                      Allocated to registers ;size:1
                                           ;@delay_ms PMOD                      Allocated to registers ;size:1
                                           ;@delay_ms PWMCR3                    Allocated to registers ;size:1
                                           ;@delay_ms PWMCR2                    Allocated to registers ;size:1
                                           ;@delay_ms PFRCCR                    Allocated to registers ;size:1
                                           ;@delay_ms PFRCCAL                   Allocated to registers ;size:1
                                           ;@delay_ms EECR                      Allocated to registers ;size:1
                                           ;@delay_ms EEPR                      Allocated to registers ;size:1
                                           ;@delay_ms EEAR                      Allocated to registers ;size:1
                                           ;@delay_ms EEDRH                     Allocated to registers ;size:1
                                           ;@delay_ms EEDRL                     Allocated to registers ;size:1
                                           ;@delay_ms DBGCR                     Allocated to registers ;size:1
                                           ;@delay_ms DBGPR                     Allocated to registers ;size:1
                                           ;@delay_ms HIRCCAL                   Allocated to registers ;size:1
                                           ;@end Allocation info for local variables in function 'delay_ms';
                                           ;@Allocation info for local variables in function 'delay_100xus'
                                           ;@delay_100xus i                         Allocated to registers ;size:1
                                           ;@delay_100xus j                         Allocated to registers r0x101D ;size:1
                                           ;@end Allocation info for local variables in function 'delay_100xus';
                                           ;@Allocation info for local variables in function 'EEPROM_Write_Byte'
                                           ;@EEPROM_Write_Byte data                      Allocated to registers r0x101D r0x101C ;size:2
                                           ;@EEPROM_Write_Byte addr                      Allocated to registers ;size:1
                                           ;@end Allocation info for local variables in function 'EEPROM_Write_Byte';
                                           ;@Allocation info for local variables in function 'EEPROM_Read_Byte'
                                           ;@EEPROM_Read_Byte addr                      Allocated to registers ;size:1
                                           ;@EEPROM_Read_Byte EEDR                      Allocated to registers r0x101F r0x101E ;size:2
                                           ;@end Allocation info for local variables in function 'EEPROM_Read_Byte';
                                           ;@Allocation info for local variables in function 'send_cmd_16bit'
                                           ;@send_cmd_16bit data                      Allocated to registers r0x1023 r0x1022 ;size:2
                                           ;@send_cmd_16bit i                         Allocated to registers r0x1024 ;size:1
                                           ;@end Allocation info for local variables in function 'send_cmd_16bit';
                                           ;@Allocation info for local variables in function 'Sys_Init'
                                           ;@end Allocation info for local variables in function 'Sys_Init';
                                           ;@Allocation info for local variables in function 'key_event_same_deal_ex'
                                           ;@key_event_same_deal_ex own_data1                 Allocated to registers r0x102B r0x102A ;size:2
                                           ;@key_event_same_deal_ex end                       Allocated to registers r0x1029 ;size:1
                                           ;@key_event_same_deal_ex start                     Allocated to registers r0x1028 ;size:1
                                           ;@end Allocation info for local variables in function 'key_event_same_deal_ex';
                                           ;@Allocation info for local variables in function 'key_event_set_timer'
                                           ;@end Allocation info for local variables in function 'key_event_set_timer';
                                           ;@Allocation info for local variables in function 'main'
                                           ;@main speed_code                Allocated to registers r0x1032 r0x1033 ;size:2
                                           ;@end Allocation info for local variables in function 'main';
                                           ;@Allocation info for local variables in function 'int_isr'
                                           ;@int_isr ir_level_cnt              Allocated to registers ;size:2
                                           ;@int_isr __ir_data                 Allocated to registers ;size:4
                                           ;@int_isr key_press_cnt             Allocated to registers ;size:2
                                           ;@int_isr _100us_count              Allocated to registers ;size:1
                                           ;@end Allocation info for local variables in function 'int_isr';
                                           ;@Allocation info for local variables in function 'int_isr'
                                           ;@int_isr ir_level_cnt              Allocated to registers ;size:2
                                           ;@int_isr __ir_data                 Allocated to registers ;size:4
                                           ;@int_isr key_press_cnt             Allocated to registers ;size:2
                                           ;@int_isr _100us_count              Allocated to registers ;size:1
                                           ;@end Allocation info for local variables in function 'int_isr';
                                           
                                           ;--------------------------------------------------------
                                           ; overlayable items in internal ram 
                                           ;--------------------------------------------------------
                                           ;	udata_ovr
                                           ;--------------------------------------------------------
                                           ; reset vector 
                                           ;--------------------------------------------------------
                                           STARTUP	code 0x0000
000000   a11d     goto    0x11d            	goto	_main
                                           ;--------------------------------------------------------
                                           ; interrupt and initialization code
                                           ;--------------------------------------------------------
                                           c_interrupt	code	0x8
                                           __sdcc_interrupt
                                           ;***
                                           ;  pBlock Stats: dbName = I
                                           ;***
                                           ;entry:  _int_isr	;Function start
                                           ; 0 exit points
                                           ;4 compiler assigned registers:
                                           ;   r0x1035
                                           ;   r0x1036
                                           ;   r0x1037
                                           ;   r0x1038
                                           ;; Starting pCode block
                                           _int_isr	;Function start
                                           ; 0 exit points
                                           ;	.line	1319; "MC32F7361.c"	__endasm;
                                           	;
000008   5632     movra   0x32             	movra	_abuf;
000009   4587     swapar  0x187            	swapar	_PFLAG;
00000a   5633     movra   0x33             	movra	_statusbuf;
                                           	
                                           ;	.line	1333; "MC32F7361.c"	if (T2IF & T2IE)
00000b   761f     clrr    0x1f             	CLRR	r0x1035
00000c   fb8b     jbclr   0x18b, 0x5       	JBCLR	_INTFbits,5
00000d   661f     incr    0x1f             	INCR	r0x1035
00000e   7620     clrr    0x20             	CLRR	r0x1036
00000f   fb8a     jbclr   0x18a, 0x5       	JBCLR	_INTEbits,5
000010   6620     incr    0x20             	INCR	r0x1036
000011   5820     movar   0x20             	MOVAR	r0x1036
000012   7a1f     andra   0x1f             	ANDRA	r0x1035
000013   3c00     movai   0                	MOVAI	0x00
000014   5c1f     orar    0x1f             	ORAR	r0x1035
000015   f587     jbclr   0x187, 0x2       	JBCLR	PFLAG,2
000016   a118     goto    0x118            	GOTO	_00909_DS_
                                           ;	.line	1335; "MC32F7361.c"	T2IF = 0;
000017   db8b     bclr    0x18b, 0x5       	BCLR	_INTFbits,5
                                           ;;swapping arguments (AOP_TYPEs 1/3)
                                           ;;unsigned compare: left >= lit(0x515=1301), size=2
                                           ;	.line	1346; "MC32F7361.c"	if (ir_level_cnt <= 1300)
000018   3c05     movai   0x5              	MOVAI	0x05
000019   4824     rsubar  0x24             	RSUBAR	(_int_isr_ir_level_cnt_196608_60 + 1)
00001a   e587     jbset   0x187, 0x2       	JBSET	PFLAG,2
00001b   a01e     goto    0x1e             	GOTO	_01012_DS_
00001c   3c15     movai   0x15             	MOVAI	0x15
00001d   4823     rsubar  0x23             	RSUBAR	_int_isr_ir_level_cnt_196608_60
                                           _01012_DS_
00001e   f187     jbclr   0x187, 0         	JBCLR	PFLAG,0
00001f   a023     goto    0x23             	GOTO	_00854_DS_
                                           ;;genSkipc:3291: created from rifx:013B5EFC
                                           ;	.line	1347; "MC32F7361.c"	ir_level_cnt++;
000020   6623     incr    0x23             	INCR	_int_isr_ir_level_cnt_196608_60
000021   f587     jbclr   0x187, 0x2       	JBCLR	PFLAG,2
000022   6624     incr    0x24             	INCR	(_int_isr_ir_level_cnt_196608_60 + 1)
                                           _00854_DS_
                                           ;	.line	1362; "MC32F7361.c"	if (IR_RECV_PIN)
000023   eb94     jbset   0x194, 0x5       	JBSET	_IOP1bits,5
000024   a05a     goto    0x5a             	GOTO	_00886_DS_
                                           ;	.line	1364; "MC32F7361.c"	last_level_in_ir_pin = 1; // 
000025   c434     bset    0x34, 0x2        	BSET	_flag1,2
                                           ;;swapping arguments (AOP_TYPEs 1/3)
                                           ;;unsigned compare: left >= lit(0x4B1=1201), size=2
                                           ;	.line	1367; "MC32F7361.c"	if (ir_level_cnt > 1200) // (120000us,120ms)
000026   3c04     movai   0x4              	MOVAI	0x04
000027   4824     rsubar  0x24             	RSUBAR	(_int_isr_ir_level_cnt_196608_60 + 1)
000028   e587     jbset   0x187, 0x2       	JBSET	PFLAG,2
000029   a02c     goto    0x2c             	GOTO	_01013_DS_
00002a   3cb1     movai   0xb1             	MOVAI	0xb1
00002b   4823     rsubar  0x23             	RSUBAR	_int_isr_ir_level_cnt_196608_60
                                           _01013_DS_
00002c   e187     jbset   0x187, 0         	JBSET	PFLAG,0
00002d   a0b9     goto    0xb9             	GOTO	_00887_DS_
                                           ;;genSkipc:3291: created from rifx:013B5EFC
                                           ;	.line	1370; "MC32F7361.c"	if (__ir_data != 0) // (__ir_data)
00002e   5825     movar   0x25             	MOVAR	_int_isr___ir_data_196608_60
00002f   5c26     orar    0x26             	ORAR	(_int_isr___ir_data_196608_60 + 1)
000030   5c27     orar    0x27             	ORAR	(_int_isr___ir_data_196608_60 + 2)
000031   5c28     orar    0x28             	ORAR	(_int_isr___ir_data_196608_60 + 3)
000032   f587     jbclr   0x187, 0x2       	JBCLR	PFLAG,2
000033   a058     goto    0x58             	GOTO	_00861_DS_
                                           ;	.line	1379; "MC32F7361.c"	if (0 == flag_is_recved_data)
000034   f034     jbclr   0x34, 0          	JBCLR	_flag1,0
000035   a058     goto    0x58             	GOTO	_00861_DS_
                                           ;	.line	1381; "MC32F7361.c"	ir_data = ~__ir_data;
000036   5825     movar   0x25             	MOVAR	_int_isr___ir_data_196608_60
000037   561f     movra   0x1f             	MOVRA	r0x1035
000038   701f     comar   0x1f             	COMAR	r0x1035
000039   5635     movra   0x35             	MOVRA	_ir_data
                                           ;	.line	1382; "MC32F7361.c"	if ((__ir_data & 0xFF0000) == 0xF70000)
00003a   761f     clrr    0x1f             	CLRR	r0x1035
00003b   7620     clrr    0x20             	CLRR	r0x1036
00003c   5827     movar   0x27             	MOVAR	(_int_isr___ir_data_196608_60 + 2)
00003d   5621     movra   0x21             	MOVRA	r0x1037
00003e   7622     clrr    0x22             	CLRR	r0x1038
00003f   3c00     movai   0                	MOVAI	0x00
000040   3900     xorai   0                	XORAI	0x00
000041   e587     jbset   0x187, 0x2       	JBSET	PFLAG,2
000042   a051     goto    0x51             	GOTO	_00856_DS_
000043   5820     movar   0x20             	MOVAR	r0x1036
000044   3900     xorai   0                	XORAI	0x00
000045   e587     jbset   0x187, 0x2       	JBSET	PFLAG,2
000046   a051     goto    0x51             	GOTO	_00856_DS_
000047   5821     movar   0x21             	MOVAR	r0x1037
000048   39f7     xorai   0xf7             	XORAI	0xf7
000049   e587     jbset   0x187, 0x2       	JBSET	PFLAG,2
00004a   a051     goto    0x51             	GOTO	_00856_DS_
00004b   5822     movar   0x22             	MOVAR	r0x1038
00004c   3900     xorai   0                	XORAI	0x00
00004d   e587     jbset   0x187, 0x2       	JBSET	PFLAG,2
00004e   a051     goto    0x51             	GOTO	_00856_DS_
                                           ;	.line	1383; "MC32F7361.c"	ir_type = 0;
00004f   7636     clrr    0x36             	CLRR	_ir_type
000050   a053     goto    0x53             	GOTO	_00857_DS_
                                           _00856_DS_
                                           ;	.line	1385; "MC32F7361.c"	ir_type = 1;
000051   3c01     movai   0x1              	MOVAI	0x01
000052   5636     movra   0x36             	MOVRA	_ir_type
                                           _00857_DS_
                                           ;	.line	1386; "MC32F7361.c"	__ir_data = 0;
000053   7625     clrr    0x25             	CLRR	_int_isr___ir_data_196608_60
000054   7626     clrr    0x26             	CLRR	(_int_isr___ir_data_196608_60 + 1)
000055   7627     clrr    0x27             	CLRR	(_int_isr___ir_data_196608_60 + 2)
000056   7628     clrr    0x28             	CLRR	(_int_isr___ir_data_196608_60 + 3)
                                           ;	.line	1387; "MC32F7361.c"	flag_is_recved_data = 1;
000057   c034     bset    0x34, 0          	BSET	_flag1,0
                                           _00861_DS_
                                           ;	.line	1391; "MC32F7361.c"	flag_is_recv_ir_repeat_code = 0; // 
000058   d834     bclr    0x34, 0x4        	BCLR	_flag1,4
000059   a0b9     goto    0xb9             	GOTO	_00887_DS_
                                           _00886_DS_
                                           ;	.line	1396; "MC32F7361.c"	if (last_level_in_ir_pin)
00005a   e434     jbset   0x34, 0x2        	JBSET	_flag1,2
00005b   a0b8     goto    0xb8             	GOTO	_00884_DS_
                                           ;;swapping arguments (AOP_TYPEs 1/3)
                                           ;;unsigned compare: left >= lit(0x9=9), size=2
                                           ;	.line	1399; "MC32F7361.c"	if (ir_level_cnt <= 8) // 800us
00005c   3c00     movai   0                	MOVAI	0x00
00005d   4824     rsubar  0x24             	RSUBAR	(_int_isr_ir_level_cnt_196608_60 + 1)
00005e   e587     jbset   0x187, 0x2       	JBSET	PFLAG,2
00005f   a062     goto    0x62             	GOTO	_01014_DS_
000060   3c09     movai   0x9              	MOVAI	0x09
000061   4823     rsubar  0x23             	RSUBAR	_int_isr_ir_level_cnt_196608_60
                                           _01014_DS_
000062   e187     jbset   0x187, 0         	JBSET	PFLAG,0
000063   a0b6     goto    0xb6             	GOTO	_00882_DS_
                                           ;;genSkipc:3291: created from rifx:013B5EFC
                                           ;;swapping arguments (AOP_TYPEs 1/3)
                                           ;;unsigned compare: left >= lit(0x13=19), size=2
                                           ;	.line	1404; "MC32F7361.c"	else if (ir_level_cnt <= 18) // 1800us,0
000064   3c00     movai   0                	MOVAI	0x00
000065   4824     rsubar  0x24             	RSUBAR	(_int_isr_ir_level_cnt_196608_60 + 1)
000066   e587     jbset   0x187, 0x2       	JBSET	PFLAG,2
000067   a06a     goto    0x6a             	GOTO	_01015_DS_
000068   3c13     movai   0x13             	MOVAI	0x13
000069   4823     rsubar  0x23             	RSUBAR	_int_isr_ir_level_cnt_196608_60
                                           _01015_DS_
00006a   f187     jbclr   0x187, 0         	JBCLR	PFLAG,0
00006b   a072     goto    0x72             	GOTO	_00878_DS_
                                           ;;genSkipc:3291: created from rifx:013B5EFC
                                           ;	.line	1406; "MC32F7361.c"	__ir_data <<= 1;
00006c   d187     bclr    0x187, 0         	BCLR	PFLAG,0
00006d   5225     rlr     0x25             	RLR	_int_isr___ir_data_196608_60
00006e   5226     rlr     0x26             	RLR	(_int_isr___ir_data_196608_60 + 1)
00006f   5227     rlr     0x27             	RLR	(_int_isr___ir_data_196608_60 + 2)
000070   5228     rlr     0x28             	RLR	(_int_isr___ir_data_196608_60 + 3)
000071   a0b6     goto    0xb6             	GOTO	_00882_DS_
                                           ;;swapping arguments (AOP_TYPEs 1/3)
                                           ;;unsigned compare: left >= lit(0x1B=27), size=2
                                           _00878_DS_
                                           ;	.line	1411; "MC32F7361.c"	else if (ir_level_cnt <= 26) // 2600us,1
000072   3c00     movai   0                	MOVAI	0x00
000073   4824     rsubar  0x24             	RSUBAR	(_int_isr_ir_level_cnt_196608_60 + 1)
000074   e587     jbset   0x187, 0x2       	JBSET	PFLAG,2
000075   a078     goto    0x78             	GOTO	_01016_DS_
000076   3c1b     movai   0x1b             	MOVAI	0x1b
000077   4823     rsubar  0x23             	RSUBAR	_int_isr_ir_level_cnt_196608_60
                                           _01016_DS_
000078   f187     jbclr   0x187, 0         	JBCLR	PFLAG,0
000079   a081     goto    0x81             	GOTO	_00875_DS_
                                           ;;genSkipc:3291: created from rifx:013B5EFC
                                           ;	.line	1413; "MC32F7361.c"	__ir_data <<= 1;
00007a   d187     bclr    0x187, 0         	BCLR	PFLAG,0
00007b   5225     rlr     0x25             	RLR	_int_isr___ir_data_196608_60
00007c   5226     rlr     0x26             	RLR	(_int_isr___ir_data_196608_60 + 1)
00007d   5227     rlr     0x27             	RLR	(_int_isr___ir_data_196608_60 + 2)
00007e   5228     rlr     0x28             	RLR	(_int_isr___ir_data_196608_60 + 3)
                                           ;	.line	1414; "MC32F7361.c"	__ir_data |= 0x01;
00007f   c025     bset    0x25, 0          	BSET	_int_isr___ir_data_196608_60,0
000080   a0b6     goto    0xb6             	GOTO	_00882_DS_
                                           ;;swapping arguments (AOP_TYPEs 1/3)
                                           ;;unsigned compare: left >= lit(0x97=151), size=2
                                           _00875_DS_
                                           ;	.line	1418; "MC32F7361.c"	else if (ir_level_cnt <= 150) // 15000us,
000081   3c00     movai   0                	MOVAI	0x00
000082   4824     rsubar  0x24             	RSUBAR	(_int_isr_ir_level_cnt_196608_60 + 1)
000083   e587     jbset   0x187, 0x2       	JBSET	PFLAG,2
000084   a087     goto    0x87             	GOTO	_01017_DS_
000085   3c97     movai   0x97             	MOVAI	0x97
000086   4823     rsubar  0x23             	RSUBAR	_int_isr_ir_level_cnt_196608_60
                                           _01017_DS_
000087   e187     jbset   0x187, 0         	JBSET	PFLAG,0
000088   a0b6     goto    0xb6             	GOTO	_00882_DS_
                                           ;;genSkipc:3291: created from rifx:013B5EFC
                                           ;;swapping arguments (AOP_TYPEs 1/3)
                                           ;;unsigned compare: left >= lit(0x1A5=421), size=2
                                           ;	.line	1423; "MC32F7361.c"	else if (ir_level_cnt <= 420) // 42ms,
000089   3c01     movai   0x1              	MOVAI	0x01
00008a   4824     rsubar  0x24             	RSUBAR	(_int_isr_ir_level_cnt_196608_60 + 1)
00008b   e587     jbset   0x187, 0x2       	JBSET	PFLAG,2
00008c   a08f     goto    0x8f             	GOTO	_01018_DS_
00008d   3ca5     movai   0xa5             	MOVAI	0xa5
00008e   4823     rsubar  0x23             	RSUBAR	_int_isr_ir_level_cnt_196608_60
                                           _01018_DS_
00008f   f187     jbclr   0x187, 0         	JBCLR	PFLAG,0
000090   a0b6     goto    0xb6             	GOTO	_00882_DS_
                                           ;;genSkipc:3291: created from rifx:013B5EFC
                                           ;	.line	1434; "MC32F7361.c"	if (0 == flag_is_recved_data)
000091   f034     jbclr   0x34, 0          	JBCLR	_flag1,0
000092   a0b6     goto    0xb6             	GOTO	_00882_DS_
                                           ;	.line	1436; "MC32F7361.c"	ir_data = ~__ir_data;
000093   5825     movar   0x25             	MOVAR	_int_isr___ir_data_196608_60
000094   561f     movra   0x1f             	MOVRA	r0x1035
000095   701f     comar   0x1f             	COMAR	r0x1035
000096   5635     movra   0x35             	MOVRA	_ir_data
                                           ;	.line	1437; "MC32F7361.c"	if ((__ir_data & 0xFF0000) == 0xF70000)
000097   761f     clrr    0x1f             	CLRR	r0x1035
000098   7620     clrr    0x20             	CLRR	r0x1036
000099   5827     movar   0x27             	MOVAR	(_int_isr___ir_data_196608_60 + 2)
00009a   5621     movra   0x21             	MOVRA	r0x1037
00009b   7622     clrr    0x22             	CLRR	r0x1038
00009c   3c00     movai   0                	MOVAI	0x00
00009d   3900     xorai   0                	XORAI	0x00
00009e   e587     jbset   0x187, 0x2       	JBSET	PFLAG,2
00009f   a0ae     goto    0xae             	GOTO	_00865_DS_
0000a0   5820     movar   0x20             	MOVAR	r0x1036
0000a1   3900     xorai   0                	XORAI	0x00
0000a2   e587     jbset   0x187, 0x2       	JBSET	PFLAG,2
0000a3   a0ae     goto    0xae             	GOTO	_00865_DS_
0000a4   5821     movar   0x21             	MOVAR	r0x1037
0000a5   39f7     xorai   0xf7             	XORAI	0xf7
0000a6   e587     jbset   0x187, 0x2       	JBSET	PFLAG,2
0000a7   a0ae     goto    0xae             	GOTO	_00865_DS_
0000a8   5822     movar   0x22             	MOVAR	r0x1038
0000a9   3900     xorai   0                	XORAI	0x00
0000aa   e587     jbset   0x187, 0x2       	JBSET	PFLAG,2
0000ab   a0ae     goto    0xae             	GOTO	_00865_DS_
                                           ;	.line	1438; "MC32F7361.c"	ir_type = 0;
0000ac   7636     clrr    0x36             	CLRR	_ir_type
0000ad   a0b0     goto    0xb0             	GOTO	_00866_DS_
                                           _00865_DS_
                                           ;	.line	1440; "MC32F7361.c"	ir_type = 1;
0000ae   3c01     movai   0x1              	MOVAI	0x01
0000af   5636     movra   0x36             	MOVRA	_ir_type
                                           _00866_DS_
                                           ;	.line	1441; "MC32F7361.c"	__ir_data = 0;
0000b0   7625     clrr    0x25             	CLRR	_int_isr___ir_data_196608_60
0000b1   7626     clrr    0x26             	CLRR	(_int_isr___ir_data_196608_60 + 1)
0000b2   7627     clrr    0x27             	CLRR	(_int_isr___ir_data_196608_60 + 2)
0000b3   7628     clrr    0x28             	CLRR	(_int_isr___ir_data_196608_60 + 3)
                                           ;	.line	1442; "MC32F7361.c"	flag_is_recved_data = 1;
0000b4   c034     bset    0x34, 0          	BSET	_flag1,0
                                           ;	.line	1443; "MC32F7361.c"	flag_is_recv_ir_repeat_code = 1; //
0000b5   c834     bset    0x34, 0x4        	BSET	_flag1,4
                                           _00882_DS_
                                           ;	.line	1457; "MC32F7361.c"	ir_level_cnt = 0;
0000b6   7623     clrr    0x23             	CLRR	_int_isr_ir_level_cnt_196608_60
0000b7   7624     clrr    0x24             	CLRR	(_int_isr_ir_level_cnt_196608_60 + 1)
                                           _00884_DS_
                                           ;	.line	1460; "MC32F7361.c"	last_level_in_ir_pin = 0; // 
0000b8   d434     bclr    0x34, 0x2        	BCLR	_flag1,2
                                           _00887_DS_
                                           ;	.line	1467; "MC32F7361.c"	if (0 == MECHANICAL_KEYING_PIN)
0000b9   fd94     jbclr   0x194, 0x6       	JBCLR	_IOP1bits,6
0000ba   a0d3     goto    0xd3             	GOTO	_00897_DS_
                                           ;	.line	1470; "MC32F7361.c"	if (key_press_cnt == 10000) // 
0000bb   5829     movar   0x29             	MOVAR	_int_isr_key_press_cnt_196608_73
0000bc   3910     xorai   0x10             	XORAI	0x10
0000bd   e587     jbset   0x187, 0x2       	JBSET	PFLAG,2
0000be   a0c7     goto    0xc7             	GOTO	_00891_DS_
0000bf   582a     movar   0x2a             	MOVAR	(_int_isr_key_press_cnt_196608_73 + 1)
0000c0   3927     xorai   0x27             	XORAI	0x27
0000c1   e587     jbset   0x187, 0x2       	JBSET	PFLAG,2
0000c2   a0c7     goto    0xc7             	GOTO	_00891_DS_
                                           ;	.line	1472; "MC32F7361.c"	ir_data = IR_KEY_OFF;
0000c3   3cb8     movai   0xb8             	MOVAI	0xb8
0000c4   5635     movra   0x35             	MOVRA	_ir_data
                                           ;	.line	1473; "MC32F7361.c"	flag_is_recved_data = 1;
0000c5   c034     bset    0x34, 0          	BSET	_flag1,0
0000c6   a0e8     goto    0xe8             	GOTO	_00898_DS_
                                           ;;unsigned compare: left < lit(0x2710=10000), size=2
                                           _00891_DS_
                                           ;	.line	1475; "MC32F7361.c"	else if (key_press_cnt < 10000)
0000c7   3c27     movai   0x27             	MOVAI	0x27
0000c8   482a     rsubar  0x2a             	RSUBAR	(_int_isr_key_press_cnt_196608_73 + 1)
0000c9   e587     jbset   0x187, 0x2       	JBSET	PFLAG,2
0000ca   a0cd     goto    0xcd             	GOTO	_01019_DS_
0000cb   3c10     movai   0x10             	MOVAI	0x10
0000cc   4829     rsubar  0x29             	RSUBAR	_int_isr_key_press_cnt_196608_73
                                           _01019_DS_
0000cd   f187     jbclr   0x187, 0         	JBCLR	PFLAG,0
0000ce   a0e8     goto    0xe8             	GOTO	_00898_DS_
                                           ;;genSkipc:3291: created from rifx:013B5EFC
                                           ;	.line	1477; "MC32F7361.c"	key_press_cnt++;
0000cf   6629     incr    0x29             	INCR	_int_isr_key_press_cnt_196608_73
0000d0   f587     jbclr   0x187, 0x2       	JBCLR	PFLAG,2
0000d1   662a     incr    0x2a             	INCR	(_int_isr_key_press_cnt_196608_73 + 1)
0000d2   a0e8     goto    0xe8             	GOTO	_00898_DS_
                                           ;;unsigned compare: left < lit(0x64=100), size=2
                                           _00897_DS_
                                           ;	.line	1482; "MC32F7361.c"	if (key_press_cnt >= 100 && key_press_cnt < 10000) // 
0000d3   3c00     movai   0                	MOVAI	0x00
0000d4   482a     rsubar  0x2a             	RSUBAR	(_int_isr_key_press_cnt_196608_73 + 1)
0000d5   e587     jbset   0x187, 0x2       	JBSET	PFLAG,2
0000d6   a0d9     goto    0xd9             	GOTO	_01020_DS_
0000d7   3c64     movai   0x64             	MOVAI	0x64
0000d8   4829     rsubar  0x29             	RSUBAR	_int_isr_key_press_cnt_196608_73
                                           _01020_DS_
0000d9   e187     jbset   0x187, 0         	JBSET	PFLAG,0
0000da   a0e6     goto    0xe6             	GOTO	_00894_DS_
                                           ;;genSkipc:3291: created from rifx:013B5EFC
                                           ;;unsigned compare: left < lit(0x2710=10000), size=2
0000db   3c27     movai   0x27             	MOVAI	0x27
0000dc   482a     rsubar  0x2a             	RSUBAR	(_int_isr_key_press_cnt_196608_73 + 1)
0000dd   e587     jbset   0x187, 0x2       	JBSET	PFLAG,2
0000de   a0e1     goto    0xe1             	GOTO	_01021_DS_
0000df   3c10     movai   0x10             	MOVAI	0x10
0000e0   4829     rsubar  0x29             	RSUBAR	_int_isr_key_press_cnt_196608_73
                                           _01021_DS_
0000e1   f187     jbclr   0x187, 0         	JBCLR	PFLAG,0
0000e2   a0e6     goto    0xe6             	GOTO	_00894_DS_
                                           ;;genSkipc:3291: created from rifx:013B5EFC
                                           ;	.line	1484; "MC32F7361.c"	ir_data = IR_MECHANICAL_KEYING;
0000e3   3c01     movai   0x1              	MOVAI	0x01
0000e4   5635     movra   0x35             	MOVRA	_ir_data
                                           ;	.line	1485; "MC32F7361.c"	flag_is_recved_data = 1;
0000e5   c034     bset    0x34, 0          	BSET	_flag1,0
                                           _00894_DS_
                                           ;	.line	1488; "MC32F7361.c"	key_press_cnt = 0;
0000e6   7629     clrr    0x29             	CLRR	_int_isr_key_press_cnt_196608_73
0000e7   762a     clrr    0x2a             	CLRR	(_int_isr_key_press_cnt_196608_73 + 1)
                                           _00898_DS_
                                           ;	.line	1550; "MC32F7361.c"	_100us_count++;
0000e8   662b     incr    0x2b             	INCR	_int_isr__100us_count_131073_79
                                           ;;unsigned compare: left < lit(0xA=10), size=1
                                           ;	.line	1551; "MC32F7361.c"	if (_100us_count >= 10)
0000e9   3c0a     movai   0xa              	MOVAI	0x0a
0000ea   482b     rsubar  0x2b             	RSUBAR	_int_isr__100us_count_131073_79
0000eb   e187     jbset   0x187, 0         	JBSET	PFLAG,0
0000ec   a118     goto    0x118            	GOTO	_00909_DS_
                                           ;;genSkipc:3291: created from rifx:013B5EFC
                                           ;	.line	1553; "MC32F7361.c"	_100us_count = 0;
0000ed   762b     clrr    0x2b             	CLRR	_int_isr__100us_count_131073_79
                                           ;	.line	1554; "MC32F7361.c"	if (next_frame_delay > 0 && next_frame_delay < 0xFFFF)
0000ee   5830     movar   0x30             	MOVAR	_next_frame_delay
0000ef   5c31     orar    0x31             	ORAR	(_next_frame_delay + 1)
0000f0   f587     jbclr   0x187, 0x2       	JBCLR	PFLAG,2
0000f1   a0fe     goto    0xfe             	GOTO	_00900_DS_
                                           ;;unsigned compare: left < lit(0xFFFF=65535), size=2
0000f2   3cff     movai   0xff             	MOVAI	0xff
0000f3   4831     rsubar  0x31             	RSUBAR	(_next_frame_delay + 1)
0000f4   e587     jbset   0x187, 0x2       	JBSET	PFLAG,2
0000f5   a0f8     goto    0xf8             	GOTO	_01023_DS_
0000f6   3cff     movai   0xff             	MOVAI	0xff
0000f7   4830     rsubar  0x30             	RSUBAR	_next_frame_delay
                                           _01023_DS_
0000f8   f187     jbclr   0x187, 0         	JBCLR	PFLAG,0
0000f9   a0fe     goto    0xfe             	GOTO	_00900_DS_
                                           ;;genSkipc:3291: created from rifx:013B5EFC
                                           ;	.line	1556; "MC32F7361.c"	next_frame_delay--;
0000fa   3cff     movai   0xff             	MOVAI	0xff
0000fb   7e30     addra   0x30             	ADDRA	_next_frame_delay
0000fc   e187     jbset   0x187, 0         	JBSET	PFLAG,0
0000fd   6e31     decr    0x31             	DECR	(_next_frame_delay + 1)
                                           _00900_DS_
                                           ;	.line	1559; "MC32F7361.c"	if (timer_count)
0000fe   582c     movar   0x2c             	MOVAR	_timer_count
0000ff   5c2d     orar    0x2d             	ORAR	(_timer_count + 1)
000100   5c2e     orar    0x2e             	ORAR	(_timer_count + 2)
000101   5c2f     orar    0x2f             	ORAR	(_timer_count + 3)
000102   f587     jbclr   0x187, 0x2       	JBCLR	PFLAG,2
000103   a118     goto    0x118            	GOTO	_00909_DS_
                                           ;	.line	1561; "MC32F7361.c"	timer_count--;
000104   3cff     movai   0xff             	MOVAI	0xff
000105   7e2c     addra   0x2c             	ADDRA	_timer_count
000106   3cff     movai   0xff             	MOVAI	0xff
000107   e187     jbset   0x187, 0         	JBSET	PFLAG,0
000108   7e2d     addra   0x2d             	ADDRA	(_timer_count + 1)
000109   3cff     movai   0xff             	MOVAI	0xff
00010a   e187     jbset   0x187, 0         	JBSET	PFLAG,0
00010b   7e2e     addra   0x2e             	ADDRA	(_timer_count + 2)
00010c   3cff     movai   0xff             	MOVAI	0xff
00010d   e187     jbset   0x187, 0         	JBSET	PFLAG,0
00010e   7e2f     addra   0x2f             	ADDRA	(_timer_count + 3)
                                           ;	.line	1562; "MC32F7361.c"	if (timer_count == 0)
00010f   582c     movar   0x2c             	MOVAR	_timer_count
000110   5c2d     orar    0x2d             	ORAR	(_timer_count + 1)
000111   5c2e     orar    0x2e             	ORAR	(_timer_count + 2)
000112   5c2f     orar    0x2f             	ORAR	(_timer_count + 3)
000113   e587     jbset   0x187, 0x2       	JBSET	PFLAG,2
000114   a118     goto    0x118            	GOTO	_00909_DS_
                                           ;	.line	1564; "MC32F7361.c"	ir_data = IR_KEY_OFF;
000115   3cb8     movai   0xb8             	MOVAI	0xb8
000116   5635     movra   0x35             	MOVRA	_ir_data
                                           ;	.line	1565; "MC32F7361.c"	flag_is_recved_data = 1;
000117   c034     bset    0x34, 0          	BSET	_flag1,0
                                           _00909_DS_
                                           ;	.line	1600; "MC32F7361.c"	__endasm;
                                           	;
000118   4433     swapar  0x33             	swapar	_statusbuf;
000119   5787     movra   0x187            	movra	_PFLAG;
00011a   4632     swapr   0x32             	swapr	_abuf;
00011b   4432     swapar  0x32             	swapar	_abuf;
                                           	
                                           END_OF_INTERRUPT
                                           ;	.line	1601; "MC32F7361.c"	}
00011c   000d     retie                    	RETIE	
                                           
                                           ;--------------------------------------------------------
                                           ; code
                                           ;--------------------------------------------------------
                                           code_MC32F7361	code
                                           ;***
                                           ;  pBlock Stats: dbName = M
                                           ;***
                                           ;entry:  _main	;Function start
                                           ; 2 exit points
                                           ;has an exit
                                           ;functions called:
                                           ;   _Sys_Init
                                           ;   _delay_ms
                                           ;   _EEPROM_Read_Byte
                                           ;   _key_event_same_deal_ex
                                           ;   _key_event_same_deal_ex
                                           ;   _send_cmd_16bit
                                           ;   _key_event_same_deal_ex
                                           ;   _key_event_same_deal_ex
                                           ;   _key_event_same_deal_ex
                                           ;   _key_event_same_deal_ex
                                           ;   _key_event_same_deal_ex
                                           ;   _key_event_same_deal_ex
                                           ;   _key_event_same_deal_ex
                                           ;   _key_event_same_deal_ex
                                           ;   _key_event_same_deal_ex
                                           ;   _key_event_same_deal_ex
                                           ;   _key_event_same_deal_ex
                                           ;   _key_event_same_deal_ex
                                           ;   _key_event_same_deal_ex
                                           ;   _key_event_same_deal_ex
                                           ;   _key_event_same_deal_ex
                                           ;   _key_event_same_deal_ex
                                           ;   _key_event_same_deal_ex
                                           ;   _key_event_same_deal_ex
                                           ;   _key_event_same_deal_ex
                                           ;   _key_event_same_deal_ex
                                           ;   _key_event_same_deal_ex
                                           ;   _key_event_same_deal_ex
                                           ;   _key_event_same_deal_ex
                                           ;   _key_event_same_deal_ex
                                           ;   _key_event_same_deal_ex
                                           ;   _key_event_same_deal_ex
                                           ;   _key_event_same_deal_ex
                                           ;   _key_event_same_deal_ex
                                           ;   _key_event_same_deal_ex
                                           ;   _key_event_same_deal_ex
                                           ;   _key_event_same_deal_ex
                                           ;   _key_event_same_deal_ex
                                           ;   _key_event_same_deal_ex
                                           ;   _key_event_same_deal_ex
                                           ;   _key_event_set_timer
                                           ;   _key_event_set_timer
                                           ;   _key_event_set_timer
                                           ;   _key_event_set_timer
                                           ;   __gptrget1
                                           ;   __gptrget2
                                           ;   __gptrget2
                                           ;   __gptrget1
                                           ;   __gptrget2
                                           ;   __gptrget1
                                           ;   __gptrget2
                                           ;   __gptrget1
                                           ;   _send_cmd_16bit
                                           ;   _delay_ms
                                           ;   _delay_100xus
                                           ;   _delay_ms
                                           ;   _delay_100xus
                                           ;   _delay_ms
                                           ;   _delay_100xus
                                           ;   _delay_ms
                                           ;   _delay_100xus
                                           ;   _delay_ms
                                           ;   _EEPROM_Read_Byte
                                           ;   _EEPROM_Read_Byte
                                           ;   _EEPROM_Read_Byte
                                           ;   _key_event_same_deal_ex
                                           ;   _send_cmd_16bit
                                           ;   _send_cmd_16bit
                                           ;   _delay_ms
                                           ;   _Sys_Init
                                           ;   _delay_ms
                                           ;   _EEPROM_Read_Byte
                                           ;   _key_event_same_deal_ex
                                           ;   _key_event_same_deal_ex
                                           ;   _send_cmd_16bit
                                           ;   _key_event_same_deal_ex
                                           ;   _key_event_same_deal_ex
                                           ;   _key_event_same_deal_ex
                                           ;   _key_event_same_deal_ex
                                           ;   _key_event_same_deal_ex
                                           ;   _key_event_same_deal_ex
                                           ;   _key_event_same_deal_ex
                                           ;   _key_event_same_deal_ex
                                           ;   _key_event_same_deal_ex
                                           ;   _key_event_same_deal_ex
                                           ;   _key_event_same_deal_ex
                                           ;   _key_event_same_deal_ex
                                           ;   _key_event_same_deal_ex
                                           ;   _key_event_same_deal_ex
                                           ;   _key_event_same_deal_ex
                                           ;   _key_event_same_deal_ex
                                           ;   _key_event_same_deal_ex
                                           ;   _key_event_same_deal_ex
                                           ;   _key_event_same_deal_ex
                                           ;   _key_event_same_deal_ex
                                           ;   _key_event_same_deal_ex
                                           ;   _key_event_same_deal_ex
                                           ;   _key_event_same_deal_ex
                                           ;   _key_event_same_deal_ex
                                           ;   _key_event_same_deal_ex
                                           ;   _key_event_same_deal_ex
                                           ;   _key_event_same_deal_ex
                                           ;   _key_event_same_deal_ex
                                           ;   _key_event_same_deal_ex
                                           ;   _key_event_same_deal_ex
                                           ;   _key_event_same_deal_ex
                                           ;   _key_event_same_deal_ex
                                           ;   _key_event_same_deal_ex
                                           ;   _key_event_same_deal_ex
                                           ;   _key_event_set_timer
                                           ;   _key_event_set_timer
                                           ;   _key_event_set_timer
                                           ;   _key_event_set_timer
                                           ;   __gptrget1
                                           ;   __gptrget2
                                           ;   __gptrget2
                                           ;   __gptrget1
                                           ;   __gptrget2
                                           ;   __gptrget1
                                           ;   __gptrget2
                                           ;   __gptrget1
                                           ;   _send_cmd_16bit
                                           ;   _delay_ms
                                           ;   _delay_100xus
                                           ;   _delay_ms
                                           ;   _delay_100xus
                                           ;   _delay_ms
                                           ;   _delay_100xus
                                           ;   _delay_ms
                                           ;   _delay_100xus
                                           ;   _delay_ms
                                           ;   _EEPROM_Read_Byte
                                           ;   _EEPROM_Read_Byte
                                           ;   _EEPROM_Read_Byte
                                           ;   _key_event_same_deal_ex
                                           ;   _send_cmd_16bit
                                           ;   _send_cmd_16bit
                                           ;   _delay_ms
                                           ;8 compiler assigned registers:
                                           ;   STK00
                                           ;   r0x1030
                                           ;   r0x1031
                                           ;   STK02
                                           ;   STK01
                                           ;   r0x1032
                                           ;   r0x1033
                                           ;   r0x1034
                                           ;; Starting pCode block
                                           _main	;Function start
                                           ; 2 exit points
                                           ;	.line	733; "MC32F7361.c"	Sys_Init();
00011d   865c     call    0x65c            	CALL	_Sys_Init
                                           ;	.line	734; "MC32F7361.c"	delay_ms(1); // 
00011e   3c01     movai   0x1              	MOVAI	0x01
00011f   5606     movra   0x6              	MOVRA	STK00
000120   3c00     movai   0                	MOVAI	0x00
000121   86f7     call    0x6f7            	CALL	_delay_ms
                                           ;	.line	749; "MC32F7361.c"	P15OE = 0; // 
000122   db95     bclr    0x195, 0x5       	BCLR	_OEP1bits,5
                                           ;	.line	755; "MC32F7361.c"	P16OE = 0; // 
000123   dd95     bclr    0x195, 0x6       	BCLR	_OEP1bits,6
                                           ;	.line	760; "MC32F7361.c"	if (EEPROM_Read_Byte(4) != 0xA5A5)
000124   3c04     movai   0x4              	MOVAI	0x04
000125   86b8     call    0x6b8            	CALL	_EEPROM_Read_Byte
000126   561b     movra   0x1b             	MOVRA	r0x1030
000127   5806     movar   0x6              	MOVAR	STK00
000128   561a     movra   0x1a             	MOVRA	r0x1031
000129   581a     movar   0x1a             	MOVAR	r0x1031
00012a   39a5     xorai   0xa5             	XORAI	0xa5
00012b   e587     jbset   0x187, 0x2       	JBSET	PFLAG,2
00012c   a132     goto    0x132            	GOTO	_00783_DS_
00012d   581b     movar   0x1b             	MOVAR	r0x1030
00012e   39a5     xorai   0xa5             	XORAI	0xa5
00012f   e587     jbset   0x187, 0x2       	JBSET	PFLAG,2
000130   a132     goto    0x132            	GOTO	_00783_DS_
000131   a13b     goto    0x13b            	GOTO	_00202_DS_
                                           _00783_DS_
                                           ;	.line	763; "MC32F7361.c"	key_event_same_deal(MODE_AUTO_START, MODE_AUTO_END, 0x9645, 0x9645);
000132   3c45     movai   0x45             	MOVAI	0x45
000133   5604     movra   0x4              	MOVRA	STK02
000134   3c96     movai   0x96             	MOVAI	0x96
000135   5605     movra   0x5              	MOVRA	STK01
000136   3c4a     movai   0x4a             	MOVAI	0x4a
000137   5606     movra   0x6              	MOVRA	STK00
000138   3c00     movai   0                	MOVAI	0x00
000139   860a     call    0x60a            	CALL	_key_event_same_deal_ex
00013a   a13d     goto    0x13d            	GOTO	_00334_DS_
                                           _00202_DS_
                                           ;	.line	767; "MC32F7361.c"	power_sta = POWER_STA_PRE_ON;
00013b   3c01     movai   0x1              	MOVAI	0x01
00013c   563a     movra   0x3a             	MOVRA	_power_sta
                                           _00334_DS_
                                           ;	.line	773; "MC32F7361.c"	if (flag_is_recved_data)
00013d   e034     jbset   0x34, 0          	JBSET	_flag1,0
00013e   a4b4     goto    0x4b4            	GOTO	_00295_DS_
                                           ;	.line	775; "MC32F7361.c"	if (ir_type)
00013f   3c00     movai   0                	MOVAI	0x00
000140   5c36     orar    0x36             	ORAR	_ir_type
000141   f587     jbclr   0x187, 0x2       	JBCLR	PFLAG,2
000142   a244     goto    0x244            	GOTO	_00238_DS_
                                           ;	.line	777; "MC32F7361.c"	ir_type = 0;
000143   7636     clrr    0x36             	CLRR	_ir_type
                                           ;	.line	778; "MC32F7361.c"	switch (ir_data)
000144   5835     movar   0x35             	MOVAR	_ir_data
000145   561a     movra   0x1a             	MOVRA	r0x1031
000146   581a     movar   0x1a             	MOVAR	r0x1031
000147   e587     jbset   0x187, 0x2       	JBSET	PFLAG,2
000148   a14a     goto    0x14a            	GOTO	_00784_DS_
000149   a21e     goto    0x21e            	GOTO	_00223_DS_
                                           _00784_DS_
00014a   581a     movar   0x1a             	MOVAR	r0x1031
00014b   3902     xorai   0x2              	XORAI	0x02
00014c   e587     jbset   0x187, 0x2       	JBSET	PFLAG,2
00014d   a14f     goto    0x14f            	GOTO	_00785_DS_
00014e   a215     goto    0x215            	GOTO	_00220_DS_
                                           _00785_DS_
00014f   581a     movar   0x1a             	MOVAR	r0x1031
000150   3908     xorai   0x8              	XORAI	0x08
000151   e587     jbset   0x187, 0x2       	JBSET	PFLAG,2
000152   a154     goto    0x154            	GOTO	_00786_DS_
000153   a1e6     goto    0x1e6            	GOTO	_00204_DS_
                                           _00786_DS_
000154   581a     movar   0x1a             	MOVAR	r0x1031
000155   3912     xorai   0x12             	XORAI	0x12
000156   e587     jbset   0x187, 0x2       	JBSET	PFLAG,2
000157   a159     goto    0x159            	GOTO	_00787_DS_
000158   a23c     goto    0x23c            	GOTO	_00233_DS_
                                           _00787_DS_
000159   581a     movar   0x1a             	MOVAR	r0x1031
00015a   3920     xorai   0x20             	XORAI	0x20
00015b   e587     jbset   0x187, 0x2       	JBSET	PFLAG,2
00015c   a15e     goto    0x15e            	GOTO	_00788_DS_
00015d   a21b     goto    0x21b            	GOTO	_00222_DS_
                                           _00788_DS_
00015e   581a     movar   0x1a             	MOVAR	r0x1031
00015f   3928     xorai   0x28             	XORAI	0x28
000160   e587     jbset   0x187, 0x2       	JBSET	PFLAG,2
000161   a163     goto    0x163            	GOTO	_00789_DS_
000162   a230     goto    0x230            	GOTO	_00229_DS_
                                           _00789_DS_
000163   581a     movar   0x1a             	MOVAR	r0x1031
000164   392a     xorai   0x2a             	XORAI	0x2a
000165   e587     jbset   0x187, 0x2       	JBSET	PFLAG,2
000166   a168     goto    0x168            	GOTO	_00790_DS_
000167   a23f     goto    0x23f            	GOTO	_00234_DS_
                                           _00790_DS_
000168   581a     movar   0x1a             	MOVAR	r0x1031
000169   3930     xorai   0x30             	XORAI	0x30
00016a   e587     jbset   0x187, 0x2       	JBSET	PFLAG,2
00016b   a16d     goto    0x16d            	GOTO	_00791_DS_
00016c   a236     goto    0x236            	GOTO	_00231_DS_
                                           _00791_DS_
00016d   581a     movar   0x1a             	MOVAR	r0x1031
00016e   3932     xorai   0x32             	XORAI	0x32
00016f   e587     jbset   0x187, 0x2       	JBSET	PFLAG,2
000170   a172     goto    0x172            	GOTO	_00792_DS_
000171   a218     goto    0x218            	GOTO	_00221_DS_
                                           _00792_DS_
000172   581a     movar   0x1a             	MOVAR	r0x1031
000173   3938     xorai   0x38             	XORAI	0x38
000174   e587     jbset   0x187, 0x2       	JBSET	PFLAG,2
000175   a177     goto    0x177            	GOTO	_00793_DS_
000176   a22d     goto    0x22d            	GOTO	_00228_DS_
                                           _00793_DS_
000177   581a     movar   0x1a             	MOVAR	r0x1031
000178   3940     xorai   0x40             	XORAI	0x40
000179   e587     jbset   0x187, 0x2       	JBSET	PFLAG,2
00017a   a17c     goto    0x17c            	GOTO	_00794_DS_
00017b   a239     goto    0x239            	GOTO	_00232_DS_
                                           _00794_DS_
00017c   581a     movar   0x1a             	MOVAR	r0x1031
00017d   3948     xorai   0x48             	XORAI	0x48
00017e   e587     jbset   0x187, 0x2       	JBSET	PFLAG,2
00017f   a181     goto    0x181            	GOTO	_00795_DS_
000180   a20c     goto    0x20c            	GOTO	_00217_DS_
                                           _00795_DS_
000181   581a     movar   0x1a             	MOVAR	r0x1031
000182   3950     xorai   0x50             	XORAI	0x50
000183   e587     jbset   0x187, 0x2       	JBSET	PFLAG,2
000184   a186     goto    0x186            	GOTO	_00796_DS_
000185   a221     goto    0x221            	GOTO	_00224_DS_
                                           _00796_DS_
000186   581a     movar   0x1a             	MOVAR	r0x1031
000187   3958     xorai   0x58             	XORAI	0x58
000188   e587     jbset   0x187, 0x2       	JBSET	PFLAG,2
000189   a18b     goto    0x18b            	GOTO	_00797_DS_
00018a   a22a     goto    0x22a            	GOTO	_00227_DS_
                                           _00797_DS_
00018b   581a     movar   0x1a             	MOVAR	r0x1031
00018c   3960     xorai   0x60             	XORAI	0x60
00018d   e587     jbset   0x187, 0x2       	JBSET	PFLAG,2
00018e   a190     goto    0x190            	GOTO	_00798_DS_
00018f   a1ef     goto    0x1ef            	GOTO	_00207_DS_
                                           _00798_DS_
000190   581a     movar   0x1a             	MOVAR	r0x1031
000191   3968     xorai   0x68             	XORAI	0x68
000192   e587     jbset   0x187, 0x2       	JBSET	PFLAG,2
000193   a195     goto    0x195            	GOTO	_00799_DS_
000194   a20f     goto    0x20f            	GOTO	_00218_DS_
                                           _00799_DS_
000195   581a     movar   0x1a             	MOVAR	r0x1031
000196   3970     xorai   0x70             	XORAI	0x70
000197   e587     jbset   0x187, 0x2       	JBSET	PFLAG,2
000198   a19a     goto    0x19a            	GOTO	_00800_DS_
000199   a227     goto    0x227            	GOTO	_00226_DS_
                                           _00800_DS_
00019a   581a     movar   0x1a             	MOVAR	r0x1031
00019b   3978     xorai   0x78             	XORAI	0x78
00019c   e587     jbset   0x187, 0x2       	JBSET	PFLAG,2
00019d   a19f     goto    0x19f            	GOTO	_00801_DS_
00019e   a224     goto    0x224            	GOTO	_00225_DS_
                                           _00801_DS_
00019f   581a     movar   0x1a             	MOVAR	r0x1031
0001a0   3980     xorai   0x80             	XORAI	0x80
0001a1   e587     jbset   0x187, 0x2       	JBSET	PFLAG,2
0001a2   a1a4     goto    0x1a4            	GOTO	_00802_DS_
0001a3   a1ec     goto    0x1ec            	GOTO	_00206_DS_
                                           _00802_DS_
0001a4   581a     movar   0x1a             	MOVAR	r0x1031
0001a5   3988     xorai   0x88             	XORAI	0x88
0001a6   e587     jbset   0x187, 0x2       	JBSET	PFLAG,2
0001a7   a1a9     goto    0x1a9            	GOTO	_00803_DS_
0001a8   a203     goto    0x203            	GOTO	_00214_DS_
                                           _00803_DS_
0001a9   581a     movar   0x1a             	MOVAR	r0x1031
0001aa   3990     xorai   0x90             	XORAI	0x90
0001ab   e587     jbset   0x187, 0x2       	JBSET	PFLAG,2
0001ac   a1ae     goto    0x1ae            	GOTO	_00804_DS_
0001ad   a1f2     goto    0x1f2            	GOTO	_00208_DS_
                                           _00804_DS_
0001ae   581a     movar   0x1a             	MOVAR	r0x1031
0001af   3998     xorai   0x98             	XORAI	0x98
0001b0   e587     jbset   0x187, 0x2       	JBSET	PFLAG,2
0001b1   a1b3     goto    0x1b3            	GOTO	_00805_DS_
0001b2   a1fd     goto    0x1fd            	GOTO	_00212_DS_
                                           _00805_DS_
0001b3   581a     movar   0x1a             	MOVAR	r0x1031
0001b4   39a0     xorai   0xa0             	XORAI	0xa0
0001b5   e587     jbset   0x187, 0x2       	JBSET	PFLAG,2
0001b6   a1b8     goto    0x1b8            	GOTO	_00806_DS_
0001b7   a242     goto    0x242            	GOTO	_00235_DS_
                                           _00806_DS_
0001b8   581a     movar   0x1a             	MOVAR	r0x1031
0001b9   39a8     xorai   0xa8             	XORAI	0xa8
0001ba   e587     jbset   0x187, 0x2       	JBSET	PFLAG,2
0001bb   a1bd     goto    0x1bd            	GOTO	_00807_DS_
0001bc   a206     goto    0x206            	GOTO	_00215_DS_
                                           _00807_DS_
0001bd   581a     movar   0x1a             	MOVAR	r0x1031
0001be   39b0     xorai   0xb0             	XORAI	0xb0
0001bf   e587     jbset   0x187, 0x2       	JBSET	PFLAG,2
0001c0   a1c2     goto    0x1c2            	GOTO	_00808_DS_
0001c1   a1fa     goto    0x1fa            	GOTO	_00211_DS_
                                           _00808_DS_
0001c2   581a     movar   0x1a             	MOVAR	r0x1031
0001c3   39b2     xorai   0xb2             	XORAI	0xb2
0001c4   e587     jbset   0x187, 0x2       	JBSET	PFLAG,2
0001c5   a1c7     goto    0x1c7            	GOTO	_00809_DS_
0001c6   a212     goto    0x212            	GOTO	_00219_DS_
                                           _00809_DS_
0001c7   581a     movar   0x1a             	MOVAR	r0x1031
0001c8   39b8     xorai   0xb8             	XORAI	0xb8
0001c9   e587     jbset   0x187, 0x2       	JBSET	PFLAG,2
0001ca   a1cc     goto    0x1cc            	GOTO	_00810_DS_
0001cb   a1f4     goto    0x1f4            	GOTO	_00209_DS_
                                           _00810_DS_
0001cc   581a     movar   0x1a             	MOVAR	r0x1031
0001cd   39c0     xorai   0xc0             	XORAI	0xc0
0001ce   e587     jbset   0x187, 0x2       	JBSET	PFLAG,2
0001cf   a1d1     goto    0x1d1            	GOTO	_00811_DS_
0001d0   a1e9     goto    0x1e9            	GOTO	_00205_DS_
                                           _00811_DS_
0001d1   581a     movar   0x1a             	MOVAR	r0x1031
0001d2   39d8     xorai   0xd8             	XORAI	0xd8
0001d3   e587     jbset   0x187, 0x2       	JBSET	PFLAG,2
0001d4   a1d6     goto    0x1d6            	GOTO	_00812_DS_
0001d5   a200     goto    0x200            	GOTO	_00213_DS_
                                           _00812_DS_
0001d6   581a     movar   0x1a             	MOVAR	r0x1031
0001d7   39e8     xorai   0xe8             	XORAI	0xe8
0001d8   e587     jbset   0x187, 0x2       	JBSET	PFLAG,2
0001d9   a1db     goto    0x1db            	GOTO	_00813_DS_
0001da   a209     goto    0x209            	GOTO	_00216_DS_
                                           _00813_DS_
0001db   581a     movar   0x1a             	MOVAR	r0x1031
0001dc   39f0     xorai   0xf0             	XORAI	0xf0
0001dd   e587     jbset   0x187, 0x2       	JBSET	PFLAG,2
0001de   a1e0     goto    0x1e0            	GOTO	_00814_DS_
0001df   a233     goto    0x233            	GOTO	_00230_DS_
                                           _00814_DS_
0001e0   581a     movar   0x1a             	MOVAR	r0x1031
0001e1   39f8     xorai   0xf8             	XORAI	0xf8
0001e2   e587     jbset   0x187, 0x2       	JBSET	PFLAG,2
0001e3   a1e5     goto    0x1e5            	GOTO	_00815_DS_
0001e4   a1f7     goto    0x1f7            	GOTO	_00210_DS_
                                           _00815_DS_
0001e5   a244     goto    0x244            	GOTO	_00238_DS_
                                           _00204_DS_
                                           ;	.line	781; "MC32F7361.c"	ir_data = 0x38;
0001e6   3c38     movai   0x38             	MOVAI	0x38
0001e7   5635     movra   0x35             	MOVRA	_ir_data
                                           ;	.line	782; "MC32F7361.c"	break;
0001e8   a244     goto    0x244            	GOTO	_00238_DS_
                                           _00205_DS_
                                           ;	.line	784; "MC32F7361.c"	ir_data = 0xB8;
0001e9   3cb8     movai   0xb8             	MOVAI	0xb8
0001ea   5635     movra   0x35             	MOVRA	_ir_data
                                           ;	.line	785; "MC32F7361.c"	break;
0001eb   a244     goto    0x244            	GOTO	_00238_DS_
                                           _00206_DS_
                                           ;	.line	787; "MC32F7361.c"	ir_data = 0x78;
0001ec   3c78     movai   0x78             	MOVAI	0x78
0001ed   5635     movra   0x35             	MOVRA	_ir_data
                                           ;	.line	788; "MC32F7361.c"	break;
0001ee   a244     goto    0x244            	GOTO	_00238_DS_
                                           _00207_DS_
                                           ;	.line	790; "MC32F7361.c"	ir_data = 0xF8;
0001ef   3cf8     movai   0xf8             	MOVAI	0xf8
0001f0   5635     movra   0x35             	MOVRA	_ir_data
                                           ;	.line	791; "MC32F7361.c"	break;
0001f1   a244     goto    0x244            	GOTO	_00238_DS_
                                           _00208_DS_
                                           ;	.line	793; "MC32F7361.c"	ir_data = 0x00;
0001f2   7635     clrr    0x35             	CLRR	_ir_data
                                           ;	.line	794; "MC32F7361.c"	break;
0001f3   a244     goto    0x244            	GOTO	_00238_DS_
                                           _00209_DS_
                                           ;	.line	796; "MC32F7361.c"	ir_data = 0x80;
0001f4   3c80     movai   0x80             	MOVAI	0x80
0001f5   5635     movra   0x35             	MOVRA	_ir_data
                                           ;	.line	797; "MC32F7361.c"	break;
0001f6   a244     goto    0x244            	GOTO	_00238_DS_
                                           _00210_DS_
                                           ;	.line	799; "MC32F7361.c"	ir_data = 0x40;
0001f7   3c40     movai   0x40             	MOVAI	0x40
0001f8   5635     movra   0x35             	MOVRA	_ir_data
                                           ;	.line	800; "MC32F7361.c"	break;
0001f9   a244     goto    0x244            	GOTO	_00238_DS_
                                           _00211_DS_
                                           ;	.line	802; "MC32F7361.c"	ir_data = 0xC0;
0001fa   3cc0     movai   0xc0             	MOVAI	0xc0
0001fb   5635     movra   0x35             	MOVRA	_ir_data
                                           ;	.line	803; "MC32F7361.c"	break;
0001fc   a244     goto    0x244            	GOTO	_00238_DS_
                                           _00212_DS_
                                           ;	.line	805; "MC32F7361.c"	ir_data = 0x20;
0001fd   3c20     movai   0x20             	MOVAI	0x20
0001fe   5635     movra   0x35             	MOVRA	_ir_data
                                           ;	.line	806; "MC32F7361.c"	break;
0001ff   a244     goto    0x244            	GOTO	_00238_DS_
                                           _00213_DS_
                                           ;	.line	808; "MC32F7361.c"	ir_data = 0xA0;
000200   3ca0     movai   0xa0             	MOVAI	0xa0
000201   5635     movra   0x35             	MOVRA	_ir_data
                                           ;	.line	809; "MC32F7361.c"	break;
000202   a244     goto    0x244            	GOTO	_00238_DS_
                                           _00214_DS_
                                           ;	.line	811; "MC32F7361.c"	ir_data = 0x60;
000203   3c60     movai   0x60             	MOVAI	0x60
000204   5635     movra   0x35             	MOVRA	_ir_data
                                           ;	.line	812; "MC32F7361.c"	break;
000205   a244     goto    0x244            	GOTO	_00238_DS_
                                           _00215_DS_
                                           ;	.line	814; "MC32F7361.c"	ir_data = 0xE0;
000206   3ce0     movai   0xe0             	MOVAI	0xe0
000207   5635     movra   0x35             	MOVRA	_ir_data
                                           ;	.line	815; "MC32F7361.c"	break;
000208   a244     goto    0x244            	GOTO	_00238_DS_
                                           _00216_DS_
                                           ;	.line	817; "MC32F7361.c"	ir_data = 0x10;
000209   3c10     movai   0x10             	MOVAI	0x10
00020a   5635     movra   0x35             	MOVRA	_ir_data
                                           ;	.line	818; "MC32F7361.c"	break;
00020b   a244     goto    0x244            	GOTO	_00238_DS_
                                           _00217_DS_
                                           ;	.line	820; "MC32F7361.c"	ir_data = 0x90;
00020c   3c90     movai   0x90             	MOVAI	0x90
00020d   5635     movra   0x35             	MOVRA	_ir_data
                                           ;	.line	821; "MC32F7361.c"	break;
00020e   a244     goto    0x244            	GOTO	_00238_DS_
                                           _00218_DS_
                                           ;	.line	823; "MC32F7361.c"	ir_data = 0x50;
00020f   3c50     movai   0x50             	MOVAI	0x50
000210   5635     movra   0x35             	MOVRA	_ir_data
                                           ;	.line	824; "MC32F7361.c"	break;
000211   a244     goto    0x244            	GOTO	_00238_DS_
                                           _00219_DS_
                                           ;	.line	826; "MC32F7361.c"	ir_data = 0xD0;
000212   3cd0     movai   0xd0             	MOVAI	0xd0
000213   5635     movra   0x35             	MOVRA	_ir_data
                                           ;	.line	827; "MC32F7361.c"	break;
000214   a244     goto    0x244            	GOTO	_00238_DS_
                                           _00220_DS_
                                           ;	.line	829; "MC32F7361.c"	ir_data = 0x30;
000215   3c30     movai   0x30             	MOVAI	0x30
000216   5635     movra   0x35             	MOVRA	_ir_data
                                           ;	.line	830; "MC32F7361.c"	break;
000217   a244     goto    0x244            	GOTO	_00238_DS_
                                           _00221_DS_
                                           ;	.line	832; "MC32F7361.c"	ir_data = 0xB0;
000218   3cb0     movai   0xb0             	MOVAI	0xb0
000219   5635     movra   0x35             	MOVRA	_ir_data
                                           ;	.line	833; "MC32F7361.c"	break;
00021a   a244     goto    0x244            	GOTO	_00238_DS_
                                           _00222_DS_
                                           ;	.line	835; "MC32F7361.c"	ir_data = 0x70;
00021b   3c70     movai   0x70             	MOVAI	0x70
00021c   5635     movra   0x35             	MOVRA	_ir_data
                                           ;	.line	836; "MC32F7361.c"	break;
00021d   a244     goto    0x244            	GOTO	_00238_DS_
                                           _00223_DS_
                                           ;	.line	838; "MC32F7361.c"	ir_data = 0xF0;
00021e   3cf0     movai   0xf0             	MOVAI	0xf0
00021f   5635     movra   0x35             	MOVRA	_ir_data
                                           ;	.line	839; "MC32F7361.c"	break;
000220   a244     goto    0x244            	GOTO	_00238_DS_
                                           _00224_DS_
                                           ;	.line	841; "MC32F7361.c"	ir_data = 0x08;
000221   3c08     movai   0x8              	MOVAI	0x08
000222   5635     movra   0x35             	MOVRA	_ir_data
                                           ;	.line	842; "MC32F7361.c"	break;
000223   a244     goto    0x244            	GOTO	_00238_DS_
                                           _00225_DS_
                                           ;	.line	844; "MC32F7361.c"	ir_data = 0x88;
000224   3c88     movai   0x88             	MOVAI	0x88
000225   5635     movra   0x35             	MOVRA	_ir_data
                                           ;	.line	845; "MC32F7361.c"	break;
000226   a244     goto    0x244            	GOTO	_00238_DS_
                                           _00226_DS_
                                           ;	.line	847; "MC32F7361.c"	ir_data = 0x48;
000227   3c48     movai   0x48             	MOVAI	0x48
000228   5635     movra   0x35             	MOVRA	_ir_data
                                           ;	.line	848; "MC32F7361.c"	break;
000229   a244     goto    0x244            	GOTO	_00238_DS_
                                           _00227_DS_
                                           ;	.line	850; "MC32F7361.c"	ir_data = 0xC8;
00022a   3cc8     movai   0xc8             	MOVAI	0xc8
00022b   5635     movra   0x35             	MOVRA	_ir_data
                                           ;	.line	851; "MC32F7361.c"	break;
00022c   a244     goto    0x244            	GOTO	_00238_DS_
                                           _00228_DS_
                                           ;	.line	853; "MC32F7361.c"	ir_data = 0x28;
00022d   3c28     movai   0x28             	MOVAI	0x28
00022e   5635     movra   0x35             	MOVRA	_ir_data
                                           ;	.line	854; "MC32F7361.c"	break;
00022f   a244     goto    0x244            	GOTO	_00238_DS_
                                           _00229_DS_
                                           ;	.line	856; "MC32F7361.c"	ir_data = 0xA8;
000230   3ca8     movai   0xa8             	MOVAI	0xa8
000231   5635     movra   0x35             	MOVRA	_ir_data
                                           ;	.line	857; "MC32F7361.c"	break;
000232   a244     goto    0x244            	GOTO	_00238_DS_
                                           _00230_DS_
                                           ;	.line	859; "MC32F7361.c"	ir_data = 0x68;
000233   3c68     movai   0x68             	MOVAI	0x68
000234   5635     movra   0x35             	MOVRA	_ir_data
                                           ;	.line	860; "MC32F7361.c"	break;
000235   a244     goto    0x244            	GOTO	_00238_DS_
                                           _00231_DS_
                                           ;	.line	862; "MC32F7361.c"	ir_data = 0xE8;
000236   3ce8     movai   0xe8             	MOVAI	0xe8
000237   5635     movra   0x35             	MOVRA	_ir_data
                                           ;	.line	863; "MC32F7361.c"	break;
000238   a244     goto    0x244            	GOTO	_00238_DS_
                                           _00232_DS_
                                           ;	.line	865; "MC32F7361.c"	ir_data = 0x18;
000239   3c18     movai   0x18             	MOVAI	0x18
00023a   5635     movra   0x35             	MOVRA	_ir_data
                                           ;	.line	866; "MC32F7361.c"	break;
00023b   a244     goto    0x244            	GOTO	_00238_DS_
                                           _00233_DS_
                                           ;	.line	868; "MC32F7361.c"	ir_data = 0x98;
00023c   3c98     movai   0x98             	MOVAI	0x98
00023d   5635     movra   0x35             	MOVRA	_ir_data
                                           ;	.line	869; "MC32F7361.c"	break;
00023e   a244     goto    0x244            	GOTO	_00238_DS_
                                           _00234_DS_
                                           ;	.line	871; "MC32F7361.c"	ir_data = 0x58;
00023f   3c58     movai   0x58             	MOVAI	0x58
000240   5635     movra   0x35             	MOVRA	_ir_data
                                           ;	.line	872; "MC32F7361.c"	break;
000241   a244     goto    0x244            	GOTO	_00238_DS_
                                           _00235_DS_
                                           ;	.line	874; "MC32F7361.c"	ir_data = 0xD8;
000242   3cd8     movai   0xd8             	MOVAI	0xd8
000243   5635     movra   0x35             	MOVRA	_ir_data
                                           _00238_DS_
                                           ;	.line	878; "MC32F7361.c"	switch (ir_data)
000244   5835     movar   0x35             	MOVAR	_ir_data
000245   561a     movra   0x1a             	MOVRA	r0x1031
000246   581a     movar   0x1a             	MOVAR	r0x1031
000247   e587     jbset   0x187, 0x2       	JBSET	PFLAG,2
000248   a24a     goto    0x24a            	GOTO	_00816_DS_
000249   a3f0     goto    0x3f0            	GOTO	_00273_DS_
                                           _00816_DS_
00024a   581a     movar   0x1a             	MOVAR	r0x1031
00024b   3901     xorai   0x1              	XORAI	0x01
00024c   e587     jbset   0x187, 0x2       	JBSET	PFLAG,2
00024d   a24f     goto    0x24f            	GOTO	_00817_DS_
00024e   a327     goto    0x327            	GOTO	_00250_DS_
                                           _00817_DS_
00024f   581a     movar   0x1a             	MOVAR	r0x1031
000250   3908     xorai   0x8              	XORAI	0x08
000251   e587     jbset   0x187, 0x2       	JBSET	PFLAG,2
000252   a254     goto    0x254            	GOTO	_00818_DS_
000253   a476     goto    0x476            	GOTO	_00286_DS_
                                           _00818_DS_
000254   581a     movar   0x1a             	MOVAR	r0x1031
000255   3910     xorai   0x10             	XORAI	0x10
000256   e587     jbset   0x187, 0x2       	JBSET	PFLAG,2
000257   a259     goto    0x259            	GOTO	_00819_DS_
000258   a43a     goto    0x43a            	GOTO	_00280_DS_
                                           _00819_DS_
000259   581a     movar   0x1a             	MOVAR	r0x1031
00025a   3918     xorai   0x18             	XORAI	0x18
00025b   e587     jbset   0x187, 0x2       	JBSET	PFLAG,2
00025c   a25e     goto    0x25e            	GOTO	_00820_DS_
00025d   a494     goto    0x494            	GOTO	_00289_DS_
                                           _00820_DS_
00025e   581a     movar   0x1a             	MOVAR	r0x1031
00025f   3920     xorai   0x20             	XORAI	0x20
000260   e587     jbset   0x187, 0x2       	JBSET	PFLAG,2
000261   a263     goto    0x263            	GOTO	_00821_DS_
000262   a41c     goto    0x41c            	GOTO	_00277_DS_
                                           _00821_DS_
000263   581a     movar   0x1a             	MOVAR	r0x1031
000264   3928     xorai   0x28             	XORAI	0x28
000265   e587     jbset   0x187, 0x2       	JBSET	PFLAG,2
000266   a268     goto    0x268            	GOTO	_00822_DS_
000267   a3c4     goto    0x3c4            	GOTO	_00269_DS_
                                           _00822_DS_
000268   581a     movar   0x1a             	MOVAR	r0x1031
000269   3930     xorai   0x30             	XORAI	0x30
00026a   e587     jbset   0x187, 0x2       	JBSET	PFLAG,2
00026b   a26d     goto    0x26d            	GOTO	_00823_DS_
00026c   a458     goto    0x458            	GOTO	_00283_DS_
                                           _00823_DS_
00026d   581a     movar   0x1a             	MOVAR	r0x1031
00026e   3938     xorai   0x38             	XORAI	0x38
00026f   e587     jbset   0x187, 0x2       	JBSET	PFLAG,2
000270   a272     goto    0x272            	GOTO	_00824_DS_
000271   a2eb     goto    0x2eb            	GOTO	_00239_DS_
                                           _00824_DS_
000272   581a     movar   0x1a             	MOVAR	r0x1031
000273   3940     xorai   0x40             	XORAI	0x40
000274   e587     jbset   0x187, 0x2       	JBSET	PFLAG,2
000275   a277     goto    0x277            	GOTO	_00825_DS_
000276   a406     goto    0x406            	GOTO	_00275_DS_
                                           _00825_DS_
000277   581a     movar   0x1a             	MOVAR	r0x1031
000278   3948     xorai   0x48             	XORAI	0x48
000279   e587     jbset   0x187, 0x2       	JBSET	PFLAG,2
00027a   a27c     goto    0x27c            	GOTO	_00826_DS_
00027b   a48a     goto    0x48a            	GOTO	_00288_DS_
                                           _00826_DS_
00027c   581a     movar   0x1a             	MOVAR	r0x1031
00027d   3950     xorai   0x50             	XORAI	0x50
00027e   e587     jbset   0x187, 0x2       	JBSET	PFLAG,2
00027f   a281     goto    0x281            	GOTO	_00827_DS_
000280   a44e     goto    0x44e            	GOTO	_00282_DS_
                                           _00827_DS_
000281   581a     movar   0x1a             	MOVAR	r0x1031
000282   3958     xorai   0x58             	XORAI	0x58
000283   e587     jbset   0x187, 0x2       	JBSET	PFLAG,2
000284   a286     goto    0x286            	GOTO	_00828_DS_
000285   a4a6     goto    0x4a6            	GOTO	_00291_DS_
                                           _00828_DS_
000286   581a     movar   0x1a             	MOVAR	r0x1031
000287   3960     xorai   0x60             	XORAI	0x60
000288   e587     jbset   0x187, 0x2       	JBSET	PFLAG,2
000289   a28b     goto    0x28b            	GOTO	_00829_DS_
00028a   a430     goto    0x430            	GOTO	_00279_DS_
                                           _00829_DS_
00028b   581a     movar   0x1a             	MOVAR	r0x1031
00028c   3968     xorai   0x68             	XORAI	0x68
00028d   e587     jbset   0x187, 0x2       	JBSET	PFLAG,2
00028e   a290     goto    0x290            	GOTO	_00830_DS_
00028f   a3da     goto    0x3da            	GOTO	_00271_DS_
                                           _00830_DS_
000290   581a     movar   0x1a             	MOVAR	r0x1031
000291   3970     xorai   0x70             	XORAI	0x70
000292   e587     jbset   0x187, 0x2       	JBSET	PFLAG,2
000293   a295     goto    0x295            	GOTO	_00831_DS_
000294   a46c     goto    0x46c            	GOTO	_00285_DS_
                                           _00831_DS_
000295   581a     movar   0x1a             	MOVAR	r0x1031
000296   3978     xorai   0x78             	XORAI	0x78
000297   e587     jbset   0x187, 0x2       	JBSET	PFLAG,2
000298   a29a     goto    0x29a            	GOTO	_00832_DS_
000299   a2f2     goto    0x2f2            	GOTO	_00241_DS_
                                           _00832_DS_
00029a   581a     movar   0x1a             	MOVAR	r0x1031
00029b   3980     xorai   0x80             	XORAI	0x80
00029c   e587     jbset   0x187, 0x2       	JBSET	PFLAG,2
00029d   a29f     goto    0x29f            	GOTO	_00833_DS_
00029e   a3fb     goto    0x3fb            	GOTO	_00274_DS_
                                           _00833_DS_
00029f   581a     movar   0x1a             	MOVAR	r0x1031
0002a0   3988     xorai   0x88             	XORAI	0x88
0002a1   e587     jbset   0x187, 0x2       	JBSET	PFLAG,2
0002a2   a2a4     goto    0x2a4            	GOTO	_00834_DS_
0002a3   a480     goto    0x480            	GOTO	_00287_DS_
                                           _00834_DS_
0002a4   581a     movar   0x1a             	MOVAR	r0x1031
0002a5   3990     xorai   0x90             	XORAI	0x90
0002a6   e587     jbset   0x187, 0x2       	JBSET	PFLAG,2
0002a7   a2a9     goto    0x2a9            	GOTO	_00835_DS_
0002a8   a444     goto    0x444            	GOTO	_00281_DS_
                                           _00835_DS_
0002a9   581a     movar   0x1a             	MOVAR	r0x1031
0002aa   3998     xorai   0x98             	XORAI	0x98
0002ab   e587     jbset   0x187, 0x2       	JBSET	PFLAG,2
0002ac   a2ae     goto    0x2ae            	GOTO	_00836_DS_
0002ad   a49d     goto    0x49d            	GOTO	_00290_DS_
                                           _00836_DS_
0002ae   581a     movar   0x1a             	MOVAR	r0x1031
0002af   39a0     xorai   0xa0             	XORAI	0xa0
0002b0   e587     jbset   0x187, 0x2       	JBSET	PFLAG,2
0002b1   a2b3     goto    0x2b3            	GOTO	_00837_DS_
0002b2   a426     goto    0x426            	GOTO	_00278_DS_
                                           _00837_DS_
0002b3   581a     movar   0x1a             	MOVAR	r0x1031
0002b4   39a8     xorai   0xa8             	XORAI	0xa8
0002b5   e587     jbset   0x187, 0x2       	JBSET	PFLAG,2
0002b6   a2b8     goto    0x2b8            	GOTO	_00838_DS_
0002b7   a3cf     goto    0x3cf            	GOTO	_00270_DS_
                                           _00838_DS_
0002b8   581a     movar   0x1a             	MOVAR	r0x1031
0002b9   39b0     xorai   0xb0             	XORAI	0xb0
0002ba   e587     jbset   0x187, 0x2       	JBSET	PFLAG,2
0002bb   a2bd     goto    0x2bd            	GOTO	_00839_DS_
0002bc   a462     goto    0x462            	GOTO	_00284_DS_
                                           _00839_DS_
0002bd   581a     movar   0x1a             	MOVAR	r0x1031
0002be   39b8     xorai   0xb8             	XORAI	0xb8
0002bf   e587     jbset   0x187, 0x2       	JBSET	PFLAG,2
0002c0   a2c2     goto    0x2c2            	GOTO	_00840_DS_
0002c1   a2ee     goto    0x2ee            	GOTO	_00240_DS_
                                           _00840_DS_
0002c2   581a     movar   0x1a             	MOVAR	r0x1031
0002c3   39c0     xorai   0xc0             	XORAI	0xc0
0002c4   e587     jbset   0x187, 0x2       	JBSET	PFLAG,2
0002c5   a2c7     goto    0x2c7            	GOTO	_00841_DS_
0002c6   a411     goto    0x411            	GOTO	_00276_DS_
                                           _00841_DS_
0002c7   581a     movar   0x1a             	MOVAR	r0x1031
0002c8   39c8     xorai   0xc8             	XORAI	0xc8
0002c9   e587     jbset   0x187, 0x2       	JBSET	PFLAG,2
0002ca   a2cc     goto    0x2cc            	GOTO	_00842_DS_
0002cb   a3b9     goto    0x3b9            	GOTO	_00268_DS_
                                           _00842_DS_
0002cc   581a     movar   0x1a             	MOVAR	r0x1031
0002cd   39d0     xorai   0xd0             	XORAI	0xd0
0002ce   e587     jbset   0x187, 0x2       	JBSET	PFLAG,2
0002cf   a2d1     goto    0x2d1            	GOTO	_00843_DS_
0002d0   a3a3     goto    0x3a3            	GOTO	_00266_DS_
                                           _00843_DS_
0002d1   581a     movar   0x1a             	MOVAR	r0x1031
0002d2   39d8     xorai   0xd8             	XORAI	0xd8
0002d3   e587     jbset   0x187, 0x2       	JBSET	PFLAG,2
0002d4   a2d6     goto    0x2d6            	GOTO	_00844_DS_
0002d5   a4ae     goto    0x4ae            	GOTO	_00292_DS_
                                           _00844_DS_
0002d6   581a     movar   0x1a             	MOVAR	r0x1031
0002d7   39e0     xorai   0xe0             	XORAI	0xe0
0002d8   e587     jbset   0x187, 0x2       	JBSET	PFLAG,2
0002d9   a2db     goto    0x2db            	GOTO	_00845_DS_
0002da   a30f     goto    0x30f            	GOTO	_00247_DS_
                                           _00845_DS_
0002db   581a     movar   0x1a             	MOVAR	r0x1031
0002dc   39e8     xorai   0xe8             	XORAI	0xe8
0002dd   e587     jbset   0x187, 0x2       	JBSET	PFLAG,2
0002de   a2e0     goto    0x2e0            	GOTO	_00846_DS_
0002df   a3e5     goto    0x3e5            	GOTO	_00272_DS_
                                           _00846_DS_
0002e0   581a     movar   0x1a             	MOVAR	r0x1031
0002e1   39f0     xorai   0xf0             	XORAI	0xf0
0002e2   e587     jbset   0x187, 0x2       	JBSET	PFLAG,2
0002e3   a2e5     goto    0x2e5            	GOTO	_00847_DS_
0002e4   a3ae     goto    0x3ae            	GOTO	_00267_DS_
                                           _00847_DS_
0002e5   581a     movar   0x1a             	MOVAR	r0x1031
0002e6   39f8     xorai   0xf8             	XORAI	0xf8
0002e7   e587     jbset   0x187, 0x2       	JBSET	PFLAG,2
0002e8   a2ea     goto    0x2ea            	GOTO	_00848_DS_
0002e9   a2fc     goto    0x2fc            	GOTO	_00242_DS_
                                           _00848_DS_
0002ea   a4b3     goto    0x4b3            	GOTO	_00293_DS_
                                           _00239_DS_
                                           ;	.line	881; "MC32F7361.c"	power_sta = POWER_STA_PRE_ON;
0002eb   3c01     movai   0x1              	MOVAI	0x01
0002ec   563a     movra   0x3a             	MOVRA	_power_sta
                                           ;	.line	882; "MC32F7361.c"	break;
0002ed   a4b3     goto    0x4b3            	GOTO	_00293_DS_
                                           _00240_DS_
                                           ;	.line	885; "MC32F7361.c"	power_sta = POWER_STA_PRE_OFF;
0002ee   3c03     movai   0x3              	MOVAI	0x03
0002ef   563a     movra   0x3a             	MOVRA	_power_sta
                                           ;	.line	886; "MC32F7361.c"	cur_mechanical_key_sta = 0;
0002f0   763d     clrr    0x3d             	CLRR	_cur_mechanical_key_sta
                                           ;	.line	887; "MC32F7361.c"	break;
0002f1   a4b3     goto    0x4b3            	GOTO	_00293_DS_
                                           _00241_DS_
                                           ;	.line	890; "MC32F7361.c"	key_event_same_deal(MODE_AUTO_START, MODE_AUTO_END, 0x9645, 0x9645);
0002f2   3c45     movai   0x45             	MOVAI	0x45
0002f3   5604     movra   0x4              	MOVRA	STK02
0002f4   3c96     movai   0x96             	MOVAI	0x96
0002f5   5605     movra   0x5              	MOVRA	STK01
0002f6   3c4a     movai   0x4a             	MOVAI	0x4a
0002f7   5606     movra   0x6              	MOVRA	STK00
0002f8   3c00     movai   0                	MOVAI	0x00
0002f9   860a     call    0x60a            	CALL	_key_event_same_deal_ex
                                           ;	.line	892; "MC32F7361.c"	cur_mechanical_key_sta = 0;
0002fa   763d     clrr    0x3d             	CLRR	_cur_mechanical_key_sta
                                           ;	.line	893; "MC32F7361.c"	break;
0002fb   a4b3     goto    0x4b3            	GOTO	_00293_DS_
                                           _00242_DS_
                                           ;	.line	896; "MC32F7361.c"	if (power_sta != POWER_STA_OFF)
0002fc   3c00     movai   0                	MOVAI	0x00
0002fd   5c3a     orar    0x3a             	ORAR	_power_sta
0002fe   f587     jbclr   0x187, 0x2       	JBCLR	PFLAG,2
0002ff   a4b3     goto    0x4b3            	GOTO	_00293_DS_
                                           ;	.line	898; "MC32F7361.c"	current_speed++;
000300   663b     incr    0x3b             	INCR	_current_speed
                                           ;;unsigned compare: left < lit(0x4=4), size=1
                                           ;	.line	899; "MC32F7361.c"	if (current_speed >= 4)
000301   3c04     movai   0x4              	MOVAI	0x04
000302   483b     rsubar  0x3b             	RSUBAR	_current_speed
000303   e187     jbset   0x187, 0         	JBSET	PFLAG,0
000304   a306     goto    0x306            	GOTO	_00244_DS_
                                           ;;genSkipc:3291: created from rifx:013B5EFC
                                           ;	.line	900; "MC32F7361.c"	current_speed = 0;
000305   763b     clrr    0x3b             	CLRR	_current_speed
                                           _00244_DS_
                                           ;	.line	901; "MC32F7361.c"	current_index = start_index; // 
000306   5838     movar   0x38             	MOVAR	_start_index
000307   5637     movra   0x37             	MOVRA	_current_index
                                           ;	.line	902; "MC32F7361.c"	next_frame_delay = 0;        // 
000308   7630     clrr    0x30             	CLRR	_next_frame_delay
000309   7631     clrr    0x31             	CLRR	(_next_frame_delay + 1)
                                           ;	.line	903; "MC32F7361.c"	send_cmd_16bit(0x0C00);
00030a   3c00     movai   0                	MOVAI	0x00
00030b   5606     movra   0x6              	MOVRA	STK00
00030c   3c0c     movai   0xc              	MOVAI	0x0c
00030d   8689     call    0x689            	CALL	_send_cmd_16bit
                                           ;	.line	905; "MC32F7361.c"	break;
00030e   a4b3     goto    0x4b3            	GOTO	_00293_DS_
                                           _00247_DS_
                                           ;	.line	929; "MC32F7361.c"	current_static++;
00030f   663c     incr    0x3c             	INCR	_current_static
                                           ;;swapping arguments (AOP_TYPEs 1/3)
                                           ;;unsigned compare: left >= lit(0x3=3), size=1
                                           ;	.line	930; "MC32F7361.c"	if (current_static > 2)
000310   3c03     movai   0x3              	MOVAI	0x03
000311   483c     rsubar  0x3c             	RSUBAR	_current_static
000312   e187     jbset   0x187, 0         	JBSET	PFLAG,0
000313   a315     goto    0x315            	GOTO	_00249_DS_
                                           ;;genSkipc:3291: created from rifx:013B5EFC
                                           ;	.line	931; "MC32F7361.c"	current_static = 0;
000314   763c     clrr    0x3c             	CLRR	_current_static
                                           _00249_DS_
                                           ;	.line	932; "MC32F7361.c"	key_event_same_deal(91 + current_static, 91 + current_static, 0xFFFF, 0xFFFF);
000315   583c     movar   0x3c             	MOVAR	_current_static
000316   561a     movra   0x1a             	MOVRA	r0x1031
000317   3c5b     movai   0x5b             	MOVAI	0x5b
000318   7e1a     addra   0x1a             	ADDRA	r0x1031
000319   583c     movar   0x3c             	MOVAR	_current_static
00031a   561b     movra   0x1b             	MOVRA	r0x1030
00031b   3c5b     movai   0x5b             	MOVAI	0x5b
00031c   7e1b     addra   0x1b             	ADDRA	r0x1030
00031d   3cff     movai   0xff             	MOVAI	0xff
00031e   5604     movra   0x4              	MOVRA	STK02
00031f   3cff     movai   0xff             	MOVAI	0xff
000320   5605     movra   0x5              	MOVRA	STK01
000321   581b     movar   0x1b             	MOVAR	r0x1030
000322   5606     movra   0x6              	MOVRA	STK00
000323   581a     movar   0x1a             	MOVAR	r0x1031
000324   860a     call    0x60a            	CALL	_key_event_same_deal_ex
                                           ;	.line	935; "MC32F7361.c"	cur_mechanical_key_sta = 0;
000325   763d     clrr    0x3d             	CLRR	_cur_mechanical_key_sta
                                           ;	.line	936; "MC32F7361.c"	break;
000326   a4b3     goto    0x4b3            	GOTO	_00293_DS_
                                           _00250_DS_
                                           ;	.line	939; "MC32F7361.c"	switch (cur_mechanical_key_sta)
000327   583d     movar   0x3d             	MOVAR	_cur_mechanical_key_sta
000328   561a     movra   0x1a             	MOVRA	r0x1031
                                           ;;swapping arguments (AOP_TYPEs 1/2)
                                           ;;unsigned compare: left >= lit(0xD=13), size=1
000329   3c0d     movai   0xd              	MOVAI	0x0d
00032a   481a     rsubar  0x1a             	RSUBAR	r0x1031
00032b   f187     jbclr   0x187, 0         	JBCLR	PFLAG,0
00032c   a33c     goto    0x33c            	GOTO	_00251_DS_
                                           ;;genSkipc:3291: created from rifx:013B5EFC
00032d   581a     movar   0x1a             	MOVAR	r0x1031
00032e   7f86     addra   0x186            	ADDRA	PCL
00032f   a33d     goto    0x33d            	GOTO	_00252_DS_
000330   a346     goto    0x346            	GOTO	_00255_DS_
000331   a346     goto    0x346            	GOTO	_00255_DS_
000332   a346     goto    0x346            	GOTO	_00255_DS_
000333   a357     goto    0x357            	GOTO	_00256_DS_
000334   a360     goto    0x360            	GOTO	_00257_DS_
000335   a369     goto    0x369            	GOTO	_00258_DS_
000336   a372     goto    0x372            	GOTO	_00259_DS_
000337   a37b     goto    0x37b            	GOTO	_00260_DS_
000338   a384     goto    0x384            	GOTO	_00261_DS_
000339   a38d     goto    0x38d            	GOTO	_00262_DS_
00033a   a396     goto    0x396            	GOTO	_00263_DS_
00033b   a39f     goto    0x39f            	GOTO	_00264_DS_
                                           _00251_DS_
                                           ;	.line	943; "MC32F7361.c"	cur_mechanical_key_sta = 0;
00033c   763d     clrr    0x3d             	CLRR	_cur_mechanical_key_sta
                                           _00252_DS_
                                           ;	.line	945; "MC32F7361.c"	key_event_same_deal(MODE_AUTO_START, MODE_AUTO_END, 0x9645, 0x9645);
00033d   3c45     movai   0x45             	MOVAI	0x45
00033e   5604     movra   0x4              	MOVRA	STK02
00033f   3c96     movai   0x96             	MOVAI	0x96
000340   5605     movra   0x5              	MOVRA	STK01
000341   3c4a     movai   0x4a             	MOVAI	0x4a
000342   5606     movra   0x6              	MOVRA	STK00
000343   3c00     movai   0                	MOVAI	0x00
000344   860a     call    0x60a            	CALL	_key_event_same_deal_ex
                                           ;	.line	946; "MC32F7361.c"	break;
000345   a3a1     goto    0x3a1            	GOTO	_00265_DS_
                                           _00255_DS_
                                           ;	.line	961; "MC32F7361.c"	key_event_same_deal(76 + cur_mechanical_key_sta, 76 + cur_mechanical_key_sta, 0xFFFF, 0xFFFF);
000346   583d     movar   0x3d             	MOVAR	_cur_mechanical_key_sta
000347   561a     movra   0x1a             	MOVRA	r0x1031
000348   3c4c     movai   0x4c             	MOVAI	0x4c
000349   7e1a     addra   0x1a             	ADDRA	r0x1031
00034a   583d     movar   0x3d             	MOVAR	_cur_mechanical_key_sta
00034b   561b     movra   0x1b             	MOVRA	r0x1030
00034c   3c4c     movai   0x4c             	MOVAI	0x4c
00034d   7e1b     addra   0x1b             	ADDRA	r0x1030
00034e   3cff     movai   0xff             	MOVAI	0xff
00034f   5604     movra   0x4              	MOVRA	STK02
000350   3cff     movai   0xff             	MOVAI	0xff
000351   5605     movra   0x5              	MOVRA	STK01
000352   581b     movar   0x1b             	MOVAR	r0x1030
000353   5606     movra   0x6              	MOVRA	STK00
000354   581a     movar   0x1a             	MOVAR	r0x1031
000355   860a     call    0x60a            	CALL	_key_event_same_deal_ex
                                           ;	.line	962; "MC32F7361.c"	break;
000356   a3a1     goto    0x3a1            	GOTO	_00265_DS_
                                           _00256_DS_
                                           ;	.line	965; "MC32F7361.c"	key_event_same_deal(MODE_R2C4_START, MODE_R2C4_END, 0x9645, 0x9645);
000357   3c45     movai   0x45             	MOVAI	0x45
000358   5604     movra   0x4              	MOVRA	STK02
000359   3c96     movai   0x96             	MOVAI	0x96
00035a   5605     movra   0x5              	MOVRA	STK01
00035b   3c4e     movai   0x4e             	MOVAI	0x4e
00035c   5606     movra   0x6              	MOVRA	STK00
00035d   3c4e     movai   0x4e             	MOVAI	0x4e
00035e   860a     call    0x60a            	CALL	_key_event_same_deal_ex
                                           ;	.line	966; "MC32F7361.c"	break;
00035f   a3a1     goto    0x3a1            	GOTO	_00265_DS_
                                           _00257_DS_
                                           ;	.line	968; "MC32F7361.c"	key_event_same_deal(MODE_FADE_START, MODE_FADE_END, 0x9645, 0x9645);
000360   3c45     movai   0x45             	MOVAI	0x45
000361   5604     movra   0x4              	MOVRA	STK02
000362   3c96     movai   0x96             	MOVAI	0x96
000363   5605     movra   0x5              	MOVRA	STK01
000364   3c09     movai   0x9              	MOVAI	0x09
000365   5606     movra   0x6              	MOVRA	STK00
000366   3c00     movai   0                	MOVAI	0x00
000367   860a     call    0x60a            	CALL	_key_event_same_deal_ex
                                           ;	.line	969; "MC32F7361.c"	break;
000368   a3a1     goto    0x3a1            	GOTO	_00265_DS_
                                           _00258_DS_
                                           ;	.line	971; "MC32F7361.c"	key_event_same_deal(MODE_JUMP_START, MODE_JUMP_END, 0x9645, 0x9645);
000369   3c45     movai   0x45             	MOVAI	0x45
00036a   5604     movra   0x4              	MOVRA	STK02
00036b   3c96     movai   0x96             	MOVAI	0x96
00036c   5605     movra   0x5              	MOVRA	STK01
00036d   3c13     movai   0x13             	MOVAI	0x13
00036e   5606     movra   0x6              	MOVRA	STK00
00036f   3c0a     movai   0xa              	MOVAI	0x0a
000370   860a     call    0x60a            	CALL	_key_event_same_deal_ex
                                           ;	.line	972; "MC32F7361.c"	break;
000371   a3a1     goto    0x3a1            	GOTO	_00265_DS_
                                           _00259_DS_
                                           ;	.line	974; "MC32F7361.c"	key_event_same_deal(MODE_ASYN_FADE_START, MODE_ASYN_FADE_END, 0x9645, 0x9645);
000372   3c45     movai   0x45             	MOVAI	0x45
000373   5604     movra   0x4              	MOVRA	STK02
000374   3c96     movai   0x96             	MOVAI	0x96
000375   5605     movra   0x5              	MOVRA	STK01
000376   3c19     movai   0x19             	MOVAI	0x19
000377   5606     movra   0x6              	MOVRA	STK00
000378   3c14     movai   0x14             	MOVAI	0x14
000379   860a     call    0x60a            	CALL	_key_event_same_deal_ex
                                           ;	.line	975; "MC32F7361.c"	break;
00037a   a3a1     goto    0x3a1            	GOTO	_00265_DS_
                                           _00260_DS_
                                           ;	.line	978; "MC32F7361.c"	key_event_same_deal(MODE_ASYN_JUMP_START, MODE_ASYN_JUMP_END, 0x9645, 0x9645);
00037b   3c45     movai   0x45             	MOVAI	0x45
00037c   5604     movra   0x4              	MOVRA	STK02
00037d   3c96     movai   0x96             	MOVAI	0x96
00037e   5605     movra   0x5              	MOVRA	STK01
00037f   3c1c     movai   0x1c             	MOVAI	0x1c
000380   5606     movra   0x6              	MOVRA	STK00
000381   3c1a     movai   0x1a             	MOVAI	0x1a
000382   860a     call    0x60a            	CALL	_key_event_same_deal_ex
                                           ;	.line	979; "MC32F7361.c"	break;
000383   a3a1     goto    0x3a1            	GOTO	_00265_DS_
                                           _00261_DS_
                                           ;	.line	982; "MC32F7361.c"	key_event_same_deal(MODE_TWINKLE_START, MODE_TWINKLE_END, 0x9645, 0x9645);
000384   3c45     movai   0x45             	MOVAI	0x45
000385   5604     movra   0x4              	MOVRA	STK02
000386   3c96     movai   0x96             	MOVAI	0x96
000387   5605     movra   0x5              	MOVRA	STK01
000388   3c3a     movai   0x3a             	MOVAI	0x3a
000389   5606     movra   0x6              	MOVRA	STK00
00038a   3c1d     movai   0x1d             	MOVAI	0x1d
00038b   860a     call    0x60a            	CALL	_key_event_same_deal_ex
                                           ;	.line	983; "MC32F7361.c"	break;
00038c   a3a1     goto    0x3a1            	GOTO	_00265_DS_
                                           _00262_DS_
                                           ;	.line	986; "MC32F7361.c"	key_event_same_deal(MODE_STROBE_START, MODE_STROBE_END, 0x9645, 0x9645);
00038d   3c45     movai   0x45             	MOVAI	0x45
00038e   5604     movra   0x4              	MOVRA	STK02
00038f   3c96     movai   0x96             	MOVAI	0x96
000390   5605     movra   0x5              	MOVRA	STK01
000391   3c44     movai   0x44             	MOVAI	0x44
000392   5606     movra   0x6              	MOVRA	STK00
000393   3c3b     movai   0x3b             	MOVAI	0x3b
000394   860a     call    0x60a            	CALL	_key_event_same_deal_ex
                                           ;	.line	987; "MC32F7361.c"	break;
000395   a3a1     goto    0x3a1            	GOTO	_00265_DS_
                                           _00263_DS_
                                           ;	.line	989; "MC32F7361.c"	key_event_same_deal(MODE_IN_WAVES_START, MODE_IN_WAVES_END, 0x9645, 0x9645);
000396   3c45     movai   0x45             	MOVAI	0x45
000397   5604     movra   0x4              	MOVRA	STK02
000398   3c96     movai   0x96             	MOVAI	0x96
000399   5605     movra   0x5              	MOVRA	STK01
00039a   3c4a     movai   0x4a             	MOVAI	0x4a
00039b   5606     movra   0x6              	MOVRA	STK00
00039c   3c45     movai   0x45             	MOVAI	0x45
00039d   860a     call    0x60a            	CALL	_key_event_same_deal_ex
                                           ;	.line	990; "MC32F7361.c"	break;
00039e   a3a1     goto    0x3a1            	GOTO	_00265_DS_
                                           _00264_DS_
                                           ;	.line	993; "MC32F7361.c"	power_sta = POWER_STA_PRE_OFF;
00039f   3c03     movai   0x3              	MOVAI	0x03
0003a0   563a     movra   0x3a             	MOVRA	_power_sta
                                           _00265_DS_
                                           ;	.line	996; "MC32F7361.c"	cur_mechanical_key_sta++;
0003a1   663d     incr    0x3d             	INCR	_cur_mechanical_key_sta
                                           ;	.line	997; "MC32F7361.c"	break;
0003a2   a4b3     goto    0x4b3            	GOTO	_00293_DS_
                                           _00266_DS_
                                           ;	.line	999; "MC32F7361.c"	key_event_same_deal(MODE_FADE_START, MODE_FADE_END, 0x9645, 0x9645);
0003a3   3c45     movai   0x45             	MOVAI	0x45
0003a4   5604     movra   0x4              	MOVRA	STK02
0003a5   3c96     movai   0x96             	MOVAI	0x96
0003a6   5605     movra   0x5              	MOVRA	STK01
0003a7   3c09     movai   0x9              	MOVAI	0x09
0003a8   5606     movra   0x6              	MOVRA	STK00
0003a9   3c00     movai   0                	MOVAI	0x00
0003aa   860a     call    0x60a            	CALL	_key_event_same_deal_ex
                                           ;	.line	1000; "MC32F7361.c"	cur_mechanical_key_sta = 5;
0003ab   3c05     movai   0x5              	MOVAI	0x05
0003ac   563d     movra   0x3d             	MOVRA	_cur_mechanical_key_sta
                                           ;	.line	1001; "MC32F7361.c"	break;
0003ad   a4b3     goto    0x4b3            	GOTO	_00293_DS_
                                           _00267_DS_
                                           ;	.line	1004; "MC32F7361.c"	key_event_same_deal(MODE_JUMP_START, MODE_JUMP_END, 0x9645, 0x9645);
0003ae   3c45     movai   0x45             	MOVAI	0x45
0003af   5604     movra   0x4              	MOVRA	STK02
0003b0   3c96     movai   0x96             	MOVAI	0x96
0003b1   5605     movra   0x5              	MOVRA	STK01
0003b2   3c13     movai   0x13             	MOVAI	0x13
0003b3   5606     movra   0x6              	MOVRA	STK00
0003b4   3c0a     movai   0xa              	MOVAI	0x0a
0003b5   860a     call    0x60a            	CALL	_key_event_same_deal_ex
                                           ;	.line	1005; "MC32F7361.c"	cur_mechanical_key_sta = 6;
0003b6   3c06     movai   0x6              	MOVAI	0x06
0003b7   563d     movra   0x3d             	MOVRA	_cur_mechanical_key_sta
                                           ;	.line	1006; "MC32F7361.c"	break;
0003b8   a4b3     goto    0x4b3            	GOTO	_00293_DS_
                                           _00268_DS_
                                           ;	.line	1009; "MC32F7361.c"	key_event_same_deal(MODE_ASYN_FADE_START, MODE_ASYN_FADE_END, 0x9645, 0x9645);
0003b9   3c45     movai   0x45             	MOVAI	0x45
0003ba   5604     movra   0x4              	MOVRA	STK02
0003bb   3c96     movai   0x96             	MOVAI	0x96
0003bc   5605     movra   0x5              	MOVRA	STK01
0003bd   3c19     movai   0x19             	MOVAI	0x19
0003be   5606     movra   0x6              	MOVRA	STK00
0003bf   3c14     movai   0x14             	MOVAI	0x14
0003c0   860a     call    0x60a            	CALL	_key_event_same_deal_ex
                                           ;	.line	1010; "MC32F7361.c"	cur_mechanical_key_sta = 7;
0003c1   3c07     movai   0x7              	MOVAI	0x07
0003c2   563d     movra   0x3d             	MOVRA	_cur_mechanical_key_sta
                                           ;	.line	1011; "MC32F7361.c"	break;
0003c3   a4b3     goto    0x4b3            	GOTO	_00293_DS_
                                           _00269_DS_
                                           ;	.line	1014; "MC32F7361.c"	key_event_same_deal(MODE_IN_WAVES_START, MODE_IN_WAVES_END, 0x9645, 0x9645);
0003c4   3c45     movai   0x45             	MOVAI	0x45
0003c5   5604     movra   0x4              	MOVRA	STK02
0003c6   3c96     movai   0x96             	MOVAI	0x96
0003c7   5605     movra   0x5              	MOVRA	STK01
0003c8   3c4a     movai   0x4a             	MOVAI	0x4a
0003c9   5606     movra   0x6              	MOVRA	STK00
0003ca   3c45     movai   0x45             	MOVAI	0x45
0003cb   860a     call    0x60a            	CALL	_key_event_same_deal_ex
                                           ;	.line	1015; "MC32F7361.c"	cur_mechanical_key_sta = 11;
0003cc   3c0b     movai   0xb              	MOVAI	0x0b
0003cd   563d     movra   0x3d             	MOVRA	_cur_mechanical_key_sta
                                           ;	.line	1016; "MC32F7361.c"	break;
0003ce   a4b3     goto    0x4b3            	GOTO	_00293_DS_
                                           _00270_DS_
                                           ;	.line	1019; "MC32F7361.c"	key_event_same_deal(MODE_STROBE_START, MODE_STROBE_END, 0x9645, 0x9645);
0003cf   3c45     movai   0x45             	MOVAI	0x45
0003d0   5604     movra   0x4              	MOVRA	STK02
0003d1   3c96     movai   0x96             	MOVAI	0x96
0003d2   5605     movra   0x5              	MOVRA	STK01
0003d3   3c44     movai   0x44             	MOVAI	0x44
0003d4   5606     movra   0x6              	MOVRA	STK00
0003d5   3c3b     movai   0x3b             	MOVAI	0x3b
0003d6   860a     call    0x60a            	CALL	_key_event_same_deal_ex
                                           ;	.line	1020; "MC32F7361.c"	cur_mechanical_key_sta = 10;
0003d7   3c0a     movai   0xa              	MOVAI	0x0a
0003d8   563d     movra   0x3d             	MOVRA	_cur_mechanical_key_sta
                                           ;	.line	1021; "MC32F7361.c"	break;
0003d9   a4b3     goto    0x4b3            	GOTO	_00293_DS_
                                           _00271_DS_
                                           ;	.line	1024; "MC32F7361.c"	key_event_same_deal(MODE_TWINKLE_START, MODE_TWINKLE_END, 0x9645, 0x9645);
0003da   3c45     movai   0x45             	MOVAI	0x45
0003db   5604     movra   0x4              	MOVRA	STK02
0003dc   3c96     movai   0x96             	MOVAI	0x96
0003dd   5605     movra   0x5              	MOVRA	STK01
0003de   3c3a     movai   0x3a             	MOVAI	0x3a
0003df   5606     movra   0x6              	MOVRA	STK00
0003e0   3c1d     movai   0x1d             	MOVAI	0x1d
0003e1   860a     call    0x60a            	CALL	_key_event_same_deal_ex
                                           ;	.line	1025; "MC32F7361.c"	cur_mechanical_key_sta = 9;
0003e2   3c09     movai   0x9              	MOVAI	0x09
0003e3   563d     movra   0x3d             	MOVRA	_cur_mechanical_key_sta
                                           ;	.line	1026; "MC32F7361.c"	break;
0003e4   a4b3     goto    0x4b3            	GOTO	_00293_DS_
                                           _00272_DS_
                                           ;	.line	1029; "MC32F7361.c"	key_event_same_deal(MODE_ASYN_JUMP_START, MODE_ASYN_JUMP_END, 0x9645, 0x9645);
0003e5   3c45     movai   0x45             	MOVAI	0x45
0003e6   5604     movra   0x4              	MOVRA	STK02
0003e7   3c96     movai   0x96             	MOVAI	0x96
0003e8   5605     movra   0x5              	MOVRA	STK01
0003e9   3c1c     movai   0x1c             	MOVAI	0x1c
0003ea   5606     movra   0x6              	MOVRA	STK00
0003eb   3c1a     movai   0x1a             	MOVAI	0x1a
0003ec   860a     call    0x60a            	CALL	_key_event_same_deal_ex
                                           ;	.line	1030; "MC32F7361.c"	cur_mechanical_key_sta = 8;
0003ed   3c08     movai   0x8              	MOVAI	0x08
0003ee   563d     movra   0x3d             	MOVRA	_cur_mechanical_key_sta
                                           ;	.line	1031; "MC32F7361.c"	break;
0003ef   a4b3     goto    0x4b3            	GOTO	_00293_DS_
                                           _00273_DS_
                                           ;	.line	1034; "MC32F7361.c"	key_event_same_deal(MODE_R2C1_START, MODE_R2C1_END, 0xFFFF, 0xFFFF);
0003f0   3cff     movai   0xff             	MOVAI	0xff
0003f1   5604     movra   0x4              	MOVRA	STK02
0003f2   3cff     movai   0xff             	MOVAI	0xff
0003f3   5605     movra   0x5              	MOVRA	STK01
0003f4   3c4b     movai   0x4b             	MOVAI	0x4b
0003f5   5606     movra   0x6              	MOVRA	STK00
0003f6   3c4b     movai   0x4b             	MOVAI	0x4b
0003f7   860a     call    0x60a            	CALL	_key_event_same_deal_ex
                                           ;	.line	1035; "MC32F7361.c"	cur_mechanical_key_sta = 1;
0003f8   3c01     movai   0x1              	MOVAI	0x01
0003f9   563d     movra   0x3d             	MOVRA	_cur_mechanical_key_sta
                                           ;	.line	1036; "MC32F7361.c"	break;
0003fa   a4b3     goto    0x4b3            	GOTO	_00293_DS_
                                           _00274_DS_
                                           ;	.line	1038; "MC32F7361.c"	key_event_same_deal(MODE_R2C2_START, MODE_R2C2_END, 0xFFFF, 0xFFFF);
0003fb   3cff     movai   0xff             	MOVAI	0xff
0003fc   5604     movra   0x4              	MOVRA	STK02
0003fd   3cff     movai   0xff             	MOVAI	0xff
0003fe   5605     movra   0x5              	MOVRA	STK01
0003ff   3c4c     movai   0x4c             	MOVAI	0x4c
000400   5606     movra   0x6              	MOVRA	STK00
000401   3c4c     movai   0x4c             	MOVAI	0x4c
000402   860a     call    0x60a            	CALL	_key_event_same_deal_ex
                                           ;	.line	1039; "MC32F7361.c"	cur_mechanical_key_sta = 2;
000403   3c02     movai   0x2              	MOVAI	0x02
000404   563d     movra   0x3d             	MOVRA	_cur_mechanical_key_sta
                                           ;	.line	1040; "MC32F7361.c"	break;
000405   a4b3     goto    0x4b3            	GOTO	_00293_DS_
                                           _00275_DS_
                                           ;	.line	1042; "MC32F7361.c"	key_event_same_deal(MODE_R2C3_START, MODE_R2C3_END, 0xFFFF, 0xFFFF);
000406   3cff     movai   0xff             	MOVAI	0xff
000407   5604     movra   0x4              	MOVRA	STK02
000408   3cff     movai   0xff             	MOVAI	0xff
000409   5605     movra   0x5              	MOVRA	STK01
00040a   3c4d     movai   0x4d             	MOVAI	0x4d
00040b   5606     movra   0x6              	MOVRA	STK00
00040c   3c4d     movai   0x4d             	MOVAI	0x4d
00040d   860a     call    0x60a            	CALL	_key_event_same_deal_ex
                                           ;	.line	1043; "MC32F7361.c"	cur_mechanical_key_sta = 3;
00040e   3c03     movai   0x3              	MOVAI	0x03
00040f   563d     movra   0x3d             	MOVRA	_cur_mechanical_key_sta
                                           ;	.line	1044; "MC32F7361.c"	break;
000410   a4b3     goto    0x4b3            	GOTO	_00293_DS_
                                           _00276_DS_
                                           ;	.line	1046; "MC32F7361.c"	key_event_same_deal(MODE_R2C4_START, MODE_R2C4_END, 0x9645, 0x9645);
000411   3c45     movai   0x45             	MOVAI	0x45
000412   5604     movra   0x4              	MOVRA	STK02
000413   3c96     movai   0x96             	MOVAI	0x96
000414   5605     movra   0x5              	MOVRA	STK01
000415   3c4e     movai   0x4e             	MOVAI	0x4e
000416   5606     movra   0x6              	MOVRA	STK00
000417   3c4e     movai   0x4e             	MOVAI	0x4e
000418   860a     call    0x60a            	CALL	_key_event_same_deal_ex
                                           ;	.line	1047; "MC32F7361.c"	cur_mechanical_key_sta = 4;
000419   3c04     movai   0x4              	MOVAI	0x04
00041a   563d     movra   0x3d             	MOVRA	_cur_mechanical_key_sta
                                           ;	.line	1048; "MC32F7361.c"	break;
00041b   a4b3     goto    0x4b3            	GOTO	_00293_DS_
                                           _00277_DS_
                                           ;	.line	1050; "MC32F7361.c"	key_event_same_deal(MODE_R3C1_START, MODE_R3C1_END, 0x9F00, 0x9F00);
00041c   3c00     movai   0                	MOVAI	0x00
00041d   5604     movra   0x4              	MOVRA	STK02
00041e   3c9f     movai   0x9f             	MOVAI	0x9f
00041f   5605     movra   0x5              	MOVRA	STK01
000420   3c4f     movai   0x4f             	MOVAI	0x4f
000421   5606     movra   0x6              	MOVRA	STK00
000422   3c4f     movai   0x4f             	MOVAI	0x4f
000423   860a     call    0x60a            	CALL	_key_event_same_deal_ex
                                           ;	.line	1051; "MC32F7361.c"	cur_mechanical_key_sta = 0;
000424   763d     clrr    0x3d             	CLRR	_cur_mechanical_key_sta
                                           ;	.line	1052; "MC32F7361.c"	break;
000425   a4b3     goto    0x4b3            	GOTO	_00293_DS_
                                           _00278_DS_
                                           ;	.line	1054; "MC32F7361.c"	key_event_same_deal(MODE_R3C2_START, MODE_R3C2_END, 0x90F1, 0x90F1);
000426   3cf1     movai   0xf1             	MOVAI	0xf1
000427   5604     movra   0x4              	MOVRA	STK02
000428   3c90     movai   0x90             	MOVAI	0x90
000429   5605     movra   0x5              	MOVRA	STK01
00042a   3c50     movai   0x50             	MOVAI	0x50
00042b   5606     movra   0x6              	MOVRA	STK00
00042c   3c50     movai   0x50             	MOVAI	0x50
00042d   860a     call    0x60a            	CALL	_key_event_same_deal_ex
                                           ;	.line	1055; "MC32F7361.c"	cur_mechanical_key_sta = 0;
00042e   763d     clrr    0x3d             	CLRR	_cur_mechanical_key_sta
                                           ;	.line	1056; "MC32F7361.c"	break;
00042f   a4b3     goto    0x4b3            	GOTO	_00293_DS_
                                           _00279_DS_
                                           ;	.line	1058; "MC32F7361.c"	key_event_same_deal(MODE_R3C3_START, MODE_R3C3_END, 0x930F, 0x930F);
000430   3c0f     movai   0xf              	MOVAI	0x0f
000431   5604     movra   0x4              	MOVRA	STK02
000432   3c93     movai   0x93             	MOVAI	0x93
000433   5605     movra   0x5              	MOVRA	STK01
000434   3c51     movai   0x51             	MOVAI	0x51
000435   5606     movra   0x6              	MOVRA	STK00
000436   3c51     movai   0x51             	MOVAI	0x51
000437   860a     call    0x60a            	CALL	_key_event_same_deal_ex
                                           ;	.line	1059; "MC32F7361.c"	cur_mechanical_key_sta = 0;
000438   763d     clrr    0x3d             	CLRR	_cur_mechanical_key_sta
                                           ;	.line	1060; "MC32F7361.c"	break;
000439   a4b3     goto    0x4b3            	GOTO	_00293_DS_
                                           _00280_DS_
                                           ;	.line	1062; "MC32F7361.c"	key_event_same_deal(MODE_R4C1_START, MODE_R4C1_END, 0x9F10, 0x9F10);
00043a   3c10     movai   0x10             	MOVAI	0x10
00043b   5604     movra   0x4              	MOVRA	STK02
00043c   3c9f     movai   0x9f             	MOVAI	0x9f
00043d   5605     movra   0x5              	MOVRA	STK01
00043e   3c52     movai   0x52             	MOVAI	0x52
00043f   5606     movra   0x6              	MOVRA	STK00
000440   3c52     movai   0x52             	MOVAI	0x52
000441   860a     call    0x60a            	CALL	_key_event_same_deal_ex
                                           ;	.line	1063; "MC32F7361.c"	cur_mechanical_key_sta = 0;
000442   763d     clrr    0x3d             	CLRR	_cur_mechanical_key_sta
                                           ;	.line	1064; "MC32F7361.c"	break;
000443   a4b3     goto    0x4b3            	GOTO	_00293_DS_
                                           _00281_DS_
                                           ;	.line	1066; "MC32F7361.c"	key_event_same_deal(MODE_R4C2_START, MODE_R4C2_END, 0x90F8, 0x90F8);
000444   3cf8     movai   0xf8             	MOVAI	0xf8
000445   5604     movra   0x4              	MOVRA	STK02
000446   3c90     movai   0x90             	MOVAI	0x90
000447   5605     movra   0x5              	MOVRA	STK01
000448   3c53     movai   0x53             	MOVAI	0x53
000449   5606     movra   0x6              	MOVRA	STK00
00044a   3c53     movai   0x53             	MOVAI	0x53
00044b   860a     call    0x60a            	CALL	_key_event_same_deal_ex
                                           ;	.line	1067; "MC32F7361.c"	cur_mechanical_key_sta = 0;
00044c   763d     clrr    0x3d             	CLRR	_cur_mechanical_key_sta
                                           ;	.line	1068; "MC32F7361.c"	break;
00044d   a4b3     goto    0x4b3            	GOTO	_00293_DS_
                                           _00282_DS_
                                           ;	.line	1070; "MC32F7361.c"	key_event_same_deal(MODE_R4C3_START, MODE_R4C3_END, 0x980F, 0x980F);
00044e   3c0f     movai   0xf              	MOVAI	0x0f
00044f   5604     movra   0x4              	MOVRA	STK02
000450   3c98     movai   0x98             	MOVAI	0x98
000451   5605     movra   0x5              	MOVRA	STK01
000452   3c54     movai   0x54             	MOVAI	0x54
000453   5606     movra   0x6              	MOVRA	STK00
000454   3c54     movai   0x54             	MOVAI	0x54
000455   860a     call    0x60a            	CALL	_key_event_same_deal_ex
                                           ;	.line	1071; "MC32F7361.c"	cur_mechanical_key_sta = 0;
000456   763d     clrr    0x3d             	CLRR	_cur_mechanical_key_sta
                                           ;	.line	1072; "MC32F7361.c"	break;
000457   a4b3     goto    0x4b3            	GOTO	_00293_DS_
                                           _00283_DS_
                                           ;	.line	1074; "MC32F7361.c"	key_event_same_deal(MODE_R5C1_START, MODE_R5C1_END, 0x9F30, 0x9F30);
000458   3c30     movai   0x30             	MOVAI	0x30
000459   5604     movra   0x4              	MOVRA	STK02
00045a   3c9f     movai   0x9f             	MOVAI	0x9f
00045b   5605     movra   0x5              	MOVRA	STK01
00045c   3c55     movai   0x55             	MOVAI	0x55
00045d   5606     movra   0x6              	MOVRA	STK00
00045e   3c55     movai   0x55             	MOVAI	0x55
00045f   860a     call    0x60a            	CALL	_key_event_same_deal_ex
                                           ;	.line	1075; "MC32F7361.c"	cur_mechanical_key_sta = 0;
000460   763d     clrr    0x3d             	CLRR	_cur_mechanical_key_sta
                                           ;	.line	1076; "MC32F7361.c"	break;
000461   a4b3     goto    0x4b3            	GOTO	_00293_DS_
                                           _00284_DS_
                                           ;	.line	1078; "MC32F7361.c"	key_event_same_deal(MODE_R5C2_START, MODE_R5C2_END, 0x90FC, 0x90FC);
000462   3cfc     movai   0xfc             	MOVAI	0xfc
000463   5604     movra   0x4              	MOVRA	STK02
000464   3c90     movai   0x90             	MOVAI	0x90
000465   5605     movra   0x5              	MOVRA	STK01
000466   3c56     movai   0x56             	MOVAI	0x56
000467   5606     movra   0x6              	MOVRA	STK00
000468   3c56     movai   0x56             	MOVAI	0x56
000469   860a     call    0x60a            	CALL	_key_event_same_deal_ex
                                           ;	.line	1079; "MC32F7361.c"	cur_mechanical_key_sta = 0;
00046a   763d     clrr    0x3d             	CLRR	_cur_mechanical_key_sta
                                           ;	.line	1080; "MC32F7361.c"	break;
00046b   a4b3     goto    0x4b3            	GOTO	_00293_DS_
                                           _00285_DS_
                                           ;	.line	1082; "MC32F7361.c"	key_event_same_deal(MODE_R5C3_START, MODE_R5C3_END, 0x9F0F, 0x9F0F);
00046c   3c0f     movai   0xf              	MOVAI	0x0f
00046d   5604     movra   0x4              	MOVRA	STK02
00046e   3c9f     movai   0x9f             	MOVAI	0x9f
00046f   5605     movra   0x5              	MOVRA	STK01
000470   3c57     movai   0x57             	MOVAI	0x57
000471   5606     movra   0x6              	MOVRA	STK00
000472   3c57     movai   0x57             	MOVAI	0x57
000473   860a     call    0x60a            	CALL	_key_event_same_deal_ex
                                           ;	.line	1083; "MC32F7361.c"	cur_mechanical_key_sta = 0;
000474   763d     clrr    0x3d             	CLRR	_cur_mechanical_key_sta
                                           ;	.line	1084; "MC32F7361.c"	break;
000475   a4b3     goto    0x4b3            	GOTO	_00293_DS_
                                           _00286_DS_
                                           ;	.line	1086; "MC32F7361.c"	key_event_same_deal(MODE_R6C1_START, MODE_R6C1_END, 0x9FF0, 0x9FF0);
000476   3cf0     movai   0xf0             	MOVAI	0xf0
000477   5604     movra   0x4              	MOVRA	STK02
000478   3c9f     movai   0x9f             	MOVAI	0x9f
000479   5605     movra   0x5              	MOVRA	STK01
00047a   3c58     movai   0x58             	MOVAI	0x58
00047b   5606     movra   0x6              	MOVRA	STK00
00047c   3c58     movai   0x58             	MOVAI	0x58
00047d   860a     call    0x60a            	CALL	_key_event_same_deal_ex
                                           ;	.line	1087; "MC32F7361.c"	cur_mechanical_key_sta = 0;
00047e   763d     clrr    0x3d             	CLRR	_cur_mechanical_key_sta
                                           ;	.line	1088; "MC32F7361.c"	break;
00047f   a4b3     goto    0x4b3            	GOTO	_00293_DS_
                                           _00287_DS_
                                           ;	.line	1090; "MC32F7361.c"	key_event_same_deal(MODE_R6C2_START, MODE_R6C2_END, 0x90FF, 0x90FF);
000480   3cff     movai   0xff             	MOVAI	0xff
000481   5604     movra   0x4              	MOVRA	STK02
000482   3c90     movai   0x90             	MOVAI	0x90
000483   5605     movra   0x5              	MOVRA	STK01
000484   3c59     movai   0x59             	MOVAI	0x59
000485   5606     movra   0x6              	MOVRA	STK00
000486   3c59     movai   0x59             	MOVAI	0x59
000487   860a     call    0x60a            	CALL	_key_event_same_deal_ex
                                           ;	.line	1091; "MC32F7361.c"	cur_mechanical_key_sta = 0;
000488   763d     clrr    0x3d             	CLRR	_cur_mechanical_key_sta
                                           ;	.line	1092; "MC32F7361.c"	break;
000489   a4b3     goto    0x4b3            	GOTO	_00293_DS_
                                           _00288_DS_
                                           ;	.line	1094; "MC32F7361.c"	key_event_same_deal(MODE_R6C3_START, MODE_R6C3_END, 0x9F03, 0x9F03);
00048a   3c03     movai   0x3              	MOVAI	0x03
00048b   5604     movra   0x4              	MOVRA	STK02
00048c   3c9f     movai   0x9f             	MOVAI	0x9f
00048d   5605     movra   0x5              	MOVRA	STK01
00048e   3c5a     movai   0x5a             	MOVAI	0x5a
00048f   5606     movra   0x6              	MOVRA	STK00
000490   3c5a     movai   0x5a             	MOVAI	0x5a
000491   860a     call    0x60a            	CALL	_key_event_same_deal_ex
                                           ;	.line	1095; "MC32F7361.c"	cur_mechanical_key_sta = 0;
000492   763d     clrr    0x3d             	CLRR	_cur_mechanical_key_sta
                                           ;	.line	1096; "MC32F7361.c"	break;
000493   a4b3     goto    0x4b3            	GOTO	_00293_DS_
                                           _00289_DS_
                                           ;	.line	1099; "MC32F7361.c"	timer_count = 4 * 60 * 60 * 1000;
000494   762c     clrr    0x2c             	CLRR	_timer_count
000495   3cba     movai   0xba             	MOVAI	0xba
000496   562d     movra   0x2d             	MOVRA	(_timer_count + 1)
000497   3cff     movai   0xff             	MOVAI	0xff
000498   562e     movra   0x2e             	MOVRA	(_timer_count + 2)
000499   562f     movra   0x2f             	MOVRA	(_timer_count + 3)
                                           ;	.line	1107; "MC32F7361.c"	key_event_set_timer();
00049a   85fc     call    0x5fc            	CALL	_key_event_set_timer
                                           ;	.line	1109; "MC32F7361.c"	LED_4H_PIN = LED_TIM_PIN_ON;
00049b   d794     bclr    0x194, 0x3       	BCLR	_IOP1bits,3
                                           ;	.line	1110; "MC32F7361.c"	break;
00049c   a4b3     goto    0x4b3            	GOTO	_00293_DS_
                                           _00290_DS_
                                           ;	.line	1112; "MC32F7361.c"	timer_count = 6 * 60 * 60 * 1000;
00049d   762c     clrr    0x2c             	CLRR	_timer_count
00049e   3c97     movai   0x97             	MOVAI	0x97
00049f   562d     movra   0x2d             	MOVRA	(_timer_count + 1)
0004a0   3cff     movai   0xff             	MOVAI	0xff
0004a1   562e     movra   0x2e             	MOVRA	(_timer_count + 2)
0004a2   562f     movra   0x2f             	MOVRA	(_timer_count + 3)
                                           ;	.line	1120; "MC32F7361.c"	key_event_set_timer();
0004a3   85fc     call    0x5fc            	CALL	_key_event_set_timer
                                           ;	.line	1122; "MC32F7361.c"	LED_6H_PIN = LED_TIM_PIN_ON;
0004a4   df94     bclr    0x194, 0x7       	BCLR	_IOP1bits,7
                                           ;	.line	1123; "MC32F7361.c"	break;
0004a5   a4b3     goto    0x4b3            	GOTO	_00293_DS_
                                           _00291_DS_
                                           ;	.line	1125; "MC32F7361.c"	timer_count = 8 * 60 * 60 * 1000;
0004a6   762c     clrr    0x2c             	CLRR	_timer_count
0004a7   3c74     movai   0x74             	MOVAI	0x74
0004a8   562d     movra   0x2d             	MOVRA	(_timer_count + 1)
0004a9   762e     clrr    0x2e             	CLRR	(_timer_count + 2)
0004aa   762f     clrr    0x2f             	CLRR	(_timer_count + 3)
                                           ;	.line	1133; "MC32F7361.c"	key_event_set_timer();
0004ab   85fc     call    0x5fc            	CALL	_key_event_set_timer
                                           ;	.line	1135; "MC32F7361.c"	LED_8H_PIN = LED_TIM_PIN_ON;
0004ac   d190     bclr    0x190, 0         	BCLR	_IOP0bits,0
                                           ;	.line	1136; "MC32F7361.c"	break;
0004ad   a4b3     goto    0x4b3            	GOTO	_00293_DS_
                                           _00292_DS_
                                           ;	.line	1138; "MC32F7361.c"	timer_count = 0;
0004ae   762c     clrr    0x2c             	CLRR	_timer_count
0004af   762d     clrr    0x2d             	CLRR	(_timer_count + 1)
0004b0   762e     clrr    0x2e             	CLRR	(_timer_count + 2)
0004b1   762f     clrr    0x2f             	CLRR	(_timer_count + 3)
                                           ;	.line	1146; "MC32F7361.c"	key_event_set_timer();
0004b2   85fc     call    0x5fc            	CALL	_key_event_set_timer
                                           _00293_DS_
                                           ;	.line	1152; "MC32F7361.c"	flag_is_recved_data = 0;
0004b3   d034     bclr    0x34, 0          	BCLR	_flag1,0
                                           _00295_DS_
                                           ;	.line	1156; "MC32F7361.c"	if (power_sta == POWER_STA_ON)
0004b4   583a     movar   0x3a             	MOVAR	_power_sta
0004b5   3902     xorai   0x2              	XORAI	0x02
0004b6   e587     jbset   0x187, 0x2       	JBSET	PFLAG,2
0004b7   a5a0     goto    0x5a0            	GOTO	_00331_DS_
                                           ;	.line	1159; "MC32F7361.c"	if (next_frame_delay == 0) // 
0004b8   5830     movar   0x30             	MOVAR	_next_frame_delay
0004b9   5c31     orar    0x31             	ORAR	(_next_frame_delay + 1)
0004ba   e587     jbset   0x187, 0x2       	JBSET	PFLAG,2
0004bb   a13d     goto    0x13d            	GOTO	_00334_DS_
                                           ;	.line	1161; "MC32F7361.c"	u16 speed_code = 0x00;
0004bc   761a     clrr    0x1a             	CLRR	r0x1031
0004bd   761b     clrr    0x1b             	CLRR	r0x1030
                                           ;	.line	1163; "MC32F7361.c"	next_frame_delay = 0xFFFF;
0004be   3cff     movai   0xff             	MOVAI	0xff
0004bf   5630     movra   0x30             	MOVRA	_next_frame_delay
0004c0   5631     movra   0x31             	MOVRA	(_next_frame_delay + 1)
                                           ;;swapping arguments (AOP_TYPEs 1/3)
                                           ;;unsigned compare: left >= lit(0xA=10), size=1
                                           ;	.line	1165; "MC32F7361.c"	if (current_index >= SECTION_1_START && current_index <= SECTION_1_END) // code
0004c1   3c0a     movai   0xa              	MOVAI	0x0a
0004c2   4837     rsubar  0x37             	RSUBAR	_current_index
0004c3   f187     jbclr   0x187, 0         	JBCLR	PFLAG,0
0004c4   a4e9     goto    0x4e9            	GOTO	_00318_DS_
                                           ;;genSkipc:3291: created from rifx:013B5EFC
                                           ;	.line	1167; "MC32F7361.c"	speed_code = section_1_speed_table[current_speed];       // code
0004c5   583b     movar   0x3b             	MOVAR	_current_speed
0004c6   3fcb     addai   0xcb             	ADDAI	(_section_1_speed_table + 0)
0004c7   561c     movra   0x1c             	MOVRA	r0x1032
0004c8   3c07     movai   0x7              	MOVAI	high (_section_1_speed_table + 0)
0004c9   f187     jbclr   0x187, 0         	JBCLR	PFLAG,0
0004ca   3f01     addai   0x1              	ADDAI	0x01
0004cb   561d     movra   0x1d             	MOVRA	r0x1033
0004cc   581c     movar   0x1c             	MOVAR	r0x1032
0004cd   5605     movra   0x5              	MOVRA	STK01
0004ce   581d     movar   0x1d             	MOVAR	r0x1033
0004cf   5606     movra   0x6              	MOVRA	STK00
0004d0   3c80     movai   0x80             	MOVAI	0x80
0004d1   8775     call    0x775            	CALL	__gptrget1
0004d2   561a     movra   0x1a             	MOVRA	r0x1031
0004d3   561e     movra   0x1e             	MOVRA	r0x1034
                                           ;;109	MOVAR	r0x1034
0004d4   761b     clrr    0x1b             	CLRR	r0x1030
                                           ;	.line	1168; "MC32F7361.c"	next_frame_delay = section_1_delay_table[current_speed]; // 
0004d5   d187     bclr    0x187, 0         	BCLR	PFLAG,0
0004d6   503b     rlar    0x3b             	RLAR	_current_speed
0004d7   561c     movra   0x1c             	MOVRA	r0x1032
0004d8   581c     movar   0x1c             	MOVAR	r0x1032
0004d9   3fa3     addai   0xa3             	ADDAI	(_section_1_delay_table + 0)
0004da   561c     movra   0x1c             	MOVRA	r0x1032
0004db   3c07     movai   0x7              	MOVAI	high (_section_1_delay_table + 0)
0004dc   f187     jbclr   0x187, 0         	JBCLR	PFLAG,0
0004dd   3f01     addai   0x1              	ADDAI	0x01
0004de   561d     movra   0x1d             	MOVRA	r0x1033
0004df   581c     movar   0x1c             	MOVAR	r0x1032
0004e0   5605     movra   0x5              	MOVRA	STK01
0004e1   581d     movar   0x1d             	MOVAR	r0x1033
0004e2   5606     movra   0x6              	MOVRA	STK00
0004e3   3c80     movai   0x80             	MOVAI	0x80
0004e4   8787     call    0x787            	CALL	__gptrget2
0004e5   5631     movra   0x31             	MOVRA	(_next_frame_delay + 1)
0004e6   5806     movar   0x6              	MOVAR	STK00
0004e7   5630     movra   0x30             	MOVRA	_next_frame_delay
0004e8   a57d     goto    0x57d            	GOTO	_00319_DS_
                                           ;;unsigned compare: left < lit(0xA=10), size=1
                                           _00318_DS_
                                           ;	.line	1172; "MC32F7361.c"	else if (current_index >= SECTION_2_START && current_index <= SECTION_2_END)
0004e9   3c0a     movai   0xa              	MOVAI	0x0a
0004ea   4837     rsubar  0x37             	RSUBAR	_current_index
0004eb   e187     jbset   0x187, 0         	JBSET	PFLAG,0
0004ec   a505     goto    0x505            	GOTO	_00314_DS_
                                           ;;genSkipc:3291: created from rifx:013B5EFC
                                           ;;swapping arguments (AOP_TYPEs 1/3)
                                           ;;unsigned compare: left >= lit(0x14=20), size=1
0004ed   3c14     movai   0x14             	MOVAI	0x14
0004ee   4837     rsubar  0x37             	RSUBAR	_current_index
0004ef   f187     jbclr   0x187, 0         	JBCLR	PFLAG,0
0004f0   a505     goto    0x505            	GOTO	_00314_DS_
                                           ;;genSkipc:3291: created from rifx:013B5EFC
                                           ;	.line	1175; "MC32F7361.c"	next_frame_delay = section_2_delay_table[current_speed];
0004f1   d187     bclr    0x187, 0         	BCLR	PFLAG,0
0004f2   503b     rlar    0x3b             	RLAR	_current_speed
0004f3   561c     movra   0x1c             	MOVRA	r0x1032
0004f4   581c     movar   0x1c             	MOVAR	r0x1032
0004f5   3fab     addai   0xab             	ADDAI	(_section_2_delay_table + 0)
0004f6   561c     movra   0x1c             	MOVRA	r0x1032
0004f7   3c07     movai   0x7              	MOVAI	high (_section_2_delay_table + 0)
0004f8   f187     jbclr   0x187, 0         	JBCLR	PFLAG,0
0004f9   3f01     addai   0x1              	ADDAI	0x01
0004fa   561d     movra   0x1d             	MOVRA	r0x1033
0004fb   581c     movar   0x1c             	MOVAR	r0x1032
0004fc   5605     movra   0x5              	MOVRA	STK01
0004fd   581d     movar   0x1d             	MOVAR	r0x1033
0004fe   5606     movra   0x6              	MOVRA	STK00
0004ff   3c80     movai   0x80             	MOVAI	0x80
000500   8787     call    0x787            	CALL	__gptrget2
000501   5631     movra   0x31             	MOVRA	(_next_frame_delay + 1)
000502   5806     movar   0x6              	MOVAR	STK00
000503   5630     movra   0x30             	MOVRA	_next_frame_delay
000504   a57d     goto    0x57d            	GOTO	_00319_DS_
                                           ;;unsigned compare: left < lit(0x14=20), size=1
                                           _00314_DS_
                                           ;	.line	1179; "MC32F7361.c"	else if ((current_index >= SECTION_3_START &&                                  /*current_index <= SECTION_3_END) ||
000505   3c14     movai   0x14             	MOVAI	0x14
000506   4837     rsubar  0x37             	RSUBAR	_current_index
000507   e187     jbset   0x187, 0         	JBSET	PFLAG,0
000508   a50d     goto    0x50d            	GOTO	_00312_DS_
                                           ;;genSkipc:3291: created from rifx:013B5EFC
                                           ;;swapping arguments (AOP_TYPEs 1/3)
                                           ;;unsigned compare: left >= lit(0x1D=29), size=1
000509   3c1d     movai   0x1d             	MOVAI	0x1d
00050a   4837     rsubar  0x37             	RSUBAR	_current_index
00050b   e187     jbset   0x187, 0         	JBSET	PFLAG,0
00050c   a515     goto    0x515            	GOTO	_00307_DS_
                                           ;;genSkipc:3291: created from rifx:013B5EFC
                                           ;;unsigned compare: left < lit(0x3B=59), size=1
                                           _00312_DS_
                                           ;	.line	1181; "MC32F7361.c"	(current_index >= SECTION_6_START && current_index <= SECTION_6_END)) // 
00050d   3c3b     movai   0x3b             	MOVAI	0x3b
00050e   4837     rsubar  0x37             	RSUBAR	_current_index
00050f   e187     jbset   0x187, 0         	JBSET	PFLAG,0
000510   a52a     goto    0x52a            	GOTO	_00308_DS_
                                           ;;genSkipc:3291: created from rifx:013B5EFC
                                           ;;swapping arguments (AOP_TYPEs 1/3)
                                           ;;unsigned compare: left >= lit(0x45=69), size=1
000511   3c45     movai   0x45             	MOVAI	0x45
000512   4837     rsubar  0x37             	RSUBAR	_current_index
000513   f187     jbclr   0x187, 0         	JBCLR	PFLAG,0
000514   a52a     goto    0x52a            	GOTO	_00308_DS_
                                           ;;genSkipc:3291: created from rifx:013B5EFC
                                           _00307_DS_
                                           ;	.line	1184; "MC32F7361.c"	speed_code = section_3_speed_table[current_speed];
000515   583b     movar   0x3b             	MOVAR	_current_speed
000516   3fcf     addai   0xcf             	ADDAI	(_section_3_speed_table + 0)
000517   561c     movra   0x1c             	MOVRA	r0x1032
000518   3c07     movai   0x7              	MOVAI	high (_section_3_speed_table + 0)
000519   f187     jbclr   0x187, 0         	JBCLR	PFLAG,0
00051a   3f01     addai   0x1              	ADDAI	0x01
00051b   561d     movra   0x1d             	MOVRA	r0x1033
00051c   581c     movar   0x1c             	MOVAR	r0x1032
00051d   5605     movra   0x5              	MOVRA	STK01
00051e   581d     movar   0x1d             	MOVAR	r0x1033
00051f   5606     movra   0x6              	MOVRA	STK00
000520   3c80     movai   0x80             	MOVAI	0x80
000521   8775     call    0x775            	CALL	__gptrget1
000522   561a     movra   0x1a             	MOVRA	r0x1031
000523   561e     movra   0x1e             	MOVRA	r0x1034
                                           ;;108	MOVAR	r0x1034
000524   761b     clrr    0x1b             	CLRR	r0x1030
                                           ;	.line	1186; "MC32F7361.c"	next_frame_delay = 4960;
000525   3c60     movai   0x60             	MOVAI	0x60
000526   5630     movra   0x30             	MOVRA	_next_frame_delay
000527   3c13     movai   0x13             	MOVAI	0x13
000528   5631     movra   0x31             	MOVRA	(_next_frame_delay + 1)
000529   a57d     goto    0x57d            	GOTO	_00319_DS_
                                           ;;unsigned compare: left < lit(0x1D=29), size=1
                                           _00308_DS_
                                           ;	.line	1203; "MC32F7361.c"	else if (current_index >= SECTION_5_START && current_index <= SECTION_5_END)
00052a   3c1d     movai   0x1d             	MOVAI	0x1d
00052b   4837     rsubar  0x37             	RSUBAR	_current_index
00052c   e187     jbset   0x187, 0         	JBSET	PFLAG,0
00052d   a546     goto    0x546            	GOTO	_00304_DS_
                                           ;;genSkipc:3291: created from rifx:013B5EFC
                                           ;;swapping arguments (AOP_TYPEs 1/3)
                                           ;;unsigned compare: left >= lit(0x3B=59), size=1
00052e   3c3b     movai   0x3b             	MOVAI	0x3b
00052f   4837     rsubar  0x37             	RSUBAR	_current_index
000530   f187     jbclr   0x187, 0         	JBCLR	PFLAG,0
000531   a546     goto    0x546            	GOTO	_00304_DS_
                                           ;;genSkipc:3291: created from rifx:013B5EFC
                                           ;	.line	1206; "MC32F7361.c"	next_frame_delay = section_5_delay_table[current_speed];
000532   d187     bclr    0x187, 0         	BCLR	PFLAG,0
000533   503b     rlar    0x3b             	RLAR	_current_speed
000534   561c     movra   0x1c             	MOVRA	r0x1032
000535   581c     movar   0x1c             	MOVAR	r0x1032
000536   3fb3     addai   0xb3             	ADDAI	(_section_5_delay_table + 0)
000537   561c     movra   0x1c             	MOVRA	r0x1032
000538   3c07     movai   0x7              	MOVAI	high (_section_5_delay_table + 0)
000539   f187     jbclr   0x187, 0         	JBCLR	PFLAG,0
00053a   3f01     addai   0x1              	ADDAI	0x01
00053b   561d     movra   0x1d             	MOVRA	r0x1033
00053c   581c     movar   0x1c             	MOVAR	r0x1032
00053d   5605     movra   0x5              	MOVRA	STK01
00053e   581d     movar   0x1d             	MOVAR	r0x1033
00053f   5606     movra   0x6              	MOVRA	STK00
000540   3c80     movai   0x80             	MOVAI	0x80
000541   8787     call    0x787            	CALL	__gptrget2
000542   5631     movra   0x31             	MOVRA	(_next_frame_delay + 1)
000543   5806     movar   0x6              	MOVAR	STK00
000544   5630     movra   0x30             	MOVRA	_next_frame_delay
000545   a57d     goto    0x57d            	GOTO	_00319_DS_
                                           ;;unsigned compare: left < lit(0x45=69), size=1
                                           _00304_DS_
                                           ;	.line	1218; "MC32F7361.c"	else if (current_index >= SECTION_7_START && current_index <= SECTION_7_END)
000546   3c45     movai   0x45             	MOVAI	0x45
000547   4837     rsubar  0x37             	RSUBAR	_current_index
000548   e187     jbset   0x187, 0         	JBSET	PFLAG,0
000549   a572     goto    0x572            	GOTO	_00300_DS_
                                           ;;genSkipc:3291: created from rifx:013B5EFC
                                           ;;swapping arguments (AOP_TYPEs 1/3)
                                           ;;unsigned compare: left >= lit(0x4B=75), size=1
00054a   3c4b     movai   0x4b             	MOVAI	0x4b
00054b   4837     rsubar  0x37             	RSUBAR	_current_index
00054c   f187     jbclr   0x187, 0         	JBCLR	PFLAG,0
00054d   a572     goto    0x572            	GOTO	_00300_DS_
                                           ;;genSkipc:3291: created from rifx:013B5EFC
                                           ;	.line	1220; "MC32F7361.c"	speed_code = section_7_speed_table[current_speed];
00054e   583b     movar   0x3b             	MOVAR	_current_speed
00054f   3fd7     addai   0xd7             	ADDAI	(_section_7_speed_table + 0)
000550   561c     movra   0x1c             	MOVRA	r0x1032
000551   3c07     movai   0x7              	MOVAI	high (_section_7_speed_table + 0)
000552   f187     jbclr   0x187, 0         	JBCLR	PFLAG,0
000553   3f01     addai   0x1              	ADDAI	0x01
000554   561d     movra   0x1d             	MOVRA	r0x1033
000555   581c     movar   0x1c             	MOVAR	r0x1032
000556   5605     movra   0x5              	MOVRA	STK01
000557   581d     movar   0x1d             	MOVAR	r0x1033
000558   5606     movra   0x6              	MOVRA	STK00
000559   3c80     movai   0x80             	MOVAI	0x80
00055a   8775     call    0x775            	CALL	__gptrget1
00055b   561a     movra   0x1a             	MOVRA	r0x1031
00055c   561e     movra   0x1e             	MOVRA	r0x1034
                                           ;;107	MOVAR	r0x1034
00055d   761b     clrr    0x1b             	CLRR	r0x1030
                                           ;	.line	1221; "MC32F7361.c"	next_frame_delay = section_7_delay_table[current_speed];
00055e   d187     bclr    0x187, 0         	BCLR	PFLAG,0
00055f   503b     rlar    0x3b             	RLAR	_current_speed
000560   561c     movra   0x1c             	MOVRA	r0x1032
000561   581c     movar   0x1c             	MOVAR	r0x1032
000562   3fbb     addai   0xbb             	ADDAI	(_section_7_delay_table + 0)
000563   561c     movra   0x1c             	MOVRA	r0x1032
000564   3c07     movai   0x7              	MOVAI	high (_section_7_delay_table + 0)
000565   f187     jbclr   0x187, 0         	JBCLR	PFLAG,0
000566   3f01     addai   0x1              	ADDAI	0x01
000567   561d     movra   0x1d             	MOVRA	r0x1033
000568   581c     movar   0x1c             	MOVAR	r0x1032
000569   5605     movra   0x5              	MOVRA	STK01
00056a   581d     movar   0x1d             	MOVAR	r0x1033
00056b   5606     movra   0x6              	MOVRA	STK00
00056c   3c80     movai   0x80             	MOVAI	0x80
00056d   8787     call    0x787            	CALL	__gptrget2
00056e   5631     movra   0x31             	MOVRA	(_next_frame_delay + 1)
00056f   5806     movar   0x6              	MOVAR	STK00
000570   5630     movra   0x30             	MOVRA	_next_frame_delay
000571   a57d     goto    0x57d            	GOTO	_00319_DS_
                                           ;;unsigned compare: left < lit(0x4E=78), size=1
                                           _00300_DS_
                                           ;	.line	1236; "MC32F7361.c"	else if (current_index >= SECTION_9_START && current_index <= SECTION_9_END)
000572   3c4e     movai   0x4e             	MOVAI	0x4e
000573   4837     rsubar  0x37             	RSUBAR	_current_index
000574   e187     jbset   0x187, 0         	JBSET	PFLAG,0
000575   a57d     goto    0x57d            	GOTO	_00319_DS_
                                           ;;genSkipc:3291: created from rifx:013B5EFC
                                           ;;swapping arguments (AOP_TYPEs 1/3)
                                           ;;unsigned compare: left >= lit(0x5B=91), size=1
000576   3c5b     movai   0x5b             	MOVAI	0x5b
000577   4837     rsubar  0x37             	RSUBAR	_current_index
000578   f187     jbclr   0x187, 0         	JBCLR	PFLAG,0
000579   a57d     goto    0x57d            	GOTO	_00319_DS_
                                           ;;genSkipc:3291: created from rifx:013B5EFC
                                           ;	.line	1242; "MC32F7361.c"	speed_code = 0x10;
00057a   3c10     movai   0x10             	MOVAI	0x10
00057b   561a     movra   0x1a             	MOVRA	r0x1031
00057c   761b     clrr    0x1b             	CLRR	r0x1030
                                           _00319_DS_
                                           ;	.line	1252; "MC32F7361.c"	speed_code <<= 8;
00057d   581a     movar   0x1a             	MOVAR	r0x1031
00057e   561d     movra   0x1d             	MOVRA	r0x1033
00057f   761c     clrr    0x1c             	CLRR	r0x1032
                                           ;	.line	1253; "MC32F7361.c"	speed_code |= main_table[current_index];
000580   5837     movar   0x37             	MOVAR	_current_index
000581   3f17     addai   0x17             	ADDAI	(_main_table + 0)
000582   561a     movra   0x1a             	MOVRA	r0x1031
000583   3c07     movai   0x7              	MOVAI	high (_main_table + 0)
000584   f187     jbclr   0x187, 0         	JBCLR	PFLAG,0
000585   3f01     addai   0x1              	ADDAI	0x01
000586   561b     movra   0x1b             	MOVRA	r0x1030
000587   581a     movar   0x1a             	MOVAR	r0x1031
000588   5605     movra   0x5              	MOVRA	STK01
000589   581b     movar   0x1b             	MOVAR	r0x1030
00058a   5606     movra   0x6              	MOVRA	STK00
00058b   3c80     movai   0x80             	MOVAI	0x80
00058c   8775     call    0x775            	CALL	__gptrget1
00058d   561a     movra   0x1a             	MOVRA	r0x1031
00058e   561e     movra   0x1e             	MOVRA	r0x1034
                                           ;;105	MOVAR	r0x1034
00058f   761b     clrr    0x1b             	CLRR	r0x1030
000590   581a     movar   0x1a             	MOVAR	r0x1031
000591   5e1c     orra    0x1c             	ORRA	r0x1032
000592   3c00     movai   0                	MOVAI	0x00
000593   5e1d     orra    0x1d             	ORRA	r0x1033
                                           ;	.line	1254; "MC32F7361.c"	send_cmd_16bit(speed_code);
000594   581c     movar   0x1c             	MOVAR	r0x1032
000595   5606     movra   0x6              	MOVRA	STK00
000596   581d     movar   0x1d             	MOVAR	r0x1033
000597   8689     call    0x689            	CALL	_send_cmd_16bit
                                           ;	.line	1256; "MC32F7361.c"	current_index++;
000598   6637     incr    0x37             	INCR	_current_index
                                           ;	.line	1257; "MC32F7361.c"	if (current_index > end_index)
000599   5837     movar   0x37             	MOVAR	_current_index
00059a   4839     rsubar  0x39             	RSUBAR	_end_index
00059b   f187     jbclr   0x187, 0         	JBCLR	PFLAG,0
00059c   a13d     goto    0x13d            	GOTO	_00334_DS_
                                           ;;genSkipc:3291: created from rifx:013B5EFC
                                           ;	.line	1258; "MC32F7361.c"	current_index = start_index;
00059d   5838     movar   0x38             	MOVAR	_start_index
00059e   5637     movra   0x37             	MOVRA	_current_index
00059f   a13d     goto    0x13d            	GOTO	_00334_DS_
                                           _00331_DS_
                                           ;	.line	1261; "MC32F7361.c"	else if (power_sta == POWER_STA_PRE_ON)
0005a0   583a     movar   0x3a             	MOVAR	_power_sta
0005a1   3901     xorai   0x1              	XORAI	0x01
0005a2   e587     jbset   0x187, 0x2       	JBSET	PFLAG,2
0005a3   a5e5     goto    0x5e5            	GOTO	_00328_DS_
                                           ;	.line	1264; "MC32F7361.c"	LED_CTL_PIN = 1;
0005a4   c990     bset    0x190, 0x4       	BSET	_IOP0bits,4
                                           ;	.line	1265; "MC32F7361.c"	delay_ms(2);
0005a5   3c02     movai   0x2              	MOVAI	0x02
0005a6   5606     movra   0x6              	MOVRA	STK00
0005a7   3c00     movai   0                	MOVAI	0x00
0005a8   86f7     call    0x6f7            	CALL	_delay_ms
                                           ;	.line	1266; "MC32F7361.c"	LED_CTL_PIN = 0;
0005a9   d990     bclr    0x190, 0x4       	BCLR	_IOP0bits,4
                                           ;	.line	1269; "MC32F7361.c"	delay_200us();
0005aa   3c02     movai   0x2              	MOVAI	0x02
0005ab   86e6     call    0x6e6            	CALL	_delay_100xus
                                           ;	.line	1270; "MC32F7361.c"	LED_CTL_PIN = 1;
0005ac   c990     bset    0x190, 0x4       	BSET	_IOP0bits,4
                                           ;	.line	1271; "MC32F7361.c"	delay_ms(3);
0005ad   3c03     movai   0x3              	MOVAI	0x03
0005ae   5606     movra   0x6              	MOVRA	STK00
0005af   3c00     movai   0                	MOVAI	0x00
0005b0   86f7     call    0x6f7            	CALL	_delay_ms
                                           ;	.line	1272; "MC32F7361.c"	LED_CTL_PIN = 0;
0005b1   d990     bclr    0x190, 0x4       	BCLR	_IOP0bits,4
                                           ;	.line	1275; "MC32F7361.c"	delay_200us();
0005b2   3c02     movai   0x2              	MOVAI	0x02
0005b3   86e6     call    0x6e6            	CALL	_delay_100xus
                                           ;	.line	1276; "MC32F7361.c"	LED_CTL_PIN = 1;
0005b4   c990     bset    0x190, 0x4       	BSET	_IOP0bits,4
                                           ;	.line	1277; "MC32F7361.c"	delay_ms(4);
0005b5   3c04     movai   0x4              	MOVAI	0x04
0005b6   5606     movra   0x6              	MOVRA	STK00
0005b7   3c00     movai   0                	MOVAI	0x00
0005b8   86f7     call    0x6f7            	CALL	_delay_ms
                                           ;	.line	1278; "MC32F7361.c"	LED_CTL_PIN = 0;
0005b9   d990     bclr    0x190, 0x4       	BCLR	_IOP0bits,4
                                           ;	.line	1281; "MC32F7361.c"	delay_200us();
0005ba   3c02     movai   0x2              	MOVAI	0x02
0005bb   86e6     call    0x6e6            	CALL	_delay_100xus
                                           ;	.line	1282; "MC32F7361.c"	LED_CTL_PIN = 1;
0005bc   c990     bset    0x190, 0x4       	BSET	_IOP0bits,4
                                           ;	.line	1283; "MC32F7361.c"	delay_ms(5);
0005bd   3c05     movai   0x5              	MOVAI	0x05
0005be   5606     movra   0x6              	MOVRA	STK00
0005bf   3c00     movai   0                	MOVAI	0x00
0005c0   86f7     call    0x6f7            	CALL	_delay_ms
                                           ;	.line	1284; "MC32F7361.c"	LED_CTL_PIN = 0;
0005c1   d990     bclr    0x190, 0x4       	BCLR	_IOP0bits,4
                                           ;	.line	1287; "MC32F7361.c"	delay_200us();
0005c2   3c02     movai   0x2              	MOVAI	0x02
0005c3   86e6     call    0x6e6            	CALL	_delay_100xus
                                           ;	.line	1288; "MC32F7361.c"	LED_CTL_PIN = 1;
0005c4   c990     bset    0x190, 0x4       	BSET	_IOP0bits,4
                                           ;	.line	1289; "MC32F7361.c"	delay_ms(51);
0005c5   3c33     movai   0x33             	MOVAI	0x33
0005c6   5606     movra   0x6              	MOVRA	STK00
0005c7   3c00     movai   0                	MOVAI	0x00
0005c8   86f7     call    0x6f7            	CALL	_delay_ms
                                           ;	.line	1291; "MC32F7361.c"	power_sta = POWER_STA_ON;
0005c9   3c02     movai   0x2              	MOVAI	0x02
0005ca   563a     movra   0x3a             	MOVRA	_power_sta
                                           ;	.line	1294; "MC32F7361.c"	key_event_same_deal(EEPROM_Read_Byte(0), EEPROM_Read_Byte(1), EEPROM_Read_Byte(2), EEPROM_Read_Byte(2));
0005cb   3c00     movai   0                	MOVAI	0x00
0005cc   86b8     call    0x6b8            	CALL	_EEPROM_Read_Byte
0005cd   561b     movra   0x1b             	MOVRA	r0x1030
0005ce   5806     movar   0x6              	MOVAR	STK00
0005cf   561c     movra   0x1c             	MOVRA	r0x1032
0005d0   561a     movra   0x1a             	MOVRA	r0x1031
                                           ;;106	MOVAR	r0x1031
0005d1   3c01     movai   0x1              	MOVAI	0x01
0005d2   86b8     call    0x6b8            	CALL	_EEPROM_Read_Byte
0005d3   561b     movra   0x1b             	MOVRA	r0x1030
0005d4   5806     movar   0x6              	MOVAR	STK00
0005d5   561d     movra   0x1d             	MOVRA	r0x1033
0005d6   561a     movra   0x1a             	MOVRA	r0x1031
                                           ;;104	MOVAR	r0x1031
0005d7   3c02     movai   0x2              	MOVAI	0x02
0005d8   86b8     call    0x6b8            	CALL	_EEPROM_Read_Byte
0005d9   561b     movra   0x1b             	MOVRA	r0x1030
0005da   5806     movar   0x6              	MOVAR	STK00
0005db   561a     movra   0x1a             	MOVRA	r0x1031
0005dc   581a     movar   0x1a             	MOVAR	r0x1031
0005dd   5604     movra   0x4              	MOVRA	STK02
0005de   581b     movar   0x1b             	MOVAR	r0x1030
0005df   5605     movra   0x5              	MOVRA	STK01
0005e0   581d     movar   0x1d             	MOVAR	r0x1033
0005e1   5606     movra   0x6              	MOVRA	STK00
0005e2   581c     movar   0x1c             	MOVAR	r0x1032
0005e3   860a     call    0x60a            	CALL	_key_event_same_deal_ex
0005e4   a13d     goto    0x13d            	GOTO	_00334_DS_
                                           _00328_DS_
                                           ;	.line	1298; "MC32F7361.c"	else if (power_sta == POWER_STA_PRE_OFF)
0005e5   583a     movar   0x3a             	MOVAR	_power_sta
0005e6   3903     xorai   0x3              	XORAI	0x03
0005e7   e587     jbset   0x187, 0x2       	JBSET	PFLAG,2
0005e8   a13d     goto    0x13d            	GOTO	_00334_DS_
                                           ;	.line	1300; "MC32F7361.c"	power_sta = POWER_STA_OFF;
0005e9   763a     clrr    0x3a             	CLRR	_power_sta
                                           ;	.line	1302; "MC32F7361.c"	send_cmd_16bit(0x0C00);
0005ea   3c00     movai   0                	MOVAI	0x00
0005eb   5606     movra   0x6              	MOVRA	STK00
0005ec   3c0c     movai   0xc              	MOVAI	0x0c
0005ed   8689     call    0x689            	CALL	_send_cmd_16bit
                                           ;	.line	1303; "MC32F7361.c"	send_cmd_16bit(0x0C00);
0005ee   3c00     movai   0                	MOVAI	0x00
0005ef   5606     movra   0x6              	MOVRA	STK00
0005f0   3c0c     movai   0xc              	MOVAI	0x0c
0005f1   8689     call    0x689            	CALL	_send_cmd_16bit
                                           ;	.line	1304; "MC32F7361.c"	delay_ms(40);
0005f2   3c28     movai   0x28             	MOVAI	0x28
0005f3   5606     movra   0x6              	MOVRA	STK00
0005f4   3c00     movai   0                	MOVAI	0x00
0005f5   86f7     call    0x6f7            	CALL	_delay_ms
                                           ;	.line	1305; "MC32F7361.c"	LED_CTL_PIN = 0;
0005f6   d990     bclr    0x190, 0x4       	BCLR	_IOP0bits,4
                                           ;	.line	1306; "MC32F7361.c"	LED_4H_PIN = LED_TIM_PIN_OFF;
0005f7   c794     bset    0x194, 0x3       	BSET	_IOP1bits,3
                                           ;	.line	1307; "MC32F7361.c"	LED_6H_PIN = LED_TIM_PIN_OFF;
0005f8   cf94     bset    0x194, 0x7       	BSET	_IOP1bits,7
                                           ;	.line	1308; "MC32F7361.c"	LED_8H_PIN = LED_TIM_PIN_OFF;
0005f9   c190     bset    0x190, 0         	BSET	_IOP0bits,0
0005fa   a13d     goto    0x13d            	GOTO	_00334_DS_
                                           ;	.line	1311; "MC32F7361.c"	}
0005fb   000c     return                   	RETURN	
                                           ; exit point of _main
                                           
                                           ;***
                                           ;  pBlock Stats: dbName = C
                                           ;***
                                           ;entry:  _key_event_set_timer	;Function start
                                           ; 2 exit points
                                           ;has an exit
                                           ;functions called:
                                           ;   _key_event_same_deal_ex
                                           ;   _key_event_same_deal_ex
                                           ;5 compiler assigned registers:
                                           ;   r0x102E
                                           ;   r0x102F
                                           ;   STK02
                                           ;   STK01
                                           ;   STK00
                                           ;; Starting pCode block
                                           _key_event_set_timer	;Function start
                                           ; 2 exit points
                                           ;	.line	719; "MC32F7361.c"	key_event_same_deal(eeprom_read_byte_index_0, eeprom_read_byte_index_1, eeprom_read_byte_index_2, eeprom_read_byte_index_3);
0005fc   5840     movar   0x40             	MOVAR	_eeprom_read_byte_index_2
0005fd   5619     movra   0x19             	MOVRA	r0x102E
                                           ;;1	CLRR	r0x102F
0005fe   5819     movar   0x19             	MOVAR	r0x102E
0005ff   5604     movra   0x4              	MOVRA	STK02
000600   3c00     movai   0                	MOVAI	0x00
000601   5605     movra   0x5              	MOVRA	STK01
000602   583f     movar   0x3f             	MOVAR	_eeprom_read_byte_index_1
000603   5606     movra   0x6              	MOVRA	STK00
000604   583e     movar   0x3e             	MOVAR	_eeprom_read_byte_index_0
000605   860a     call    0x60a            	CALL	_key_event_same_deal_ex
                                           ;	.line	721; "MC32F7361.c"	LED_4H_PIN = LED_TIM_PIN_OFF;
000606   c794     bset    0x194, 0x3       	BSET	_IOP1bits,3
                                           ;	.line	722; "MC32F7361.c"	LED_6H_PIN = LED_TIM_PIN_OFF;
000607   cf94     bset    0x194, 0x7       	BSET	_IOP1bits,7
                                           ;	.line	723; "MC32F7361.c"	LED_8H_PIN = LED_TIM_PIN_OFF;
000608   c190     bset    0x190, 0         	BSET	_IOP0bits,0
                                           ;	.line	729; "MC32F7361.c"	}
000609   000c     return                   	RETURN	
                                           ; exit point of _key_event_set_timer
                                           
                                           ;***
                                           ;  pBlock Stats: dbName = C
                                           ;***
                                           ;entry:  _key_event_same_deal_ex	;Function start
                                           ; 2 exit points
                                           ;has an exit
                                           ;functions called:
                                           ;   _EEPROM_Write_Byte
                                           ;   _EEPROM_Write_Byte
                                           ;   _EEPROM_Write_Byte
                                           ;   _EEPROM_Write_Byte
                                           ;   _send_cmd_16bit
                                           ;   _send_cmd_16bit
                                           ;   _send_cmd_16bit
                                           ;   _EEPROM_Write_Byte
                                           ;   _EEPROM_Write_Byte
                                           ;   _EEPROM_Write_Byte
                                           ;   _EEPROM_Write_Byte
                                           ;   _send_cmd_16bit
                                           ;   _send_cmd_16bit
                                           ;   _send_cmd_16bit
                                           ;9 compiler assigned registers:
                                           ;   r0x1028
                                           ;   STK00
                                           ;   r0x1029
                                           ;   STK01
                                           ;   r0x102A
                                           ;   STK02
                                           ;   r0x102B
                                           ;   r0x102C
                                           ;   r0x102D
                                           ;; Starting pCode block
                                           _key_event_same_deal_ex	;Function start
                                           ; 2 exit points
00060a   5617     movra   0x17             	MOVRA	r0x102C
                                           ;	.line	665; "MC32F7361.c"	void key_event_same_deal_ex(u8 start, u8 end, u16 own_data1)
00060b   5613     movra   0x13             	MOVRA	r0x1028
00060c   5806     movar   0x6              	MOVAR	STK00
00060d   5614     movra   0x14             	MOVRA	r0x1029
00060e   5805     movar   0x5              	MOVAR	STK01
00060f   5616     movra   0x16             	MOVRA	r0x102A
000610   5804     movar   0x4              	MOVAR	STK02
000611   5615     movra   0x15             	MOVRA	r0x102B
                                           ;;101	MOVAR	r0x1028
                                           ;	.line	668; "MC32F7361.c"	EEPROM_Write_Byte(0, start);
000612   7618     clrr    0x18             	CLRR	r0x102D
000613   5817     movar   0x17             	MOVAR	r0x102C
000614   5605     movra   0x5              	MOVRA	STK01
000615   3c00     movai   0                	MOVAI	0x00
000616   5606     movra   0x6              	MOVRA	STK00
000617   3c00     movai   0                	MOVAI	0x00
000618   86cf     call    0x6cf            	CALL	_EEPROM_Write_Byte
                                           ;;103	MOVAR	r0x1029
                                           ;	.line	669; "MC32F7361.c"	EEPROM_Write_Byte(1, end);
000619   7618     clrr    0x18             	CLRR	r0x102D
                                           ;;102	MOVAR	r0x102C
00061a   5814     movar   0x14             	MOVAR	r0x1029
00061b   5617     movra   0x17             	MOVRA	r0x102C
00061c   5605     movra   0x5              	MOVRA	STK01
00061d   3c00     movai   0                	MOVAI	0x00
00061e   5606     movra   0x6              	MOVRA	STK00
00061f   3c01     movai   0x1              	MOVAI	0x01
000620   86cf     call    0x6cf            	CALL	_EEPROM_Write_Byte
                                           ;	.line	670; "MC32F7361.c"	EEPROM_Write_Byte(2, own_data1);
000621   5815     movar   0x15             	MOVAR	r0x102B
000622   5605     movra   0x5              	MOVRA	STK01
000623   5816     movar   0x16             	MOVAR	r0x102A
000624   5606     movra   0x6              	MOVRA	STK00
000625   3c02     movai   0x2              	MOVAI	0x02
000626   86cf     call    0x6cf            	CALL	_EEPROM_Write_Byte
                                           ;	.line	672; "MC32F7361.c"	EEPROM_Write_Byte(4, 0xA5A5);
000627   3ca5     movai   0xa5             	MOVAI	0xa5
000628   5605     movra   0x5              	MOVRA	STK01
000629   3ca5     movai   0xa5             	MOVAI	0xa5
00062a   5606     movra   0x6              	MOVRA	STK00
00062b   3c04     movai   0x4              	MOVAI	0x04
00062c   86cf     call    0x6cf            	CALL	_EEPROM_Write_Byte
                                           ;	.line	674; "MC32F7361.c"	eeprom_read_byte_index_0 = start;
00062d   5813     movar   0x13             	MOVAR	r0x1028
00062e   563e     movra   0x3e             	MOVRA	_eeprom_read_byte_index_0
                                           ;	.line	675; "MC32F7361.c"	eeprom_read_byte_index_1 = end;
00062f   5814     movar   0x14             	MOVAR	r0x1029
000630   563f     movra   0x3f             	MOVRA	_eeprom_read_byte_index_1
                                           ;	.line	676; "MC32F7361.c"	eeprom_read_byte_index_2 = own_data1;
000631   5815     movar   0x15             	MOVAR	r0x102B
000632   5640     movra   0x40             	MOVRA	_eeprom_read_byte_index_2
                                           ;	.line	679; "MC32F7361.c"	if (power_sta == POWER_STA_ON)
000633   583a     movar   0x3a             	MOVAR	_power_sta
000634   3902     xorai   0x2              	XORAI	0x02
000635   e587     jbset   0x187, 0x2       	JBSET	PFLAG,2
000636   a655     goto    0x655            	GOTO	_00176_DS_
                                           ;	.line	681; "MC32F7361.c"	start_index = start;
000637   5813     movar   0x13             	MOVAR	r0x1028
000638   5638     movra   0x38             	MOVRA	_start_index
                                           ;	.line	682; "MC32F7361.c"	end_index = end;
000639   5814     movar   0x14             	MOVAR	r0x1029
00063a   5639     movra   0x39             	MOVRA	_end_index
                                           ;	.line	691; "MC32F7361.c"	send_cmd_16bit(0x0C00);
00063b   3c00     movai   0                	MOVAI	0x00
00063c   5606     movra   0x6              	MOVRA	STK00
00063d   3c0c     movai   0xc              	MOVAI	0x0c
00063e   8689     call    0x689            	CALL	_send_cmd_16bit
                                           ;	.line	696; "MC32F7361.c"	if (own_data1 != 0xFFFF)
00063f   5815     movar   0x15             	MOVAR	r0x102B
000640   39ff     xorai   0xff             	XORAI	0xff
000641   e587     jbset   0x187, 0x2       	JBSET	PFLAG,2
000642   a648     goto    0x648            	GOTO	_00192_DS_
000643   5816     movar   0x16             	MOVAR	r0x102A
000644   39ff     xorai   0xff             	XORAI	0xff
000645   e587     jbset   0x187, 0x2       	JBSET	PFLAG,2
000646   a648     goto    0x648            	GOTO	_00192_DS_
000647   a650     goto    0x650            	GOTO	_00172_DS_
                                           _00192_DS_
                                           ;	.line	698; "MC32F7361.c"	send_cmd_16bit(own_data1);
000648   5815     movar   0x15             	MOVAR	r0x102B
000649   5606     movra   0x6              	MOVRA	STK00
00064a   5816     movar   0x16             	MOVAR	r0x102A
00064b   8689     call    0x689            	CALL	_send_cmd_16bit
                                           ;	.line	699; "MC32F7361.c"	send_cmd_16bit(own_data1);
00064c   5815     movar   0x15             	MOVAR	r0x102B
00064d   5606     movra   0x6              	MOVRA	STK00
00064e   5816     movar   0x16             	MOVAR	r0x102A
00064f   8689     call    0x689            	CALL	_send_cmd_16bit
                                           _00172_DS_
                                           ;	.line	702; "MC32F7361.c"	current_index = start_index; // 
000650   5838     movar   0x38             	MOVAR	_start_index
000651   5637     movra   0x37             	MOVRA	_current_index
                                           ;	.line	703; "MC32F7361.c"	next_frame_delay = 0;        // 
000652   7630     clrr    0x30             	CLRR	_next_frame_delay
000653   7631     clrr    0x31             	CLRR	(_next_frame_delay + 1)
000654   a65b     goto    0x65b            	GOTO	_00178_DS_
                                           _00176_DS_
                                           ;	.line	705; "MC32F7361.c"	else if (power_sta == POWER_STA_OFF)
000655   3c00     movai   0                	MOVAI	0x00
000656   5c3a     orar    0x3a             	ORAR	_power_sta
000657   e587     jbset   0x187, 0x2       	JBSET	PFLAG,2
000658   a65b     goto    0x65b            	GOTO	_00178_DS_
                                           ;	.line	713; "MC32F7361.c"	power_sta = POWER_STA_PRE_ON;
000659   3c01     movai   0x1              	MOVAI	0x01
00065a   563a     movra   0x3a             	MOVRA	_power_sta
                                           _00178_DS_
                                           ;	.line	715; "MC32F7361.c"	}
00065b   000c     return                   	RETURN	
                                           ; exit point of _key_event_same_deal_ex
                                           
                                           ;***
                                           ;  pBlock Stats: dbName = C
                                           ;***
                                           ;entry:  _Sys_Init	;Function start
                                           ; 2 exit points
                                           ;has an exit
                                           ;; Starting pCode block
                                           _Sys_Init	;Function start
                                           ; 2 exit points
                                           ;	.line	275; "MC32F7361.c"	GIE = 0;
00065c   df88     bclr    0x188, 0x7       	BCLR	_MCRbits,7
                                           ;	.line	278; "MC32F7361.c"	for (FSR0 = 0; FSR0 < 0xff; FSR0++)
00065d   7784     clrr    0x184            	CLRR	_FSR0
                                           ;;unsigned compare: left < lit(0xFF=255), size=1
                                           _00166_DS_
00065e   3cff     movai   0xff             	MOVAI	0xff
00065f   4984     rsubar  0x184            	RSUBAR	_FSR0
000660   f187     jbclr   0x187, 0         	JBCLR	PFLAG,0
000661   a665     goto    0x665            	GOTO	_00164_DS_
                                           ;;genSkipc:3291: created from rifx:013B5EFC
                                           ;	.line	280; "MC32F7361.c"	INDF0 = 0x00;
000662   7780     clrr    0x180            	CLRR	_INDF0
                                           ;	.line	278; "MC32F7361.c"	for (FSR0 = 0; FSR0 < 0xff; FSR0++)
000663   6784     incr    0x184            	INCR	_FSR0
000664   a65e     goto    0x65e            	GOTO	_00166_DS_
                                           _00164_DS_
                                           ;	.line	282; "MC32F7361.c"	FSR0 = 0xFF;
000665   3cff     movai   0xff             	MOVAI	0xff
000666   5784     movra   0x184            	MOVRA	_FSR0
                                           ;	.line	283; "MC32F7361.c"	INDF0 = 0x00;
000667   7780     clrr    0x180            	CLRR	_INDF0
                                           ;	.line	287; "MC32F7361.c"	IOP0 = 0x00;   // io
000668   7790     clrr    0x190            	CLRR	_IOP0
                                           ;	.line	288; "MC32F7361.c"	OEP0 = 0x3F;   // io 1:out  0:in
000669   3c3f     movai   0x3f             	MOVAI	0x3f
00066a   5791     movra   0x191            	MOVRA	_OEP0
                                           ;	.line	289; "MC32F7361.c"	PUP0 = 0x00;   // io   1:enable  0:disable
00066b   7792     clrr    0x192            	CLRR	_PUP0
                                           ;	.line	290; "MC32F7361.c"	PDP0 = 0x00;   // io   1:enable  0:disable
00066c   7793     clrr    0x193            	CLRR	_PDP0
                                           ;	.line	291; "MC32F7361.c"	P0ADCR = 0x00; // io  1:  0:io
00066d   77b6     clrr    0x1b6            	CLRR	_P0ADCR
                                           ;	.line	293; "MC32F7361.c"	IOP1 = 0x00;   // io
00066e   7794     clrr    0x194            	CLRR	_IOP1
                                           ;	.line	294; "MC32F7361.c"	OEP1 = 0xFF;   // io 1:out  0:in
00066f   3cff     movai   0xff             	MOVAI	0xff
000670   5795     movra   0x195            	MOVRA	_OEP1
                                           ;	.line	295; "MC32F7361.c"	PUP1 = 0x00;   // io   1:enable  0:disable
000671   7796     clrr    0x196            	CLRR	_PUP1
                                           ;	.line	296; "MC32F7361.c"	PDP1 = 0x00;   // io   1:enable  0:disable
000672   7797     clrr    0x197            	CLRR	_PDP1
                                           ;	.line	297; "MC32F7361.c"	P1ADCR = 0x00; // io  1:  0:io
000673   77b7     clrr    0x1b7            	CLRR	_P1ADCR
                                           ;	.line	299; "MC32F7361.c"	IOP2 = 0x00; // io
000674   77b8     clrr    0x1b8            	CLRR	_IOP2
                                           ;	.line	300; "MC32F7361.c"	OEP2 = 0x0F; // io 1:out  0:in
000675   3c0f     movai   0xf              	MOVAI	0x0f
000676   57b9     movra   0x1b9            	MOVRA	_OEP2
                                           ;	.line	301; "MC32F7361.c"	PUP2 = 0x00; // io   1:enable  0:disable
000677   77ba     clrr    0x1ba            	CLRR	_PUP2
                                           ;	.line	302; "MC32F7361.c"	PDP2 = 0x00; // io   1:enable  0:disablea
000678   77bb     clrr    0x1bb            	CLRR	_PDP2
                                           ;	.line	304; "MC32F7361.c"	PMOD = 0x00;  // P00P01P13 io
000679   77bc     clrr    0x1bc            	CLRR	_PMOD
                                           ;	.line	305; "MC32F7361.c"	DRVCR = 0x80; // 
00067a   3c80     movai   0x80             	MOVAI	0x80
00067b   578c     movra   0x18c            	MOVRA	_DRVCR
                                           ;	.line	311; "MC32F7361.c"	T2CR = DEF_SET_BIT0 | DEF_SET_BIT1; // CPU,8
00067c   3c03     movai   0x3              	MOVAI	0x03
00067d   57a0     movra   0x1a0            	MOVRA	_T2CR
                                           ;	.line	312; "MC32F7361.c"	T2CNT = 100 - 1;
00067e   3c63     movai   0x63             	MOVAI	0x63
00067f   57a1     movra   0x1a1            	MOVRA	_T2CNT
                                           ;	.line	313; "MC32F7361.c"	T2LOAD = 100 - 1; // 100us
000680   3c63     movai   0x63             	MOVAI	0x63
000681   57a2     movra   0x1a2            	MOVRA	_T2LOAD
                                           ;	.line	314; "MC32F7361.c"	T2EN = 1;
000682   cfa0     bset    0x1a0, 0x7       	BSET	_T2CRbits,7
                                           ;	.line	315; "MC32F7361.c"	T2IE = 1;
000683   cb8a     bset    0x18a, 0x5       	BSET	_INTEbits,5
                                           ;	.line	319; "MC32F7361.c"	LED_4H_PIN = LED_TIM_PIN_OFF;
000684   c794     bset    0x194, 0x3       	BSET	_IOP1bits,3
                                           ;	.line	320; "MC32F7361.c"	LED_6H_PIN = LED_TIM_PIN_OFF;
000685   cf94     bset    0x194, 0x7       	BSET	_IOP1bits,7
                                           ;	.line	321; "MC32F7361.c"	LED_8H_PIN = LED_TIM_PIN_OFF;
000686   c190     bset    0x190, 0         	BSET	_IOP0bits,0
                                           ;	.line	322; "MC32F7361.c"	GIE = 1;
000687   cf88     bset    0x188, 0x7       	BSET	_MCRbits,7
                                           ;	.line	323; "MC32F7361.c"	}
000688   000c     return                   	RETURN	
                                           ; exit point of _Sys_Init
                                           
                                           ;***
                                           ;  pBlock Stats: dbName = C
                                           ;***
                                           ;entry:  _send_cmd_16bit	;Function start
                                           ; 2 exit points
                                           ;has an exit
                                           ;functions called:
                                           ;   _delay_100xus
                                           ;   _delay_ms
                                           ;   _delay_100xus
                                           ;   _delay_100xus
                                           ;   _delay_ms
                                           ;   _delay_100xus
                                           ;   _delay_ms
                                           ;   _delay_100xus
                                           ;   _delay_100xus
                                           ;   _delay_ms
                                           ;7 compiler assigned registers:
                                           ;   r0x1022
                                           ;   STK00
                                           ;   r0x1023
                                           ;   r0x1024
                                           ;   r0x1025
                                           ;   r0x1026
                                           ;   r0x1027
                                           ;; Starting pCode block
                                           _send_cmd_16bit	;Function start
                                           ; 2 exit points
                                           ;	.line	140; "MC32F7361.c"	void send_cmd_16bit(const u16 data)
000689   560e     movra   0xe              	MOVRA	r0x1022
00068a   5806     movar   0x6              	MOVAR	STK00
00068b   560d     movra   0xd              	MOVRA	r0x1023
                                           ;	.line	149; "MC32F7361.c"	for (i = 0; i < 16; i++)
00068c   760f     clrr    0xf              	CLRR	r0x1024
                                           _00141_DS_
                                           ;	.line	151; "MC32F7361.c"	LED_CTL_PIN = 0;
00068d   d990     bclr    0x190, 0x4       	BCLR	_IOP0bits,4
                                           ;	.line	152; "MC32F7361.c"	delay_100us();
00068e   3c01     movai   0x1              	MOVAI	0x01
00068f   86e6     call    0x6e6            	CALL	_delay_100xus
                                           ;	.line	153; "MC32F7361.c"	LED_CTL_PIN = 1;
000690   c990     bset    0x190, 0x4       	BSET	_IOP0bits,4
                                           ;	.line	154; "MC32F7361.c"	if ((data >> (15 - i)) & 0x01) // 1
000691   580f     movar   0xf              	MOVAR	r0x1024
000692   3a0f     isubai  0xf              	ISUBAI	0x0f
000693   5610     movra   0x10             	MOVRA	r0x1025
000694   580e     movar   0xe              	MOVAR	r0x1022
000695   5612     movra   0x12             	MOVRA	r0x1026
000696   580d     movar   0xd              	MOVAR	r0x1023
000697   5611     movra   0x11             	MOVRA	r0x1027
000698   5810     movar   0x10             	MOVAR	r0x1025
000699   3a00     isubai  0                	ISUBAI	0x00
00069a   f587     jbclr   0x187, 0x2       	JBCLR	PFLAG,2
00069b   a6a1     goto    0x6a1            	GOTO	_00159_DS_
                                           _00158_DS_
00069c   4e12     rrr     0x12             	RRR	r0x1026
00069d   4e11     rrr     0x11             	RRR	r0x1027
00069e   3f01     addai   0x1              	ADDAI	0x01
00069f   e187     jbset   0x187, 0         	JBSET	PFLAG,0
0006a0   a69c     goto    0x69c            	GOTO	_00158_DS_
                                           _00159_DS_
0006a1   e011     jbset   0x11, 0          	JBSET	r0x1027,0
0006a2   a6a8     goto    0x6a8            	GOTO	_00138_DS_
                                           ;	.line	156; "MC32F7361.c"	delay_ms(3);
0006a3   3c03     movai   0x3              	MOVAI	0x03
0006a4   5606     movra   0x6              	MOVRA	STK00
0006a5   3c00     movai   0                	MOVAI	0x00
0006a6   86f7     call    0x6f7            	CALL	_delay_ms
0006a7   a6aa     goto    0x6aa            	GOTO	_00142_DS_
                                           _00138_DS_
                                           ;	.line	160; "MC32F7361.c"	delay_1_4ms();
0006a8   3c0e     movai   0xe              	MOVAI	0x0e
0006a9   86e6     call    0x6e6            	CALL	_delay_100xus
                                           _00142_DS_
                                           ;	.line	149; "MC32F7361.c"	for (i = 0; i < 16; i++)
0006aa   660f     incr    0xf              	INCR	r0x1024
                                           ;;unsigned compare: left < lit(0x10=16), size=1
0006ab   3c10     movai   0x10             	MOVAI	0x10
0006ac   480f     rsubar  0xf              	RSUBAR	r0x1024
0006ad   e187     jbset   0x187, 0         	JBSET	PFLAG,0
0006ae   a68d     goto    0x68d            	GOTO	_00141_DS_
                                           ;;genSkipc:3291: created from rifx:013B5EFC
                                           ;	.line	164; "MC32F7361.c"	LED_CTL_PIN = 0;
0006af   d990     bclr    0x190, 0x4       	BCLR	_IOP0bits,4
                                           ;	.line	165; "MC32F7361.c"	delay_100us();
0006b0   3c01     movai   0x1              	MOVAI	0x01
0006b1   86e6     call    0x6e6            	CALL	_delay_100xus
                                           ;	.line	166; "MC32F7361.c"	LED_CTL_PIN = 1;
0006b2   c990     bset    0x190, 0x4       	BSET	_IOP0bits,4
                                           ;	.line	167; "MC32F7361.c"	delay_ms(33);
0006b3   3c21     movai   0x21             	MOVAI	0x21
0006b4   5606     movra   0x6              	MOVRA	STK00
0006b5   3c00     movai   0                	MOVAI	0x00
0006b6   86f7     call    0x6f7            	CALL	_delay_ms
                                           ;	.line	169; "MC32F7361.c"	}
0006b7   000c     return                   	RETURN	
                                           ; exit point of _send_cmd_16bit
                                           
                                           ;***
                                           ;  pBlock Stats: dbName = C
                                           ;***
                                           ;entry:  _EEPROM_Read_Byte	;Function start
                                           ; 2 exit points
                                           ;has an exit
                                           ;5 compiler assigned registers:
                                           ;   r0x101C
                                           ;   r0x101D
                                           ;   r0x101E
                                           ;   r0x101F
                                           ;   STK00
                                           ;; Starting pCode block
                                           _EEPROM_Read_Byte	;Function start
                                           ; 2 exit points
                                           ;	.line	110; "MC32F7361.c"	uint16_t EEPROM_Read_Byte(u8 addr)
0006b8   57c5     movra   0x1c5            	MOVRA	_EEAR
                                           ;	.line	114; "MC32F7361.c"	EECR = 0x02; //  EE 
0006b9   3c02     movai   0x2              	MOVAI	0x02
0006ba   57c3     movra   0x1c3            	MOVRA	_EECR
                                           ;	.line	115; "MC32F7361.c"	Nop();
0006bb   0000     nop                      	nop	
                                           ;	.line	116; "MC32F7361.c"	Nop();
0006bc   0000     nop                      	nop	
                                           _00132_DS_
                                           ;	.line	117; "MC32F7361.c"	while (EEREAD) //  EE 
0006bd   f3c3     jbclr   0x1c3, 0x1       	JBCLR	_EECRbits,1
0006be   a6bd     goto    0x6bd            	GOTO	_00132_DS_
                                           ;	.line	121; "MC32F7361.c"	EEDR = (EEDRH << 8) | EEDRL;
0006bf   59c6     movar   0x1c6            	MOVAR	_EEDRH
0006c0   5609     movra   0x9              	MOVRA	r0x101E
0006c1   5608     movra   0x8              	MOVRA	r0x101C
0006c2   7607     clrr    0x7              	CLRR	r0x101D
                                           ;;100	MOVAR	r0x101C
0006c3   760a     clrr    0xa              	CLRR	r0x101F
0006c4   59c7     movar   0x1c7            	MOVAR	_EEDRL
0006c5   5608     movra   0x8              	MOVRA	r0x101C
0006c6   7607     clrr    0x7              	CLRR	r0x101D
0006c7   5808     movar   0x8              	MOVAR	r0x101C
0006c8   5e0a     orra    0xa              	ORRA	r0x101F
0006c9   3c00     movai   0                	MOVAI	0x00
0006ca   5e09     orra    0x9              	ORRA	r0x101E
                                           ;	.line	122; "MC32F7361.c"	return EEDR;
0006cb   580a     movar   0xa              	MOVAR	r0x101F
0006cc   5606     movra   0x6              	MOVRA	STK00
0006cd   5809     movar   0x9              	MOVAR	r0x101E
                                           ;	.line	123; "MC32F7361.c"	}
0006ce   000c     return                   	RETURN	
                                           ; exit point of _EEPROM_Read_Byte
                                           
                                           ;***
                                           ;  pBlock Stats: dbName = C
                                           ;***
                                           ;entry:  _EEPROM_Write_Byte	;Function start
                                           ; 2 exit points
                                           ;has an exit
                                           ;6 compiler assigned registers:
                                           ;   STK00
                                           ;   r0x101C
                                           ;   STK01
                                           ;   r0x101D
                                           ;   r0x101E
                                           ;   r0x101F
                                           ;; Starting pCode block
                                           _EEPROM_Write_Byte	;Function start
                                           ; 2 exit points
                                           ;	.line	86; "MC32F7361.c"	void EEPROM_Write_Byte(uint8_t addr, uint16_t data)
0006cf   57c5     movra   0x1c5            	MOVRA	_EEAR
0006d0   5806     movar   0x6              	MOVAR	STK00
0006d1   5609     movra   0x9              	MOVRA	r0x101E
                                           ;;1	MOVRA	r0x101C
0006d2   5805     movar   0x5              	MOVAR	STK01
0006d3   5607     movra   0x7              	MOVRA	r0x101D
                                           ;	.line	88; "MC32F7361.c"	HFEN = 1;
0006d4   c1ae     bset    0x1ae, 0         	BSET	_OSCMRbits,0
                                           ;;99	MOVAR	r0x101C
                                           ;;1	CLRR	r0x101F
                                           ;	.line	90; "MC32F7361.c"	EEDRH = (data >> 8) & 0xff;
0006d5   5809     movar   0x9              	MOVAR	r0x101E
0006d6   57c6     movra   0x1c6            	MOVRA	_EEDRH
                                           ;	.line	91; "MC32F7361.c"	EEDRL = data & 0xff;
0006d7   5807     movar   0x7              	MOVAR	r0x101D
0006d8   57c7     movra   0x1c7            	MOVRA	_EEDRL
                                           ;	.line	92; "MC32F7361.c"	GIE = 0;
0006d9   df88     bclr    0x188, 0x7       	BCLR	_MCRbits,7
                                           ;	.line	93; "MC32F7361.c"	EEPR = 0x5A;
0006da   3c5a     movai   0x5a             	MOVAI	0x5a
0006db   57c4     movra   0x1c4            	MOVRA	_EEPR
                                           ;	.line	94; "MC32F7361.c"	EEPR = 0xA5; // 
0006dc   3ca5     movai   0xa5             	MOVAI	0xa5
0006dd   57c4     movra   0x1c4            	MOVRA	_EEPR
                                           ;	.line	95; "MC32F7361.c"	EECR = 0x01; // EEPROM  
0006de   3c01     movai   0x1              	MOVAI	0x01
0006df   57c3     movra   0x1c3            	MOVRA	_EECR
                                           ;	.line	96; "MC32F7361.c"	Nop();
0006e0   0000     nop                      	nop	
                                           ;	.line	97; "MC32F7361.c"	Nop();
0006e1   0000     nop                      	nop	
                                           _00127_DS_
                                           ;	.line	98; "MC32F7361.c"	while (EEWRITE) //  EE 
0006e2   f1c3     jbclr   0x1c3, 0         	JBCLR	_EECRbits,0
0006e3   a6e2     goto    0x6e2            	GOTO	_00127_DS_
                                           ;	.line	102; "MC32F7361.c"	GIE = 1;
0006e4   cf88     bset    0x188, 0x7       	BSET	_MCRbits,7
                                           ;	.line	103; "MC32F7361.c"	}
0006e5   000c     return                   	RETURN	
                                           ; exit point of _EEPROM_Write_Byte
                                           
                                           ;***
                                           ;  pBlock Stats: dbName = C
                                           ;***
                                           ;entry:  _delay_100xus	;Function start
                                           ; 2 exit points
                                           ;has an exit
                                           ;2 compiler assigned registers:
                                           ;   r0x101C
                                           ;   r0x101D
                                           ;; Starting pCode block
                                           _delay_100xus	;Function start
                                           ; 2 exit points
                                           ;	.line	52; "MC32F7361.c"	void delay_100xus(u8 i)
0006e6   5608     movra   0x8              	MOVRA	r0x101C
                                           _00119_DS_
                                           ;	.line	55; "MC32F7361.c"	while (i)
0006e7   3c00     movai   0                	MOVAI	0x00
0006e8   5c08     orar    0x8              	ORAR	r0x101C
0006e9   f587     jbclr   0x187, 0x2       	JBCLR	PFLAG,2
0006ea   a6f6     goto    0x6f6            	GOTO	_00122_DS_
                                           ;	.line	58; "MC32F7361.c"	while (j)
0006eb   3c4a     movai   0x4a             	MOVAI	0x4a
0006ec   5607     movra   0x7              	MOVRA	r0x101D
                                           _00116_DS_
0006ed   3c00     movai   0                	MOVAI	0x00
0006ee   5c07     orar    0x7              	ORAR	r0x101D
0006ef   f587     jbclr   0x187, 0x2       	JBCLR	PFLAG,2
0006f0   a6f4     goto    0x6f4            	GOTO	_00118_DS_
                                           ;	.line	60; "MC32F7361.c"	Nop();
0006f1   0000     nop                      	nop	
                                           ;	.line	61; "MC32F7361.c"	j--;
0006f2   6e07     decr    0x7              	DECR	r0x101D
0006f3   a6ed     goto    0x6ed            	GOTO	_00116_DS_
                                           _00118_DS_
                                           ;	.line	63; "MC32F7361.c"	i--;
0006f4   6e08     decr    0x8              	DECR	r0x101C
0006f5   a6e7     goto    0x6e7            	GOTO	_00119_DS_
                                           _00122_DS_
                                           ;	.line	65; "MC32F7361.c"	}
0006f6   000c     return                   	RETURN	
                                           ; exit point of _delay_100xus
                                           
                                           ;***
                                           ;  pBlock Stats: dbName = C
                                           ;***
                                           ;entry:  _delay_ms	;Function start
                                           ; 2 exit points
                                           ;has an exit
                                           ;7 compiler assigned registers:
                                           ;   r0x101C
                                           ;   STK00
                                           ;   r0x101D
                                           ;   r0x101E
                                           ;   r0x101F
                                           ;   r0x1020
                                           ;   r0x1021
                                           ;; Starting pCode block
                                           _delay_ms	;Function start
                                           ; 2 exit points
                                           ;	.line	260; "user.h"	void delay_ms(u16 xms)
0006f7   5608     movra   0x8              	MOVRA	r0x101C
0006f8   5806     movar   0x6              	MOVAR	STK00
0006f9   5607     movra   0x7              	MOVRA	r0x101D
                                           _00108_DS_
                                           ;	.line	262; "user.h"	while (xms)
0006fa   5807     movar   0x7              	MOVAR	r0x101D
0006fb   5c08     orar    0x8              	ORAR	r0x101C
0006fc   f587     jbclr   0x187, 0x2       	JBCLR	PFLAG,2
0006fd   a716     goto    0x716            	GOTO	_00111_DS_
                                           ;	.line	265; "user.h"	while (i--)
0006fe   3c05     movai   0x5              	MOVAI	0x05
0006ff   5609     movra   0x9              	MOVRA	r0x101E
000700   3c02     movai   0x2              	MOVAI	0x02
000701   560a     movra   0xa              	MOVRA	r0x101F
                                           _00105_DS_
000702   5809     movar   0x9              	MOVAR	r0x101E
000703   560b     movra   0xb              	MOVRA	r0x1020
000704   580a     movar   0xa              	MOVAR	r0x101F
000705   560c     movra   0xc              	MOVRA	r0x1021
000706   3cff     movai   0xff             	MOVAI	0xff
000707   7e09     addra   0x9              	ADDRA	r0x101E
000708   e187     jbset   0x187, 0         	JBSET	PFLAG,0
000709   6e0a     decr    0xa              	DECR	r0x101F
00070a   580b     movar   0xb              	MOVAR	r0x1020
00070b   5c0c     orar    0xc              	ORAR	r0x1021
00070c   f587     jbclr   0x187, 0x2       	JBCLR	PFLAG,2
00070d   a710     goto    0x710            	GOTO	_00107_DS_
                                           ;	.line	267; "user.h"	Nop();
00070e   0000     nop                      	nop	
00070f   a702     goto    0x702            	GOTO	_00105_DS_
                                           _00107_DS_
                                           ;	.line	269; "user.h"	xms--; //  --while()
000710   3cff     movai   0xff             	MOVAI	0xff
000711   7e07     addra   0x7              	ADDRA	r0x101D
000712   e187     jbset   0x187, 0         	JBSET	PFLAG,0
000713   6e08     decr    0x8              	DECR	r0x101C
                                           ;	.line	273; "user.h"	__endasm;
                                           	;
000714   000e     clrwdt                   	clrwdt;
                                           	
000715   a6fa     goto    0x6fa            	GOTO	_00108_DS_
                                           _00111_DS_
                                           ;	.line	275; "user.h"	}
000716   000c     return                   	RETURN	
                                           ; exit point of _delay_ms
                                           
                                           
                                           ;	code size estimation:
                                           ;	 1793+    0 =  1793 instructions ( 3586 byte)
                                           
                                           	end
                                           ;--------------------------------------------------------
                                           ; File Created by SN-SDCC : SinoMCU ANSI-C Compiler
                                           ; Version 2.0.0 (Dec 11 2019) (MINGW32)
                                           ; This file was generated Tue Apr 01 17:11:39 2025
                                           ;--------------------------------------------------------
                                           ; MC32 port for the RISC core
                                           ;--------------------------------------------------------
                                           ;	.file	"MC32F7361.c"
                                           	list	p=7361
                                           	radix dec
                                           	include "7361.inc"
                                           ;--------------------------------------------------------
                                           ; external declarations
                                           ;--------------------------------------------------------
                                           	extern	_INDF0bits
                                           	extern	_INDF1bits
                                           	extern	_INDF2bits
                                           	extern	_HIBYTEbits
                                           	extern	_FSR0bits
                                           	extern	_FSR1bits
                                           	extern	_PCLbits
                                           	extern	_PFLAGbits
                                           	extern	_MCRbits
                                           	extern	_INDF3bits
                                           	extern	_INTEbits
                                           	extern	_INTFbits
                                           	extern	_DRVCRbits
                                           	extern	_P0KBCRbits
                                           	extern	_P1KBCRbits
                                           	extern	_P2KBCRbits
                                           	extern	_IOP0bits
                                           	extern	_OEP0bits
                                           	extern	_PUP0bits
                                           	extern	_PDP0bits
                                           	extern	_IOP1bits
                                           	extern	_OEP1bits
                                           	extern	_PUP1bits
                                           	extern	_PDP1bits
                                           	extern	_T0CRbits
                                           	extern	_T0CNTbits
                                           	extern	_T0LOADbits
                                           	extern	_T0DATAbits
                                           	extern	_T1CRbits
                                           	extern	_T1CNTbits
                                           	extern	_T1LOADbits
                                           	extern	_T1DATAbits
                                           	extern	_T2CRbits
                                           	extern	_T2CNTbits
                                           	extern	_T2LOADbits
                                           	extern	_T2DATAbits
                                           	extern	_T3CRbits
                                           	extern	_T3CNTbits
                                           	extern	_T3LOADbits
                                           	extern	_PWM0DRbits
                                           	extern	_PWM1DRbits
                                           	extern	_PWM2DRbits
                                           	extern	_PWMCR0bits
                                           	extern	_PWMCR1bits
                                           	extern	_OSCMRbits
                                           	extern	_LVDCRbits
                                           	extern	_ADCR0bits
                                           	extern	_ADCR1bits
                                           	extern	_ADCR2bits
                                           	extern	_OSADJCRbits
                                           	extern	_ADRHbits
                                           	extern	_ADRLbits
                                           	extern	_P0ADCRbits
                                           	extern	_P1ADCRbits
                                           	extern	_IOP2bits
                                           	extern	_OEP2bits
                                           	extern	_PUP2bits
                                           	extern	_PDP2bits
                                           	extern	_PMODbits
                                           	extern	_PWMCR3bits
                                           	extern	_PWMCR2bits
                                           	extern	_PFRCCRbits
                                           	extern	_PFRCCALbits
                                           	extern	_EECRbits
                                           	extern	_EEPRbits
                                           	extern	_EEARbits
                                           	extern	_EEDRHbits
                                           	extern	_EEDRLbits
                                           	extern	_DBGCRbits
                                           	extern	_DBGPRbits
                                           	extern	_HIRCCALbits
                                           	extern	_INDF0
                                           	extern	_INDF1
                                           	extern	_INDF2
                                           	extern	_HIBYTE
                                           	extern	_FSR0
                                           	extern	_FSR1
                                           	extern	_PCL
                                           	extern	_PFLAG
                                           	extern	_MCR
                                           	extern	_INDF3
                                           	extern	_INTE
                                           	extern	_INTF
                                           	extern	_DRVCR
                                           	extern	_P0KBCR
                                           	extern	_P1KBCR
                                           	extern	_P2KBCR
                                           	extern	_IOP0
                                           	extern	_OEP0
                                           	extern	_PUP0
                                           	extern	_PDP0
                                           	extern	_IOP1
                                           	extern	_OEP1
                                           	extern	_PUP1
                                           	extern	_PDP1
                                           	extern	_T0CR
                                           	extern	_T0CNT
                                           	extern	_T0LOAD
                                           	extern	_T0DATA
                                           	extern	_T1CR
                                           	extern	_T1CNT
                                           	extern	_T1LOAD
                                           	extern	_T1DATA
                                           	extern	_T2CR
                                           	extern	_T2CNT
                                           	extern	_T2LOAD
                                           	extern	_T2DATA
                                           	extern	_T3CR
                                           	extern	_T3CNT
                                           	extern	_T3LOAD
                                           	extern	_PWM0DR
                                           	extern	_PWM1DR
                                           	extern	_PWM2DR
                                           	extern	_PWMCR0
                                           	extern	_PWMCR1
                                           	extern	_OSCMR
                                           	extern	_LVDCR
                                           	extern	_ADCR0
                                           	extern	_ADCR1
                                           	extern	_ADCR2
                                           	extern	_OSADJCR
                                           	extern	_ADRH
                                           	extern	_ADRL
                                           	extern	_P0ADCR
                                           	extern	_P1ADCR
                                           	extern	_IOP2
                                           	extern	_OEP2
                                           	extern	_PUP2
                                           	extern	_PDP2
                                           	extern	_PMOD
                                           	extern	_PWMCR3
                                           	extern	_PWMCR2
                                           	extern	_PFRCCR
                                           	extern	_PFRCCAL
                                           	extern	_EECR
                                           	extern	_EEPR
                                           	extern	_EEAR
                                           	extern	_EEDRH
                                           	extern	_EEDRL
                                           	extern	_DBGCR
                                           	extern	_DBGPR
                                           	extern	_HIRCCAL
                                           	extern	__gptrget1
                                           	extern	__gptrget2
                                           ;--------------------------------------------------------
                                           ; global declarations
                                           ;--------------------------------------------------------
                                           	global	_delay_ms
                                           	global	_delay_100xus
                                           	global	_EEPROM_Write_Byte
                                           	global	_EEPROM_Read_Byte
                                           	global	_send_cmd_16bit
                                           	global	_Sys_Init
                                           	global	_key_event_same_deal_ex
                                           	global	_key_event_set_timer
                                           	global	_main
                                           	global	_int_isr
                                           	global	_abuf
                                           	global	_statusbuf
                                           	global	_flag1
                                           	global	_ir_data
                                           	global	_ir_type
                                           	global	_current_index
                                           	global	_start_index
                                           	global	_end_index
                                           	global	_next_frame_delay
                                           	global	_power_sta
                                           	global	_current_speed
                                           	global	_current_static
                                           	global	_cur_mechanical_key_sta
                                           	global	_timer_count
                                           	global	_eeprom_read_byte_index_0
                                           	global	_eeprom_read_byte_index_1
                                           	global	_eeprom_read_byte_index_2
                                           	global	_eeprom_read_byte_index_3
                                           	global	_main_table
                                           	global	_section_1_speed_table
                                           	global	_section_1_delay_table
                                           	global	_section_2_delay_table
                                           	global	_section_3_speed_table
                                           	global	_section_5_speed_table
                                           	global	_section_5_delay_table
                                           	global	_section_7_speed_table
                                           	global	_section_7_delay_table
                                           
                                           	global STK06
                                           	global STK05
                                           	global STK04
                                           	global STK03
                                           	global STK02
                                           	global STK01
                                           	global STK00
                                           
                                           sharebank udata_ovr 0x0000
                                           STK06	res 1
                                           STK05	res 1
                                           STK04	res 1
                                           STK03	res 1
                                           STK02	res 1
                                           STK01	res 1
                                           STK00	res 1
                                           
                                           ;--------------------------------------------------------
                                           ; global definitions
                                           ;--------------------------------------------------------
                                           UD_MC32F7361_0	udata
                                           _abuf	res	1
                                           
                                           UD_MC32F7361_1	udata
                                           _statusbuf	res	1
                                           
                                           UD_MC32F7361_2	udata
                                           _flag1	res	1
                                           
                                           UD_MC32F7361_3	udata
                                           _ir_data	res	1
                                           
                                           UD_MC32F7361_4	udata
                                           _ir_type	res	1
                                           
                                           UD_MC32F7361_5	udata
                                           _current_index	res	1
                                           
                                           UD_MC32F7361_6	udata
                                           _start_index	res	1
                                           
                                           UD_MC32F7361_7	udata
                                           _end_index	res	1
                                           
                                           UD_MC32F7361_8	udata
                                           _next_frame_delay	res	2
                                           
                                           UD_MC32F7361_9	udata
                                           _power_sta	res	1
                                           
                                           UD_MC32F7361_10	udata
                                           _current_speed	res	1
                                           
                                           UD_MC32F7361_11	udata
                                           _current_static	res	1
                                           
                                           UD_MC32F7361_12	udata
                                           _cur_mechanical_key_sta	res	1
                                           
                                           UD_MC32F7361_13	udata
                                           _eeprom_read_byte_index_0	res	1
                                           
                                           UD_MC32F7361_14	udata
                                           _eeprom_read_byte_index_1	res	1
                                           
                                           UD_MC32F7361_15	udata
                                           _eeprom_read_byte_index_2	res	1
                                           
                                           UD_MC32F7361_16	udata
                                           _eeprom_read_byte_index_3	res	1
                                           
                                           ;--------------------------------------------------------
                                           ; absolute symbol definitions
                                           ;--------------------------------------------------------
                                           ;--------------------------------------------------------
                                           ; compiler-defined variables
                                           ;--------------------------------------------------------
                                           UDL_MC32F7361_0	udata
                                           r0x101D	res	1
                                           r0x101C	res	1
                                           r0x101E	res	1
                                           r0x101F	res	1
                                           r0x1020	res	1
                                           r0x1021	res	1
                                           r0x1023	res	1
                                           r0x1022	res	1
                                           r0x1024	res	1
                                           r0x1025	res	1
                                           r0x1027	res	1
                                           r0x1026	res	1
                                           r0x1028	res	1
                                           r0x1029	res	1
                                           r0x102B	res	1
                                           r0x102A	res	1
                                           r0x102C	res	1
                                           r0x102D	res	1
                                           r0x102E	res	1
                                           r0x1031	res	1
                                           r0x1030	res	1
                                           r0x1032	res	1
                                           r0x1033	res	1
                                           r0x1034	res	1
                                           r0x1035	res	1
                                           r0x1036	res	1
                                           r0x1037	res	1
                                           r0x1038	res	1
                                           _int_isr_ir_level_cnt_196608_60	res	2
                                           _int_isr___ir_data_196608_60	res	4
                                           _int_isr_key_press_cnt_196608_73	res	2
                                           _int_isr__100us_count_131073_79	res	1
                                           ;--------------------------------------------------------
                                           ; initialized data
                                           ;--------------------------------------------------------
                                           
                                           ID_MC32F7361_0	idata
                                           _timer_count
                                           	db	0x00, 0x00, 0x00, 0x00
                                           
                                           
                                           ID_MC32F7361_1	code
                                           _main_table
                                           	dw 0x11
                                           	dw 0x22
                                           	dw 0x44
                                           	dw 0x33
                                           	dw 0x55
                                           	dw 0x66
                                           	dw 0x77
                                           	dw 0x88
                                           	dw 0xaa
                                           	dw 0xcc
                                           	dw 0x11
                                           	dw 0x22
                                           	dw 0x44
                                           	dw 0x33
                                           	dw 0x55
                                           	dw 0x66
                                           	dw 0x77
                                           	dw 0x88
                                           	dw 0xaa
                                           	dw 0xcc
                                           	dw 0x21
                                           	dw 0x74
                                           	dw 0x53
                                           	dw 0x41
                                           	dw 0x24
                                           	dw 0x45
                                           	dw 0xe0
                                           	dw 0xa0
                                           	dw 0xc0
                                           	dw 0xee
                                           	dw 0xee
                                           	dw 0xee
                                           	dw 0xee
                                           	dw 0xee
                                           	dw 0xee
                                           	dw 0xee
                                           	dw 0xee
                                           	dw 0xee
                                           	dw 0xee
                                           	dw 0xaa
                                           	dw 0xaa
                                           	dw 0xaa
                                           	dw 0xaa
                                           	dw 0xaa
                                           	dw 0xaa
                                           	dw 0xaa
                                           	dw 0xaa
                                           	dw 0xaa
                                           	dw 0xaa
                                           	dw 0xcc
                                           	dw 0xcc
                                           	dw 0xcc
                                           	dw 0xcc
                                           	dw 0xcc
                                           	dw 0xcc
                                           	dw 0xcc
                                           	dw 0xcc
                                           	dw 0xcc
                                           	dw 0xcc
                                           	dw 0x17
                                           	dw 0x27
                                           	dw 0x47
                                           	dw 0x37
                                           	dw 0x57
                                           	dw 0x67
                                           	dw 0x77
                                           	dw 0x87
                                           	dw 0xa7
                                           	dw 0xc7
                                           	dw 0x11
                                           	dw 0x12
                                           	dw 0x22
                                           	dw 0x24
                                           	dw 0x44
                                           	dw 0x14
                                           	dw 0x11
                                           	dw 0x22
                                           	dw 0x44
                                           	dw 0x77
                                           	dw 0x33
                                           	dw 0x66
                                           	dw 0x55
                                           	dw 0x33
                                           	dw 0x66
                                           	dw 0x55
                                           	dw 0x33
                                           	dw 0x66
                                           	dw 0x55
                                           	dw 0x33
                                           	dw 0x66
                                           	dw 0x55
                                           	dw 0xee
                                           	dw 0xaa
                                           	dw 0xcc
                                           
                                           
                                           ID_MC32F7361_2	code
                                           _section_1_speed_table
                                           	dw 0x0f
                                           	dw 0x0e
                                           	dw 0x0d
                                           	dw 0x0c
                                           
                                           
                                           ID_MC32F7361_3	code
                                           _section_1_delay_table
                                           	dw 0x10
                                           	dw 0x27
                                           	dw 0x7e
                                           	dw 0x1d
                                           	dw 0x23
                                           	dw 0x14
                                           	dw 0xc8
                                           	dw 0x0a
                                           
                                           
                                           ID_MC32F7361_4	code
                                           _section_2_delay_table
                                           	dw 0xa8
                                           	dw 0x07
                                           	dw 0xc4
                                           	dw 0x03
                                           	dw 0xd1
                                           	dw 0x01
                                           	dw 0xa5
                                           	dw 0x00
                                           
                                           
                                           ID_MC32F7361_5	code
                                           _section_3_speed_table
                                           	dw 0x08
                                           	dw 0x0a
                                           	dw 0x09
                                           	dw 0x0b
                                           
                                           
                                           ID_MC32F7361_6	code
                                           _section_5_speed_table
                                           	dw 0x00
                                           	dw 0x00
                                           	dw 0x00
                                           	dw 0x00
                                           
                                           
                                           ID_MC32F7361_7	code
                                           _section_5_delay_table
                                           	dw 0xa8
                                           	dw 0x07
                                           	dw 0xc4
                                           	dw 0x03
                                           	dw 0xd1
                                           	dw 0x01
                                           	dw 0xa5
                                           	dw 0x00
                                           
                                           
                                           ID_MC32F7361_8	code
                                           _section_7_speed_table
                                           	dw 0x87
                                           	dw 0x86
                                           	dw 0x85
                                           	dw 0x84
                                           
                                           
                                           ID_MC32F7361_9	code
                                           _section_7_delay_table
                                           	dw 0xb5
                                           	dw 0x15
                                           	dw 0xd0
                                           	dw 0x11
                                           	dw 0x20
                                           	dw 0x0d
                                           	dw 0xd0
                                           	dw 0x07
                                           
                                           
                                           ;@Allocation info for local variables in function 'delay_ms'
                                           ;@delay_ms delay_ms                  Allocated to registers ;size:2
                                           ;@delay_ms INDF0bits                 Allocated to registers ;size:1
                                           ;@delay_ms INDF1bits                 Allocated to registers ;size:1
                                           ;@delay_ms INDF2bits                 Allocated to registers ;size:1
                                           ;@delay_ms HIBYTEbits                Allocated to registers ;size:1
                                           ;@delay_ms FSR0bits                  Allocated to registers ;size:1
                                           ;@delay_ms FSR1bits                  Allocated to registers ;size:1
                                           ;@delay_ms PCLbits                   Allocated to registers ;size:1
                                           ;@delay_ms PFLAGbits                 Allocated to registers ;size:1
                                           ;@delay_ms MCRbits                   Allocated to registers ;size:1
                                           ;@delay_ms INDF3bits                 Allocated to registers ;size:1
                                           ;@delay_ms INTEbits                  Allocated to registers ;size:1
                                           ;@delay_ms INTFbits                  Allocated to registers ;size:1
                                           ;@delay_ms DRVCRbits                 Allocated to registers ;size:1
                                           ;@delay_ms P0KBCRbits                Allocated to registers ;size:1
                                           ;@delay_ms P1KBCRbits                Allocated to registers ;size:1
                                           ;@delay_ms P2KBCRbits                Allocated to registers ;size:1
                                           ;@delay_ms IOP0bits                  Allocated to registers ;size:1
                                           ;@delay_ms OEP0bits                  Allocated to registers ;size:1
                                           ;@delay_ms PUP0bits                  Allocated to registers ;size:1
                                           ;@delay_ms PDP0bits                  Allocated to registers ;size:1
                                           ;@delay_ms IOP1bits                  Allocated to registers ;size:1
                                           ;@delay_ms OEP1bits                  Allocated to registers ;size:1
                                           ;@delay_ms PUP1bits                  Allocated to registers ;size:1
                                           ;@delay_ms PDP1bits                  Allocated to registers ;size:1
                                           ;@delay_ms T0CRbits                  Allocated to registers ;size:1
                                           ;@delay_ms T0CNTbits                 Allocated to registers ;size:1
                                           ;@delay_ms T0LOADbits                Allocated to registers ;size:1
                                           ;@delay_ms T0DATAbits                Allocated to registers ;size:1
                                           ;@delay_ms T1CRbits                  Allocated to registers ;size:1
                                           ;@delay_ms T1CNTbits                 Allocated to registers ;size:1
                                           ;@delay_ms T1LOADbits                Allocated to registers ;size:1
                                           ;@delay_ms T1DATAbits                Allocated to registers ;size:1
                                           ;@delay_ms T2CRbits                  Allocated to registers ;size:1
                                           ;@delay_ms T2CNTbits                 Allocated to registers ;size:1
                                           ;@delay_ms T2LOADbits                Allocated to registers ;size:1
                                           ;@delay_ms T2DATAbits                Allocated to registers ;size:1
                                           ;@delay_ms T3CRbits                  Allocated to registers ;size:1
                                           ;@delay_ms T3CNTbits                 Allocated to registers ;size:1
                                           ;@delay_ms T3LOADbits                Allocated to registers ;size:1
                                           ;@delay_ms PWM0DRbits                Allocated to registers ;size:1
                                           ;@delay_ms PWM1DRbits                Allocated to registers ;size:1
                                           ;@delay_ms PWM2DRbits                Allocated to registers ;size:1
                                           ;@delay_ms PWMCR0bits                Allocated to registers ;size:1
                                           ;@delay_ms PWMCR1bits                Allocated to registers ;size:1
                                           ;@delay_ms OSCMRbits                 Allocated to registers ;size:1
                                           ;@delay_ms LVDCRbits                 Allocated to registers ;size:1
                                           ;@delay_ms ADCR0bits                 Allocated to registers ;size:1
                                           ;@delay_ms ADCR1bits                 Allocated to registers ;size:1
                                           ;@delay_ms ADCR2bits                 Allocated to registers ;size:1
                                           ;@delay_ms OSADJCRbits               Allocated to registers ;size:1
                                           ;@delay_ms ADRHbits                  Allocated to registers ;size:1
                                           ;@delay_ms ADRLbits                  Allocated to registers ;size:1
                                           ;@delay_ms P0ADCRbits                Allocated to registers ;size:1
                                           ;@delay_ms P1ADCRbits                Allocated to registers ;size:1
                                           ;@delay_ms IOP2bits                  Allocated to registers ;size:1
                                           ;@delay_ms OEP2bits                  Allocated to registers ;size:1
                                           ;@delay_ms PUP2bits                  Allocated to registers ;size:1
                                           ;@delay_ms PDP2bits                  Allocated to registers ;size:1
                                           ;@delay_ms PMODbits                  Allocated to registers ;size:1
                                           ;@delay_ms PWMCR3bits                Allocated to registers ;size:1
                                           ;@delay_ms PWMCR2bits                Allocated to registers ;size:1
                                           ;@delay_ms PFRCCRbits                Allocated to registers ;size:1
                                           ;@delay_ms PFRCCALbits               Allocated to registers ;size:1
                                           ;@delay_ms EECRbits                  Allocated to registers ;size:1
                                           ;@delay_ms EEPRbits                  Allocated to registers ;size:1
                                           ;@delay_ms EEARbits                  Allocated to registers ;size:1
                                           ;@delay_ms EEDRHbits                 Allocated to registers ;size:1
                                           ;@delay_ms EEDRLbits                 Allocated to registers ;size:1
                                           ;@delay_ms DBGCRbits                 Allocated to registers ;size:1
                                           ;@delay_ms DBGPRbits                 Allocated to registers ;size:1
                                           ;@delay_ms HIRCCALbits               Allocated to registers ;size:1
                                           ;@delay_ms abuf                      Allocated to registers ;size:1
                                           ;@delay_ms statusbuf                 Allocated to registers ;size:1
                                           ;@delay_ms flag1                     Allocated to registers ;size:1
                                           ;@delay_ms ir_data                   Allocated to registers ;size:1
                                           ;@delay_ms ir_type                   Allocated to registers ;size:1
                                           ;@delay_ms xms                       Allocated to registers ;size:2
                                           ;@delay_ms i                         Allocated to registers r0x101E r0x101F ;size:2
                                           ;@delay_ms INDF0                     Allocated to registers ;size:1
                                           ;@delay_ms INDF1                     Allocated to registers ;size:1
                                           ;@delay_ms INDF2                     Allocated to registers ;size:1
                                           ;@delay_ms HIBYTE                    Allocated to registers ;size:1
                                           ;@delay_ms FSR0                      Allocated to registers ;size:1
                                           ;@delay_ms FSR1                      Allocated to registers ;size:1
                                           ;@delay_ms PCL                       Allocated to registers ;size:1
                                           ;@delay_ms PFLAG                     Allocated to registers ;size:1
                                           ;@delay_ms MCR                       Allocated to registers ;size:1
                                           ;@delay_ms INDF3                     Allocated to registers ;size:1
                                           ;@delay_ms INTE                      Allocated to registers ;size:1
                                           ;@delay_ms INTF                      Allocated to registers ;size:1
                                           ;@delay_ms DRVCR                     Allocated to registers ;size:1
                                           ;@delay_ms P0KBCR                    Allocated to registers ;size:1
                                           ;@delay_ms P1KBCR                    Allocated to registers ;size:1
                                           ;@delay_ms P2KBCR                    Allocated to registers ;size:1
                                           ;@delay_ms IOP0                      Allocated to registers ;size:1
                                           ;@delay_ms OEP0                      Allocated to registers ;size:1
                                           ;@delay_ms PUP0                      Allocated to registers ;size:1
                                           ;@delay_ms PDP0                      Allocated to registers ;size:1
                                           ;@delay_ms IOP1                      Allocated to registers ;size:1
                                           ;@delay_ms OEP1                      Allocated to registers ;size:1
                                           ;@delay_ms PUP1                      Allocated to registers ;size:1
                                           ;@delay_ms PDP1                      Allocated to registers ;size:1
                                           ;@delay_ms T0CR                      Allocated to registers ;size:1
                                           ;@delay_ms T0CNT                     Allocated to registers ;size:1
                                           ;@delay_ms T0LOAD                    Allocated to registers ;size:1
                                           ;@delay_ms T0DATA                    Allocated to registers ;size:1
                                           ;@delay_ms T1CR                      Allocated to registers ;size:1
                                           ;@delay_ms T1CNT                     Allocated to registers ;size:1
                                           ;@delay_ms T1LOAD                    Allocated to registers ;size:1
                                           ;@delay_ms T1DATA                    Allocated to registers ;size:1
                                           ;@delay_ms T2CR                      Allocated to registers ;size:1
                                           ;@delay_ms T2CNT                     Allocated to registers ;size:1
                                           ;@delay_ms T2LOAD                    Allocated to registers ;size:1
                                           ;@delay_ms T2DATA                    Allocated to registers ;size:1
                                           ;@delay_ms T3CR                      Allocated to registers ;size:1
                                           ;@delay_ms T3CNT                     Allocated to registers ;size:1
                                           ;@delay_ms T3LOAD                    Allocated to registers ;size:1
                                           ;@delay_ms PWM0DR                    Allocated to registers ;size:1
                                           ;@delay_ms PWM1DR                    Allocated to registers ;size:1
                                           ;@delay_ms PWM2DR                    Allocated to registers ;size:1
                                           ;@delay_ms PWMCR0                    Allocated to registers ;size:1
                                           ;@delay_ms PWMCR1                    Allocated to registers ;size:1
                                           ;@delay_ms OSCMR                     Allocated to registers ;size:1
                                           ;@delay_ms LVDCR                     Allocated to registers ;size:1
                                           ;@delay_ms ADCR0                     Allocated to registers ;size:1
                                           ;@delay_ms ADCR1                     Allocated to registers ;size:1
                                           ;@delay_ms ADCR2                     Allocated to registers ;size:1
                                           ;@delay_ms OSADJCR                   Allocated to registers ;size:1
                                           ;@delay_ms ADRH                      Allocated to registers ;size:1
                                           ;@delay_ms ADRL                      Allocated to registers ;size:1
                                           ;@delay_ms P0ADCR                    Allocated to registers ;size:1
                                           ;@delay_ms P1ADCR                    Allocated to registers ;size:1
                                           ;@delay_ms IOP2                      Allocated to registers ;size:1
                                           ;@delay_ms OEP2                      Allocated to registers ;size:1
                                           ;@delay_ms PUP2                      Allocated to registers ;size:1
                                           ;@delay_ms PDP2                      Allocated to registers ;size:1
                                           ;@delay_ms PMOD                      Allocated to registers ;size:1
                                           ;@delay_ms PWMCR3                    Allocated to registers ;size:1
                                           ;@delay_ms PWMCR2                    Allocated to registers ;size:1
                                           ;@delay_ms PFRCCR                    Allocated to registers ;size:1
                                           ;@delay_ms PFRCCAL                   Allocated to registers ;size:1
                                           ;@delay_ms EECR                      Allocated to registers ;size:1
                                           ;@delay_ms EEPR                      Allocated to registers ;size:1
                                           ;@delay_ms EEAR                      Allocated to registers ;size:1
                                           ;@delay_ms EEDRH                     Allocated to registers ;size:1
                                           ;@delay_ms EEDRL                     Allocated to registers ;size:1
                                           ;@delay_ms DBGCR                     Allocated to registers ;size:1
                                           ;@delay_ms DBGPR                     Allocated to registers ;size:1
                                           ;@delay_ms HIRCCAL                   Allocated to registers ;size:1
                                           ;@end Allocation info for local variables in function 'delay_ms';
                                           ;@Allocation info for local variables in function 'delay_100xus'
                                           ;@delay_100xus i                         Allocated to registers ;size:1
                                           ;@delay_100xus j                         Allocated to registers r0x101D ;size:1
                                           ;@end Allocation info for local variables in function 'delay_100xus';
                                           ;@Allocation info for local variables in function 'EEPROM_Write_Byte'
                                           ;@EEPROM_Write_Byte data                      Allocated to registers r0x101D r0x101C ;size:2
                                           ;@EEPROM_Write_Byte addr                      Allocated to registers ;size:1
                                           ;@end Allocation info for local variables in function 'EEPROM_Write_Byte';
                                           ;@Allocation info for local variables in function 'EEPROM_Read_Byte'
                                           ;@EEPROM_Read_Byte addr                      Allocated to registers ;size:1
                                           ;@EEPROM_Read_Byte EEDR                      Allocated to registers r0x101F r0x101E ;size:2
                                           ;@end Allocation info for local variables in function 'EEPROM_Read_Byte';
                                           ;@Allocation info for local variables in function 'send_cmd_16bit'
                                           ;@send_cmd_16bit data                      Allocated to registers r0x1023 r0x1022 ;size:2
                                           ;@send_cmd_16bit i                         Allocated to registers r0x1024 ;size:1
                                           ;@end Allocation info for local variables in function 'send_cmd_16bit';
                                           ;@Allocation info for local variables in function 'Sys_Init'
                                           ;@end Allocation info for local variables in function 'Sys_Init';
                                           ;@Allocation info for local variables in function 'key_event_same_deal_ex'
                                           ;@key_event_same_deal_ex own_data1                 Allocated to registers r0x102B r0x102A ;size:2
                                           ;@key_event_same_deal_ex end                       Allocated to registers r0x1029 ;size:1
                                           ;@key_event_same_deal_ex start                     Allocated to registers r0x1028 ;size:1
                                           ;@end Allocation info for local variables in function 'key_event_same_deal_ex';
                                           ;@Allocation info for local variables in function 'key_event_set_timer'
                                           ;@end Allocation info for local variables in function 'key_event_set_timer';
                                           ;@Allocation info for local variables in function 'main'
                                           ;@main speed_code                Allocated to registers r0x1032 r0x1033 ;size:2
                                           ;@end Allocation info for local variables in function 'main';
                                           ;@Allocation info for local variables in function 'int_isr'
                                           ;@int_isr ir_level_cnt              Allocated to registers ;size:2
                                           ;@int_isr __ir_data                 Allocated to registers ;size:4
                                           ;@int_isr key_press_cnt             Allocated to registers ;size:2
                                           ;@int_isr _100us_count              Allocated to registers ;size:1
                                           ;@end Allocation info for local variables in function 'int_isr';
                                           ;@Allocation info for local variables in function 'int_isr'
                                           ;@int_isr ir_level_cnt              Allocated to registers ;size:2
                                           ;@int_isr __ir_data                 Allocated to registers ;size:4
                                           ;@int_isr key_press_cnt             Allocated to registers ;size:2
                                           ;@int_isr _100us_count              Allocated to registers ;size:1
                                           ;@end Allocation info for local variables in function 'int_isr';
                                           
                                           ;--------------------------------------------------------
                                           ; overlayable items in internal ram 
                                           ;--------------------------------------------------------
                                           ;	udata_ovr
                                           ;--------------------------------------------------------
                                           ; reset vector 
                                           ;--------------------------------------------------------
                                           STARTUP	code 0x0000
                                           	goto	_main
                                           ;--------------------------------------------------------
                                           ; interrupt and initialization code
                                           ;--------------------------------------------------------
                                           c_interrupt	code	0x8
                                           __sdcc_interrupt
                                           ;***
                                           ;  pBlock Stats: dbName = I
                                           ;***
                                           ;entry:  _int_isr	;Function start
                                           ; 0 exit points
                                           ;4 compiler assigned registers:
                                           ;   r0x1035
                                           ;   r0x1036
                                           ;   r0x1037
                                           ;   r0x1038
                                           ;; Starting pCode block
                                           _int_isr	;Function start
                                           ; 0 exit points
                                           ;	.line	1319; "MC32F7361.c"	__endasm;
                                           	;
                                           	movra	_abuf;
                                           	swapar	_PFLAG;
                                           	movra	_statusbuf;
                                           	
                                           ;	.line	1333; "MC32F7361.c"	if (T2IF & T2IE)
                                           	CLRR	r0x1035
                                           	JBCLR	_INTFbits,5
                                           	INCR	r0x1035
                                           	CLRR	r0x1036
                                           	JBCLR	_INTEbits,5
                                           	INCR	r0x1036
                                           	MOVAR	r0x1036
                                           	ANDRA	r0x1035
                                           	MOVAI	0x00
                                           	ORAR	r0x1035
                                           	JBCLR	PFLAG,2
                                           	GOTO	_00909_DS_
                                           ;	.line	1335; "MC32F7361.c"	T2IF = 0;
                                           	BCLR	_INTFbits,5
                                           ;;swapping arguments (AOP_TYPEs 1/3)
                                           ;;unsigned compare: left >= lit(0x515=1301), size=2
                                           ;	.line	1346; "MC32F7361.c"	if (ir_level_cnt <= 1300)
                                           	MOVAI	0x05
                                           	RSUBAR	(_int_isr_ir_level_cnt_196608_60 + 1)
                                           	JBSET	PFLAG,2
                                           	GOTO	_01012_DS_
                                           	MOVAI	0x15
                                           	RSUBAR	_int_isr_ir_level_cnt_196608_60
                                           _01012_DS_
                                           	JBCLR	PFLAG,0
                                           	GOTO	_00854_DS_
                                           ;;genSkipc:3291: created from rifx:013B5EFC
                                           ;	.line	1347; "MC32F7361.c"	ir_level_cnt++;
                                           	INCR	_int_isr_ir_level_cnt_196608_60
                                           	JBCLR	PFLAG,2
                                           	INCR	(_int_isr_ir_level_cnt_196608_60 + 1)
                                           _00854_DS_
                                           ;	.line	1362; "MC32F7361.c"	if (IR_RECV_PIN)
                                           	JBSET	_IOP1bits,5
                                           	GOTO	_00886_DS_
                                           ;	.line	1364; "MC32F7361.c"	last_level_in_ir_pin = 1; // 
                                           	BSET	_flag1,2
                                           ;;swapping arguments (AOP_TYPEs 1/3)
                                           ;;unsigned compare: left >= lit(0x4B1=1201), size=2
                                           ;	.line	1367; "MC32F7361.c"	if (ir_level_cnt > 1200) // (120000us,120ms)
                                           	MOVAI	0x04
                                           	RSUBAR	(_int_isr_ir_level_cnt_196608_60 + 1)
                                           	JBSET	PFLAG,2
                                           	GOTO	_01013_DS_
                                           	MOVAI	0xb1
                                           	RSUBAR	_int_isr_ir_level_cnt_196608_60
                                           _01013_DS_
                                           	JBSET	PFLAG,0
                                           	GOTO	_00887_DS_
                                           ;;genSkipc:3291: created from rifx:013B5EFC
                                           ;	.line	1370; "MC32F7361.c"	if (__ir_data != 0) // (__ir_data)
                                           	MOVAR	_int_isr___ir_data_196608_60
                                           	ORAR	(_int_isr___ir_data_196608_60 + 1)
                                           	ORAR	(_int_isr___ir_data_196608_60 + 2)
                                           	ORAR	(_int_isr___ir_data_196608_60 + 3)
                                           	JBCLR	PFLAG,2
                                           	GOTO	_00861_DS_
                                           ;	.line	1379; "MC32F7361.c"	if (0 == flag_is_recved_data)
                                           	JBCLR	_flag1,0
                                           	GOTO	_00861_DS_
                                           ;	.line	1381; "MC32F7361.c"	ir_data = ~__ir_data;
                                           	MOVAR	_int_isr___ir_data_196608_60
                                           	MOVRA	r0x1035
                                           	COMAR	r0x1035
                                           	MOVRA	_ir_data
                                           ;	.line	1382; "MC32F7361.c"	if ((__ir_data & 0xFF0000) == 0xF70000)
                                           	CLRR	r0x1035
                                           	CLRR	r0x1036
                                           	MOVAR	(_int_isr___ir_data_196608_60 + 2)
                                           	MOVRA	r0x1037
                                           	CLRR	r0x1038
                                           	MOVAI	0x00
                                           	XORAI	0x00
                                           	JBSET	PFLAG,2
                                           	GOTO	_00856_DS_
                                           	MOVAR	r0x1036
                                           	XORAI	0x00
                                           	JBSET	PFLAG,2
                                           	GOTO	_00856_DS_
                                           	MOVAR	r0x1037
                                           	XORAI	0xf7
                                           	JBSET	PFLAG,2
                                           	GOTO	_00856_DS_
                                           	MOVAR	r0x1038
                                           	XORAI	0x00
                                           	JBSET	PFLAG,2
                                           	GOTO	_00856_DS_
                                           ;	.line	1383; "MC32F7361.c"	ir_type = 0;
                                           	CLRR	_ir_type
                                           	GOTO	_00857_DS_
                                           _00856_DS_
                                           ;	.line	1385; "MC32F7361.c"	ir_type = 1;
                                           	MOVAI	0x01
                                           	MOVRA	_ir_type
                                           _00857_DS_
                                           ;	.line	1386; "MC32F7361.c"	__ir_data = 0;
                                           	CLRR	_int_isr___ir_data_196608_60
                                           	CLRR	(_int_isr___ir_data_196608_60 + 1)
                                           	CLRR	(_int_isr___ir_data_196608_60 + 2)
                                           	CLRR	(_int_isr___ir_data_196608_60 + 3)
                                           ;	.line	1387; "MC32F7361.c"	flag_is_recved_data = 1;
                                           	BSET	_flag1,0
                                           _00861_DS_
                                           ;	.line	1391; "MC32F7361.c"	flag_is_recv_ir_repeat_code = 0; // 
                                           	BCLR	_flag1,4
                                           	GOTO	_00887_DS_
                                           _00886_DS_
                                           ;	.line	1396; "MC32F7361.c"	if (last_level_in_ir_pin)
                                           	JBSET	_flag1,2
                                           	GOTO	_00884_DS_
                                           ;;swapping arguments (AOP_TYPEs 1/3)
                                           ;;unsigned compare: left >= lit(0x9=9), size=2
                                           ;	.line	1399; "MC32F7361.c"	if (ir_level_cnt <= 8) // 800us
                                           	MOVAI	0x00
                                           	RSUBAR	(_int_isr_ir_level_cnt_196608_60 + 1)
                                           	JBSET	PFLAG,2
                                           	GOTO	_01014_DS_
                                           	MOVAI	0x09
                                           	RSUBAR	_int_isr_ir_level_cnt_196608_60
                                           _01014_DS_
                                           	JBSET	PFLAG,0
                                           	GOTO	_00882_DS_
                                           ;;genSkipc:3291: created from rifx:013B5EFC
                                           ;;swapping arguments (AOP_TYPEs 1/3)
                                           ;;unsigned compare: left >= lit(0x13=19), size=2
                                           ;	.line	1404; "MC32F7361.c"	else if (ir_level_cnt <= 18) // 1800us,0
                                           	MOVAI	0x00
                                           	RSUBAR	(_int_isr_ir_level_cnt_196608_60 + 1)
                                           	JBSET	PFLAG,2
                                           	GOTO	_01015_DS_
                                           	MOVAI	0x13
                                           	RSUBAR	_int_isr_ir_level_cnt_196608_60
                                           _01015_DS_
                                           	JBCLR	PFLAG,0
                                           	GOTO	_00878_DS_
                                           ;;genSkipc:3291: created from rifx:013B5EFC
                                           ;	.line	1406; "MC32F7361.c"	__ir_data <<= 1;
                                           	BCLR	PFLAG,0
                                           	RLR	_int_isr___ir_data_196608_60
                                           	RLR	(_int_isr___ir_data_196608_60 + 1)
                                           	RLR	(_int_isr___ir_data_196608_60 + 2)
                                           	RLR	(_int_isr___ir_data_196608_60 + 3)
                                           	GOTO	_00882_DS_
                                           ;;swapping arguments (AOP_TYPEs 1/3)
                                           ;;unsigned compare: left >= lit(0x1B=27), size=2
                                           _00878_DS_
                                           ;	.line	1411; "MC32F7361.c"	else if (ir_level_cnt <= 26) // 2600us,1
                                           	MOVAI	0x00
                                           	RSUBAR	(_int_isr_ir_level_cnt_196608_60 + 1)
                                           	JBSET	PFLAG,2
                                           	GOTO	_01016_DS_
                                           	MOVAI	0x1b
                                           	RSUBAR	_int_isr_ir_level_cnt_196608_60
                                           _01016_DS_
                                           	JBCLR	PFLAG,0
                                           	GOTO	_00875_DS_
                                           ;;genSkipc:3291: created from rifx:013B5EFC
                                           ;	.line	1413; "MC32F7361.c"	__ir_data <<= 1;
                                           	BCLR	PFLAG,0
                                           	RLR	_int_isr___ir_data_196608_60
                                           	RLR	(_int_isr___ir_data_196608_60 + 1)
                                           	RLR	(_int_isr___ir_data_196608_60 + 2)
                                           	RLR	(_int_isr___ir_data_196608_60 + 3)
                                           ;	.line	1414; "MC32F7361.c"	__ir_data |= 0x01;
                                           	BSET	_int_isr___ir_data_196608_60,0
                                           	GOTO	_00882_DS_
                                           ;;swapping arguments (AOP_TYPEs 1/3)
                                           ;;unsigned compare: left >= lit(0x97=151), size=2
                                           _00875_DS_
                                           ;	.line	1418; "MC32F7361.c"	else if (ir_level_cnt <= 150) // 15000us,
                                           	MOVAI	0x00
                                           	RSUBAR	(_int_isr_ir_level_cnt_196608_60 + 1)
                                           	JBSET	PFLAG,2
                                           	GOTO	_01017_DS_
                                           	MOVAI	0x97
                                           	RSUBAR	_int_isr_ir_level_cnt_196608_60
                                           _01017_DS_
                                           	JBSET	PFLAG,0
                                           	GOTO	_00882_DS_
                                           ;;genSkipc:3291: created from rifx:013B5EFC
                                           ;;swapping arguments (AOP_TYPEs 1/3)
                                           ;;unsigned compare: left >= lit(0x1A5=421), size=2
                                           ;	.line	1423; "MC32F7361.c"	else if (ir_level_cnt <= 420) // 42ms,
                                           	MOVAI	0x01
                                           	RSUBAR	(_int_isr_ir_level_cnt_196608_60 + 1)
                                           	JBSET	PFLAG,2
                                           	GOTO	_01018_DS_
                                           	MOVAI	0xa5
                                           	RSUBAR	_int_isr_ir_level_cnt_196608_60
                                           _01018_DS_
                                           	JBCLR	PFLAG,0
                                           	GOTO	_00882_DS_
                                           ;;genSkipc:3291: created from rifx:013B5EFC
                                           ;	.line	1434; "MC32F7361.c"	if (0 == flag_is_recved_data)
                                           	JBCLR	_flag1,0
                                           	GOTO	_00882_DS_
                                           ;	.line	1436; "MC32F7361.c"	ir_data = ~__ir_data;
                                           	MOVAR	_int_isr___ir_data_196608_60
                                           	MOVRA	r0x1035
                                           	COMAR	r0x1035
                                           	MOVRA	_ir_data
                                           ;	.line	1437; "MC32F7361.c"	if ((__ir_data & 0xFF0000) == 0xF70000)
                                           	CLRR	r0x1035
                                           	CLRR	r0x1036
                                           	MOVAR	(_int_isr___ir_data_196608_60 + 2)
                                           	MOVRA	r0x1037
                                           	CLRR	r0x1038
                                           	MOVAI	0x00
                                           	XORAI	0x00
                                           	JBSET	PFLAG,2
                                           	GOTO	_00865_DS_
                                           	MOVAR	r0x1036
                                           	XORAI	0x00
                                           	JBSET	PFLAG,2
                                           	GOTO	_00865_DS_
                                           	MOVAR	r0x1037
                                           	XORAI	0xf7
                                           	JBSET	PFLAG,2
                                           	GOTO	_00865_DS_
                                           	MOVAR	r0x1038
                                           	XORAI	0x00
                                           	JBSET	PFLAG,2
                                           	GOTO	_00865_DS_
                                           ;	.line	1438; "MC32F7361.c"	ir_type = 0;
                                           	CLRR	_ir_type
                                           	GOTO	_00866_DS_
                                           _00865_DS_
                                           ;	.line	1440; "MC32F7361.c"	ir_type = 1;
                                           	MOVAI	0x01
                                           	MOVRA	_ir_type
                                           _00866_DS_
                                           ;	.line	1441; "MC32F7361.c"	__ir_data = 0;
                                           	CLRR	_int_isr___ir_data_196608_60
                                           	CLRR	(_int_isr___ir_data_196608_60 + 1)
                                           	CLRR	(_int_isr___ir_data_196608_60 + 2)
                                           	CLRR	(_int_isr___ir_data_196608_60 + 3)
                                           ;	.line	1442; "MC32F7361.c"	flag_is_recved_data = 1;
                                           	BSET	_flag1,0
                                           ;	.line	1443; "MC32F7361.c"	flag_is_recv_ir_repeat_code = 1; //
                                           	BSET	_flag1,4
                                           _00882_DS_
                                           ;	.line	1457; "MC32F7361.c"	ir_level_cnt = 0;
                                           	CLRR	_int_isr_ir_level_cnt_196608_60
                                           	CLRR	(_int_isr_ir_level_cnt_196608_60 + 1)
                                           _00884_DS_
                                           ;	.line	1460; "MC32F7361.c"	last_level_in_ir_pin = 0; // 
                                           	BCLR	_flag1,2
                                           _00887_DS_
                                           ;	.line	1467; "MC32F7361.c"	if (0 == MECHANICAL_KEYING_PIN)
                                           	JBCLR	_IOP1bits,6
                                           	GOTO	_00897_DS_
                                           ;	.line	1470; "MC32F7361.c"	if (key_press_cnt == 10000) // 
                                           	MOVAR	_int_isr_key_press_cnt_196608_73
                                           	XORAI	0x10
                                           	JBSET	PFLAG,2
                                           	GOTO	_00891_DS_
                                           	MOVAR	(_int_isr_key_press_cnt_196608_73 + 1)
                                           	XORAI	0x27
                                           	JBSET	PFLAG,2
                                           	GOTO	_00891_DS_
                                           ;	.line	1472; "MC32F7361.c"	ir_data = IR_KEY_OFF;
                                           	MOVAI	0xb8
                                           	MOVRA	_ir_data
                                           ;	.line	1473; "MC32F7361.c"	flag_is_recved_data = 1;
                                           	BSET	_flag1,0
                                           	GOTO	_00898_DS_
                                           ;;unsigned compare: left < lit(0x2710=10000), size=2
                                           _00891_DS_
                                           ;	.line	1475; "MC32F7361.c"	else if (key_press_cnt < 10000)
                                           	MOVAI	0x27
                                           	RSUBAR	(_int_isr_key_press_cnt_196608_73 + 1)
                                           	JBSET	PFLAG,2
                                           	GOTO	_01019_DS_
                                           	MOVAI	0x10
                                           	RSUBAR	_int_isr_key_press_cnt_196608_73
                                           _01019_DS_
                                           	JBCLR	PFLAG,0
                                           	GOTO	_00898_DS_
                                           ;;genSkipc:3291: created from rifx:013B5EFC
                                           ;	.line	1477; "MC32F7361.c"	key_press_cnt++;
                                           	INCR	_int_isr_key_press_cnt_196608_73
                                           	JBCLR	PFLAG,2
                                           	INCR	(_int_isr_key_press_cnt_196608_73 + 1)
                                           	GOTO	_00898_DS_
                                           ;;unsigned compare: left < lit(0x64=100), size=2
                                           _00897_DS_
                                           ;	.line	1482; "MC32F7361.c"	if (key_press_cnt >= 100 && key_press_cnt < 10000) // 
                                           	MOVAI	0x00
                                           	RSUBAR	(_int_isr_key_press_cnt_196608_73 + 1)
                                           	JBSET	PFLAG,2
                                           	GOTO	_01020_DS_
                                           	MOVAI	0x64
                                           	RSUBAR	_int_isr_key_press_cnt_196608_73
                                           _01020_DS_
                                           	JBSET	PFLAG,0
                                           	GOTO	_00894_DS_
                                           ;;genSkipc:3291: created from rifx:013B5EFC
                                           ;;unsigned compare: left < lit(0x2710=10000), size=2
                                           	MOVAI	0x27
                                           	RSUBAR	(_int_isr_key_press_cnt_196608_73 + 1)
                                           	JBSET	PFLAG,2
                                           	GOTO	_01021_DS_
                                           	MOVAI	0x10
                                           	RSUBAR	_int_isr_key_press_cnt_196608_73
                                           _01021_DS_
                                           	JBCLR	PFLAG,0
                                           	GOTO	_00894_DS_
                                           ;;genSkipc:3291: created from rifx:013B5EFC
                                           ;	.line	1484; "MC32F7361.c"	ir_data = IR_MECHANICAL_KEYING;
                                           	MOVAI	0x01
                                           	MOVRA	_ir_data
                                           ;	.line	1485; "MC32F7361.c"	flag_is_recved_data = 1;
                                           	BSET	_flag1,0
                                           _00894_DS_
                                           ;	.line	1488; "MC32F7361.c"	key_press_cnt = 0;
                                           	CLRR	_int_isr_key_press_cnt_196608_73
                                           	CLRR	(_int_isr_key_press_cnt_196608_73 + 1)
                                           _00898_DS_
                                           ;	.line	1550; "MC32F7361.c"	_100us_count++;
                                           	INCR	_int_isr__100us_count_131073_79
                                           ;;unsigned compare: left < lit(0xA=10), size=1
                                           ;	.line	1551; "MC32F7361.c"	if (_100us_count >= 10)
                                           	MOVAI	0x0a
                                           	RSUBAR	_int_isr__100us_count_131073_79
                                           	JBSET	PFLAG,0
                                           	GOTO	_00909_DS_
                                           ;;genSkipc:3291: created from rifx:013B5EFC
                                           ;	.line	1553; "MC32F7361.c"	_100us_count = 0;
                                           	CLRR	_int_isr__100us_count_131073_79
                                           ;	.line	1554; "MC32F7361.c"	if (next_frame_delay > 0 && next_frame_delay < 0xFFFF)
                                           	MOVAR	_next_frame_delay
                                           	ORAR	(_next_frame_delay + 1)
                                           	JBCLR	PFLAG,2
                                           	GOTO	_00900_DS_
                                           ;;unsigned compare: left < lit(0xFFFF=65535), size=2
                                           	MOVAI	0xff
                                           	RSUBAR	(_next_frame_delay + 1)
                                           	JBSET	PFLAG,2
                                           	GOTO	_01023_DS_
                                           	MOVAI	0xff
                                           	RSUBAR	_next_frame_delay
                                           _01023_DS_
                                           	JBCLR	PFLAG,0
                                           	GOTO	_00900_DS_
                                           ;;genSkipc:3291: created from rifx:013B5EFC
                                           ;	.line	1556; "MC32F7361.c"	next_frame_delay--;
                                           	MOVAI	0xff
                                           	ADDRA	_next_frame_delay
                                           	JBSET	PFLAG,0
                                           	DECR	(_next_frame_delay + 1)
                                           _00900_DS_
                                           ;	.line	1559; "MC32F7361.c"	if (timer_count)
                                           	MOVAR	_timer_count
                                           	ORAR	(_timer_count + 1)
                                           	ORAR	(_timer_count + 2)
                                           	ORAR	(_timer_count + 3)
                                           	JBCLR	PFLAG,2
                                           	GOTO	_00909_DS_
                                           ;	.line	1561; "MC32F7361.c"	timer_count--;
                                           	MOVAI	0xff
                                           	ADDRA	_timer_count
                                           	MOVAI	0xff
                                           	JBSET	PFLAG,0
                                           	ADDRA	(_timer_count + 1)
                                           	MOVAI	0xff
                                           	JBSET	PFLAG,0
                                           	ADDRA	(_timer_count + 2)
                                           	MOVAI	0xff
                                           	JBSET	PFLAG,0
                                           	ADDRA	(_timer_count + 3)
                                           ;	.line	1562; "MC32F7361.c"	if (timer_count == 0)
                                           	MOVAR	_timer_count
                                           	ORAR	(_timer_count + 1)
                                           	ORAR	(_timer_count + 2)
                                           	ORAR	(_timer_count + 3)
                                           	JBSET	PFLAG,2
                                           	GOTO	_00909_DS_
                                           ;	.line	1564; "MC32F7361.c"	ir_data = IR_KEY_OFF;
                                           	MOVAI	0xb8
                                           	MOVRA	_ir_data
                                           ;	.line	1565; "MC32F7361.c"	flag_is_recved_data = 1;
                                           	BSET	_flag1,0
                                           _00909_DS_
                                           ;	.line	1600; "MC32F7361.c"	__endasm;
                                           	;
                                           	swapar	_statusbuf;
                                           	movra	_PFLAG;
                                           	swapr	_abuf;
                                           	swapar	_abuf;
                                           	
                                           END_OF_INTERRUPT
                                           ;	.line	1601; "MC32F7361.c"	}
                                           	RETIE	
                                           
                                           ;--------------------------------------------------------
                                           ; code
                                           ;--------------------------------------------------------
                                           code_MC32F7361	code
                                           ;***
                                           ;  pBlock Stats: dbName = M
                                           ;***
                                           ;entry:  _main	;Function start
                                           ; 2 exit points
                                           ;has an exit
                                           ;functions called:
                                           ;   _Sys_Init
                                           ;   _delay_ms
                                           ;   _EEPROM_Read_Byte
                                           ;   _key_event_same_deal_ex
                                           ;   _key_event_same_deal_ex
                                           ;   _send_cmd_16bit
                                           ;   _key_event_same_deal_ex
                                           ;   _key_event_same_deal_ex
                                           ;   _key_event_same_deal_ex
                                           ;   _key_event_same_deal_ex
                                           ;   _key_event_same_deal_ex
                                           ;   _key_event_same_deal_ex
                                           ;   _key_event_same_deal_ex
                                           ;   _key_event_same_deal_ex
                                           ;   _key_event_same_deal_ex
                                           ;   _key_event_same_deal_ex
                                           ;   _key_event_same_deal_ex
                                           ;   _key_event_same_deal_ex
                                           ;   _key_event_same_deal_ex
                                           ;   _key_event_same_deal_ex
                                           ;   _key_event_same_deal_ex
                                           ;   _key_event_same_deal_ex
                                           ;   _key_event_same_deal_ex
                                           ;   _key_event_same_deal_ex
                                           ;   _key_event_same_deal_ex
                                           ;   _key_event_same_deal_ex
                                           ;   _key_event_same_deal_ex
                                           ;   _key_event_same_deal_ex
                                           ;   _key_event_same_deal_ex
                                           ;   _key_event_same_deal_ex
                                           ;   _key_event_same_deal_ex
                                           ;   _key_event_same_deal_ex
                                           ;   _key_event_same_deal_ex
                                           ;   _key_event_same_deal_ex
                                           ;   _key_event_same_deal_ex
                                           ;   _key_event_same_deal_ex
                                           ;   _key_event_same_deal_ex
                                           ;   _key_event_same_deal_ex
                                           ;   _key_event_same_deal_ex
                                           ;   _key_event_same_deal_ex
                                           ;   _key_event_set_timer
                                           ;   _key_event_set_timer
                                           ;   _key_event_set_timer
                                           ;   _key_event_set_timer
                                           ;   __gptrget1
                                           ;   __gptrget2
                                           ;   __gptrget2
                                           ;   __gptrget1
                                           ;   __gptrget2
                                           ;   __gptrget1
                                           ;   __gptrget2
                                           ;   __gptrget1
                                           ;   _send_cmd_16bit
                                           ;   _delay_ms
                                           ;   _delay_100xus
                                           ;   _delay_ms
                                           ;   _delay_100xus
                                           ;   _delay_ms
                                           ;   _delay_100xus
                                           ;   _delay_ms
                                           ;   _delay_100xus
                                           ;   _delay_ms
                                           ;   _EEPROM_Read_Byte
                                           ;   _EEPROM_Read_Byte
                                           ;   _EEPROM_Read_Byte
                                           ;   _key_event_same_deal_ex
                                           ;   _send_cmd_16bit
                                           ;   _send_cmd_16bit
                                           ;   _delay_ms
                                           ;   _Sys_Init
                                           ;   _delay_ms
                                           ;   _EEPROM_Read_Byte
                                           ;   _key_event_same_deal_ex
                                           ;   _key_event_same_deal_ex
                                           ;   _send_cmd_16bit
                                           ;   _key_event_same_deal_ex
                                           ;   _key_event_same_deal_ex
                                           ;   _key_event_same_deal_ex
                                           ;   _key_event_same_deal_ex
                                           ;   _key_event_same_deal_ex
                                           ;   _key_event_same_deal_ex
                                           ;   _key_event_same_deal_ex
                                           ;   _key_event_same_deal_ex
                                           ;   _key_event_same_deal_ex
                                           ;   _key_event_same_deal_ex
                                           ;   _key_event_same_deal_ex
                                           ;   _key_event_same_deal_ex
                                           ;   _key_event_same_deal_ex
                                           ;   _key_event_same_deal_ex
                                           ;   _key_event_same_deal_ex
                                           ;   _key_event_same_deal_ex
                                           ;   _key_event_same_deal_ex
                                           ;   _key_event_same_deal_ex
                                           ;   _key_event_same_deal_ex
                                           ;   _key_event_same_deal_ex
                                           ;   _key_event_same_deal_ex
                                           ;   _key_event_same_deal_ex
                                           ;   _key_event_same_deal_ex
                                           ;   _key_event_same_deal_ex
                                           ;   _key_event_same_deal_ex
                                           ;   _key_event_same_deal_ex
                                           ;   _key_event_same_deal_ex
                                           ;   _key_event_same_deal_ex
                                           ;   _key_event_same_deal_ex
                                           ;   _key_event_same_deal_ex
                                           ;   _key_event_same_deal_ex
                                           ;   _key_event_same_deal_ex
                                           ;   _key_event_same_deal_ex
                                           ;   _key_event_same_deal_ex
                                           ;   _key_event_set_timer
                                           ;   _key_event_set_timer
                                           ;   _key_event_set_timer
                                           ;   _key_event_set_timer
                                           ;   __gptrget1
                                           ;   __gptrget2
                                           ;   __gptrget2
                                           ;   __gptrget1
                                           ;   __gptrget2
                                           ;   __gptrget1
                                           ;   __gptrget2
                                           ;   __gptrget1
                                           ;   _send_cmd_16bit
                                           ;   _delay_ms
                                           ;   _delay_100xus
                                           ;   _delay_ms
                                           ;   _delay_100xus
                                           ;   _delay_ms
                                           ;   _delay_100xus
                                           ;   _delay_ms
                                           ;   _delay_100xus
                                           ;   _delay_ms
                                           ;   _EEPROM_Read_Byte
                                           ;   _EEPROM_Read_Byte
                                           ;   _EEPROM_Read_Byte
                                           ;   _key_event_same_deal_ex
                                           ;   _send_cmd_16bit
                                           ;   _send_cmd_16bit
                                           ;   _delay_ms
                                           ;8 compiler assigned registers:
                                           ;   STK00
                                           ;   r0x1030
                                           ;   r0x1031
                                           ;   STK02
                                           ;   STK01
                                           ;   r0x1032
                                           ;   r0x1033
                                           ;   r0x1034
                                           ;; Starting pCode block
                                           _main	;Function start
                                           ; 2 exit points
                                           ;	.line	733; "MC32F7361.c"	Sys_Init();
                                           	CALL	_Sys_Init
                                           ;	.line	734; "MC32F7361.c"	delay_ms(1); // 
                                           	MOVAI	0x01
                                           	MOVRA	STK00
                                           	MOVAI	0x00
                                           	CALL	_delay_ms
                                           ;	.line	749; "MC32F7361.c"	P15OE = 0; // 
                                           	BCLR	_OEP1bits,5
                                           ;	.line	755; "MC32F7361.c"	P16OE = 0; // 
                                           	BCLR	_OEP1bits,6
                                           ;	.line	760; "MC32F7361.c"	if (EEPROM_Read_Byte(4) != 0xA5A5)
                                           	MOVAI	0x04
                                           	CALL	_EEPROM_Read_Byte
                                           	MOVRA	r0x1030
                                           	MOVAR	STK00
                                           	MOVRA	r0x1031
                                           	MOVAR	r0x1031
                                           	XORAI	0xa5
                                           	JBSET	PFLAG,2
                                           	GOTO	_00783_DS_
                                           	MOVAR	r0x1030
                                           	XORAI	0xa5
                                           	JBSET	PFLAG,2
                                           	GOTO	_00783_DS_
                                           	GOTO	_00202_DS_
                                           _00783_DS_
                                           ;	.line	763; "MC32F7361.c"	key_event_same_deal(MODE_AUTO_START, MODE_AUTO_END, 0x9645, 0x9645);
                                           	MOVAI	0x45
                                           	MOVRA	STK02
                                           	MOVAI	0x96
                                           	MOVRA	STK01
                                           	MOVAI	0x4a
                                           	MOVRA	STK00
                                           	MOVAI	0x00
                                           	CALL	_key_event_same_deal_ex
                                           	GOTO	_00334_DS_
                                           _00202_DS_
                                           ;	.line	767; "MC32F7361.c"	power_sta = POWER_STA_PRE_ON;
                                           	MOVAI	0x01
                                           	MOVRA	_power_sta
                                           _00334_DS_
                                           ;	.line	773; "MC32F7361.c"	if (flag_is_recved_data)
                                           	JBSET	_flag1,0
                                           	GOTO	_00295_DS_
                                           ;	.line	775; "MC32F7361.c"	if (ir_type)
                                           	MOVAI	0x00
                                           	ORAR	_ir_type
                                           	JBCLR	PFLAG,2
                                           	GOTO	_00238_DS_
                                           ;	.line	777; "MC32F7361.c"	ir_type = 0;
                                           	CLRR	_ir_type
                                           ;	.line	778; "MC32F7361.c"	switch (ir_data)
                                           	MOVAR	_ir_data
                                           	MOVRA	r0x1031
                                           	MOVAR	r0x1031
                                           	JBSET	PFLAG,2
                                           	GOTO	_00784_DS_
                                           	GOTO	_00223_DS_
                                           _00784_DS_
                                           	MOVAR	r0x1031
                                           	XORAI	0x02
                                           	JBSET	PFLAG,2
                                           	GOTO	_00785_DS_
                                           	GOTO	_00220_DS_
                                           _00785_DS_
                                           	MOVAR	r0x1031
                                           	XORAI	0x08
                                           	JBSET	PFLAG,2
                                           	GOTO	_00786_DS_
                                           	GOTO	_00204_DS_
                                           _00786_DS_
                                           	MOVAR	r0x1031
                                           	XORAI	0x12
                                           	JBSET	PFLAG,2
                                           	GOTO	_00787_DS_
                                           	GOTO	_00233_DS_
                                           _00787_DS_
                                           	MOVAR	r0x1031
                                           	XORAI	0x20
                                           	JBSET	PFLAG,2
                                           	GOTO	_00788_DS_
                                           	GOTO	_00222_DS_
                                           _00788_DS_
                                           	MOVAR	r0x1031
                                           	XORAI	0x28
                                           	JBSET	PFLAG,2
                                           	GOTO	_00789_DS_
                                           	GOTO	_00229_DS_
                                           _00789_DS_
                                           	MOVAR	r0x1031
                                           	XORAI	0x2a
                                           	JBSET	PFLAG,2
                                           	GOTO	_00790_DS_
                                           	GOTO	_00234_DS_
                                           _00790_DS_
                                           	MOVAR	r0x1031
                                           	XORAI	0x30
                                           	JBSET	PFLAG,2
                                           	GOTO	_00791_DS_
                                           	GOTO	_00231_DS_
                                           _00791_DS_
                                           	MOVAR	r0x1031
                                           	XORAI	0x32
                                           	JBSET	PFLAG,2
                                           	GOTO	_00792_DS_
                                           	GOTO	_00221_DS_
                                           _00792_DS_
                                           	MOVAR	r0x1031
                                           	XORAI	0x38
                                           	JBSET	PFLAG,2
                                           	GOTO	_00793_DS_
                                           	GOTO	_00228_DS_
                                           _00793_DS_
                                           	MOVAR	r0x1031
                                           	XORAI	0x40
                                           	JBSET	PFLAG,2
                                           	GOTO	_00794_DS_
                                           	GOTO	_00232_DS_
                                           _00794_DS_
                                           	MOVAR	r0x1031
                                           	XORAI	0x48
                                           	JBSET	PFLAG,2
                                           	GOTO	_00795_DS_
                                           	GOTO	_00217_DS_
                                           _00795_DS_
                                           	MOVAR	r0x1031
                                           	XORAI	0x50
                                           	JBSET	PFLAG,2
                                           	GOTO	_00796_DS_
                                           	GOTO	_00224_DS_
                                           _00796_DS_
                                           	MOVAR	r0x1031
                                           	XORAI	0x58
                                           	JBSET	PFLAG,2
                                           	GOTO	_00797_DS_
                                           	GOTO	_00227_DS_
                                           _00797_DS_
                                           	MOVAR	r0x1031
                                           	XORAI	0x60
                                           	JBSET	PFLAG,2
                                           	GOTO	_00798_DS_
                                           	GOTO	_00207_DS_
                                           _00798_DS_
                                           	MOVAR	r0x1031
                                           	XORAI	0x68
                                           	JBSET	PFLAG,2
                                           	GOTO	_00799_DS_
                                           	GOTO	_00218_DS_
                                           _00799_DS_
                                           	MOVAR	r0x1031
                                           	XORAI	0x70
                                           	JBSET	PFLAG,2
                                           	GOTO	_00800_DS_
                                           	GOTO	_00226_DS_
                                           _00800_DS_
                                           	MOVAR	r0x1031
                                           	XORAI	0x78
                                           	JBSET	PFLAG,2
                                           	GOTO	_00801_DS_
                                           	GOTO	_00225_DS_
                                           _00801_DS_
                                           	MOVAR	r0x1031
                                           	XORAI	0x80
                                           	JBSET	PFLAG,2
                                           	GOTO	_00802_DS_
                                           	GOTO	_00206_DS_
                                           _00802_DS_
                                           	MOVAR	r0x1031
                                           	XORAI	0x88
                                           	JBSET	PFLAG,2
                                           	GOTO	_00803_DS_
                                           	GOTO	_00214_DS_
                                           _00803_DS_
                                           	MOVAR	r0x1031
                                           	XORAI	0x90
                                           	JBSET	PFLAG,2
                                           	GOTO	_00804_DS_
                                           	GOTO	_00208_DS_
                                           _00804_DS_
                                           	MOVAR	r0x1031
                                           	XORAI	0x98
                                           	JBSET	PFLAG,2
                                           	GOTO	_00805_DS_
                                           	GOTO	_00212_DS_
                                           _00805_DS_
                                           	MOVAR	r0x1031
                                           	XORAI	0xa0
                                           	JBSET	PFLAG,2
                                           	GOTO	_00806_DS_
                                           	GOTO	_00235_DS_
                                           _00806_DS_
                                           	MOVAR	r0x1031
                                           	XORAI	0xa8
                                           	JBSET	PFLAG,2
                                           	GOTO	_00807_DS_
                                           	GOTO	_00215_DS_
                                           _00807_DS_
                                           	MOVAR	r0x1031
                                           	XORAI	0xb0
                                           	JBSET	PFLAG,2
                                           	GOTO	_00808_DS_
                                           	GOTO	_00211_DS_
                                           _00808_DS_
                                           	MOVAR	r0x1031
                                           	XORAI	0xb2
                                           	JBSET	PFLAG,2
                                           	GOTO	_00809_DS_
                                           	GOTO	_00219_DS_
                                           _00809_DS_
                                           	MOVAR	r0x1031
                                           	XORAI	0xb8
                                           	JBSET	PFLAG,2
                                           	GOTO	_00810_DS_
                                           	GOTO	_00209_DS_
                                           _00810_DS_
                                           	MOVAR	r0x1031
                                           	XORAI	0xc0
                                           	JBSET	PFLAG,2
                                           	GOTO	_00811_DS_
                                           	GOTO	_00205_DS_
                                           _00811_DS_
                                           	MOVAR	r0x1031
                                           	XORAI	0xd8
                                           	JBSET	PFLAG,2
                                           	GOTO	_00812_DS_
                                           	GOTO	_00213_DS_
                                           _00812_DS_
                                           	MOVAR	r0x1031
                                           	XORAI	0xe8
                                           	JBSET	PFLAG,2
                                           	GOTO	_00813_DS_
                                           	GOTO	_00216_DS_
                                           _00813_DS_
                                           	MOVAR	r0x1031
                                           	XORAI	0xf0
                                           	JBSET	PFLAG,2
                                           	GOTO	_00814_DS_
                                           	GOTO	_00230_DS_
                                           _00814_DS_
                                           	MOVAR	r0x1031
                                           	XORAI	0xf8
                                           	JBSET	PFLAG,2
                                           	GOTO	_00815_DS_
                                           	GOTO	_00210_DS_
                                           _00815_DS_
                                           	GOTO	_00238_DS_
                                           _00204_DS_
                                           ;	.line	781; "MC32F7361.c"	ir_data = 0x38;
                                           	MOVAI	0x38
                                           	MOVRA	_ir_data
                                           ;	.line	782; "MC32F7361.c"	break;
                                           	GOTO	_00238_DS_
                                           _00205_DS_
                                           ;	.line	784; "MC32F7361.c"	ir_data = 0xB8;
                                           	MOVAI	0xb8
                                           	MOVRA	_ir_data
                                           ;	.line	785; "MC32F7361.c"	break;
                                           	GOTO	_00238_DS_
                                           _00206_DS_
                                           ;	.line	787; "MC32F7361.c"	ir_data = 0x78;
                                           	MOVAI	0x78
                                           	MOVRA	_ir_data
                                           ;	.line	788; "MC32F7361.c"	break;
                                           	GOTO	_00238_DS_
                                           _00207_DS_
                                           ;	.line	790; "MC32F7361.c"	ir_data = 0xF8;
                                           	MOVAI	0xf8
                                           	MOVRA	_ir_data
                                           ;	.line	791; "MC32F7361.c"	break;
                                           	GOTO	_00238_DS_
                                           _00208_DS_
                                           ;	.line	793; "MC32F7361.c"	ir_data = 0x00;
                                           	CLRR	_ir_data
                                           ;	.line	794; "MC32F7361.c"	break;
                                           	GOTO	_00238_DS_
                                           _00209_DS_
                                           ;	.line	796; "MC32F7361.c"	ir_data = 0x80;
                                           	MOVAI	0x80
                                           	MOVRA	_ir_data
                                           ;	.line	797; "MC32F7361.c"	break;
                                           	GOTO	_00238_DS_
                                           _00210_DS_
                                           ;	.line	799; "MC32F7361.c"	ir_data = 0x40;
                                           	MOVAI	0x40
                                           	MOVRA	_ir_data
                                           ;	.line	800; "MC32F7361.c"	break;
                                           	GOTO	_00238_DS_
                                           _00211_DS_
                                           ;	.line	802; "MC32F7361.c"	ir_data = 0xC0;
                                           	MOVAI	0xc0
                                           	MOVRA	_ir_data
                                           ;	.line	803; "MC32F7361.c"	break;
                                           	GOTO	_00238_DS_
                                           _00212_DS_
                                           ;	.line	805; "MC32F7361.c"	ir_data = 0x20;
                                           	MOVAI	0x20
                                           	MOVRA	_ir_data
                                           ;	.line	806; "MC32F7361.c"	break;
                                           	GOTO	_00238_DS_
                                           _00213_DS_
                                           ;	.line	808; "MC32F7361.c"	ir_data = 0xA0;
                                           	MOVAI	0xa0
                                           	MOVRA	_ir_data
                                           ;	.line	809; "MC32F7361.c"	break;
                                           	GOTO	_00238_DS_
                                           _00214_DS_
                                           ;	.line	811; "MC32F7361.c"	ir_data = 0x60;
                                           	MOVAI	0x60
                                           	MOVRA	_ir_data
                                           ;	.line	812; "MC32F7361.c"	break;
                                           	GOTO	_00238_DS_
                                           _00215_DS_
                                           ;	.line	814; "MC32F7361.c"	ir_data = 0xE0;
                                           	MOVAI	0xe0
                                           	MOVRA	_ir_data
                                           ;	.line	815; "MC32F7361.c"	break;
                                           	GOTO	_00238_DS_
                                           _00216_DS_
                                           ;	.line	817; "MC32F7361.c"	ir_data = 0x10;
                                           	MOVAI	0x10
                                           	MOVRA	_ir_data
                                           ;	.line	818; "MC32F7361.c"	break;
                                           	GOTO	_00238_DS_
                                           _00217_DS_
                                           ;	.line	820; "MC32F7361.c"	ir_data = 0x90;
                                           	MOVAI	0x90
                                           	MOVRA	_ir_data
                                           ;	.line	821; "MC32F7361.c"	break;
                                           	GOTO	_00238_DS_
                                           _00218_DS_
                                           ;	.line	823; "MC32F7361.c"	ir_data = 0x50;
                                           	MOVAI	0x50
                                           	MOVRA	_ir_data
                                           ;	.line	824; "MC32F7361.c"	break;
                                           	GOTO	_00238_DS_
                                           _00219_DS_
                                           ;	.line	826; "MC32F7361.c"	ir_data = 0xD0;
                                           	MOVAI	0xd0
                                           	MOVRA	_ir_data
                                           ;	.line	827; "MC32F7361.c"	break;
                                           	GOTO	_00238_DS_
                                           _00220_DS_
                                           ;	.line	829; "MC32F7361.c"	ir_data = 0x30;
                                           	MOVAI	0x30
                                           	MOVRA	_ir_data
                                           ;	.line	830; "MC32F7361.c"	break;
                                           	GOTO	_00238_DS_
                                           _00221_DS_
                                           ;	.line	832; "MC32F7361.c"	ir_data = 0xB0;
                                           	MOVAI	0xb0
                                           	MOVRA	_ir_data
                                           ;	.line	833; "MC32F7361.c"	break;
                                           	GOTO	_00238_DS_
                                           _00222_DS_
                                           ;	.line	835; "MC32F7361.c"	ir_data = 0x70;
                                           	MOVAI	0x70
                                           	MOVRA	_ir_data
                                           ;	.line	836; "MC32F7361.c"	break;
                                           	GOTO	_00238_DS_
                                           _00223_DS_
                                           ;	.line	838; "MC32F7361.c"	ir_data = 0xF0;
                                           	MOVAI	0xf0
                                           	MOVRA	_ir_data
                                           ;	.line	839; "MC32F7361.c"	break;
                                           	GOTO	_00238_DS_
                                           _00224_DS_
                                           ;	.line	841; "MC32F7361.c"	ir_data = 0x08;
                                           	MOVAI	0x08
                                           	MOVRA	_ir_data
                                           ;	.line	842; "MC32F7361.c"	break;
                                           	GOTO	_00238_DS_
                                           _00225_DS_
                                           ;	.line	844; "MC32F7361.c"	ir_data = 0x88;
                                           	MOVAI	0x88
                                           	MOVRA	_ir_data
                                           ;	.line	845; "MC32F7361.c"	break;
                                           	GOTO	_00238_DS_
                                           _00226_DS_
                                           ;	.line	847; "MC32F7361.c"	ir_data = 0x48;
                                           	MOVAI	0x48
                                           	MOVRA	_ir_data
                                           ;	.line	848; "MC32F7361.c"	break;
                                           	GOTO	_00238_DS_
                                           _00227_DS_
                                           ;	.line	850; "MC32F7361.c"	ir_data = 0xC8;
                                           	MOVAI	0xc8
                                           	MOVRA	_ir_data
                                           ;	.line	851; "MC32F7361.c"	break;
                                           	GOTO	_00238_DS_
                                           _00228_DS_
                                           ;	.line	853; "MC32F7361.c"	ir_data = 0x28;
                                           	MOVAI	0x28
                                           	MOVRA	_ir_data
                                           ;	.line	854; "MC32F7361.c"	break;
                                           	GOTO	_00238_DS_
                                           _00229_DS_
                                           ;	.line	856; "MC32F7361.c"	ir_data = 0xA8;
                                           	MOVAI	0xa8
                                           	MOVRA	_ir_data
                                           ;	.line	857; "MC32F7361.c"	break;
                                           	GOTO	_00238_DS_
                                           _00230_DS_
                                           ;	.line	859; "MC32F7361.c"	ir_data = 0x68;
                                           	MOVAI	0x68
                                           	MOVRA	_ir_data
                                           ;	.line	860; "MC32F7361.c"	break;
                                           	GOTO	_00238_DS_
                                           _00231_DS_
                                           ;	.line	862; "MC32F7361.c"	ir_data = 0xE8;
                                           	MOVAI	0xe8
                                           	MOVRA	_ir_data
                                           ;	.line	863; "MC32F7361.c"	break;
                                           	GOTO	_00238_DS_
                                           _00232_DS_
                                           ;	.line	865; "MC32F7361.c"	ir_data = 0x18;
                                           	MOVAI	0x18
                                           	MOVRA	_ir_data
                                           ;	.line	866; "MC32F7361.c"	break;
                                           	GOTO	_00238_DS_
                                           _00233_DS_
                                           ;	.line	868; "MC32F7361.c"	ir_data = 0x98;
                                           	MOVAI	0x98
                                           	MOVRA	_ir_data
                                           ;	.line	869; "MC32F7361.c"	break;
                                           	GOTO	_00238_DS_
                                           _00234_DS_
                                           ;	.line	871; "MC32F7361.c"	ir_data = 0x58;
                                           	MOVAI	0x58
                                           	MOVRA	_ir_data
                                           ;	.line	872; "MC32F7361.c"	break;
                                           	GOTO	_00238_DS_
                                           _00235_DS_
                                           ;	.line	874; "MC32F7361.c"	ir_data = 0xD8;
                                           	MOVAI	0xd8
                                           	MOVRA	_ir_data
                                           _00238_DS_
                                           ;	.line	878; "MC32F7361.c"	switch (ir_data)
                                           	MOVAR	_ir_data
                                           	MOVRA	r0x1031
                                           	MOVAR	r0x1031
                                           	JBSET	PFLAG,2
                                           	GOTO	_00816_DS_
                                           	GOTO	_00273_DS_
                                           _00816_DS_
                                           	MOVAR	r0x1031
                                           	XORAI	0x01
                                           	JBSET	PFLAG,2
                                           	GOTO	_00817_DS_
                                           	GOTO	_00250_DS_
                                           _00817_DS_
                                           	MOVAR	r0x1031
                                           	XORAI	0x08
                                           	JBSET	PFLAG,2
                                           	GOTO	_00818_DS_
                                           	GOTO	_00286_DS_
                                           _00818_DS_
                                           	MOVAR	r0x1031
                                           	XORAI	0x10
                                           	JBSET	PFLAG,2
                                           	GOTO	_00819_DS_
                                           	GOTO	_00280_DS_
                                           _00819_DS_
                                           	MOVAR	r0x1031
                                           	XORAI	0x18
                                           	JBSET	PFLAG,2
                                           	GOTO	_00820_DS_
                                           	GOTO	_00289_DS_
                                           _00820_DS_
                                           	MOVAR	r0x1031
                                           	XORAI	0x20
                                           	JBSET	PFLAG,2
                                           	GOTO	_00821_DS_
                                           	GOTO	_00277_DS_
                                           _00821_DS_
                                           	MOVAR	r0x1031
                                           	XORAI	0x28
                                           	JBSET	PFLAG,2
                                           	GOTO	_00822_DS_
                                           	GOTO	_00269_DS_
                                           _00822_DS_
                                           	MOVAR	r0x1031
                                           	XORAI	0x30
                                           	JBSET	PFLAG,2
                                           	GOTO	_00823_DS_
                                           	GOTO	_00283_DS_
                                           _00823_DS_
                                           	MOVAR	r0x1031
                                           	XORAI	0x38
                                           	JBSET	PFLAG,2
                                           	GOTO	_00824_DS_
                                           	GOTO	_00239_DS_
                                           _00824_DS_
                                           	MOVAR	r0x1031
                                           	XORAI	0x40
                                           	JBSET	PFLAG,2
                                           	GOTO	_00825_DS_
                                           	GOTO	_00275_DS_
                                           _00825_DS_
                                           	MOVAR	r0x1031
                                           	XORAI	0x48
                                           	JBSET	PFLAG,2
                                           	GOTO	_00826_DS_
                                           	GOTO	_00288_DS_
                                           _00826_DS_
                                           	MOVAR	r0x1031
                                           	XORAI	0x50
                                           	JBSET	PFLAG,2
                                           	GOTO	_00827_DS_
                                           	GOTO	_00282_DS_
                                           _00827_DS_
                                           	MOVAR	r0x1031
                                           	XORAI	0x58
                                           	JBSET	PFLAG,2
                                           	GOTO	_00828_DS_
                                           	GOTO	_00291_DS_
                                           _00828_DS_
                                           	MOVAR	r0x1031
                                           	XORAI	0x60
                                           	JBSET	PFLAG,2
                                           	GOTO	_00829_DS_
                                           	GOTO	_00279_DS_
                                           _00829_DS_
                                           	MOVAR	r0x1031
                                           	XORAI	0x68
                                           	JBSET	PFLAG,2
                                           	GOTO	_00830_DS_
                                           	GOTO	_00271_DS_
                                           _00830_DS_
                                           	MOVAR	r0x1031
                                           	XORAI	0x70
                                           	JBSET	PFLAG,2
                                           	GOTO	_00831_DS_
                                           	GOTO	_00285_DS_
                                           _00831_DS_
                                           	MOVAR	r0x1031
                                           	XORAI	0x78
                                           	JBSET	PFLAG,2
                                           	GOTO	_00832_DS_
                                           	GOTO	_00241_DS_
                                           _00832_DS_
                                           	MOVAR	r0x1031
                                           	XORAI	0x80
                                           	JBSET	PFLAG,2
                                           	GOTO	_00833_DS_
                                           	GOTO	_00274_DS_
                                           _00833_DS_
                                           	MOVAR	r0x1031
                                           	XORAI	0x88
                                           	JBSET	PFLAG,2
                                           	GOTO	_00834_DS_
                                           	GOTO	_00287_DS_
                                           _00834_DS_
                                           	MOVAR	r0x1031
                                           	XORAI	0x90
                                           	JBSET	PFLAG,2
                                           	GOTO	_00835_DS_
                                           	GOTO	_00281_DS_
                                           _00835_DS_
                                           	MOVAR	r0x1031
                                           	XORAI	0x98
                                           	JBSET	PFLAG,2
                                           	GOTO	_00836_DS_
                                           	GOTO	_00290_DS_
                                           _00836_DS_
                                           	MOVAR	r0x1031
                                           	XORAI	0xa0
                                           	JBSET	PFLAG,2
                                           	GOTO	_00837_DS_
                                           	GOTO	_00278_DS_
                                           _00837_DS_
                                           	MOVAR	r0x1031
                                           	XORAI	0xa8
                                           	JBSET	PFLAG,2
                                           	GOTO	_00838_DS_
                                           	GOTO	_00270_DS_
                                           _00838_DS_
                                           	MOVAR	r0x1031
                                           	XORAI	0xb0
                                           	JBSET	PFLAG,2
                                           	GOTO	_00839_DS_
                                           	GOTO	_00284_DS_
                                           _00839_DS_
                                           	MOVAR	r0x1031
                                           	XORAI	0xb8
                                           	JBSET	PFLAG,2
                                           	GOTO	_00840_DS_
                                           	GOTO	_00240_DS_
                                           _00840_DS_
                                           	MOVAR	r0x1031
                                           	XORAI	0xc0
                                           	JBSET	PFLAG,2
                                           	GOTO	_00841_DS_
                                           	GOTO	_00276_DS_
                                           _00841_DS_
                                           	MOVAR	r0x1031
                                           	XORAI	0xc8
                                           	JBSET	PFLAG,2
                                           	GOTO	_00842_DS_
                                           	GOTO	_00268_DS_
                                           _00842_DS_
                                           	MOVAR	r0x1031
                                           	XORAI	0xd0
                                           	JBSET	PFLAG,2
                                           	GOTO	_00843_DS_
                                           	GOTO	_00266_DS_
                                           _00843_DS_
                                           	MOVAR	r0x1031
                                           	XORAI	0xd8
                                           	JBSET	PFLAG,2
                                           	GOTO	_00844_DS_
                                           	GOTO	_00292_DS_
                                           _00844_DS_
                                           	MOVAR	r0x1031
                                           	XORAI	0xe0
                                           	JBSET	PFLAG,2
                                           	GOTO	_00845_DS_
                                           	GOTO	_00247_DS_
                                           _00845_DS_
                                           	MOVAR	r0x1031
                                           	XORAI	0xe8
                                           	JBSET	PFLAG,2
                                           	GOTO	_00846_DS_
                                           	GOTO	_00272_DS_
                                           _00846_DS_
                                           	MOVAR	r0x1031
                                           	XORAI	0xf0
                                           	JBSET	PFLAG,2
                                           	GOTO	_00847_DS_
                                           	GOTO	_00267_DS_
                                           _00847_DS_
                                           	MOVAR	r0x1031
                                           	XORAI	0xf8
                                           	JBSET	PFLAG,2
                                           	GOTO	_00848_DS_
                                           	GOTO	_00242_DS_
                                           _00848_DS_
                                           	GOTO	_00293_DS_
                                           _00239_DS_
                                           ;	.line	881; "MC32F7361.c"	power_sta = POWER_STA_PRE_ON;
                                           	MOVAI	0x01
                                           	MOVRA	_power_sta
                                           ;	.line	882; "MC32F7361.c"	break;
                                           	GOTO	_00293_DS_
                                           _00240_DS_
                                           ;	.line	885; "MC32F7361.c"	power_sta = POWER_STA_PRE_OFF;
                                           	MOVAI	0x03
                                           	MOVRA	_power_sta
                                           ;	.line	886; "MC32F7361.c"	cur_mechanical_key_sta = 0;
                                           	CLRR	_cur_mechanical_key_sta
                                           ;	.line	887; "MC32F7361.c"	break;
                                           	GOTO	_00293_DS_
                                           _00241_DS_
                                           ;	.line	890; "MC32F7361.c"	key_event_same_deal(MODE_AUTO_START, MODE_AUTO_END, 0x9645, 0x9645);
                                           	MOVAI	0x45
                                           	MOVRA	STK02
                                           	MOVAI	0x96
                                           	MOVRA	STK01
                                           	MOVAI	0x4a
                                           	MOVRA	STK00
                                           	MOVAI	0x00
                                           	CALL	_key_event_same_deal_ex
                                           ;	.line	892; "MC32F7361.c"	cur_mechanical_key_sta = 0;
                                           	CLRR	_cur_mechanical_key_sta
                                           ;	.line	893; "MC32F7361.c"	break;
                                           	GOTO	_00293_DS_
                                           _00242_DS_
                                           ;	.line	896; "MC32F7361.c"	if (power_sta != POWER_STA_OFF)
                                           	MOVAI	0x00
                                           	ORAR	_power_sta
                                           	JBCLR	PFLAG,2
                                           	GOTO	_00293_DS_
                                           ;	.line	898; "MC32F7361.c"	current_speed++;
                                           	INCR	_current_speed
                                           ;;unsigned compare: left < lit(0x4=4), size=1
                                           ;	.line	899; "MC32F7361.c"	if (current_speed >= 4)
                                           	MOVAI	0x04
                                           	RSUBAR	_current_speed
                                           	JBSET	PFLAG,0
                                           	GOTO	_00244_DS_
                                           ;;genSkipc:3291: created from rifx:013B5EFC
                                           ;	.line	900; "MC32F7361.c"	current_speed = 0;
                                           	CLRR	_current_speed
                                           _00244_DS_
                                           ;	.line	901; "MC32F7361.c"	current_index = start_index; // 
                                           	MOVAR	_start_index
                                           	MOVRA	_current_index
                                           ;	.line	902; "MC32F7361.c"	next_frame_delay = 0;        // 
                                           	CLRR	_next_frame_delay
                                           	CLRR	(_next_frame_delay + 1)
                                           ;	.line	903; "MC32F7361.c"	send_cmd_16bit(0x0C00);
                                           	MOVAI	0x00
                                           	MOVRA	STK00
                                           	MOVAI	0x0c
                                           	CALL	_send_cmd_16bit
                                           ;	.line	905; "MC32F7361.c"	break;
                                           	GOTO	_00293_DS_
                                           _00247_DS_
                                           ;	.line	929; "MC32F7361.c"	current_static++;
                                           	INCR	_current_static
                                           ;;swapping arguments (AOP_TYPEs 1/3)
                                           ;;unsigned compare: left >= lit(0x3=3), size=1
                                           ;	.line	930; "MC32F7361.c"	if (current_static > 2)
                                           	MOVAI	0x03
                                           	RSUBAR	_current_static
                                           	JBSET	PFLAG,0
                                           	GOTO	_00249_DS_
                                           ;;genSkipc:3291: created from rifx:013B5EFC
                                           ;	.line	931; "MC32F7361.c"	current_static = 0;
                                           	CLRR	_current_static
                                           _00249_DS_
                                           ;	.line	932; "MC32F7361.c"	key_event_same_deal(91 + current_static, 91 + current_static, 0xFFFF, 0xFFFF);
                                           	MOVAR	_current_static
                                           	MOVRA	r0x1031
                                           	MOVAI	0x5b
                                           	ADDRA	r0x1031
                                           	MOVAR	_current_static
                                           	MOVRA	r0x1030
                                           	MOVAI	0x5b
                                           	ADDRA	r0x1030
                                           	MOVAI	0xff
                                           	MOVRA	STK02
                                           	MOVAI	0xff
                                           	MOVRA	STK01
                                           	MOVAR	r0x1030
                                           	MOVRA	STK00
                                           	MOVAR	r0x1031
                                           	CALL	_key_event_same_deal_ex
                                           ;	.line	935; "MC32F7361.c"	cur_mechanical_key_sta = 0;
                                           	CLRR	_cur_mechanical_key_sta
                                           ;	.line	936; "MC32F7361.c"	break;
                                           	GOTO	_00293_DS_
                                           _00250_DS_
                                           ;	.line	939; "MC32F7361.c"	switch (cur_mechanical_key_sta)
                                           	MOVAR	_cur_mechanical_key_sta
                                           	MOVRA	r0x1031
                                           ;;swapping arguments (AOP_TYPEs 1/2)
                                           ;;unsigned compare: left >= lit(0xD=13), size=1
                                           	MOVAI	0x0d
                                           	RSUBAR	r0x1031
                                           	JBCLR	PFLAG,0
                                           	GOTO	_00251_DS_
                                           ;;genSkipc:3291: created from rifx:013B5EFC
                                           	MOVAR	r0x1031
                                           	ADDRA	PCL
                                           	GOTO	_00252_DS_
                                           	GOTO	_00255_DS_
                                           	GOTO	_00255_DS_
                                           	GOTO	_00255_DS_
                                           	GOTO	_00256_DS_
                                           	GOTO	_00257_DS_
                                           	GOTO	_00258_DS_
                                           	GOTO	_00259_DS_
                                           	GOTO	_00260_DS_
                                           	GOTO	_00261_DS_
                                           	GOTO	_00262_DS_
                                           	GOTO	_00263_DS_
                                           	GOTO	_00264_DS_
                                           _00251_DS_
                                           ;	.line	943; "MC32F7361.c"	cur_mechanical_key_sta = 0;
                                           	CLRR	_cur_mechanical_key_sta
                                           _00252_DS_
                                           ;	.line	945; "MC32F7361.c"	key_event_same_deal(MODE_AUTO_START, MODE_AUTO_END, 0x9645, 0x9645);
                                           	MOVAI	0x45
                                           	MOVRA	STK02
                                           	MOVAI	0x96
                                           	MOVRA	STK01
                                           	MOVAI	0x4a
                                           	MOVRA	STK00
                                           	MOVAI	0x00
                                           	CALL	_key_event_same_deal_ex
                                           ;	.line	946; "MC32F7361.c"	break;
                                           	GOTO	_00265_DS_
                                           _00255_DS_
                                           ;	.line	961; "MC32F7361.c"	key_event_same_deal(76 + cur_mechanical_key_sta, 76 + cur_mechanical_key_sta, 0xFFFF, 0xFFFF);
                                           	MOVAR	_cur_mechanical_key_sta
                                           	MOVRA	r0x1031
                                           	MOVAI	0x4c
                                           	ADDRA	r0x1031
                                           	MOVAR	_cur_mechanical_key_sta
                                           	MOVRA	r0x1030
                                           	MOVAI	0x4c
                                           	ADDRA	r0x1030
                                           	MOVAI	0xff
                                           	MOVRA	STK02
                                           	MOVAI	0xff
                                           	MOVRA	STK01
                                           	MOVAR	r0x1030
                                           	MOVRA	STK00
                                           	MOVAR	r0x1031
                                           	CALL	_key_event_same_deal_ex
                                           ;	.line	962; "MC32F7361.c"	break;
                                           	GOTO	_00265_DS_
                                           _00256_DS_
                                           ;	.line	965; "MC32F7361.c"	key_event_same_deal(MODE_R2C4_START, MODE_R2C4_END, 0x9645, 0x9645);
                                           	MOVAI	0x45
                                           	MOVRA	STK02
                                           	MOVAI	0x96
                                           	MOVRA	STK01
                                           	MOVAI	0x4e
                                           	MOVRA	STK00
                                           	MOVAI	0x4e
                                           	CALL	_key_event_same_deal_ex
                                           ;	.line	966; "MC32F7361.c"	break;
                                           	GOTO	_00265_DS_
                                           _00257_DS_
                                           ;	.line	968; "MC32F7361.c"	key_event_same_deal(MODE_FADE_START, MODE_FADE_END, 0x9645, 0x9645);
                                           	MOVAI	0x45
                                           	MOVRA	STK02
                                           	MOVAI	0x96
                                           	MOVRA	STK01
                                           	MOVAI	0x09
                                           	MOVRA	STK00
                                           	MOVAI	0x00
                                           	CALL	_key_event_same_deal_ex
                                           ;	.line	969; "MC32F7361.c"	break;
                                           	GOTO	_00265_DS_
                                           _00258_DS_
                                           ;	.line	971; "MC32F7361.c"	key_event_same_deal(MODE_JUMP_START, MODE_JUMP_END, 0x9645, 0x9645);
                                           	MOVAI	0x45
                                           	MOVRA	STK02
                                           	MOVAI	0x96
                                           	MOVRA	STK01
                                           	MOVAI	0x13
                                           	MOVRA	STK00
                                           	MOVAI	0x0a
                                           	CALL	_key_event_same_deal_ex
                                           ;	.line	972; "MC32F7361.c"	break;
                                           	GOTO	_00265_DS_
                                           _00259_DS_
                                           ;	.line	974; "MC32F7361.c"	key_event_same_deal(MODE_ASYN_FADE_START, MODE_ASYN_FADE_END, 0x9645, 0x9645);
                                           	MOVAI	0x45
                                           	MOVRA	STK02
                                           	MOVAI	0x96
                                           	MOVRA	STK01
                                           	MOVAI	0x19
                                           	MOVRA	STK00
                                           	MOVAI	0x14
                                           	CALL	_key_event_same_deal_ex
                                           ;	.line	975; "MC32F7361.c"	break;
                                           	GOTO	_00265_DS_
                                           _00260_DS_
                                           ;	.line	978; "MC32F7361.c"	key_event_same_deal(MODE_ASYN_JUMP_START, MODE_ASYN_JUMP_END, 0x9645, 0x9645);
                                           	MOVAI	0x45
                                           	MOVRA	STK02
                                           	MOVAI	0x96
                                           	MOVRA	STK01
                                           	MOVAI	0x1c
                                           	MOVRA	STK00
                                           	MOVAI	0x1a
                                           	CALL	_key_event_same_deal_ex
                                           ;	.line	979; "MC32F7361.c"	break;
                                           	GOTO	_00265_DS_
                                           _00261_DS_
                                           ;	.line	982; "MC32F7361.c"	key_event_same_deal(MODE_TWINKLE_START, MODE_TWINKLE_END, 0x9645, 0x9645);
                                           	MOVAI	0x45
                                           	MOVRA	STK02
                                           	MOVAI	0x96
                                           	MOVRA	STK01
                                           	MOVAI	0x3a
                                           	MOVRA	STK00
                                           	MOVAI	0x1d
                                           	CALL	_key_event_same_deal_ex
                                           ;	.line	983; "MC32F7361.c"	break;
                                           	GOTO	_00265_DS_
                                           _00262_DS_
                                           ;	.line	986; "MC32F7361.c"	key_event_same_deal(MODE_STROBE_START, MODE_STROBE_END, 0x9645, 0x9645);
                                           	MOVAI	0x45
                                           	MOVRA	STK02
                                           	MOVAI	0x96
                                           	MOVRA	STK01
                                           	MOVAI	0x44
                                           	MOVRA	STK00
                                           	MOVAI	0x3b
                                           	CALL	_key_event_same_deal_ex
                                           ;	.line	987; "MC32F7361.c"	break;
                                           	GOTO	_00265_DS_
                                           _00263_DS_
                                           ;	.line	989; "MC32F7361.c"	key_event_same_deal(MODE_IN_WAVES_START, MODE_IN_WAVES_END, 0x9645, 0x9645);
                                           	MOVAI	0x45
                                           	MOVRA	STK02
                                           	MOVAI	0x96
                                           	MOVRA	STK01
                                           	MOVAI	0x4a
                                           	MOVRA	STK00
                                           	MOVAI	0x45
                                           	CALL	_key_event_same_deal_ex
                                           ;	.line	990; "MC32F7361.c"	break;
                                           	GOTO	_00265_DS_
                                           _00264_DS_
                                           ;	.line	993; "MC32F7361.c"	power_sta = POWER_STA_PRE_OFF;
                                           	MOVAI	0x03
                                           	MOVRA	_power_sta
                                           _00265_DS_
                                           ;	.line	996; "MC32F7361.c"	cur_mechanical_key_sta++;
                                           	INCR	_cur_mechanical_key_sta
                                           ;	.line	997; "MC32F7361.c"	break;
                                           	GOTO	_00293_DS_
                                           _00266_DS_
                                           ;	.line	999; "MC32F7361.c"	key_event_same_deal(MODE_FADE_START, MODE_FADE_END, 0x9645, 0x9645);
                                           	MOVAI	0x45
                                           	MOVRA	STK02
                                           	MOVAI	0x96
                                           	MOVRA	STK01
                                           	MOVAI	0x09
                                           	MOVRA	STK00
                                           	MOVAI	0x00
                                           	CALL	_key_event_same_deal_ex
                                           ;	.line	1000; "MC32F7361.c"	cur_mechanical_key_sta = 5;
                                           	MOVAI	0x05
                                           	MOVRA	_cur_mechanical_key_sta
                                           ;	.line	1001; "MC32F7361.c"	break;
                                           	GOTO	_00293_DS_
                                           _00267_DS_
                                           ;	.line	1004; "MC32F7361.c"	key_event_same_deal(MODE_JUMP_START, MODE_JUMP_END, 0x9645, 0x9645);
                                           	MOVAI	0x45
                                           	MOVRA	STK02
                                           	MOVAI	0x96
                                           	MOVRA	STK01
                                           	MOVAI	0x13
                                           	MOVRA	STK00
                                           	MOVAI	0x0a
                                           	CALL	_key_event_same_deal_ex
                                           ;	.line	1005; "MC32F7361.c"	cur_mechanical_key_sta = 6;
                                           	MOVAI	0x06
                                           	MOVRA	_cur_mechanical_key_sta
                                           ;	.line	1006; "MC32F7361.c"	break;
                                           	GOTO	_00293_DS_
                                           _00268_DS_
                                           ;	.line	1009; "MC32F7361.c"	key_event_same_deal(MODE_ASYN_FADE_START, MODE_ASYN_FADE_END, 0x9645, 0x9645);
                                           	MOVAI	0x45
                                           	MOVRA	STK02
                                           	MOVAI	0x96
                                           	MOVRA	STK01
                                           	MOVAI	0x19
                                           	MOVRA	STK00
                                           	MOVAI	0x14
                                           	CALL	_key_event_same_deal_ex
                                           ;	.line	1010; "MC32F7361.c"	cur_mechanical_key_sta = 7;
                                           	MOVAI	0x07
                                           	MOVRA	_cur_mechanical_key_sta
                                           ;	.line	1011; "MC32F7361.c"	break;
                                           	GOTO	_00293_DS_
                                           _00269_DS_
                                           ;	.line	1014; "MC32F7361.c"	key_event_same_deal(MODE_IN_WAVES_START, MODE_IN_WAVES_END, 0x9645, 0x9645);
                                           	MOVAI	0x45
                                           	MOVRA	STK02
                                           	MOVAI	0x96
                                           	MOVRA	STK01
                                           	MOVAI	0x4a
                                           	MOVRA	STK00
                                           	MOVAI	0x45
                                           	CALL	_key_event_same_deal_ex
                                           ;	.line	1015; "MC32F7361.c"	cur_mechanical_key_sta = 11;
                                           	MOVAI	0x0b
                                           	MOVRA	_cur_mechanical_key_sta
                                           ;	.line	1016; "MC32F7361.c"	break;
                                           	GOTO	_00293_DS_
                                           _00270_DS_
                                           ;	.line	1019; "MC32F7361.c"	key_event_same_deal(MODE_STROBE_START, MODE_STROBE_END, 0x9645, 0x9645);
                                           	MOVAI	0x45
                                           	MOVRA	STK02
                                           	MOVAI	0x96
                                           	MOVRA	STK01
                                           	MOVAI	0x44
                                           	MOVRA	STK00
                                           	MOVAI	0x3b
                                           	CALL	_key_event_same_deal_ex
                                           ;	.line	1020; "MC32F7361.c"	cur_mechanical_key_sta = 10;
                                           	MOVAI	0x0a
                                           	MOVRA	_cur_mechanical_key_sta
                                           ;	.line	1021; "MC32F7361.c"	break;
                                           	GOTO	_00293_DS_
                                           _00271_DS_
                                           ;	.line	1024; "MC32F7361.c"	key_event_same_deal(MODE_TWINKLE_START, MODE_TWINKLE_END, 0x9645, 0x9645);
                                           	MOVAI	0x45
                                           	MOVRA	STK02
                                           	MOVAI	0x96
                                           	MOVRA	STK01
                                           	MOVAI	0x3a
                                           	MOVRA	STK00
                                           	MOVAI	0x1d
                                           	CALL	_key_event_same_deal_ex
                                           ;	.line	1025; "MC32F7361.c"	cur_mechanical_key_sta = 9;
                                           	MOVAI	0x09
                                           	MOVRA	_cur_mechanical_key_sta
                                           ;	.line	1026; "MC32F7361.c"	break;
                                           	GOTO	_00293_DS_
                                           _00272_DS_
                                           ;	.line	1029; "MC32F7361.c"	key_event_same_deal(MODE_ASYN_JUMP_START, MODE_ASYN_JUMP_END, 0x9645, 0x9645);
                                           	MOVAI	0x45
                                           	MOVRA	STK02
                                           	MOVAI	0x96
                                           	MOVRA	STK01
                                           	MOVAI	0x1c
                                           	MOVRA	STK00
                                           	MOVAI	0x1a
                                           	CALL	_key_event_same_deal_ex
                                           ;	.line	1030; "MC32F7361.c"	cur_mechanical_key_sta = 8;
                                           	MOVAI	0x08
                                           	MOVRA	_cur_mechanical_key_sta
                                           ;	.line	1031; "MC32F7361.c"	break;
                                           	GOTO	_00293_DS_
                                           _00273_DS_
                                           ;	.line	1034; "MC32F7361.c"	key_event_same_deal(MODE_R2C1_START, MODE_R2C1_END, 0xFFFF, 0xFFFF);
                                           	MOVAI	0xff
                                           	MOVRA	STK02
                                           	MOVAI	0xff
                                           	MOVRA	STK01
                                           	MOVAI	0x4b
                                           	MOVRA	STK00
                                           	MOVAI	0x4b
                                           	CALL	_key_event_same_deal_ex
                                           ;	.line	1035; "MC32F7361.c"	cur_mechanical_key_sta = 1;
                                           	MOVAI	0x01
                                           	MOVRA	_cur_mechanical_key_sta
                                           ;	.line	1036; "MC32F7361.c"	break;
                                           	GOTO	_00293_DS_
                                           _00274_DS_
                                           ;	.line	1038; "MC32F7361.c"	key_event_same_deal(MODE_R2C2_START, MODE_R2C2_END, 0xFFFF, 0xFFFF);
                                           	MOVAI	0xff
                                           	MOVRA	STK02
                                           	MOVAI	0xff
                                           	MOVRA	STK01
                                           	MOVAI	0x4c
                                           	MOVRA	STK00
                                           	MOVAI	0x4c
                                           	CALL	_key_event_same_deal_ex
                                           ;	.line	1039; "MC32F7361.c"	cur_mechanical_key_sta = 2;
                                           	MOVAI	0x02
                                           	MOVRA	_cur_mechanical_key_sta
                                           ;	.line	1040; "MC32F7361.c"	break;
                                           	GOTO	_00293_DS_
                                           _00275_DS_
                                           ;	.line	1042; "MC32F7361.c"	key_event_same_deal(MODE_R2C3_START, MODE_R2C3_END, 0xFFFF, 0xFFFF);
                                           	MOVAI	0xff
                                           	MOVRA	STK02
                                           	MOVAI	0xff
                                           	MOVRA	STK01
                                           	MOVAI	0x4d
                                           	MOVRA	STK00
                                           	MOVAI	0x4d
                                           	CALL	_key_event_same_deal_ex
                                           ;	.line	1043; "MC32F7361.c"	cur_mechanical_key_sta = 3;
                                           	MOVAI	0x03
                                           	MOVRA	_cur_mechanical_key_sta
                                           ;	.line	1044; "MC32F7361.c"	break;
                                           	GOTO	_00293_DS_
                                           _00276_DS_
                                           ;	.line	1046; "MC32F7361.c"	key_event_same_deal(MODE_R2C4_START, MODE_R2C4_END, 0x9645, 0x9645);
                                           	MOVAI	0x45
                                           	MOVRA	STK02
                                           	MOVAI	0x96
                                           	MOVRA	STK01
                                           	MOVAI	0x4e
                                           	MOVRA	STK00
                                           	MOVAI	0x4e
                                           	CALL	_key_event_same_deal_ex
                                           ;	.line	1047; "MC32F7361.c"	cur_mechanical_key_sta = 4;
                                           	MOVAI	0x04
                                           	MOVRA	_cur_mechanical_key_sta
                                           ;	.line	1048; "MC32F7361.c"	break;
                                           	GOTO	_00293_DS_
                                           _00277_DS_
                                           ;	.line	1050; "MC32F7361.c"	key_event_same_deal(MODE_R3C1_START, MODE_R3C1_END, 0x9F00, 0x9F00);
                                           	MOVAI	0x00
                                           	MOVRA	STK02
                                           	MOVAI	0x9f
                                           	MOVRA	STK01
                                           	MOVAI	0x4f
                                           	MOVRA	STK00
                                           	MOVAI	0x4f
                                           	CALL	_key_event_same_deal_ex
                                           ;	.line	1051; "MC32F7361.c"	cur_mechanical_key_sta = 0;
                                           	CLRR	_cur_mechanical_key_sta
                                           ;	.line	1052; "MC32F7361.c"	break;
                                           	GOTO	_00293_DS_
                                           _00278_DS_
                                           ;	.line	1054; "MC32F7361.c"	key_event_same_deal(MODE_R3C2_START, MODE_R3C2_END, 0x90F1, 0x90F1);
                                           	MOVAI	0xf1
                                           	MOVRA	STK02
                                           	MOVAI	0x90
                                           	MOVRA	STK01
                                           	MOVAI	0x50
                                           	MOVRA	STK00
                                           	MOVAI	0x50
                                           	CALL	_key_event_same_deal_ex
                                           ;	.line	1055; "MC32F7361.c"	cur_mechanical_key_sta = 0;
                                           	CLRR	_cur_mechanical_key_sta
                                           ;	.line	1056; "MC32F7361.c"	break;
                                           	GOTO	_00293_DS_
                                           _00279_DS_
                                           ;	.line	1058; "MC32F7361.c"	key_event_same_deal(MODE_R3C3_START, MODE_R3C3_END, 0x930F, 0x930F);
                                           	MOVAI	0x0f
                                           	MOVRA	STK02
                                           	MOVAI	0x93
                                           	MOVRA	STK01
                                           	MOVAI	0x51
                                           	MOVRA	STK00
                                           	MOVAI	0x51
                                           	CALL	_key_event_same_deal_ex
                                           ;	.line	1059; "MC32F7361.c"	cur_mechanical_key_sta = 0;
                                           	CLRR	_cur_mechanical_key_sta
                                           ;	.line	1060; "MC32F7361.c"	break;
                                           	GOTO	_00293_DS_
                                           _00280_DS_
                                           ;	.line	1062; "MC32F7361.c"	key_event_same_deal(MODE_R4C1_START, MODE_R4C1_END, 0x9F10, 0x9F10);
                                           	MOVAI	0x10
                                           	MOVRA	STK02
                                           	MOVAI	0x9f
                                           	MOVRA	STK01
                                           	MOVAI	0x52
                                           	MOVRA	STK00
                                           	MOVAI	0x52
                                           	CALL	_key_event_same_deal_ex
                                           ;	.line	1063; "MC32F7361.c"	cur_mechanical_key_sta = 0;
                                           	CLRR	_cur_mechanical_key_sta
                                           ;	.line	1064; "MC32F7361.c"	break;
                                           	GOTO	_00293_DS_
                                           _00281_DS_
                                           ;	.line	1066; "MC32F7361.c"	key_event_same_deal(MODE_R4C2_START, MODE_R4C2_END, 0x90F8, 0x90F8);
                                           	MOVAI	0xf8
                                           	MOVRA	STK02
                                           	MOVAI	0x90
                                           	MOVRA	STK01
                                           	MOVAI	0x53
                                           	MOVRA	STK00
                                           	MOVAI	0x53
                                           	CALL	_key_event_same_deal_ex
                                           ;	.line	1067; "MC32F7361.c"	cur_mechanical_key_sta = 0;
                                           	CLRR	_cur_mechanical_key_sta
                                           ;	.line	1068; "MC32F7361.c"	break;
                                           	GOTO	_00293_DS_
                                           _00282_DS_
                                           ;	.line	1070; "MC32F7361.c"	key_event_same_deal(MODE_R4C3_START, MODE_R4C3_END, 0x980F, 0x980F);
                                           	MOVAI	0x0f
                                           	MOVRA	STK02
                                           	MOVAI	0x98
                                           	MOVRA	STK01
                                           	MOVAI	0x54
                                           	MOVRA	STK00
                                           	MOVAI	0x54
                                           	CALL	_key_event_same_deal_ex
                                           ;	.line	1071; "MC32F7361.c"	cur_mechanical_key_sta = 0;
                                           	CLRR	_cur_mechanical_key_sta
                                           ;	.line	1072; "MC32F7361.c"	break;
                                           	GOTO	_00293_DS_
                                           _00283_DS_
                                           ;	.line	1074; "MC32F7361.c"	key_event_same_deal(MODE_R5C1_START, MODE_R5C1_END, 0x9F30, 0x9F30);
                                           	MOVAI	0x30
                                           	MOVRA	STK02
                                           	MOVAI	0x9f
                                           	MOVRA	STK01
                                           	MOVAI	0x55
                                           	MOVRA	STK00
                                           	MOVAI	0x55
                                           	CALL	_key_event_same_deal_ex
                                           ;	.line	1075; "MC32F7361.c"	cur_mechanical_key_sta = 0;
                                           	CLRR	_cur_mechanical_key_sta
                                           ;	.line	1076; "MC32F7361.c"	break;
                                           	GOTO	_00293_DS_
                                           _00284_DS_
                                           ;	.line	1078; "MC32F7361.c"	key_event_same_deal(MODE_R5C2_START, MODE_R5C2_END, 0x90FC, 0x90FC);
                                           	MOVAI	0xfc
                                           	MOVRA	STK02
                                           	MOVAI	0x90
                                           	MOVRA	STK01
                                           	MOVAI	0x56
                                           	MOVRA	STK00
                                           	MOVAI	0x56
                                           	CALL	_key_event_same_deal_ex
                                           ;	.line	1079; "MC32F7361.c"	cur_mechanical_key_sta = 0;
                                           	CLRR	_cur_mechanical_key_sta
                                           ;	.line	1080; "MC32F7361.c"	break;
                                           	GOTO	_00293_DS_
                                           _00285_DS_
                                           ;	.line	1082; "MC32F7361.c"	key_event_same_deal(MODE_R5C3_START, MODE_R5C3_END, 0x9F0F, 0x9F0F);
                                           	MOVAI	0x0f
                                           	MOVRA	STK02
                                           	MOVAI	0x9f
                                           	MOVRA	STK01
                                           	MOVAI	0x57
                                           	MOVRA	STK00
                                           	MOVAI	0x57
                                           	CALL	_key_event_same_deal_ex
                                           ;	.line	1083; "MC32F7361.c"	cur_mechanical_key_sta = 0;
                                           	CLRR	_cur_mechanical_key_sta
                                           ;	.line	1084; "MC32F7361.c"	break;
                                           	GOTO	_00293_DS_
                                           _00286_DS_
                                           ;	.line	1086; "MC32F7361.c"	key_event_same_deal(MODE_R6C1_START, MODE_R6C1_END, 0x9FF0, 0x9FF0);
                                           	MOVAI	0xf0
                                           	MOVRA	STK02
                                           	MOVAI	0x9f
                                           	MOVRA	STK01
                                           	MOVAI	0x58
                                           	MOVRA	STK00
                                           	MOVAI	0x58
                                           	CALL	_key_event_same_deal_ex
                                           ;	.line	1087; "MC32F7361.c"	cur_mechanical_key_sta = 0;
                                           	CLRR	_cur_mechanical_key_sta
                                           ;	.line	1088; "MC32F7361.c"	break;
                                           	GOTO	_00293_DS_
                                           _00287_DS_
                                           ;	.line	1090; "MC32F7361.c"	key_event_same_deal(MODE_R6C2_START, MODE_R6C2_END, 0x90FF, 0x90FF);
                                           	MOVAI	0xff
                                           	MOVRA	STK02
                                           	MOVAI	0x90
                                           	MOVRA	STK01
                                           	MOVAI	0x59
                                           	MOVRA	STK00
                                           	MOVAI	0x59
                                           	CALL	_key_event_same_deal_ex
                                           ;	.line	1091; "MC32F7361.c"	cur_mechanical_key_sta = 0;
                                           	CLRR	_cur_mechanical_key_sta
                                           ;	.line	1092; "MC32F7361.c"	break;
                                           	GOTO	_00293_DS_
                                           _00288_DS_
                                           ;	.line	1094; "MC32F7361.c"	key_event_same_deal(MODE_R6C3_START, MODE_R6C3_END, 0x9F03, 0x9F03);
                                           	MOVAI	0x03
                                           	MOVRA	STK02
                                           	MOVAI	0x9f
                                           	MOVRA	STK01
                                           	MOVAI	0x5a
                                           	MOVRA	STK00
                                           	MOVAI	0x5a
                                           	CALL	_key_event_same_deal_ex
                                           ;	.line	1095; "MC32F7361.c"	cur_mechanical_key_sta = 0;
                                           	CLRR	_cur_mechanical_key_sta
                                           ;	.line	1096; "MC32F7361.c"	break;
                                           	GOTO	_00293_DS_
                                           _00289_DS_
                                           ;	.line	1099; "MC32F7361.c"	timer_count = 4 * 60 * 60 * 1000;
                                           	CLRR	_timer_count
                                           	MOVAI	0xba
                                           	MOVRA	(_timer_count + 1)
                                           	MOVAI	0xff
                                           	MOVRA	(_timer_count + 2)
                                           	MOVRA	(_timer_count + 3)
                                           ;	.line	1107; "MC32F7361.c"	key_event_set_timer();
                                           	CALL	_key_event_set_timer
                                           ;	.line	1109; "MC32F7361.c"	LED_4H_PIN = LED_TIM_PIN_ON;
                                           	BCLR	_IOP1bits,3
                                           ;	.line	1110; "MC32F7361.c"	break;
                                           	GOTO	_00293_DS_
                                           _00290_DS_
                                           ;	.line	1112; "MC32F7361.c"	timer_count = 6 * 60 * 60 * 1000;
                                           	CLRR	_timer_count
                                           	MOVAI	0x97
                                           	MOVRA	(_timer_count + 1)
                                           	MOVAI	0xff
                                           	MOVRA	(_timer_count + 2)
                                           	MOVRA	(_timer_count + 3)
                                           ;	.line	1120; "MC32F7361.c"	key_event_set_timer();
                                           	CALL	_key_event_set_timer
                                           ;	.line	1122; "MC32F7361.c"	LED_6H_PIN = LED_TIM_PIN_ON;
                                           	BCLR	_IOP1bits,7
                                           ;	.line	1123; "MC32F7361.c"	break;
                                           	GOTO	_00293_DS_
                                           _00291_DS_
                                           ;	.line	1125; "MC32F7361.c"	timer_count = 8 * 60 * 60 * 1000;
                                           	CLRR	_timer_count
                                           	MOVAI	0x74
                                           	MOVRA	(_timer_count + 1)
                                           	CLRR	(_timer_count + 2)
                                           	CLRR	(_timer_count + 3)
                                           ;	.line	1133; "MC32F7361.c"	key_event_set_timer();
                                           	CALL	_key_event_set_timer
                                           ;	.line	1135; "MC32F7361.c"	LED_8H_PIN = LED_TIM_PIN_ON;
                                           	BCLR	_IOP0bits,0
                                           ;	.line	1136; "MC32F7361.c"	break;
                                           	GOTO	_00293_DS_
                                           _00292_DS_
                                           ;	.line	1138; "MC32F7361.c"	timer_count = 0;
                                           	CLRR	_timer_count
                                           	CLRR	(_timer_count + 1)
                                           	CLRR	(_timer_count + 2)
                                           	CLRR	(_timer_count + 3)
                                           ;	.line	1146; "MC32F7361.c"	key_event_set_timer();
                                           	CALL	_key_event_set_timer
                                           _00293_DS_
                                           ;	.line	1152; "MC32F7361.c"	flag_is_recved_data = 0;
                                           	BCLR	_flag1,0
                                           _00295_DS_
                                           ;	.line	1156; "MC32F7361.c"	if (power_sta == POWER_STA_ON)
                                           	MOVAR	_power_sta
                                           	XORAI	0x02
                                           	JBSET	PFLAG,2
                                           	GOTO	_00331_DS_
                                           ;	.line	1159; "MC32F7361.c"	if (next_frame_delay == 0) // 
                                           	MOVAR	_next_frame_delay
                                           	ORAR	(_next_frame_delay + 1)
                                           	JBSET	PFLAG,2
                                           	GOTO	_00334_DS_
                                           ;	.line	1161; "MC32F7361.c"	u16 speed_code = 0x00;
                                           	CLRR	r0x1031
                                           	CLRR	r0x1030
                                           ;	.line	1163; "MC32F7361.c"	next_frame_delay = 0xFFFF;
                                           	MOVAI	0xff
                                           	MOVRA	_next_frame_delay
                                           	MOVRA	(_next_frame_delay + 1)
                                           ;;swapping arguments (AOP_TYPEs 1/3)
                                           ;;unsigned compare: left >= lit(0xA=10), size=1
                                           ;	.line	1165; "MC32F7361.c"	if (current_index >= SECTION_1_START && current_index <= SECTION_1_END) // code
                                           	MOVAI	0x0a
                                           	RSUBAR	_current_index
                                           	JBCLR	PFLAG,0
                                           	GOTO	_00318_DS_
                                           ;;genSkipc:3291: created from rifx:013B5EFC
                                           ;	.line	1167; "MC32F7361.c"	speed_code = section_1_speed_table[current_speed];       // code
                                           	MOVAR	_current_speed
                                           	ADDAI	(_section_1_speed_table + 0)
                                           	MOVRA	r0x1032
                                           	MOVAI	high (_section_1_speed_table + 0)
                                           	JBCLR	PFLAG,0
                                           	ADDAI	0x01
                                           	MOVRA	r0x1033
                                           	MOVAR	r0x1032
                                           	MOVRA	STK01
                                           	MOVAR	r0x1033
                                           	MOVRA	STK00
                                           	MOVAI	0x80
                                           	CALL	__gptrget1
                                           	MOVRA	r0x1031
                                           	MOVRA	r0x1034
                                           ;;109	MOVAR	r0x1034
                                           	CLRR	r0x1030
                                           ;	.line	1168; "MC32F7361.c"	next_frame_delay = section_1_delay_table[current_speed]; // 
                                           	BCLR	PFLAG,0
                                           	RLAR	_current_speed
                                           	MOVRA	r0x1032
                                           	MOVAR	r0x1032
                                           	ADDAI	(_section_1_delay_table + 0)
                                           	MOVRA	r0x1032
                                           	MOVAI	high (_section_1_delay_table + 0)
                                           	JBCLR	PFLAG,0
                                           	ADDAI	0x01
                                           	MOVRA	r0x1033
                                           	MOVAR	r0x1032
                                           	MOVRA	STK01
                                           	MOVAR	r0x1033
                                           	MOVRA	STK00
                                           	MOVAI	0x80
                                           	CALL	__gptrget2
                                           	MOVRA	(_next_frame_delay + 1)
                                           	MOVAR	STK00
                                           	MOVRA	_next_frame_delay
                                           	GOTO	_00319_DS_
                                           ;;unsigned compare: left < lit(0xA=10), size=1
                                           _00318_DS_
                                           ;	.line	1172; "MC32F7361.c"	else if (current_index >= SECTION_2_START && current_index <= SECTION_2_END)
                                           	MOVAI	0x0a
                                           	RSUBAR	_current_index
                                           	JBSET	PFLAG,0
                                           	GOTO	_00314_DS_
                                           ;;genSkipc:3291: created from rifx:013B5EFC
                                           ;;swapping arguments (AOP_TYPEs 1/3)
                                           ;;unsigned compare: left >= lit(0x14=20), size=1
                                           	MOVAI	0x14
                                           	RSUBAR	_current_index
                                           	JBCLR	PFLAG,0
                                           	GOTO	_00314_DS_
                                           ;;genSkipc:3291: created from rifx:013B5EFC
                                           ;	.line	1175; "MC32F7361.c"	next_frame_delay = section_2_delay_table[current_speed];
                                           	BCLR	PFLAG,0
                                           	RLAR	_current_speed
                                           	MOVRA	r0x1032
                                           	MOVAR	r0x1032
                                           	ADDAI	(_section_2_delay_table + 0)
                                           	MOVRA	r0x1032
                                           	MOVAI	high (_section_2_delay_table + 0)
                                           	JBCLR	PFLAG,0
                                           	ADDAI	0x01
                                           	MOVRA	r0x1033
                                           	MOVAR	r0x1032
                                           	MOVRA	STK01
                                           	MOVAR	r0x1033
                                           	MOVRA	STK00
                                           	MOVAI	0x80
                                           	CALL	__gptrget2
                                           	MOVRA	(_next_frame_delay + 1)
                                           	MOVAR	STK00
                                           	MOVRA	_next_frame_delay
                                           	GOTO	_00319_DS_
                                           ;;unsigned compare: left < lit(0x14=20), size=1
                                           _00314_DS_
                                           ;	.line	1179; "MC32F7361.c"	else if ((current_index >= SECTION_3_START &&                                  /*current_index <= SECTION_3_END) ||
                                           	MOVAI	0x14
                                           	RSUBAR	_current_index
                                           	JBSET	PFLAG,0
                                           	GOTO	_00312_DS_
                                           ;;genSkipc:3291: created from rifx:013B5EFC
                                           ;;swapping arguments (AOP_TYPEs 1/3)
                                           ;;unsigned compare: left >= lit(0x1D=29), size=1
                                           	MOVAI	0x1d
                                           	RSUBAR	_current_index
                                           	JBSET	PFLAG,0
                                           	GOTO	_00307_DS_
                                           ;;genSkipc:3291: created from rifx:013B5EFC
                                           ;;unsigned compare: left < lit(0x3B=59), size=1
                                           _00312_DS_
                                           ;	.line	1181; "MC32F7361.c"	(current_index >= SECTION_6_START && current_index <= SECTION_6_END)) // 
                                           	MOVAI	0x3b
                                           	RSUBAR	_current_index
                                           	JBSET	PFLAG,0
                                           	GOTO	_00308_DS_
                                           ;;genSkipc:3291: created from rifx:013B5EFC
                                           ;;swapping arguments (AOP_TYPEs 1/3)
                                           ;;unsigned compare: left >= lit(0x45=69), size=1
                                           	MOVAI	0x45
                                           	RSUBAR	_current_index
                                           	JBCLR	PFLAG,0
                                           	GOTO	_00308_DS_
                                           ;;genSkipc:3291: created from rifx:013B5EFC
                                           _00307_DS_
                                           ;	.line	1184; "MC32F7361.c"	speed_code = section_3_speed_table[current_speed];
                                           	MOVAR	_current_speed
                                           	ADDAI	(_section_3_speed_table + 0)
                                           	MOVRA	r0x1032
                                           	MOVAI	high (_section_3_speed_table + 0)
                                           	JBCLR	PFLAG,0
                                           	ADDAI	0x01
                                           	MOVRA	r0x1033
                                           	MOVAR	r0x1032
                                           	MOVRA	STK01
                                           	MOVAR	r0x1033
                                           	MOVRA	STK00
                                           	MOVAI	0x80
                                           	CALL	__gptrget1
                                           	MOVRA	r0x1031
                                           	MOVRA	r0x1034
                                           ;;108	MOVAR	r0x1034
                                           	CLRR	r0x1030
                                           ;	.line	1186; "MC32F7361.c"	next_frame_delay = 4960;
                                           	MOVAI	0x60
                                           	MOVRA	_next_frame_delay
                                           	MOVAI	0x13
                                           	MOVRA	(_next_frame_delay + 1)
                                           	GOTO	_00319_DS_
                                           ;;unsigned compare: left < lit(0x1D=29), size=1
                                           _00308_DS_
                                           ;	.line	1203; "MC32F7361.c"	else if (current_index >= SECTION_5_START && current_index <= SECTION_5_END)
                                           	MOVAI	0x1d
                                           	RSUBAR	_current_index
                                           	JBSET	PFLAG,0
                                           	GOTO	_00304_DS_
                                           ;;genSkipc:3291: created from rifx:013B5EFC
                                           ;;swapping arguments (AOP_TYPEs 1/3)
                                           ;;unsigned compare: left >= lit(0x3B=59), size=1
                                           	MOVAI	0x3b
                                           	RSUBAR	_current_index
                                           	JBCLR	PFLAG,0
                                           	GOTO	_00304_DS_
                                           ;;genSkipc:3291: created from rifx:013B5EFC
                                           ;	.line	1206; "MC32F7361.c"	next_frame_delay = section_5_delay_table[current_speed];
                                           	BCLR	PFLAG,0
                                           	RLAR	_current_speed
                                           	MOVRA	r0x1032
                                           	MOVAR	r0x1032
                                           	ADDAI	(_section_5_delay_table + 0)
                                           	MOVRA	r0x1032
                                           	MOVAI	high (_section_5_delay_table + 0)
                                           	JBCLR	PFLAG,0
                                           	ADDAI	0x01
                                           	MOVRA	r0x1033
                                           	MOVAR	r0x1032
                                           	MOVRA	STK01
                                           	MOVAR	r0x1033
                                           	MOVRA	STK00
                                           	MOVAI	0x80
                                           	CALL	__gptrget2
                                           	MOVRA	(_next_frame_delay + 1)
                                           	MOVAR	STK00
                                           	MOVRA	_next_frame_delay
                                           	GOTO	_00319_DS_
                                           ;;unsigned compare: left < lit(0x45=69), size=1
                                           _00304_DS_
                                           ;	.line	1218; "MC32F7361.c"	else if (current_index >= SECTION_7_START && current_index <= SECTION_7_END)
                                           	MOVAI	0x45
                                           	RSUBAR	_current_index
                                           	JBSET	PFLAG,0
                                           	GOTO	_00300_DS_
                                           ;;genSkipc:3291: created from rifx:013B5EFC
                                           ;;swapping arguments (AOP_TYPEs 1/3)
                                           ;;unsigned compare: left >= lit(0x4B=75), size=1
                                           	MOVAI	0x4b
                                           	RSUBAR	_current_index
                                           	JBCLR	PFLAG,0
                                           	GOTO	_00300_DS_
                                           ;;genSkipc:3291: created from rifx:013B5EFC
                                           ;	.line	1220; "MC32F7361.c"	speed_code = section_7_speed_table[current_speed];
                                           	MOVAR	_current_speed
                                           	ADDAI	(_section_7_speed_table + 0)
                                           	MOVRA	r0x1032
                                           	MOVAI	high (_section_7_speed_table + 0)
                                           	JBCLR	PFLAG,0
                                           	ADDAI	0x01
                                           	MOVRA	r0x1033
                                           	MOVAR	r0x1032
                                           	MOVRA	STK01
                                           	MOVAR	r0x1033
                                           	MOVRA	STK00
                                           	MOVAI	0x80
                                           	CALL	__gptrget1
                                           	MOVRA	r0x1031
                                           	MOVRA	r0x1034
                                           ;;107	MOVAR	r0x1034
                                           	CLRR	r0x1030
                                           ;	.line	1221; "MC32F7361.c"	next_frame_delay = section_7_delay_table[current_speed];
                                           	BCLR	PFLAG,0
                                           	RLAR	_current_speed
                                           	MOVRA	r0x1032
                                           	MOVAR	r0x1032
                                           	ADDAI	(_section_7_delay_table + 0)
                                           	MOVRA	r0x1032
                                           	MOVAI	high (_section_7_delay_table + 0)
                                           	JBCLR	PFLAG,0
                                           	ADDAI	0x01
                                           	MOVRA	r0x1033
                                           	MOVAR	r0x1032
                                           	MOVRA	STK01
                                           	MOVAR	r0x1033
                                           	MOVRA	STK00
                                           	MOVAI	0x80
                                           	CALL	__gptrget2
                                           	MOVRA	(_next_frame_delay + 1)
                                           	MOVAR	STK00
                                           	MOVRA	_next_frame_delay
                                           	GOTO	_00319_DS_
                                           ;;unsigned compare: left < lit(0x4E=78), size=1
                                           _00300_DS_
                                           ;	.line	1236; "MC32F7361.c"	else if (current_index >= SECTION_9_START && current_index <= SECTION_9_END)
                                           	MOVAI	0x4e
                                           	RSUBAR	_current_index
                                           	JBSET	PFLAG,0
                                           	GOTO	_00319_DS_
                                           ;;genSkipc:3291: created from rifx:013B5EFC
                                           ;;swapping arguments (AOP_TYPEs 1/3)
                                           ;;unsigned compare: left >= lit(0x5B=91), size=1
                                           	MOVAI	0x5b
                                           	RSUBAR	_current_index
                                           	JBCLR	PFLAG,0
                                           	GOTO	_00319_DS_
                                           ;;genSkipc:3291: created from rifx:013B5EFC
                                           ;	.line	1242; "MC32F7361.c"	speed_code = 0x10;
                                           	MOVAI	0x10
                                           	MOVRA	r0x1031
                                           	CLRR	r0x1030
                                           _00319_DS_
                                           ;	.line	1252; "MC32F7361.c"	speed_code <<= 8;
                                           	MOVAR	r0x1031
                                           	MOVRA	r0x1033
                                           	CLRR	r0x1032
                                           ;	.line	1253; "MC32F7361.c"	speed_code |= main_table[current_index];
                                           	MOVAR	_current_index
                                           	ADDAI	(_main_table + 0)
                                           	MOVRA	r0x1031
                                           	MOVAI	high (_main_table + 0)
                                           	JBCLR	PFLAG,0
                                           	ADDAI	0x01
                                           	MOVRA	r0x1030
                                           	MOVAR	r0x1031
                                           	MOVRA	STK01
                                           	MOVAR	r0x1030
                                           	MOVRA	STK00
                                           	MOVAI	0x80
                                           	CALL	__gptrget1
                                           	MOVRA	r0x1031
                                           	MOVRA	r0x1034
                                           ;;105	MOVAR	r0x1034
                                           	CLRR	r0x1030
                                           	MOVAR	r0x1031
                                           	ORRA	r0x1032
                                           	MOVAI	0x00
                                           	ORRA	r0x1033
                                           ;	.line	1254; "MC32F7361.c"	send_cmd_16bit(speed_code);
                                           	MOVAR	r0x1032
                                           	MOVRA	STK00
                                           	MOVAR	r0x1033
                                           	CALL	_send_cmd_16bit
                                           ;	.line	1256; "MC32F7361.c"	current_index++;
                                           	INCR	_current_index
                                           ;	.line	1257; "MC32F7361.c"	if (current_index > end_index)
                                           	MOVAR	_current_index
                                           	RSUBAR	_end_index
                                           	JBCLR	PFLAG,0
                                           	GOTO	_00334_DS_
                                           ;;genSkipc:3291: created from rifx:013B5EFC
                                           ;	.line	1258; "MC32F7361.c"	current_index = start_index;
                                           	MOVAR	_start_index
                                           	MOVRA	_current_index
                                           	GOTO	_00334_DS_
                                           _00331_DS_
                                           ;	.line	1261; "MC32F7361.c"	else if (power_sta == POWER_STA_PRE_ON)
                                           	MOVAR	_power_sta
                                           	XORAI	0x01
                                           	JBSET	PFLAG,2
                                           	GOTO	_00328_DS_
                                           ;	.line	1264; "MC32F7361.c"	LED_CTL_PIN = 1;
                                           	BSET	_IOP0bits,4
                                           ;	.line	1265; "MC32F7361.c"	delay_ms(2);
                                           	MOVAI	0x02
                                           	MOVRA	STK00
                                           	MOVAI	0x00
                                           	CALL	_delay_ms
                                           ;	.line	1266; "MC32F7361.c"	LED_CTL_PIN = 0;
                                           	BCLR	_IOP0bits,4
                                           ;	.line	1269; "MC32F7361.c"	delay_200us();
                                           	MOVAI	0x02
                                           	CALL	_delay_100xus
                                           ;	.line	1270; "MC32F7361.c"	LED_CTL_PIN = 1;
                                           	BSET	_IOP0bits,4
                                           ;	.line	1271; "MC32F7361.c"	delay_ms(3);
                                           	MOVAI	0x03
                                           	MOVRA	STK00
                                           	MOVAI	0x00
                                           	CALL	_delay_ms
                                           ;	.line	1272; "MC32F7361.c"	LED_CTL_PIN = 0;
                                           	BCLR	_IOP0bits,4
                                           ;	.line	1275; "MC32F7361.c"	delay_200us();
                                           	MOVAI	0x02
                                           	CALL	_delay_100xus
                                           ;	.line	1276; "MC32F7361.c"	LED_CTL_PIN = 1;
                                           	BSET	_IOP0bits,4
                                           ;	.line	1277; "MC32F7361.c"	delay_ms(4);
                                           	MOVAI	0x04
                                           	MOVRA	STK00
                                           	MOVAI	0x00
                                           	CALL	_delay_ms
                                           ;	.line	1278; "MC32F7361.c"	LED_CTL_PIN = 0;
                                           	BCLR	_IOP0bits,4
                                           ;	.line	1281; "MC32F7361.c"	delay_200us();
                                           	MOVAI	0x02
                                           	CALL	_delay_100xus
                                           ;	.line	1282; "MC32F7361.c"	LED_CTL_PIN = 1;
                                           	BSET	_IOP0bits,4
                                           ;	.line	1283; "MC32F7361.c"	delay_ms(5);
                                           	MOVAI	0x05
                                           	MOVRA	STK00
                                           	MOVAI	0x00
                                           	CALL	_delay_ms
                                           ;	.line	1284; "MC32F7361.c"	LED_CTL_PIN = 0;
                                           	BCLR	_IOP0bits,4
                                           ;	.line	1287; "MC32F7361.c"	delay_200us();
                                           	MOVAI	0x02
                                           	CALL	_delay_100xus
                                           ;	.line	1288; "MC32F7361.c"	LED_CTL_PIN = 1;
                                           	BSET	_IOP0bits,4
                                           ;	.line	1289; "MC32F7361.c"	delay_ms(51);
                                           	MOVAI	0x33
                                           	MOVRA	STK00
                                           	MOVAI	0x00
                                           	CALL	_delay_ms
                                           ;	.line	1291; "MC32F7361.c"	power_sta = POWER_STA_ON;
                                           	MOVAI	0x02
                                           	MOVRA	_power_sta
                                           ;	.line	1294; "MC32F7361.c"	key_event_same_deal(EEPROM_Read_Byte(0), EEPROM_Read_Byte(1), EEPROM_Read_Byte(2), EEPROM_Read_Byte(2));
                                           	MOVAI	0x00
                                           	CALL	_EEPROM_Read_Byte
                                           	MOVRA	r0x1030
                                           	MOVAR	STK00
                                           	MOVRA	r0x1032
                                           	MOVRA	r0x1031
                                           ;;106	MOVAR	r0x1031
                                           	MOVAI	0x01
                                           	CALL	_EEPROM_Read_Byte
                                           	MOVRA	r0x1030
                                           	MOVAR	STK00
                                           	MOVRA	r0x1033
                                           	MOVRA	r0x1031
                                           ;;104	MOVAR	r0x1031
                                           	MOVAI	0x02
                                           	CALL	_EEPROM_Read_Byte
                                           	MOVRA	r0x1030
                                           	MOVAR	STK00
                                           	MOVRA	r0x1031
                                           	MOVAR	r0x1031
                                           	MOVRA	STK02
                                           	MOVAR	r0x1030
                                           	MOVRA	STK01
                                           	MOVAR	r0x1033
                                           	MOVRA	STK00
                                           	MOVAR	r0x1032
                                           	CALL	_key_event_same_deal_ex
                                           	GOTO	_00334_DS_
                                           _00328_DS_
                                           ;	.line	1298; "MC32F7361.c"	else if (power_sta == POWER_STA_PRE_OFF)
                                           	MOVAR	_power_sta
                                           	XORAI	0x03
                                           	JBSET	PFLAG,2
                                           	GOTO	_00334_DS_
                                           ;	.line	1300; "MC32F7361.c"	power_sta = POWER_STA_OFF;
                                           	CLRR	_power_sta
                                           ;	.line	1302; "MC32F7361.c"	send_cmd_16bit(0x0C00);
                                           	MOVAI	0x00
                                           	MOVRA	STK00
                                           	MOVAI	0x0c
                                           	CALL	_send_cmd_16bit
                                           ;	.line	1303; "MC32F7361.c"	send_cmd_16bit(0x0C00);
                                           	MOVAI	0x00
                                           	MOVRA	STK00
                                           	MOVAI	0x0c
                                           	CALL	_send_cmd_16bit
                                           ;	.line	1304; "MC32F7361.c"	delay_ms(40);
                                           	MOVAI	0x28
                                           	MOVRA	STK00
                                           	MOVAI	0x00
                                           	CALL	_delay_ms
                                           ;	.line	1305; "MC32F7361.c"	LED_CTL_PIN = 0;
                                           	BCLR	_IOP0bits,4
                                           ;	.line	1306; "MC32F7361.c"	LED_4H_PIN = LED_TIM_PIN_OFF;
                                           	BSET	_IOP1bits,3
                                           ;	.line	1307; "MC32F7361.c"	LED_6H_PIN = LED_TIM_PIN_OFF;
                                           	BSET	_IOP1bits,7
                                           ;	.line	1308; "MC32F7361.c"	LED_8H_PIN = LED_TIM_PIN_OFF;
                                           	BSET	_IOP0bits,0
                                           	GOTO	_00334_DS_
                                           ;	.line	1311; "MC32F7361.c"	}
                                           	RETURN	
                                           ; exit point of _main
                                           
                                           ;***
                                           ;  pBlock Stats: dbName = C
                                           ;***
                                           ;entry:  _key_event_set_timer	;Function start
                                           ; 2 exit points
                                           ;has an exit
                                           ;functions called:
                                           ;   _key_event_same_deal_ex
                                           ;   _key_event_same_deal_ex
                                           ;5 compiler assigned registers:
                                           ;   r0x102E
                                           ;   r0x102F
                                           ;   STK02
                                           ;   STK01
                                           ;   STK00
                                           ;; Starting pCode block
                                           _key_event_set_timer	;Function start
                                           ; 2 exit points
                                           ;	.line	719; "MC32F7361.c"	key_event_same_deal(eeprom_read_byte_index_0, eeprom_read_byte_index_1, eeprom_read_byte_index_2, eeprom_read_byte_index_3);
                                           	MOVAR	_eeprom_read_byte_index_2
                                           	MOVRA	r0x102E
                                           ;;1	CLRR	r0x102F
                                           	MOVAR	r0x102E
                                           	MOVRA	STK02
                                           	MOVAI	0x00
                                           	MOVRA	STK01
                                           	MOVAR	_eeprom_read_byte_index_1
                                           	MOVRA	STK00
                                           	MOVAR	_eeprom_read_byte_index_0
                                           	CALL	_key_event_same_deal_ex
                                           ;	.line	721; "MC32F7361.c"	LED_4H_PIN = LED_TIM_PIN_OFF;
                                           	BSET	_IOP1bits,3
                                           ;	.line	722; "MC32F7361.c"	LED_6H_PIN = LED_TIM_PIN_OFF;
                                           	BSET	_IOP1bits,7
                                           ;	.line	723; "MC32F7361.c"	LED_8H_PIN = LED_TIM_PIN_OFF;
                                           	BSET	_IOP0bits,0
                                           ;	.line	729; "MC32F7361.c"	}
                                           	RETURN	
                                           ; exit point of _key_event_set_timer
                                           
                                           ;***
                                           ;  pBlock Stats: dbName = C
                                           ;***
                                           ;entry:  _key_event_same_deal_ex	;Function start
                                           ; 2 exit points
                                           ;has an exit
                                           ;functions called:
                                           ;   _EEPROM_Write_Byte
                                           ;   _EEPROM_Write_Byte
                                           ;   _EEPROM_Write_Byte
                                           ;   _EEPROM_Write_Byte
                                           ;   _send_cmd_16bit
                                           ;   _send_cmd_16bit
                                           ;   _send_cmd_16bit
                                           ;   _EEPROM_Write_Byte
                                           ;   _EEPROM_Write_Byte
                                           ;   _EEPROM_Write_Byte
                                           ;   _EEPROM_Write_Byte
                                           ;   _send_cmd_16bit
                                           ;   _send_cmd_16bit
                                           ;   _send_cmd_16bit
                                           ;9 compiler assigned registers:
                                           ;   r0x1028
                                           ;   STK00
                                           ;   r0x1029
                                           ;   STK01
                                           ;   r0x102A
                                           ;   STK02
                                           ;   r0x102B
                                           ;   r0x102C
                                           ;   r0x102D
                                           ;; Starting pCode block
                                           _key_event_same_deal_ex	;Function start
                                           ; 2 exit points
                                           	MOVRA	r0x102C
                                           ;	.line	665; "MC32F7361.c"	void key_event_same_deal_ex(u8 start, u8 end, u16 own_data1)
                                           	MOVRA	r0x1028
                                           	MOVAR	STK00
                                           	MOVRA	r0x1029
                                           	MOVAR	STK01
                                           	MOVRA	r0x102A
                                           	MOVAR	STK02
                                           	MOVRA	r0x102B
                                           ;;101	MOVAR	r0x1028
                                           ;	.line	668; "MC32F7361.c"	EEPROM_Write_Byte(0, start);
                                           	CLRR	r0x102D
                                           	MOVAR	r0x102C
                                           	MOVRA	STK01
                                           	MOVAI	0x00
                                           	MOVRA	STK00
                                           	MOVAI	0x00
                                           	CALL	_EEPROM_Write_Byte
                                           ;;103	MOVAR	r0x1029
                                           ;	.line	669; "MC32F7361.c"	EEPROM_Write_Byte(1, end);
                                           	CLRR	r0x102D
                                           ;;102	MOVAR	r0x102C
                                           	MOVAR	r0x1029
                                           	MOVRA	r0x102C
                                           	MOVRA	STK01
                                           	MOVAI	0x00
                                           	MOVRA	STK00
                                           	MOVAI	0x01
                                           	CALL	_EEPROM_Write_Byte
                                           ;	.line	670; "MC32F7361.c"	EEPROM_Write_Byte(2, own_data1);
                                           	MOVAR	r0x102B
                                           	MOVRA	STK01
                                           	MOVAR	r0x102A
                                           	MOVRA	STK00
                                           	MOVAI	0x02
                                           	CALL	_EEPROM_Write_Byte
                                           ;	.line	672; "MC32F7361.c"	EEPROM_Write_Byte(4, 0xA5A5);
                                           	MOVAI	0xa5
                                           	MOVRA	STK01
                                           	MOVAI	0xa5
                                           	MOVRA	STK00
                                           	MOVAI	0x04
                                           	CALL	_EEPROM_Write_Byte
                                           ;	.line	674; "MC32F7361.c"	eeprom_read_byte_index_0 = start;
                                           	MOVAR	r0x1028
                                           	MOVRA	_eeprom_read_byte_index_0
                                           ;	.line	675; "MC32F7361.c"	eeprom_read_byte_index_1 = end;
                                           	MOVAR	r0x1029
                                           	MOVRA	_eeprom_read_byte_index_1
                                           ;	.line	676; "MC32F7361.c"	eeprom_read_byte_index_2 = own_data1;
                                           	MOVAR	r0x102B
                                           	MOVRA	_eeprom_read_byte_index_2
                                           ;	.line	679; "MC32F7361.c"	if (power_sta == POWER_STA_ON)
                                           	MOVAR	_power_sta
                                           	XORAI	0x02
                                           	JBSET	PFLAG,2
                                           	GOTO	_00176_DS_
                                           ;	.line	681; "MC32F7361.c"	start_index = start;
                                           	MOVAR	r0x1028
                                           	MOVRA	_start_index
                                           ;	.line	682; "MC32F7361.c"	end_index = end;
                                           	MOVAR	r0x1029
                                           	MOVRA	_end_index
                                           ;	.line	691; "MC32F7361.c"	send_cmd_16bit(0x0C00);
                                           	MOVAI	0x00
                                           	MOVRA	STK00
                                           	MOVAI	0x0c
                                           	CALL	_send_cmd_16bit
                                           ;	.line	696; "MC32F7361.c"	if (own_data1 != 0xFFFF)
                                           	MOVAR	r0x102B
                                           	XORAI	0xff
                                           	JBSET	PFLAG,2
                                           	GOTO	_00192_DS_
                                           	MOVAR	r0x102A
                                           	XORAI	0xff
                                           	JBSET	PFLAG,2
                                           	GOTO	_00192_DS_
                                           	GOTO	_00172_DS_
                                           _00192_DS_
                                           ;	.line	698; "MC32F7361.c"	send_cmd_16bit(own_data1);
                                           	MOVAR	r0x102B
                                           	MOVRA	STK00
                                           	MOVAR	r0x102A
                                           	CALL	_send_cmd_16bit
                                           ;	.line	699; "MC32F7361.c"	send_cmd_16bit(own_data1);
                                           	MOVAR	r0x102B
                                           	MOVRA	STK00
                                           	MOVAR	r0x102A
                                           	CALL	_send_cmd_16bit
                                           _00172_DS_
                                           ;	.line	702; "MC32F7361.c"	current_index = start_index; // 
                                           	MOVAR	_start_index
                                           	MOVRA	_current_index
                                           ;	.line	703; "MC32F7361.c"	next_frame_delay = 0;        // 
                                           	CLRR	_next_frame_delay
                                           	CLRR	(_next_frame_delay + 1)
                                           	GOTO	_00178_DS_
                                           _00176_DS_
                                           ;	.line	705; "MC32F7361.c"	else if (power_sta == POWER_STA_OFF)
                                           	MOVAI	0x00
                                           	ORAR	_power_sta
                                           	JBSET	PFLAG,2
                                           	GOTO	_00178_DS_
                                           ;	.line	713; "MC32F7361.c"	power_sta = POWER_STA_PRE_ON;
                                           	MOVAI	0x01
                                           	MOVRA	_power_sta
                                           _00178_DS_
                                           ;	.line	715; "MC32F7361.c"	}
                                           	RETURN	
                                           ; exit point of _key_event_same_deal_ex
                                           
                                           ;***
                                           ;  pBlock Stats: dbName = C
                                           ;***
                                           ;entry:  _Sys_Init	;Function start
                                           ; 2 exit points
                                           ;has an exit
                                           ;; Starting pCode block
                                           _Sys_Init	;Function start
                                           ; 2 exit points
                                           ;	.line	275; "MC32F7361.c"	GIE = 0;
                                           	BCLR	_MCRbits,7
                                           ;	.line	278; "MC32F7361.c"	for (FSR0 = 0; FSR0 < 0xff; FSR0++)
                                           	CLRR	_FSR0
                                           ;;unsigned compare: left < lit(0xFF=255), size=1
                                           _00166_DS_
                                           	MOVAI	0xff
                                           	RSUBAR	_FSR0
                                           	JBCLR	PFLAG,0
                                           	GOTO	_00164_DS_
                                           ;;genSkipc:3291: created from rifx:013B5EFC
                                           ;	.line	280; "MC32F7361.c"	INDF0 = 0x00;
                                           	CLRR	_INDF0
                                           ;	.line	278; "MC32F7361.c"	for (FSR0 = 0; FSR0 < 0xff; FSR0++)
                                           	INCR	_FSR0
                                           	GOTO	_00166_DS_
                                           _00164_DS_
                                           ;	.line	282; "MC32F7361.c"	FSR0 = 0xFF;
                                           	MOVAI	0xff
                                           	MOVRA	_FSR0
                                           ;	.line	283; "MC32F7361.c"	INDF0 = 0x00;
                                           	CLRR	_INDF0
                                           ;	.line	287; "MC32F7361.c"	IOP0 = 0x00;   // io
                                           	CLRR	_IOP0
                                           ;	.line	288; "MC32F7361.c"	OEP0 = 0x3F;   // io 1:out  0:in
                                           	MOVAI	0x3f
                                           	MOVRA	_OEP0
                                           ;	.line	289; "MC32F7361.c"	PUP0 = 0x00;   // io   1:enable  0:disable
                                           	CLRR	_PUP0
                                           ;	.line	290; "MC32F7361.c"	PDP0 = 0x00;   // io   1:enable  0:disable
                                           	CLRR	_PDP0
                                           ;	.line	291; "MC32F7361.c"	P0ADCR = 0x00; // io  1:  0:io
                                           	CLRR	_P0ADCR
                                           ;	.line	293; "MC32F7361.c"	IOP1 = 0x00;   // io
                                           	CLRR	_IOP1
                                           ;	.line	294; "MC32F7361.c"	OEP1 = 0xFF;   // io 1:out  0:in
                                           	MOVAI	0xff
                                           	MOVRA	_OEP1
                                           ;	.line	295; "MC32F7361.c"	PUP1 = 0x00;   // io   1:enable  0:disable
                                           	CLRR	_PUP1
                                           ;	.line	296; "MC32F7361.c"	PDP1 = 0x00;   // io   1:enable  0:disable
                                           	CLRR	_PDP1
                                           ;	.line	297; "MC32F7361.c"	P1ADCR = 0x00; // io  1:  0:io
                                           	CLRR	_P1ADCR
                                           ;	.line	299; "MC32F7361.c"	IOP2 = 0x00; // io
                                           	CLRR	_IOP2
                                           ;	.line	300; "MC32F7361.c"	OEP2 = 0x0F; // io 1:out  0:in
                                           	MOVAI	0x0f
                                           	MOVRA	_OEP2
                                           ;	.line	301; "MC32F7361.c"	PUP2 = 0x00; // io   1:enable  0:disable
                                           	CLRR	_PUP2
                                           ;	.line	302; "MC32F7361.c"	PDP2 = 0x00; // io   1:enable  0:disablea
                                           	CLRR	_PDP2
                                           ;	.line	304; "MC32F7361.c"	PMOD = 0x00;  // P00P01P13 io
                                           	CLRR	_PMOD
                                           ;	.line	305; "MC32F7361.c"	DRVCR = 0x80; // 
                                           	MOVAI	0x80
                                           	MOVRA	_DRVCR
                                           ;	.line	311; "MC32F7361.c"	T2CR = DEF_SET_BIT0 | DEF_SET_BIT1; // CPU,8
                                           	MOVAI	0x03
                                           	MOVRA	_T2CR
                                           ;	.line	312; "MC32F7361.c"	T2CNT = 100 - 1;
                                           	MOVAI	0x63
                                           	MOVRA	_T2CNT
                                           ;	.line	313; "MC32F7361.c"	T2LOAD = 100 - 1; // 100us
                                           	MOVAI	0x63
                                           	MOVRA	_T2LOAD
                                           ;	.line	314; "MC32F7361.c"	T2EN = 1;
                                           	BSET	_T2CRbits,7
                                           ;	.line	315; "MC32F7361.c"	T2IE = 1;
                                           	BSET	_INTEbits,5
                                           ;	.line	319; "MC32F7361.c"	LED_4H_PIN = LED_TIM_PIN_OFF;
                                           	BSET	_IOP1bits,3
                                           ;	.line	320; "MC32F7361.c"	LED_6H_PIN = LED_TIM_PIN_OFF;
                                           	BSET	_IOP1bits,7
                                           ;	.line	321; "MC32F7361.c"	LED_8H_PIN = LED_TIM_PIN_OFF;
                                           	BSET	_IOP0bits,0
                                           ;	.line	322; "MC32F7361.c"	GIE = 1;
                                           	BSET	_MCRbits,7
                                           ;	.line	323; "MC32F7361.c"	}
                                           	RETURN	
                                           ; exit point of _Sys_Init
                                           
                                           ;***
                                           ;  pBlock Stats: dbName = C
                                           ;***
                                           ;entry:  _send_cmd_16bit	;Function start
                                           ; 2 exit points
                                           ;has an exit
                                           ;functions called:
                                           ;   _delay_100xus
                                           ;   _delay_ms
                                           ;   _delay_100xus
                                           ;   _delay_100xus
                                           ;   _delay_ms
                                           ;   _delay_100xus
                                           ;   _delay_ms
                                           ;   _delay_100xus
                                           ;   _delay_100xus
                                           ;   _delay_ms
                                           ;7 compiler assigned registers:
                                           ;   r0x1022
                                           ;   STK00
                                           ;   r0x1023
                                           ;   r0x1024
                                           ;   r0x1025
                                           ;   r0x1026
                                           ;   r0x1027
                                           ;; Starting pCode block
                                           _send_cmd_16bit	;Function start
                                           ; 2 exit points
                                           ;	.line	140; "MC32F7361.c"	void send_cmd_16bit(const u16 data)
                                           	MOVRA	r0x1022
                                           	MOVAR	STK00
                                           	MOVRA	r0x1023
                                           ;	.line	149; "MC32F7361.c"	for (i = 0; i < 16; i++)
                                           	CLRR	r0x1024
                                           _00141_DS_
                                           ;	.line	151; "MC32F7361.c"	LED_CTL_PIN = 0;
                                           	BCLR	_IOP0bits,4
                                           ;	.line	152; "MC32F7361.c"	delay_100us();
                                           	MOVAI	0x01
                                           	CALL	_delay_100xus
                                           ;	.line	153; "MC32F7361.c"	LED_CTL_PIN = 1;
                                           	BSET	_IOP0bits,4
                                           ;	.line	154; "MC32F7361.c"	if ((data >> (15 - i)) & 0x01) // 1
                                           	MOVAR	r0x1024
                                           	ISUBAI	0x0f
                                           	MOVRA	r0x1025
                                           	MOVAR	r0x1022
                                           	MOVRA	r0x1026
                                           	MOVAR	r0x1023
                                           	MOVRA	r0x1027
                                           	MOVAR	r0x1025
                                           	ISUBAI	0x00
                                           	JBCLR	PFLAG,2
                                           	GOTO	_00159_DS_
                                           _00158_DS_
                                           	RRR	r0x1026
                                           	RRR	r0x1027
                                           	ADDAI	0x01
                                           	JBSET	PFLAG,0
                                           	GOTO	_00158_DS_
                                           _00159_DS_
                                           	JBSET	r0x1027,0
                                           	GOTO	_00138_DS_
                                           ;	.line	156; "MC32F7361.c"	delay_ms(3);
                                           	MOVAI	0x03
                                           	MOVRA	STK00
                                           	MOVAI	0x00
                                           	CALL	_delay_ms
                                           	GOTO	_00142_DS_
                                           _00138_DS_
                                           ;	.line	160; "MC32F7361.c"	delay_1_4ms();
                                           	MOVAI	0x0e
                                           	CALL	_delay_100xus
                                           _00142_DS_
                                           ;	.line	149; "MC32F7361.c"	for (i = 0; i < 16; i++)
                                           	INCR	r0x1024
                                           ;;unsigned compare: left < lit(0x10=16), size=1
                                           	MOVAI	0x10
                                           	RSUBAR	r0x1024
                                           	JBSET	PFLAG,0
                                           	GOTO	_00141_DS_
                                           ;;genSkipc:3291: created from rifx:013B5EFC
                                           ;	.line	164; "MC32F7361.c"	LED_CTL_PIN = 0;
                                           	BCLR	_IOP0bits,4
                                           ;	.line	165; "MC32F7361.c"	delay_100us();
                                           	MOVAI	0x01
                                           	CALL	_delay_100xus
                                           ;	.line	166; "MC32F7361.c"	LED_CTL_PIN = 1;
                                           	BSET	_IOP0bits,4
                                           ;	.line	167; "MC32F7361.c"	delay_ms(33);
                                           	MOVAI	0x21
                                           	MOVRA	STK00
                                           	MOVAI	0x00
                                           	CALL	_delay_ms
                                           ;	.line	169; "MC32F7361.c"	}
                                           	RETURN	
                                           ; exit point of _send_cmd_16bit
                                           
                                           ;***
                                           ;  pBlock Stats: dbName = C
                                           ;***
                                           ;entry:  _EEPROM_Read_Byte	;Function start
                                           ; 2 exit points
                                           ;has an exit
                                           ;5 compiler assigned registers:
                                           ;   r0x101C
                                           ;   r0x101D
                                           ;   r0x101E
                                           ;   r0x101F
                                           ;   STK00
                                           ;; Starting pCode block
                                           _EEPROM_Read_Byte	;Function start
                                           ; 2 exit points
                                           ;	.line	110; "MC32F7361.c"	uint16_t EEPROM_Read_Byte(u8 addr)
                                           	MOVRA	_EEAR
                                           ;	.line	114; "MC32F7361.c"	EECR = 0x02; //  EE 
                                           	MOVAI	0x02
                                           	MOVRA	_EECR
                                           ;	.line	115; "MC32F7361.c"	Nop();
                                           	nop	
                                           ;	.line	116; "MC32F7361.c"	Nop();
                                           	nop	
                                           _00132_DS_
                                           ;	.line	117; "MC32F7361.c"	while (EEREAD) //  EE 
                                           	JBCLR	_EECRbits,1
                                           	GOTO	_00132_DS_
                                           ;	.line	121; "MC32F7361.c"	EEDR = (EEDRH << 8) | EEDRL;
                                           	MOVAR	_EEDRH
                                           	MOVRA	r0x101E
                                           	MOVRA	r0x101C
                                           	CLRR	r0x101D
                                           ;;100	MOVAR	r0x101C
                                           	CLRR	r0x101F
                                           	MOVAR	_EEDRL
                                           	MOVRA	r0x101C
                                           	CLRR	r0x101D
                                           	MOVAR	r0x101C
                                           	ORRA	r0x101F
                                           	MOVAI	0x00
                                           	ORRA	r0x101E
                                           ;	.line	122; "MC32F7361.c"	return EEDR;
                                           	MOVAR	r0x101F
                                           	MOVRA	STK00
                                           	MOVAR	r0x101E
                                           ;	.line	123; "MC32F7361.c"	}
                                           	RETURN	
                                           ; exit point of _EEPROM_Read_Byte
                                           
                                           ;***
                                           ;  pBlock Stats: dbName = C
                                           ;***
                                           ;entry:  _EEPROM_Write_Byte	;Function start
                                           ; 2 exit points
                                           ;has an exit
                                           ;6 compiler assigned registers:
                                           ;   STK00
                                           ;   r0x101C
                                           ;   STK01
                                           ;   r0x101D
                                           ;   r0x101E
                                           ;   r0x101F
                                           ;; Starting pCode block
                                           _EEPROM_Write_Byte	;Function start
                                           ; 2 exit points
                                           ;	.line	86; "MC32F7361.c"	void EEPROM_Write_Byte(uint8_t addr, uint16_t data)
                                           	MOVRA	_EEAR
                                           	MOVAR	STK00
                                           	MOVRA	r0x101E
                                           ;;1	MOVRA	r0x101C
                                           	MOVAR	STK01
                                           	MOVRA	r0x101D
                                           ;	.line	88; "MC32F7361.c"	HFEN = 1;
                                           	BSET	_OSCMRbits,0
                                           ;;99	MOVAR	r0x101C
                                           ;;1	CLRR	r0x101F
                                           ;	.line	90; "MC32F7361.c"	EEDRH = (data >> 8) & 0xff;
                                           	MOVAR	r0x101E
                                           	MOVRA	_EEDRH
                                           ;	.line	91; "MC32F7361.c"	EEDRL = data & 0xff;
                                           	MOVAR	r0x101D
                                           	MOVRA	_EEDRL
                                           ;	.line	92; "MC32F7361.c"	GIE = 0;
                                           	BCLR	_MCRbits,7
                                           ;	.line	93; "MC32F7361.c"	EEPR = 0x5A;
                                           	MOVAI	0x5a
                                           	MOVRA	_EEPR
                                           ;	.line	94; "MC32F7361.c"	EEPR = 0xA5; // 
                                           	MOVAI	0xa5
                                           	MOVRA	_EEPR
                                           ;	.line	95; "MC32F7361.c"	EECR = 0x01; // EEPROM  
                                           	MOVAI	0x01
                                           	MOVRA	_EECR
                                           ;	.line	96; "MC32F7361.c"	Nop();
                                           	nop	
                                           ;	.line	97; "MC32F7361.c"	Nop();
                                           	nop	
                                           _00127_DS_
                                           ;	.line	98; "MC32F7361.c"	while (EEWRITE) //  EE 
                                           	JBCLR	_EECRbits,0
                                           	GOTO	_00127_DS_
                                           ;	.line	102; "MC32F7361.c"	GIE = 1;
                                           	BSET	_MCRbits,7
                                           ;	.line	103; "MC32F7361.c"	}
                                           	RETURN	
                                           ; exit point of _EEPROM_Write_Byte
                                           
                                           ;***
                                           ;  pBlock Stats: dbName = C
                                           ;***
                                           ;entry:  _delay_100xus	;Function start
                                           ; 2 exit points
                                           ;has an exit
                                           ;2 compiler assigned registers:
                                           ;   r0x101C
                                           ;   r0x101D
                                           ;; Starting pCode block
                                           _delay_100xus	;Function start
                                           ; 2 exit points
                                           ;	.line	52; "MC32F7361.c"	void delay_100xus(u8 i)
                                           	MOVRA	r0x101C
                                           _00119_DS_
                                           ;	.line	55; "MC32F7361.c"	while (i)
                                           	MOVAI	0x00
                                           	ORAR	r0x101C
                                           	JBCLR	PFLAG,2
                                           	GOTO	_00122_DS_
                                           ;	.line	58; "MC32F7361.c"	while (j)
                                           	MOVAI	0x4a
                                           	MOVRA	r0x101D
                                           _00116_DS_
                                           	MOVAI	0x00
                                           	ORAR	r0x101D
                                           	JBCLR	PFLAG,2
                                           	GOTO	_00118_DS_
                                           ;	.line	60; "MC32F7361.c"	Nop();
                                           	nop	
                                           ;	.line	61; "MC32F7361.c"	j--;
                                           	DECR	r0x101D
                                           	GOTO	_00116_DS_
                                           _00118_DS_
                                           ;	.line	63; "MC32F7361.c"	i--;
                                           	DECR	r0x101C
                                           	GOTO	_00119_DS_
                                           _00122_DS_
                                           ;	.line	65; "MC32F7361.c"	}
                                           	RETURN	
                                           ; exit point of _delay_100xus
                                           
                                           ;***
                                           ;  pBlock Stats: dbName = C
                                           ;***
                                           ;entry:  _delay_ms	;Function start
                                           ; 2 exit points
                                           ;has an exit
                                           ;7 compiler assigned registers:
                                           ;   r0x101C
                                           ;   STK00
                                           ;   r0x101D
                                           ;   r0x101E
                                           ;   r0x101F
                                           ;   r0x1020
                                           ;   r0x1021
                                           ;; Starting pCode block
                                           _delay_ms	;Function start
                                           ; 2 exit points
                                           ;	.line	260; "user.h"	void delay_ms(u16 xms)
                                           	MOVRA	r0x101C
                                           	MOVAR	STK00
                                           	MOVRA	r0x101D
                                           _00108_DS_
                                           ;	.line	262; "user.h"	while (xms)
                                           	MOVAR	r0x101D
                                           	ORAR	r0x101C
                                           	JBCLR	PFLAG,2
                                           	GOTO	_00111_DS_
                                           ;	.line	265; "user.h"	while (i--)
                                           	MOVAI	0x05
                                           	MOVRA	r0x101E
                                           	MOVAI	0x02
                                           	MOVRA	r0x101F
                                           _00105_DS_
                                           	MOVAR	r0x101E
                                           	MOVRA	r0x1020
                                           	MOVAR	r0x101F
                                           	MOVRA	r0x1021
                                           	MOVAI	0xff
                                           	ADDRA	r0x101E
                                           	JBSET	PFLAG,0
                                           	DECR	r0x101F
                                           	MOVAR	r0x1020
                                           	ORAR	r0x1021
                                           	JBCLR	PFLAG,2
                                           	GOTO	_00107_DS_
                                           ;	.line	267; "user.h"	Nop();
                                           	nop	
                                           	GOTO	_00105_DS_
                                           _00107_DS_
                                           ;	.line	269; "user.h"	xms--; //  --while()
                                           	MOVAI	0xff
                                           	ADDRA	r0x101D
                                           	JBSET	PFLAG,0
                                           	DECR	r0x101C
                                           ;	.line	273; "user.h"	__endasm;
                                           	;
                                           	clrwdt;
                                           	
                                           	GOTO	_00108_DS_
                                           _00111_DS_
                                           ;	.line	275; "user.h"	}
                                           	RETURN	
                                           ; exit point of _delay_ms
                                           
                                           
                                           ;	code size estimation:
                                           ;	 1793+    0 =  1793 instructions ( 3586 byte)
                                           
                                           	end


MEMORY USAGE MAP ('X' = Used,  '-' = Unused)

0000 : XXXXXXXXXX------ XXXXXXXXXXXXXXXX XXXXXXXXXXXXXXXX XXXXXXXXXXXXXXXX
0040 : XXXXXXXXXXXXXXXX XXXXXXXXXXXXXXXX XXXXXXXXXXXXXXXX XXXXXXXXXXXXXXXX
0080 : XXXXXXXXXXXXXXXX XXXXXXXXXXXXXXXX XXXXXXXXXXXXXXXX XXXXXXXXXXXXXXXX
00C0 : XXXXXXXXXXXXXXXX XXXXXXXXXXXXXXXX XXXXXXXXXXXXXXXX XXXXXXXXXXXXXXXX
0100 : XXXXXXXXXXXXXXXX XXXXXXXXXXXXXXXX XXXXXXXXXXXXXXXX XXXXXXXXXXXXXXXX
0140 : XXXXXXXXXXXXXXXX XXXXXXXXXXXXXXXX XXXXXXXXXXXXXXXX XXXXXXXXXXXXXXXX
0180 : XXXXXXXXXXXXXXXX XXXXXXXXXXXXXXXX XXXXXXXXXXXXXXXX XXXXXXXXXXXXXXXX
01C0 : XXXXXXXXXXXXXXXX XXXXXXXXXXXXXXXX XXXXXXXXXXXXXXXX XXXXXXXXXXXXXXXX
0200 : XXXXXXXXXXXXXXXX XXXXXXXXXXXXXXXX XXXXXXXXXXXXXXXX XXXXXXXXXXXXXXXX
0240 : XXXXXXXXXXXXXXXX XXXXXXXXXXXXXXXX XXXXXXXXXXXXXXXX XXXXXXXXXXXXXXXX
0280 : XXXXXXXXXXXXXXXX XXXXXXXXXXXXXXXX XXXXXXXXXXXXXXXX XXXXXXXXXXXXXXXX
02C0 : XXXXXXXXXXXXXXXX XXXXXXXXXXXXXXXX XXXXXXXXXXXXXXXX XXXXXXXXXXXXXXXX
0300 : XXXXXXXXXXXXXXXX XXXXXXXXXXXXXXXX XXXXXXXXXXXXXXXX XXXXXXXXXXXXXXXX
0340 : XXXXXXXXXXXXXXXX XXXXXXXXXXXXXXXX XXXXXXXXXXXXXXXX XXXXXXXXXXXXXXXX
0380 : XXXXXXXXXXXXXXXX XXXXXXXXXXXXXXXX XXXXXXXXXXXXXXXX XXXXXXXXXXXXXXXX
03C0 : XXXXXXXXXXXXXXXX XXXXXXXXXXXXXXXX XXXXXXXXXXXXXXXX XXXXXXXXXXXXXXXX
0400 : XXXXXXXXXXXXXXXX XXXXXXXXXXXXXXXX XXXXXXXXXXXXXXXX XXXXXXXXXXXXXXXX
0440 : XXXXXXXXXXXXXXXX XXXXXXXXXXXXXXXX XXXXXXXXXXXXXXXX XXXXXXXXXXXXXXXX
0480 : XXXXXXXXXXXXXXXX XXXXXXXXXXXXXXXX XXXXXXXXXXXXXXXX XXXXXXXXXXXXXXXX
04C0 : XXXXXXXXXXXXXXXX XXXXXXXXXXXXXXXX XXXXXXXXXXXXXXXX XXXXXXXXXXXXXXXX
0500 : XXXXXXXXXXXXXXXX XXXXXXXXXXXXXXXX XXXXXXXXXXXXXXXX XXXXXXXXXXXXXXXX
0540 : XXXXXXXXXXXXXXXX XXXXXXXXXXXXXXXX XXXXXXXXXXXXXXXX XXXXXXXXXXXXXXXX
0580 : XXXXXXXXXXXXXXXX XXXXXXXXXXXXXXXX XXXXXXXXXXXXXXXX XXXXXXXXXXXXXXXX
05C0 : XXXXXXXXXXXXXXXX XXXXXXXXXXXXXXXX XXXXXXXXXXXXXXXX XXXXXXXXXXXXXXXX
0600 : XXXXXXXXXXXXXXXX XXXXXXXXXXXXXXXX XXXXXXXXXXXXXXXX XXXXXXXXXXXXXXXX
0640 : XXXXXXXXXXXXXXXX XXXXXXXXXXXXXXXX XXXXXXXXXXXXXXXX XXXXXXXXXXXXXXXX
0680 : XXXXXXXXXXXXXXXX XXXXXXXXXXXXXXXX XXXXXXXXXXXXXXXX XXXXXXXXXXXXXXXX
06C0 : XXXXXXXXXXXXXXXX XXXXXXXXXXXXXXXX XXXXXXXXXXXXXXXX XXXXXXXXXXXXXXXX
0700 : XXXXXXXXXXXXXXXX XXXXXXXXXXXXXXXX XXXXXXXXXXXXXXXX XXXXXXXXXXXXXXXX
0740 : XXXXXXXXXXXXXXXX XXXXXXXXXXXXXXXX XXXXXXXXXXXXXXXX XXXXXXXXXXXXXXXX
0780 : XXXXXXXXXXXXXXXX XXXXXXXXXXXXXXXX XXXXXXXXXXXXXXXX XXXXXXXXXXXXXXXX
07C0 : XXXXXXXXXXXXXXXX XXXXXXXXXXXXXXXX XXXXXXXXXXXXXXXX XXXXXXXXXXXXXXXX
0800 : XXXXXXXXXXXXXXXX XXXXXXXXXXXXXXXX XXXXXXXXXXXXXXXX XXXXXXXXXXXXXXXX
0840 : XXXXXXXXXXXXXXXX XXXXXXXXXXXXXXXX XXXXXXXXXXXXXXXX XXXXXXXXXXXXXXXX
0880 : XXXXXXXXXXXXXXXX XXXXXXXXXXXXXXXX XXXXXXXXXXXXXXXX XXXXXXXXXXXXXXXX
08C0 : XXXXXXXXXXXXXXXX XXXXXXXXXXXXXXXX XXXXXXXXXXXXXXXX XXXXXXXXXXXXXXXX
0900 : XXXXXXXXXXXXXXXX XXXXXXXXXXXXXXXX XXXXXXXXXXXXXXXX XXXXXXXXXXXXXXXX
0940 : XXXXXXXXXXXXXXXX XXXXXXXXXXXXXXXX XXXXXXXXXXXXXXXX XXXXXXXXXXXXXXXX
0980 : XXXXXXXXXXXXXXXX XXXXXXXXXXXXXXXX XXXXXXXXXXXXXXXX XXXXXXXXXXXXXXXX
09C0 : XXXXXXXXXXXXXXXX XXXXXXXXXXXXXXXX XXXXXXXXXXXXXXXX XXXXXXXXXXXXXXXX
0A00 : XXXXXXXXXXXXXXXX XXXXXXXXXXXXXXXX XXXXXXXXXXXXXXXX XXXXXXXXXXXXXXXX
0A40 : XXXXXXXXXXXXXXXX XXXXXXXXXXXXXXXX XXXXXXXXXXXXXXXX XXXXXXXXXXXXXXXX
0A80 : XXXXXXXXXXXXXXXX XXXXXXXXXXXXXXXX XXXXXXXXXXXXXXXX XXXXXXXXXXXXXXXX
0AC0 : XXXXXXXXXXXXXXXX XXXXXXXXXXXXXXXX XXXXXXXXXXXXXXXX XXXXXXXXXXXXXXXX
0B00 : XXXXXXXXXXXXXXXX XXXXXXXXXXXXXXXX XXXXXXXXXXXXXXXX XXXXXXXXXXXXXXXX
0B40 : XXXXXXXXXXXXXXXX XXXXXXXXXXXXXXXX XXXXXXXXXXXXXXXX XXXXXXXXXXXXXXXX
0B80 : XXXXXXXXXXXXXXXX XXXXXXXXXXXXXXXX XXXXXXXXXXXXXXXX XXXXXXXXXXXXXXXX
0BC0 : XXXXXXXXXXXXXXXX XXXXXXXXXXXXXXXX XXXXXXXXXXXXXXXX XXXXXXXXXXXXXXXX
0C00 : XXXXXXXXXXXXXXXX XXXXXXXXXXXXXXXX XXXXXXXXXXXXXXXX XXXXXXXXXXXXXXXX
0C40 : XXXXXXXXXXXXXXXX XXXXXXXXXXXXXXXX XXXXXXXXXXXXXXXX XXXXXXXXXXXXXXXX
0C80 : XXXXXXXXXXXXXXXX XXXXXXXXXXXXXXXX XXXXXXXXXXXXXXXX XXXXXXXXXXXXXXXX
0CC0 : XXXXXXXXXXXXXXXX XXXXXXXXXXXXXXXX XXXXXXXXXXXXXXXX XXXXXXXXXXXXXXXX
0D00 : XXXXXXXXXXXXXXXX XXXXXXXXXXXXXXXX XXXXXXXXXXXXXXXX XXXXXXXXXXXXXXXX
0D40 : XXXXXXXXXXXXXXXX XXXXXXXXXXXXXXXX XXXXXXXXXXXXXXXX XXXXXXXXXXXXXXXX
0D80 : XXXXXXXXXXXXXXXX XXXXXXXXXXXXXXXX XXXXXXXXXXXXXXXX XXXXXXXXXXXXXXXX
0DC0 : XXXXXXXXXXXXXXXX XXXXXXXXXXXXXXXX XXXXXXXXXXXXXXXX XXXXXXXXXXXXXXXX
0E00 : XXXXXXXXXXXXXXXX XXXXXXXXXXXXXXXX XXXXXXXXXXXXXXXX XXXXXXXXXXXXXXXX
0E40 : XXXXXXXXXXXXXXXX XXXXXXXXXXXXXXXX XXXXXXXXXXXXXXXX XXXXXXXXXXXXXXXX
0E80 : XXXXXXXXXXXXXXXX XXXXXXXXXXXXXXXX XXXXXXXXXXXXXXXX XXXXXXXXXXXXXXXX
0EC0 : XXXXXXXXXXXXXXXX XXXXXXXXXXXXXXXX XXXXXXXXXXXXXXXX XXXXXXXXXXXXXXXX
0F00 : XXXXXXXXXXXXXXXX XXXXXXXXXXXXXXXX XXXXXXXXXXXXXXXX XXXXXXXXXXXXXXXX
0F40 : XXXXXXXXXXXXXXXX XXXXXXXXXXXXXXXX XXXXXXXXXXXXXXXX XXXXXXXXXXXXXXXX
0F80 : XXXXXXXXXXXXXXXX XXXXXXXXXXXXXXXX XXXXXXXXXXXXXXXX XXXXXX----------

All other memory blocks unused.

Program Memory Words Used:  2008

