gplink-2.2.37 (Jan 22 2024)
Listing File Generated: 2025-3-20  17:08:56
 
 
Address  Value    Disassembly              Source
-------  -----    -----------              ------
                                           ;--------------------------------------------------------
                                           ; external declarations
                                           ;--------------------------------------------------------
                                           	extern	_INDF0bits
                                           	extern	_INDF1bits
                                           	extern	_INDF2bits
                                           	extern	_HIBYTEbits
                                           	extern	_FSR0bits
                                           	extern	_FSR1bits
                                           	extern	_PCLbits
                                           	extern	_PFLAGbits
                                           	extern	_MCRbits
                                           	extern	_INDF3bits
                                           	extern	_INTEbits
                                           	extern	_INTFbits
                                           	extern	_DRVCRbits
                                           	extern	_P0KBCRbits
                                           	extern	_P1KBCRbits
                                           	extern	_P2KBCRbits
                                           	extern	_IOP0bits
                                           	extern	_OEP0bits
                                           	extern	_PUP0bits
                                           	extern	_PDP0bits
                                           	extern	_IOP1bits
                                           	extern	_OEP1bits
                                           	extern	_PUP1bits
                                           	extern	_PDP1bits
                                           	extern	_T0CRbits
                                           	extern	_T0CNTbits
                                           	extern	_T0LOADbits
                                           	extern	_T0DATAbits
                                           	extern	_T1CRbits
                                           	extern	_T1CNTbits
                                           	extern	_T1LOADbits
                                           	extern	_T1DATAbits
                                           	extern	_T2CRbits
                                           	extern	_T2CNTbits
                                           	extern	_T2LOADbits
                                           	extern	_T2DATAbits
                                           	extern	_T3CRbits
                                           	extern	_T3CNTbits
                                           	extern	_T3LOADbits
                                           	extern	_PWM0DRbits
                                           	extern	_PWM1DRbits
                                           	extern	_PWM2DRbits
                                           	extern	_PWMCR0bits
                                           	extern	_PWMCR1bits
                                           	extern	_OSCMRbits
                                           	extern	_LVDCRbits
                                           	extern	_ADCR0bits
                                           	extern	_ADCR1bits
                                           	extern	_ADCR2bits
                                           	extern	_OSADJCRbits
                                           	extern	_ADRHbits
                                           	extern	_ADRLbits
                                           	extern	_P0ADCRbits
                                           	extern	_P1ADCRbits
                                           	extern	_IOP2bits
                                           	extern	_OEP2bits
                                           	extern	_PUP2bits
                                           	extern	_PDP2bits
                                           	extern	_PMODbits
                                           	extern	_PWMCR3bits
                                           	extern	_PWMCR2bits
                                           	extern	_PFRCCRbits
                                           	extern	_PFRCCALbits
                                           	extern	_EECRbits
                                           	extern	_EEPRbits
                                           	extern	_EEARbits
                                           	extern	_EEDRHbits
                                           	extern	_EEDRLbits
                                           	extern	_DBGCRbits
                                           	extern	_DBGPRbits
                                           	extern	_HIRCCALbits
                                           	extern	_INDF0
                                           	extern	_INDF1
                                           	extern	_INDF2
                                           	extern	_HIBYTE
                                           	extern	_FSR0
                                           	extern	_FSR1
                                           	extern	_PCL
                                           	extern	_PFLAG
                                           	extern	_MCR
                                           	extern	_INDF3
                                           	extern	_INTE
                                           	extern	_INTF
                                           	extern	_DRVCR
                                           	extern	_P0KBCR
                                           	extern	_P1KBCR
                                           	extern	_P2KBCR
                                           	extern	_IOP0
                                           	extern	_OEP0
                                           	extern	_PUP0
                                           	extern	_PDP0
                                           	extern	_IOP1
                                           	extern	_OEP1
                                           	extern	_PUP1
                                           	extern	_PDP1
                                           	extern	_T0CR
                                           	extern	_T0CNT
                                           	extern	_T0LOAD
                                           	extern	_T0DATA
                                           	extern	_T1CR
                                           	extern	_T1CNT
                                           	extern	_T1LOAD
                                           	extern	_T1DATA
                                           	extern	_T2CR
                                           	extern	_T2CNT
                                           	extern	_T2LOAD
                                           	extern	_T2DATA
                                           	extern	_T3CR
                                           	extern	_T3CNT
                                           	extern	_T3LOAD
                                           	extern	_PWM0DR
                                           	extern	_PWM1DR
                                           	extern	_PWM2DR
                                           	extern	_PWMCR0
                                           	extern	_PWMCR1
                                           	extern	_OSCMR
                                           	extern	_LVDCR
                                           	extern	_ADCR0
                                           	extern	_ADCR1
                                           	extern	_ADCR2
                                           	extern	_OSADJCR
                                           	extern	_ADRH
                                           	extern	_ADRL
                                           	extern	_P0ADCR
                                           	extern	_P1ADCR
                                           	extern	_IOP2
                                           	extern	_OEP2
                                           	extern	_PUP2
                                           	extern	_PDP2
                                           	extern	_PMOD
                                           	extern	_PWMCR3
                                           	extern	_PWMCR2
                                           	extern	_PFRCCR
                                           	extern	_PFRCCAL
                                           	extern	_EECR
                                           	extern	_EEPR
                                           	extern	_EEAR
                                           	extern	_EEDRH
                                           	extern	_EEDRL
                                           	extern	_DBGCR
                                           	extern	_DBGPR
                                           	extern	_HIRCCAL
                                           	extern	__gptrget2
                                           	extern	__mulchar
                                           	extern	__gptrget1
                                           ;--------------------------------------------------------
                                           ; global declarations
                                           ;--------------------------------------------------------
                                           	global	_delay_ms
                                           	global	_delay_100us
                                           	global	_delay_200us
                                           	global	_delay_1_4ms
                                           	global	_EEPROM_Write_Byte
                                           	global	_EEPROM_Read_Byte
                                           	global	_EEPROM_Write_Data
                                           	global	_send_cmd_16bit
                                           	global	_send_cmd_16bit_without_delay
                                           	global	_CLR_RAM
                                           	global	_IO_Init
                                           	global	_TIMER2_INT_Init
                                           	global	_TIMER3_INT_Init
                                           	global	_Sys_Init
                                           	global	_main
                                           	global	_int_isr
                                           	global	_flag_is_press_speed
                                           	global	_cur_led_status
                                           	global	_cur_r3c4_status
                                           	global	_abuf
                                           	global	_statusbuf
                                           	global	_flag1
                                           	global	_ir_data
                                           	global	_table_irkey
                                           
                                           	global STK06
                                           	global STK05
                                           	global STK04
                                           	global STK03
                                           	global STK02
                                           	global STK01
                                           	global STK00
                                           
                                           sharebank udata_ovr 0x0000
                                           STK06	res 1
                                           STK05	res 1
                                           STK04	res 1
                                           STK03	res 1
                                           STK02	res 1
                                           STK01	res 1
                                           STK00	res 1
                                           
                                           ;--------------------------------------------------------
                                           ; global definitions
                                           ;--------------------------------------------------------
                                           UD_MC32F7361_0	udata
                                           _flag_is_press_speed	res	1
                                           
                                           UD_MC32F7361_1	udata
                                           _cur_led_status	res	1
                                           
                                           UD_MC32F7361_2	udata
                                           _cur_r3c4_status	res	1
                                           
                                           UD_MC32F7361_3	udata
                                           _abuf	res	1
                                           
                                           UD_MC32F7361_4	udata
                                           _statusbuf	res	1
                                           
                                           UD_MC32F7361_5	udata
                                           _flag1	res	1
                                           
                                           UD_MC32F7361_6	udata
                                           _ir_data	res	1
                                           
                                           ;--------------------------------------------------------
                                           ; absolute symbol definitions
                                           ;--------------------------------------------------------
                                           ;--------------------------------------------------------
                                           ; compiler-defined variables
                                           ;--------------------------------------------------------
                                           UDL_MC32F7361_0	udata
                                           r0x100E	res	1
                                           r0x100D	res	1
                                           r0x100F	res	1
                                           r0x1010	res	1
                                           r0x1011	res	1
                                           r0x1012	res	1
                                           r0x1037	res	1
                                           r0x1038	res	1
                                           r0x1028	res	1
                                           r0x1029	res	1
                                           r0x1033	res	1
                                           r0x1034	res	1
                                           r0x1036	res	1
                                           r0x1035	res	1
                                           r0x102B	res	1
                                           r0x102E	res	1
                                           r0x102D	res	1
                                           r0x102C	res	1
                                           r0x102F	res	1
                                           r0x1030	res	1
                                           r0x1032	res	1
                                           r0x1031	res	1
                                           r0x1014	res	1
                                           r0x1013	res	1
                                           r0x1015	res	1
                                           r0x1016	res	1
                                           r0x1018	res	1
                                           r0x1017	res	1
                                           r0x1022	res	1
                                           r0x1021	res	1
                                           r0x1023	res	1
                                           r0x1024	res	1
                                           r0x1026	res	1
                                           r0x1025	res	1
                                           r0x1019	res	1
                                           r0x101A	res	1
                                           r0x101B	res	1
                                           r0x101C	res	1
                                           r0x101D	res	1
                                           r0x101E	res	1
                                           r0x101F	res	1
                                           r0x1020	res	1
                                           r0x1039	res	1
                                           r0x103A	res	1
                                           _main_tmp_262144_57	res	2
                                           _int_isr_ir_level_cnt_196608_87	res	2
                                           _int_isr_ir_fliter_196608_87	res	1
                                           _int_isr___ir_data_196608_87	res	1
                                           _int_isr_ir_long_press_cnt_196608_87	res	2
                                           ;--------------------------------------------------------
                                           ; initialized data
                                           ;--------------------------------------------------------
                                           
                                           ID_MC32F7361_0	code
                                           _table_irkey
000350   0080     dw      0x80             	dw 0x80
000351   0096     dw      0x96             	dw 0x96
000352   0045     dw      0x45             	dw 0x45
000353   000f     dw      0xf              	dw 0x0f
000354   0011     deca                     	dw 0x11
000355   0090     dw      0x90             	dw 0x90
000356   0000     nop                      	dw 0x00
000357   0011     deca                     	dw 0x11
000358   00ff     dw      0xff             	dw 0xff
000359   00ff     dw      0xff             	dw 0xff
00035a   00b8     dw      0xb8             	dw 0xb8
00035b   0000     nop                      	dw 0x00
00035c   0022     dw      0x22             	dw 0x22
00035d   00ff     dw      0xff             	dw 0xff
00035e   00ff     dw      0xff             	dw 0xff
00035f   00f8     dw      0xf8             	dw 0xf8
000360   0000     nop                      	dw 0x00
000361   0044     dw      0x44             	dw 0x44
000362   00ff     dw      0xff             	dw 0xff
000363   00ff     dw      0xff             	dw 0xff
000364   00b0     dw      0xb0             	dw 0xb0
000365   0096     dw      0x96             	dw 0x96
000366   0045     dw      0x45             	dw 0x45
000367   0010     djza                     	dw 0x10
000368   0077     dw      0x77             	dw 0x77
000369   0098     dw      0x98             	dw 0x98
00036a   009f     dw      0x9f             	dw 0x9f
00036b   0000     nop                      	dw 0x00
00036c   0010     djza                     	dw 0x10
00036d   0033     dw      0x33             	dw 0x33
00036e   00d8     dw      0xd8             	dw 0xd8
00036f   0090     dw      0x90             	dw 0x90
000370   00f1     dw      0xf1             	dw 0xf1
000371   0010     djza                     	dw 0x10
000372   0066     dw      0x66             	dw 0x66
000373   0088     dw      0x88             	dw 0x88
000374   0093     dw      0x93             	dw 0x93
000375   000f     dw      0xf              	dw 0x0f
000376   0010     djza                     	dw 0x10
000377   0055     dw      0x55             	dw 0x55
000378   00e8     dw      0xe8             	dw 0xe8
000379   009f     dw      0x9f             	dw 0x9f
00037a   0010     djza                     	dw 0x10
00037b   0010     djza                     	dw 0x10
00037c   0033     dw      0x33             	dw 0x33
00037d   0048     dw      0x48             	dw 0x48
00037e   0090     dw      0x90             	dw 0x90
00037f   00f8     dw      0xf8             	dw 0xf8
000380   0010     djza                     	dw 0x10
000381   0066     dw      0x66             	dw 0x66
000382   0068     dw      0x68             	dw 0x68
000383   0098     dw      0x98             	dw 0x98
000384   000f     dw      0xf              	dw 0x0f
000385   0010     djza                     	dw 0x10
000386   0055     dw      0x55             	dw 0x55
000387   0002     dw      0x2              	dw 0x02
000388   009f     dw      0x9f             	dw 0x9f
000389   0030     dw      0x30             	dw 0x30
00038a   0010     djza                     	dw 0x10
00038b   0033     dw      0x33             	dw 0x33
00038c   0032     dw      0x32             	dw 0x32
00038d   0090     dw      0x90             	dw 0x90
00038e   00fc     dw      0xfc             	dw 0xfc
00038f   0010     djza                     	dw 0x10
000390   0066     dw      0x66             	dw 0x66
000391   0020     dw      0x20             	dw 0x20
000392   009f     dw      0x9f             	dw 0x9f
000393   000f     dw      0xf              	dw 0x0f
000394   0010     djza                     	dw 0x10
000395   0055     dw      0x55             	dw 0x55
000396   0050     dw      0x50             	dw 0x50
000397   009f     dw      0x9f             	dw 0x9f
000398   00f0     dw      0xf0             	dw 0xf0
000399   0010     djza                     	dw 0x10
00039a   0033     dw      0x33             	dw 0x33
00039b   0078     dw      0x78             	dw 0x78
00039c   0090     dw      0x90             	dw 0x90
00039d   00ff     dw      0xff             	dw 0xff
00039e   0010     djza                     	dw 0x10
00039f   0066     dw      0x66             	dw 0x66
0003a0   0070     dw      0x70             	dw 0x70
0003a1   009f     dw      0x9f             	dw 0x9f
0003a2   0003     dw      0x3              	dw 0x03
0003a3   0010     djza                     	dw 0x10
0003a4   0055     dw      0x55             	dw 0x55
0003a5   00f0     dw      0xf0             	dw 0xf0
0003a6   0096     dw      0x96             	dw 0x96
0003a7   0045     dw      0x45             	dw 0x45
0003a8   0000     nop                      	dw 0x00
0003a9   00ee     dw      0xee             	dw 0xee
                                           
                                           
                                           ;@Allocation info for local variables in function 'delay_ms'
                                           ;@delay_ms delay_ms                  Allocated to registers ;size:2
                                           ;@delay_ms INDF0bits                 Allocated to registers ;size:1
                                           ;@delay_ms INDF1bits                 Allocated to registers ;size:1
                                           ;@delay_ms INDF2bits                 Allocated to registers ;size:1
                                           ;@delay_ms HIBYTEbits                Allocated to registers ;size:1
                                           ;@delay_ms FSR0bits                  Allocated to registers ;size:1
                                           ;@delay_ms FSR1bits                  Allocated to registers ;size:1
                                           ;@delay_ms PCLbits                   Allocated to registers ;size:1
                                           ;@delay_ms PFLAGbits                 Allocated to registers ;size:1
                                           ;@delay_ms MCRbits                   Allocated to registers ;size:1
                                           ;@delay_ms INDF3bits                 Allocated to registers ;size:1
                                           ;@delay_ms INTEbits                  Allocated to registers ;size:1
                                           ;@delay_ms INTFbits                  Allocated to registers ;size:1
                                           ;@delay_ms DRVCRbits                 Allocated to registers ;size:1
                                           ;@delay_ms P0KBCRbits                Allocated to registers ;size:1
                                           ;@delay_ms P1KBCRbits                Allocated to registers ;size:1
                                           ;@delay_ms P2KBCRbits                Allocated to registers ;size:1
                                           ;@delay_ms IOP0bits                  Allocated to registers ;size:1
                                           ;@delay_ms OEP0bits                  Allocated to registers ;size:1
                                           ;@delay_ms PUP0bits                  Allocated to registers ;size:1
                                           ;@delay_ms PDP0bits                  Allocated to registers ;size:1
                                           ;@delay_ms IOP1bits                  Allocated to registers ;size:1
                                           ;@delay_ms OEP1bits                  Allocated to registers ;size:1
                                           ;@delay_ms PUP1bits                  Allocated to registers ;size:1
                                           ;@delay_ms PDP1bits                  Allocated to registers ;size:1
                                           ;@delay_ms T0CRbits                  Allocated to registers ;size:1
                                           ;@delay_ms T0CNTbits                 Allocated to registers ;size:1
                                           ;@delay_ms T0LOADbits                Allocated to registers ;size:1
                                           ;@delay_ms T0DATAbits                Allocated to registers ;size:1
                                           ;@delay_ms T1CRbits                  Allocated to registers ;size:1
                                           ;@delay_ms T1CNTbits                 Allocated to registers ;size:1
                                           ;@delay_ms T1LOADbits                Allocated to registers ;size:1
                                           ;@delay_ms T1DATAbits                Allocated to registers ;size:1
                                           ;@delay_ms T2CRbits                  Allocated to registers ;size:1
                                           ;@delay_ms T2CNTbits                 Allocated to registers ;size:1
                                           ;@delay_ms T2LOADbits                Allocated to registers ;size:1
                                           ;@delay_ms T2DATAbits                Allocated to registers ;size:1
                                           ;@delay_ms T3CRbits                  Allocated to registers ;size:1
                                           ;@delay_ms T3CNTbits                 Allocated to registers ;size:1
                                           ;@delay_ms T3LOADbits                Allocated to registers ;size:1
                                           ;@delay_ms PWM0DRbits                Allocated to registers ;size:1
                                           ;@delay_ms PWM1DRbits                Allocated to registers ;size:1
                                           ;@delay_ms PWM2DRbits                Allocated to registers ;size:1
                                           ;@delay_ms PWMCR0bits                Allocated to registers ;size:1
                                           ;@delay_ms PWMCR1bits                Allocated to registers ;size:1
                                           ;@delay_ms OSCMRbits                 Allocated to registers ;size:1
                                           ;@delay_ms LVDCRbits                 Allocated to registers ;size:1
                                           ;@delay_ms ADCR0bits                 Allocated to registers ;size:1
                                           ;@delay_ms ADCR1bits                 Allocated to registers ;size:1
                                           ;@delay_ms ADCR2bits                 Allocated to registers ;size:1
                                           ;@delay_ms OSADJCRbits               Allocated to registers ;size:1
                                           ;@delay_ms ADRHbits                  Allocated to registers ;size:1
                                           ;@delay_ms ADRLbits                  Allocated to registers ;size:1
                                           ;@delay_ms P0ADCRbits                Allocated to registers ;size:1
                                           ;@delay_ms P1ADCRbits                Allocated to registers ;size:1
                                           ;@delay_ms IOP2bits                  Allocated to registers ;size:1
                                           ;@delay_ms OEP2bits                  Allocated to registers ;size:1
                                           ;@delay_ms PUP2bits                  Allocated to registers ;size:1
                                           ;@delay_ms PDP2bits                  Allocated to registers ;size:1
                                           ;@delay_ms PMODbits                  Allocated to registers ;size:1
                                           ;@delay_ms PWMCR3bits                Allocated to registers ;size:1
                                           ;@delay_ms PWMCR2bits                Allocated to registers ;size:1
                                           ;@delay_ms PFRCCRbits                Allocated to registers ;size:1
                                           ;@delay_ms PFRCCALbits               Allocated to registers ;size:1
                                           ;@delay_ms EECRbits                  Allocated to registers ;size:1
                                           ;@delay_ms EEPRbits                  Allocated to registers ;size:1
                                           ;@delay_ms EEARbits                  Allocated to registers ;size:1
                                           ;@delay_ms EEDRHbits                 Allocated to registers ;size:1
                                           ;@delay_ms EEDRLbits                 Allocated to registers ;size:1
                                           ;@delay_ms DBGCRbits                 Allocated to registers ;size:1
                                           ;@delay_ms DBGPRbits                 Allocated to registers ;size:1
                                           ;@delay_ms HIRCCALbits               Allocated to registers ;size:1
                                           ;@delay_ms flag_is_press_speed       Allocated to registers ;size:1
                                           ;@delay_ms cur_led_status            Allocated to registers ;size:1
                                           ;@delay_ms cur_r3c4_status           Allocated to registers ;size:1
                                           ;@delay_ms abuf                      Allocated to registers ;size:1
                                           ;@delay_ms statusbuf                 Allocated to registers ;size:1
                                           ;@delay_ms flag1                     Allocated to registers ;size:1
                                           ;@delay_ms ir_data                   Allocated to registers ;size:1
                                           ;@delay_ms xms                       Allocated to registers ;size:2
                                           ;@delay_ms i                         Allocated to registers r0x100F r0x1010 ;size:2
                                           ;@delay_ms INDF0                     Allocated to registers ;size:1
                                           ;@delay_ms INDF1                     Allocated to registers ;size:1
                                           ;@delay_ms INDF2                     Allocated to registers ;size:1
                                           ;@delay_ms HIBYTE                    Allocated to registers ;size:1
                                           ;@delay_ms FSR0                      Allocated to registers ;size:1
                                           ;@delay_ms FSR1                      Allocated to registers ;size:1
                                           ;@delay_ms PCL                       Allocated to registers ;size:1
                                           ;@delay_ms PFLAG                     Allocated to registers ;size:1
                                           ;@delay_ms MCR                       Allocated to registers ;size:1
                                           ;@delay_ms INDF3                     Allocated to registers ;size:1
                                           ;@delay_ms INTE                      Allocated to registers ;size:1
                                           ;@delay_ms INTF                      Allocated to registers ;size:1
                                           ;@delay_ms DRVCR                     Allocated to registers ;size:1
                                           ;@delay_ms P0KBCR                    Allocated to registers ;size:1
                                           ;@delay_ms P1KBCR                    Allocated to registers ;size:1
                                           ;@delay_ms P2KBCR                    Allocated to registers ;size:1
                                           ;@delay_ms IOP0                      Allocated to registers ;size:1
                                           ;@delay_ms OEP0                      Allocated to registers ;size:1
                                           ;@delay_ms PUP0                      Allocated to registers ;size:1
                                           ;@delay_ms PDP0                      Allocated to registers ;size:1
                                           ;@delay_ms IOP1                      Allocated to registers ;size:1
                                           ;@delay_ms OEP1                      Allocated to registers ;size:1
                                           ;@delay_ms PUP1                      Allocated to registers ;size:1
                                           ;@delay_ms PDP1                      Allocated to registers ;size:1
                                           ;@delay_ms T0CR                      Allocated to registers ;size:1
                                           ;@delay_ms T0CNT                     Allocated to registers ;size:1
                                           ;@delay_ms T0LOAD                    Allocated to registers ;size:1
                                           ;@delay_ms T0DATA                    Allocated to registers ;size:1
                                           ;@delay_ms T1CR                      Allocated to registers ;size:1
                                           ;@delay_ms T1CNT                     Allocated to registers ;size:1
                                           ;@delay_ms T1LOAD                    Allocated to registers ;size:1
                                           ;@delay_ms T1DATA                    Allocated to registers ;size:1
                                           ;@delay_ms T2CR                      Allocated to registers ;size:1
                                           ;@delay_ms T2CNT                     Allocated to registers ;size:1
                                           ;@delay_ms T2LOAD                    Allocated to registers ;size:1
                                           ;@delay_ms T2DATA                    Allocated to registers ;size:1
                                           ;@delay_ms T3CR                      Allocated to registers ;size:1
                                           ;@delay_ms T3CNT                     Allocated to registers ;size:1
                                           ;@delay_ms T3LOAD                    Allocated to registers ;size:1
                                           ;@delay_ms PWM0DR                    Allocated to registers ;size:1
                                           ;@delay_ms PWM1DR                    Allocated to registers ;size:1
                                           ;@delay_ms PWM2DR                    Allocated to registers ;size:1
                                           ;@delay_ms PWMCR0                    Allocated to registers ;size:1
                                           ;@delay_ms PWMCR1                    Allocated to registers ;size:1
                                           ;@delay_ms OSCMR                     Allocated to registers ;size:1
                                           ;@delay_ms LVDCR                     Allocated to registers ;size:1
                                           ;@delay_ms ADCR0                     Allocated to registers ;size:1
                                           ;@delay_ms ADCR1                     Allocated to registers ;size:1
                                           ;@delay_ms ADCR2                     Allocated to registers ;size:1
                                           ;@delay_ms OSADJCR                   Allocated to registers ;size:1
                                           ;@delay_ms ADRH                      Allocated to registers ;size:1
                                           ;@delay_ms ADRL                      Allocated to registers ;size:1
                                           ;@delay_ms P0ADCR                    Allocated to registers ;size:1
                                           ;@delay_ms P1ADCR                    Allocated to registers ;size:1
                                           ;@delay_ms IOP2                      Allocated to registers ;size:1
                                           ;@delay_ms OEP2                      Allocated to registers ;size:1
                                           ;@delay_ms PUP2                      Allocated to registers ;size:1
                                           ;@delay_ms PDP2                      Allocated to registers ;size:1
                                           ;@delay_ms PMOD                      Allocated to registers ;size:1
                                           ;@delay_ms PWMCR3                    Allocated to registers ;size:1
                                           ;@delay_ms PWMCR2                    Allocated to registers ;size:1
                                           ;@delay_ms PFRCCR                    Allocated to registers ;size:1
                                           ;@delay_ms PFRCCAL                   Allocated to registers ;size:1
                                           ;@delay_ms EECR                      Allocated to registers ;size:1
                                           ;@delay_ms EEPR                      Allocated to registers ;size:1
                                           ;@delay_ms EEAR                      Allocated to registers ;size:1
                                           ;@delay_ms EEDRH                     Allocated to registers ;size:1
                                           ;@delay_ms EEDRL                     Allocated to registers ;size:1
                                           ;@delay_ms DBGCR                     Allocated to registers ;size:1
                                           ;@delay_ms DBGPR                     Allocated to registers ;size:1
                                           ;@delay_ms HIRCCAL                   Allocated to registers ;size:1
                                           ;@end Allocation info for local variables in function 'delay_ms';
                                           ;@Allocation info for local variables in function 'delay_100us'
                                           ;@delay_100us i                         Allocated to registers r0x100D ;size:1
                                           ;@end Allocation info for local variables in function 'delay_100us';
                                           ;@Allocation info for local variables in function 'delay_200us'
                                           ;@delay_200us i                         Allocated to registers r0x1037 ;size:1
                                           ;@end Allocation info for local variables in function 'delay_200us';
                                           ;@Allocation info for local variables in function 'delay_1_4ms'
                                           ;@delay_1_4ms i                         Allocated to registers r0x100F ;size:1
                                           ;@end Allocation info for local variables in function 'delay_1_4ms';
                                           ;@Allocation info for local variables in function 'EEPROM_Write_Byte'
                                           ;@EEPROM_Write_Byte data                      Allocated to registers r0x1028 r0x1027 ;size:2
                                           ;@EEPROM_Write_Byte addr                      Allocated to registers ;size:1
                                           ;@end Allocation info for local variables in function 'EEPROM_Write_Byte';
                                           ;@Allocation info for local variables in function 'EEPROM_Read_Byte'
                                           ;@EEPROM_Read_Byte addr                      Allocated to registers ;size:1
                                           ;@EEPROM_Read_Byte EEDR                      Allocated to registers r0x1036 r0x1035 ;size:2
                                           ;@end Allocation info for local variables in function 'EEPROM_Read_Byte';
                                           ;@Allocation info for local variables in function 'EEPROM_Write_Data'
                                           ;@EEPROM_Write_Data len                       Allocated to registers ;size:1
                                           ;@EEPROM_Write_Data data                      Allocated to registers ;size:3
                                           ;@EEPROM_Write_Data addr                      Allocated to registers ;size:1
                                           ;@end Allocation info for local variables in function 'EEPROM_Write_Data';
                                           ;@Allocation info for local variables in function 'send_cmd_16bit'
                                           ;@send_cmd_16bit data                      Allocated to registers r0x1014 r0x1013 ;size:2
                                           ;@send_cmd_16bit i                         Allocated to registers r0x1015 ;size:1
                                           ;@end Allocation info for local variables in function 'send_cmd_16bit';
                                           ;@Allocation info for local variables in function 'send_cmd_16bit_without_delay'
                                           ;@send_cmd_16bit_without_delay data                      Allocated to registers r0x1022 r0x1021 ;size:2
                                           ;@send_cmd_16bit_without_delay i                         Allocated to registers r0x1023 ;size:1
                                           ;@end Allocation info for local variables in function 'send_cmd_16bit_without_delay';
                                           ;@Allocation info for local variables in function 'CLR_RAM'
                                           ;@end Allocation info for local variables in function 'CLR_RAM';
                                           ;@Allocation info for local variables in function 'IO_Init'
                                           ;@end Allocation info for local variables in function 'IO_Init';
                                           ;@Allocation info for local variables in function 'TIMER2_INT_Init'
                                           ;@end Allocation info for local variables in function 'TIMER2_INT_Init';
                                           ;@Allocation info for local variables in function 'TIMER3_INT_Init'
                                           ;@end Allocation info for local variables in function 'TIMER3_INT_Init';
                                           ;@Allocation info for local variables in function 'Sys_Init'
                                           ;@end Allocation info for local variables in function 'Sys_Init';
                                           ;@Allocation info for local variables in function 'main'
                                           ;@main tmp                       Allocated to registers ;size:2
                                           ;@main i                         Allocated to registers r0x1019 ;size:1
                                           ;@main tmp                       Allocated to registers r0x101C r0x101D ;size:2
                                           ;@end Allocation info for local variables in function 'main';
                                           ;@Allocation info for local variables in function 'int_isr'
                                           ;@int_isr ir_fliter                 Allocated to registers ;size:1
                                           ;@int_isr ir_level_cnt              Allocated to registers ;size:2
                                           ;@int_isr __ir_data                 Allocated to registers ;size:1
                                           ;@int_isr ir_long_press_cnt         Allocated to registers ;size:2
                                           ;@end Allocation info for local variables in function 'int_isr';
                                           
                                           ;--------------------------------------------------------
                                           ; overlayable items in internal ram 
                                           ;--------------------------------------------------------
                                           ;	udata_ovr
                                           ;--------------------------------------------------------
                                           ; reset vector 
                                           ;--------------------------------------------------------
                                           STARTUP	code 0x0000
000000   a0cb     goto    0xcb             	goto	_main
                                           ;--------------------------------------------------------
                                           ; interrupt and initialization code
                                           ;--------------------------------------------------------
                                           c_interrupt	code	0x8
                                           __sdcc_interrupt
                                           ;***
                                           ;  pBlock Stats: dbName = I
                                           ;***
                                           ;entry:  _int_isr	;Function start
                                           ; 0 exit points
                                           ;2 compiler assigned registers:
                                           ;   r0x1039
                                           ;   r0x103A
                                           ;; Starting pCode block
                                           _int_isr	;Function start
                                           ; 0 exit points
                                           ;	.line	1777; "MC32F7361.c"	__endasm;
                                           	;
000008   5643     movra   0x43             	movra	_abuf;
000009   4587     swapar  0x187            	swapar	_PFLAG;
00000a   5644     movra   0x44             	movra	_statusbuf;
                                           	
                                           ;	.line	1791; "MC32F7361.c"	if (T2IF & T2IE)
00000b   7631     clrr    0x31             	CLRR	r0x1039
00000c   fb8b     jbclr   0x18b, 0x5       	JBCLR	_INTFbits,5
00000d   6631     incr    0x31             	INCR	r0x1039
00000e   7632     clrr    0x32             	CLRR	r0x103A
00000f   fb8a     jbclr   0x18a, 0x5       	JBCLR	_INTEbits,5
000010   6632     incr    0x32             	INCR	r0x103A
000011   5832     movar   0x32             	MOVAR	r0x103A
000012   7a31     andra   0x31             	ANDRA	r0x1039
000013   3c00     movai   0                	MOVAI	0x00
000014   5c31     orar    0x31             	ORAR	r0x1039
000015   f587     jbclr   0x187, 0x2       	JBCLR	PFLAG,2
000016   a096     goto    0x96             	GOTO	_00536_DS_
                                           ;	.line	1793; "MC32F7361.c"	T2IF = 0;
000017   db8b     bclr    0x18b, 0x5       	BCLR	_INTFbits,5
                                           ;	.line	1802; "MC32F7361.c"	ir_level_cnt++;
000018   6635     incr    0x35             	INCR	_int_isr_ir_level_cnt_196608_87
000019   f587     jbclr   0x187, 0x2       	JBCLR	PFLAG,2
00001a   6636     incr    0x36             	INCR	(_int_isr_ir_level_cnt_196608_87 + 1)
                                           ;	.line	1804; "MC32F7361.c"	ir_fliter <<= 1;
00001b   5837     movar   0x37             	MOVAR	_int_isr_ir_fliter_196608_87
00001c   5631     movra   0x31             	MOVRA	r0x1039
00001d   d187     bclr    0x187, 0         	BCLR	PFLAG,0
00001e   5031     rlar    0x31             	RLAR	r0x1039
00001f   5637     movra   0x37             	MOVRA	_int_isr_ir_fliter_196608_87
                                           ;	.line	1805; "MC32F7361.c"	if (IR_RECV_PIN)
000020   e3b8     jbset   0x1b8, 0x1       	JBSET	_IOP2bits,1
000021   a023     goto    0x23             	GOTO	_00499_DS_
                                           ;	.line	1807; "MC32F7361.c"	ir_fliter |= 1;
000022   c037     bset    0x37, 0          	BSET	_int_isr_ir_fliter_196608_87,0
                                           _00499_DS_
                                           ;	.line	1809; "MC32F7361.c"	ir_fliter &= 0x07;
000023   3c07     movai   0x7              	MOVAI	0x07
000024   7a37     andra   0x37             	ANDRA	_int_isr_ir_fliter_196608_87
                                           ;	.line	1811; "MC32F7361.c"	if (ir_fliter == 0x07)
000025   5837     movar   0x37             	MOVAR	_int_isr_ir_fliter_196608_87
000026   3907     xorai   0x7              	XORAI	0x07
000027   e587     jbset   0x187, 0x2       	JBSET	PFLAG,2
000028   a02b     goto    0x2b             	GOTO	_00503_DS_
                                           ;	.line	1812; "MC32F7361.c"	filter_level = 1;
000029   c645     bset    0x45, 0x3        	BSET	_flag1,3
00002a   a030     goto    0x30             	GOTO	_00504_DS_
                                           _00503_DS_
                                           ;	.line	1813; "MC32F7361.c"	else if (ir_fliter == 0x00)
00002b   3c00     movai   0                	MOVAI	0x00
00002c   5c37     orar    0x37             	ORAR	_int_isr_ir_fliter_196608_87
00002d   e587     jbset   0x187, 0x2       	JBSET	PFLAG,2
00002e   a030     goto    0x30             	GOTO	_00504_DS_
                                           ;	.line	1814; "MC32F7361.c"	filter_level = 0;
00002f   d645     bclr    0x45, 0x3        	BCLR	_flag1,3
                                           _00504_DS_
                                           ;	.line	1816; "MC32F7361.c"	if (filter_level)
000030   e645     jbset   0x45, 0x3        	JBSET	_flag1,3
000031   a047     goto    0x47             	GOTO	_00533_DS_
                                           ;	.line	1818; "MC32F7361.c"	last_level_in_ir_pin = 1; // 
000032   c445     bset    0x45, 0x2        	BSET	_flag1,2
                                           ;;swapping arguments (AOP_TYPEs 1/3)
                                           ;;unsigned compare: left >= lit(0x4B1=1201), size=2
                                           ;	.line	1821; "MC32F7361.c"	if (ir_level_cnt > 1200) // (120000us,120ms)
000033   3c04     movai   0x4              	MOVAI	0x04
000034   4836     rsubar  0x36             	RSUBAR	(_int_isr_ir_level_cnt_196608_87 + 1)
000035   e587     jbset   0x187, 0x2       	JBSET	PFLAG,2
000036   a039     goto    0x39             	GOTO	_00658_DS_
000037   3cb1     movai   0xb1             	MOVAI	0xb1
000038   4835     rsubar  0x35             	RSUBAR	_int_isr_ir_level_cnt_196608_87
                                           _00658_DS_
000039   e187     jbset   0x187, 0         	JBSET	PFLAG,0
00003a   a096     goto    0x96             	GOTO	_00536_DS_
                                           ;;genSkipc:3291: created from rifx:013B5EFC
                                           ;	.line	1824; "MC32F7361.c"	if (__ir_data != 0) // (__ir_data)
00003b   3c00     movai   0                	MOVAI	0x00
00003c   5c38     orar    0x38             	ORAR	_int_isr___ir_data_196608_87
00003d   f587     jbclr   0x187, 0x2       	JBCLR	PFLAG,2
00003e   a045     goto    0x45             	GOTO	_00508_DS_
                                           ;	.line	1833; "MC32F7361.c"	if (0 == flag_is_recved_data)
00003f   f045     jbclr   0x45, 0          	JBCLR	_flag1,0
000040   a045     goto    0x45             	GOTO	_00508_DS_
                                           ;	.line	1835; "MC32F7361.c"	ir_data = ~__ir_data;
000041   7038     comar   0x38             	COMAR	_int_isr___ir_data_196608_87
000042   5646     movra   0x46             	MOVRA	_ir_data
                                           ;	.line	1836; "MC32F7361.c"	__ir_data = 0;
000043   7638     clrr    0x38             	CLRR	_int_isr___ir_data_196608_87
                                           ;	.line	1837; "MC32F7361.c"	flag_is_recved_data = 1;
000044   c045     bset    0x45, 0          	BSET	_flag1,0
                                           _00508_DS_
                                           ;	.line	1841; "MC32F7361.c"	flag_is_recv_ir_repeat_code = 0; // 
000045   d845     bclr    0x45, 0x4        	BCLR	_flag1,4
000046   a096     goto    0x96             	GOTO	_00536_DS_
                                           _00533_DS_
                                           ;	.line	1846; "MC32F7361.c"	if (last_level_in_ir_pin)
000047   e445     jbset   0x45, 0x2        	JBSET	_flag1,2
000048   a095     goto    0x95             	GOTO	_00531_DS_
                                           ;;swapping arguments (AOP_TYPEs 1/3)
                                           ;;unsigned compare: left >= lit(0x9=9), size=2
                                           ;	.line	1849; "MC32F7361.c"	if (ir_level_cnt <= 8) // 800us
000049   3c00     movai   0                	MOVAI	0x00
00004a   4836     rsubar  0x36             	RSUBAR	(_int_isr_ir_level_cnt_196608_87 + 1)
00004b   e587     jbset   0x187, 0x2       	JBSET	PFLAG,2
00004c   a04f     goto    0x4f             	GOTO	_00659_DS_
00004d   3c09     movai   0x9              	MOVAI	0x09
00004e   4835     rsubar  0x35             	RSUBAR	_int_isr_ir_level_cnt_196608_87
                                           _00659_DS_
00004f   e187     jbset   0x187, 0         	JBSET	PFLAG,0
000050   a093     goto    0x93             	GOTO	_00529_DS_
                                           ;;genSkipc:3291: created from rifx:013B5EFC
                                           ;;swapping arguments (AOP_TYPEs 1/3)
                                           ;;unsigned compare: left >= lit(0x13=19), size=2
                                           ;	.line	1854; "MC32F7361.c"	else if (ir_level_cnt <= 18) // 1800us,0
000051   3c00     movai   0                	MOVAI	0x00
000052   4836     rsubar  0x36             	RSUBAR	(_int_isr_ir_level_cnt_196608_87 + 1)
000053   e587     jbset   0x187, 0x2       	JBSET	PFLAG,2
000054   a057     goto    0x57             	GOTO	_00660_DS_
000055   3c13     movai   0x13             	MOVAI	0x13
000056   4835     rsubar  0x35             	RSUBAR	_int_isr_ir_level_cnt_196608_87
                                           _00660_DS_
000057   f187     jbclr   0x187, 0         	JBCLR	PFLAG,0
000058   a05f     goto    0x5f             	GOTO	_00525_DS_
                                           ;;genSkipc:3291: created from rifx:013B5EFC
                                           ;	.line	1856; "MC32F7361.c"	__ir_data <<= 1;
000059   5838     movar   0x38             	MOVAR	_int_isr___ir_data_196608_87
00005a   5631     movra   0x31             	MOVRA	r0x1039
00005b   d187     bclr    0x187, 0         	BCLR	PFLAG,0
00005c   5031     rlar    0x31             	RLAR	r0x1039
00005d   5638     movra   0x38             	MOVRA	_int_isr___ir_data_196608_87
00005e   a093     goto    0x93             	GOTO	_00529_DS_
                                           ;;swapping arguments (AOP_TYPEs 1/3)
                                           ;;unsigned compare: left >= lit(0x1B=27), size=2
                                           _00525_DS_
                                           ;	.line	1861; "MC32F7361.c"	else if (ir_level_cnt <= 26) // 2600us,1
00005f   3c00     movai   0                	MOVAI	0x00
000060   4836     rsubar  0x36             	RSUBAR	(_int_isr_ir_level_cnt_196608_87 + 1)
000061   e587     jbset   0x187, 0x2       	JBSET	PFLAG,2
000062   a065     goto    0x65             	GOTO	_00661_DS_
000063   3c1b     movai   0x1b             	MOVAI	0x1b
000064   4835     rsubar  0x35             	RSUBAR	_int_isr_ir_level_cnt_196608_87
                                           _00661_DS_
000065   f187     jbclr   0x187, 0         	JBCLR	PFLAG,0
000066   a06e     goto    0x6e             	GOTO	_00522_DS_
                                           ;;genSkipc:3291: created from rifx:013B5EFC
                                           ;	.line	1863; "MC32F7361.c"	__ir_data <<= 1;
000067   5838     movar   0x38             	MOVAR	_int_isr___ir_data_196608_87
000068   5631     movra   0x31             	MOVRA	r0x1039
000069   d187     bclr    0x187, 0         	BCLR	PFLAG,0
00006a   5031     rlar    0x31             	RLAR	r0x1039
00006b   5638     movra   0x38             	MOVRA	_int_isr___ir_data_196608_87
                                           ;	.line	1864; "MC32F7361.c"	__ir_data |= 0x01;
00006c   c038     bset    0x38, 0          	BSET	_int_isr___ir_data_196608_87,0
00006d   a093     goto    0x93             	GOTO	_00529_DS_
                                           ;;swapping arguments (AOP_TYPEs 1/3)
                                           ;;unsigned compare: left >= lit(0x97=151), size=2
                                           _00522_DS_
                                           ;	.line	1868; "MC32F7361.c"	else if (ir_level_cnt <= 150) // 15000us,
00006e   3c00     movai   0                	MOVAI	0x00
00006f   4836     rsubar  0x36             	RSUBAR	(_int_isr_ir_level_cnt_196608_87 + 1)
000070   e587     jbset   0x187, 0x2       	JBSET	PFLAG,2
000071   a074     goto    0x74             	GOTO	_00662_DS_
000072   3c97     movai   0x97             	MOVAI	0x97
000073   4835     rsubar  0x35             	RSUBAR	_int_isr_ir_level_cnt_196608_87
                                           _00662_DS_
000074   e187     jbset   0x187, 0         	JBSET	PFLAG,0
000075   a093     goto    0x93             	GOTO	_00529_DS_
                                           ;;genSkipc:3291: created from rifx:013B5EFC
                                           ;;swapping arguments (AOP_TYPEs 1/3)
                                           ;;unsigned compare: left >= lit(0x1A5=421), size=2
                                           ;	.line	1873; "MC32F7361.c"	else if (ir_level_cnt <= 420) // 42ms,
000076   3c01     movai   0x1              	MOVAI	0x01
000077   4836     rsubar  0x36             	RSUBAR	(_int_isr_ir_level_cnt_196608_87 + 1)
000078   e587     jbset   0x187, 0x2       	JBSET	PFLAG,2
000079   a07c     goto    0x7c             	GOTO	_00663_DS_
00007a   3ca5     movai   0xa5             	MOVAI	0xa5
00007b   4835     rsubar  0x35             	RSUBAR	_int_isr_ir_level_cnt_196608_87
                                           _00663_DS_
00007c   f187     jbclr   0x187, 0         	JBCLR	PFLAG,0
00007d   a088     goto    0x88             	GOTO	_00516_DS_
                                           ;;genSkipc:3291: created from rifx:013B5EFC
                                           ;	.line	1884; "MC32F7361.c"	if (0 == flag_is_recved_data)
00007e   f045     jbclr   0x45, 0          	JBCLR	_flag1,0
00007f   a093     goto    0x93             	GOTO	_00529_DS_
                                           ;	.line	1886; "MC32F7361.c"	ir_data = ~__ir_data;
000080   7038     comar   0x38             	COMAR	_int_isr___ir_data_196608_87
000081   5646     movra   0x46             	MOVRA	_ir_data
                                           ;	.line	1887; "MC32F7361.c"	__ir_data = 0;
000082   7638     clrr    0x38             	CLRR	_int_isr___ir_data_196608_87
                                           ;	.line	1888; "MC32F7361.c"	flag_is_recved_data = 1;
000083   c045     bset    0x45, 0          	BSET	_flag1,0
                                           ;	.line	1889; "MC32F7361.c"	flag_is_recv_ir_repeat_code = 1; //
000084   c845     bset    0x45, 0x4        	BSET	_flag1,4
                                           ;	.line	1890; "MC32F7361.c"	ir_long_press_cnt = 0;
000085   7639     clrr    0x39             	CLRR	_int_isr_ir_long_press_cnt_196608_87
000086   763a     clrr    0x3a             	CLRR	(_int_isr_ir_long_press_cnt_196608_87 + 1)
000087   a093     goto    0x93             	GOTO	_00529_DS_
                                           ;;swapping arguments (AOP_TYPEs 1/3)
                                           ;;unsigned compare: left >= lit(0x4B1=1201), size=2
                                           _00516_DS_
                                           ;	.line	1894; "MC32F7361.c"	else if (ir_level_cnt <= 1200) // 120000,120ms,
000088   3c04     movai   0x4              	MOVAI	0x04
000089   4836     rsubar  0x36             	RSUBAR	(_int_isr_ir_level_cnt_196608_87 + 1)
00008a   e587     jbset   0x187, 0x2       	JBSET	PFLAG,2
00008b   a08e     goto    0x8e             	GOTO	_00664_DS_
00008c   3cb1     movai   0xb1             	MOVAI	0xb1
00008d   4835     rsubar  0x35             	RSUBAR	_int_isr_ir_level_cnt_196608_87
                                           _00664_DS_
00008e   f187     jbclr   0x187, 0         	JBCLR	PFLAG,0
00008f   a093     goto    0x93             	GOTO	_00529_DS_
                                           ;;genSkipc:3291: created from rifx:013B5EFC
                                           ;	.line	1896; "MC32F7361.c"	ir_long_press_cnt++;
000090   6639     incr    0x39             	INCR	_int_isr_ir_long_press_cnt_196608_87
000091   f587     jbclr   0x187, 0x2       	JBCLR	PFLAG,2
000092   663a     incr    0x3a             	INCR	(_int_isr_ir_long_press_cnt_196608_87 + 1)
                                           _00529_DS_
                                           ;	.line	1902; "MC32F7361.c"	ir_level_cnt = 0;
000093   7635     clrr    0x35             	CLRR	_int_isr_ir_level_cnt_196608_87
000094   7636     clrr    0x36             	CLRR	(_int_isr_ir_level_cnt_196608_87 + 1)
                                           _00531_DS_
                                           ;	.line	1905; "MC32F7361.c"	last_level_in_ir_pin = 0; // 
000095   d445     bclr    0x45, 0x2        	BCLR	_flag1,2
                                           _00536_DS_
                                           ;	.line	1910; "MC32F7361.c"	if (T3IF & T3IE)
000096   7631     clrr    0x31             	CLRR	r0x1039
000097   ff8b     jbclr   0x18b, 0x7       	JBCLR	_INTFbits,7
000098   6631     incr    0x31             	INCR	r0x1039
000099   7632     clrr    0x32             	CLRR	r0x103A
00009a   ff8a     jbclr   0x18a, 0x7       	JBCLR	_INTEbits,7
00009b   6632     incr    0x32             	INCR	r0x103A
00009c   5832     movar   0x32             	MOVAR	r0x103A
00009d   7a31     andra   0x31             	ANDRA	r0x1039
00009e   3c00     movai   0                	MOVAI	0x00
00009f   5c31     orar    0x31             	ORAR	r0x1039
0000a0   f587     jbclr   0x187, 0x2       	JBCLR	PFLAG,2
0000a1   a0c6     goto    0xc6             	GOTO	_00559_DS_
                                           ;	.line	1912; "MC32F7361.c"	T3IF = 0;
0000a2   df8b     bclr    0x18b, 0x7       	BCLR	_INTFbits,7
                                           ;	.line	1915; "MC32F7361.c"	if (CUR_LED_STATUS_AUTO == cur_led_status) // AUTO
0000a3   5841     movar   0x41             	MOVAR	_cur_led_status
0000a4   3901     xorai   0x1              	XORAI	0x01
0000a5   e587     jbset   0x187, 0x2       	JBSET	PFLAG,2
0000a6   a0a8     goto    0xa8             	GOTO	_00665_DS_
0000a7   a0c6     goto    0xc6             	GOTO	_00559_DS_
                                           _00665_DS_
                                           ;	.line	1933; "MC32F7361.c"	else if (CUR_LED_STATUS_R4C4_FADE == cur_led_status) //  fade 
0000a8   5841     movar   0x41             	MOVAR	_cur_led_status
0000a9   3904     xorai   0x4              	XORAI	0x04
0000aa   e587     jbset   0x187, 0x2       	JBSET	PFLAG,2
0000ab   a0ad     goto    0xad             	GOTO	_00666_DS_
0000ac   a0c6     goto    0xc6             	GOTO	_00559_DS_
                                           _00666_DS_
                                           ;	.line	1951; "MC32F7361.c"	else if (CUR_LED_STATUS_R5C4_JUMP == cur_led_status) //  jump 
0000ad   5841     movar   0x41             	MOVAR	_cur_led_status
0000ae   3905     xorai   0x5              	XORAI	0x05
0000af   e587     jbset   0x187, 0x2       	JBSET	PFLAG,2
0000b0   a0b2     goto    0xb2             	GOTO	_00667_DS_
0000b1   a0c6     goto    0xc6             	GOTO	_00559_DS_
                                           _00667_DS_
                                           ;	.line	1969; "MC32F7361.c"	else if (CUR_LED_STATUS_R6C4_ASYN_FADE == cur_led_status) //  asyn_fade 
0000b2   5841     movar   0x41             	MOVAR	_cur_led_status
0000b3   3906     xorai   0x6              	XORAI	0x06
0000b4   e587     jbset   0x187, 0x2       	JBSET	PFLAG,2
0000b5   a0b7     goto    0xb7             	GOTO	_00668_DS_
0000b6   a0c6     goto    0xc6             	GOTO	_00559_DS_
                                           _00668_DS_
                                           ;	.line	1987; "MC32F7361.c"	else if (CUR_LED_STATUS_R7C1_IN_WAVES == cur_led_status) //  in_waves 
0000b7   5841     movar   0x41             	MOVAR	_cur_led_status
0000b8   3907     xorai   0x7              	XORAI	0x07
0000b9   e587     jbset   0x187, 0x2       	JBSET	PFLAG,2
0000ba   a0bc     goto    0xbc             	GOTO	_00669_DS_
0000bb   a0c6     goto    0xc6             	GOTO	_00559_DS_
                                           _00669_DS_
                                           ;	.line	2005; "MC32F7361.c"	else if (CUR_LED_STATUS_R7C2_STROBE == cur_led_status) //  strobe 
0000bc   5841     movar   0x41             	MOVAR	_cur_led_status
0000bd   3908     xorai   0x8              	XORAI	0x08
0000be   e587     jbset   0x187, 0x2       	JBSET	PFLAG,2
0000bf   a0c1     goto    0xc1             	GOTO	_00670_DS_
0000c0   a0c6     goto    0xc6             	GOTO	_00559_DS_
                                           _00670_DS_
                                           ;	.line	2023; "MC32F7361.c"	else if (CUR_LED_STATUS_R7C3_TWINKLE == cur_led_status) //  twinkle 
0000c1   5841     movar   0x41             	MOVAR	_cur_led_status
0000c2   3909     xorai   0x9              	XORAI	0x09
0000c3   e587     jbset   0x187, 0x2       	JBSET	PFLAG,2
0000c4   a0c6     goto    0xc6             	GOTO	_00559_DS_
0000c5   a0c6     goto    0xc6             	GOTO	_00559_DS_
                                           _00671_DS_
                                           _00559_DS_
                                           ;	.line	2065; "MC32F7361.c"	__endasm;
                                           	;
0000c6   4444     swapar  0x44             	swapar	_statusbuf;
0000c7   5787     movra   0x187            	movra	_PFLAG;
0000c8   4643     swapr   0x43             	swapr	_abuf;
0000c9   4443     swapar  0x43             	swapar	_abuf;
                                           	
                                           END_OF_INTERRUPT
                                           ;	.line	2066; "MC32F7361.c"	}
0000ca   000d     retie                    	RETIE	
                                           
                                           ;--------------------------------------------------------
                                           ; code
                                           ;--------------------------------------------------------
                                           code_MC32F7361	code
                                           ;***
                                           ;  pBlock Stats: dbName = M
                                           ;***
                                           ;entry:  _main	;Function start
                                           ; 2 exit points
                                           ;has an exit
                                           ;functions called:
                                           ;   _Sys_Init
                                           ;   _delay_ms
                                           ;   _delay_ms
                                           ;   _delay_100us
                                           ;   _delay_100us
                                           ;   _delay_ms
                                           ;   _delay_100us
                                           ;   _delay_100us
                                           ;   _delay_ms
                                           ;   _delay_100us
                                           ;   _delay_100us
                                           ;   _delay_ms
                                           ;   _delay_100us
                                           ;   _delay_100us
                                           ;   _delay_ms
                                           ;   _send_cmd_16bit
                                           ;   _send_cmd_16bit
                                           ;   __mulchar
                                           ;   __gptrget1
                                           ;   _send_cmd_16bit
                                           ;   __gptrget1
                                           ;   __gptrget1
                                           ;   _send_cmd_16bit
                                           ;   __gptrget1
                                           ;   __gptrget1
                                           ;   _send_cmd_16bit
                                           ;   __gptrget1
                                           ;   __gptrget1
                                           ;   _send_cmd_16bit
                                           ;   _Sys_Init
                                           ;   _delay_ms
                                           ;   _delay_ms
                                           ;   _delay_100us
                                           ;   _delay_100us
                                           ;   _delay_ms
                                           ;   _delay_100us
                                           ;   _delay_100us
                                           ;   _delay_ms
                                           ;   _delay_100us
                                           ;   _delay_100us
                                           ;   _delay_ms
                                           ;   _delay_100us
                                           ;   _delay_100us
                                           ;   _delay_ms
                                           ;   _send_cmd_16bit
                                           ;   _send_cmd_16bit
                                           ;   __mulchar
                                           ;   __gptrget1
                                           ;   _send_cmd_16bit
                                           ;   __gptrget1
                                           ;   __gptrget1
                                           ;   _send_cmd_16bit
                                           ;   __gptrget1
                                           ;   __gptrget1
                                           ;   _send_cmd_16bit
                                           ;   __gptrget1
                                           ;   __gptrget1
                                           ;   _send_cmd_16bit
                                           ;10 compiler assigned registers:
                                           ;   STK00
                                           ;   r0x1019
                                           ;   r0x101A
                                           ;   r0x101B
                                           ;   r0x101C
                                           ;   STK01
                                           ;   r0x101D
                                           ;   r0x101E
                                           ;   r0x101F
                                           ;   r0x1020
                                           ;; Starting pCode block
                                           _main	;Function start
                                           ; 2 exit points
                                           ;	.line	261; "MC32F7361.c"	Sys_Init();
0000cb   8226     call    0x226            	CALL	_Sys_Init
                                           ;	.line	262; "MC32F7361.c"	delay_ms(1); // 
0000cc   3c01     movai   0x1              	MOVAI	0x01
0000cd   5606     movra   0x6              	MOVRA	STK00
0000ce   3c00     movai   0                	MOVAI	0x00
0000cf   8330     call    0x330            	CALL	_delay_ms
                                           ;	.line	267; "MC32F7361.c"	P21PU = 1;
0000d0   c3ba     bset    0x1ba, 0x1       	BSET	_PUP2bits,1
                                           ;	.line	268; "MC32F7361.c"	P21OE = 0;
0000d1   d3b9     bclr    0x1b9, 0x1       	BCLR	_OEP2bits,1
                                           ;	.line	283; "MC32F7361.c"	flag_is_dev_open = 1;
0000d2   c245     bset    0x45, 0x1        	BSET	_flag1,1
                                           _00324_DS_
                                           ;	.line	290; "MC32F7361.c"	if (flag_is_recved_data)
0000d3   e045     jbset   0x45, 0          	JBSET	_flag1,0
0000d4   a1fb     goto    0x1fb            	GOTO	_00298_DS_
                                           ;	.line	292; "MC32F7361.c"	if (ir_data == IR_KEY_ON) // ON 
0000d5   5846     movar   0x46             	MOVAR	_ir_data
0000d6   3908     xorai   0x8              	XORAI	0x08
0000d7   e587     jbset   0x187, 0x2       	JBSET	PFLAG,2
0000d8   a0ff     goto    0xff             	GOTO	_00295_DS_
                                           ;	.line	296; "MC32F7361.c"	LED_CTL_PIN = 1;
0000d9   c5b8     bset    0x1b8, 0x2       	BSET	_IOP2bits,2
                                           ;	.line	297; "MC32F7361.c"	delay_ms(2);
0000da   3c02     movai   0x2              	MOVAI	0x02
0000db   5606     movra   0x6              	MOVRA	STK00
0000dc   3c00     movai   0                	MOVAI	0x00
0000dd   8330     call    0x330            	CALL	_delay_ms
                                           ;	.line	298; "MC32F7361.c"	LED_CTL_PIN = 0;
0000de   d5b8     bclr    0x1b8, 0x2       	BCLR	_IOP2bits,2
                                           ;	.line	299; "MC32F7361.c"	delay_100us();
0000df   8324     call    0x324            	CALL	_delay_100us
                                           ;	.line	300; "MC32F7361.c"	delay_100us();
0000e0   8324     call    0x324            	CALL	_delay_100us
                                           ;	.line	301; "MC32F7361.c"	LED_CTL_PIN = 1;
0000e1   c5b8     bset    0x1b8, 0x2       	BSET	_IOP2bits,2
                                           ;	.line	302; "MC32F7361.c"	delay_ms(3);
0000e2   3c03     movai   0x3              	MOVAI	0x03
0000e3   5606     movra   0x6              	MOVRA	STK00
0000e4   3c00     movai   0                	MOVAI	0x00
0000e5   8330     call    0x330            	CALL	_delay_ms
                                           ;	.line	303; "MC32F7361.c"	LED_CTL_PIN = 0;
0000e6   d5b8     bclr    0x1b8, 0x2       	BCLR	_IOP2bits,2
                                           ;	.line	304; "MC32F7361.c"	delay_100us();
0000e7   8324     call    0x324            	CALL	_delay_100us
                                           ;	.line	305; "MC32F7361.c"	delay_100us();
0000e8   8324     call    0x324            	CALL	_delay_100us
                                           ;	.line	306; "MC32F7361.c"	LED_CTL_PIN = 1;
0000e9   c5b8     bset    0x1b8, 0x2       	BSET	_IOP2bits,2
                                           ;	.line	307; "MC32F7361.c"	delay_ms(4);
0000ea   3c04     movai   0x4              	MOVAI	0x04
0000eb   5606     movra   0x6              	MOVRA	STK00
0000ec   3c00     movai   0                	MOVAI	0x00
0000ed   8330     call    0x330            	CALL	_delay_ms
                                           ;	.line	308; "MC32F7361.c"	LED_CTL_PIN = 0;
0000ee   d5b8     bclr    0x1b8, 0x2       	BCLR	_IOP2bits,2
                                           ;	.line	309; "MC32F7361.c"	delay_100us();
0000ef   8324     call    0x324            	CALL	_delay_100us
                                           ;	.line	310; "MC32F7361.c"	delay_100us();
0000f0   8324     call    0x324            	CALL	_delay_100us
                                           ;	.line	311; "MC32F7361.c"	LED_CTL_PIN = 1;
0000f1   c5b8     bset    0x1b8, 0x2       	BSET	_IOP2bits,2
                                           ;	.line	312; "MC32F7361.c"	delay_ms(5);
0000f2   3c05     movai   0x5              	MOVAI	0x05
0000f3   5606     movra   0x6              	MOVRA	STK00
0000f4   3c00     movai   0                	MOVAI	0x00
0000f5   8330     call    0x330            	CALL	_delay_ms
                                           ;	.line	313; "MC32F7361.c"	LED_CTL_PIN = 0;
0000f6   d5b8     bclr    0x1b8, 0x2       	BCLR	_IOP2bits,2
                                           ;	.line	314; "MC32F7361.c"	delay_100us();
0000f7   8324     call    0x324            	CALL	_delay_100us
                                           ;	.line	315; "MC32F7361.c"	delay_100us();
0000f8   8324     call    0x324            	CALL	_delay_100us
                                           ;	.line	316; "MC32F7361.c"	LED_CTL_PIN = 1;
0000f9   c5b8     bset    0x1b8, 0x2       	BSET	_IOP2bits,2
                                           ;	.line	317; "MC32F7361.c"	delay_ms(51);
0000fa   3c33     movai   0x33             	MOVAI	0x33
0000fb   5606     movra   0x6              	MOVRA	STK00
0000fc   3c00     movai   0                	MOVAI	0x00
0000fd   8330     call    0x330            	CALL	_delay_ms
0000fe   a1f9     goto    0x1f9            	GOTO	_00296_DS_
                                           _00295_DS_
                                           ;	.line	326; "MC32F7361.c"	else if (ir_data == IR_KEY_OFF) // OFF 
0000ff   5846     movar   0x46             	MOVAR	_ir_data
000100   39c0     xorai   0xc0             	XORAI	0xc0
000101   e587     jbset   0x187, 0x2       	JBSET	PFLAG,2
000102   a104     goto    0x104            	GOTO	_00475_DS_
000103   a1f9     goto    0x1f9            	GOTO	_00296_DS_
                                           _00475_DS_
                                           ;	.line	339; "MC32F7361.c"	else if (ir_data == IR_KEY_SPEED) // SPEED 
000104   5846     movar   0x46             	MOVAR	_ir_data
000105   3960     xorai   0x60             	XORAI	0x60
000106   e587     jbset   0x187, 0x2       	JBSET	PFLAG,2
000107   a10b     goto    0x10b            	GOTO	_00289_DS_
                                           ;	.line	342; "MC32F7361.c"	flag_is_press_speed = 1;
000108   3c01     movai   0x1              	MOVAI	0x01
000109   5640     movra   0x40             	MOVRA	_flag_is_press_speed
00010a   a1f9     goto    0x1f9            	GOTO	_00296_DS_
                                           _00289_DS_
                                           ;	.line	344; "MC32F7361.c"	else if (ir_data == IR_KEY_R3C4) // R3C4
00010b   5846     movar   0x46             	MOVAR	_ir_data
00010c   39a8     xorai   0xa8             	XORAI	0xa8
00010d   e587     jbset   0x187, 0x2       	JBSET	PFLAG,2
00010e   a134     goto    0x134            	GOTO	_00286_DS_
                                           ;	.line	347; "MC32F7361.c"	if (cur_r3c4_status == R3C4_STATUS_1)
00010f   3c00     movai   0                	MOVAI	0x00
000110   5c42     orar    0x42             	ORAR	_cur_r3c4_status
000111   e587     jbset   0x187, 0x2       	JBSET	PFLAG,2
000112   a119     goto    0x119            	GOTO	_00253_DS_
                                           ;	.line	349; "MC32F7361.c"	tmp = 0x00EE;
000113   3cee     movai   0xee             	MOVAI	0xee
000114   5633     movra   0x33             	MOVRA	_main_tmp_262144_57
000115   7634     clrr    0x34             	CLRR	(_main_tmp_262144_57 + 1)
                                           ;	.line	350; "MC32F7361.c"	cur_r3c4_status = R3C4_STATUS_2;
000116   3c01     movai   0x1              	MOVAI	0x01
000117   5642     movra   0x42             	MOVRA	_cur_r3c4_status
000118   a12b     goto    0x12b            	GOTO	_00254_DS_
                                           _00253_DS_
                                           ;	.line	352; "MC32F7361.c"	else if (cur_r3c4_status == R3C4_STATUS_2)
000119   5842     movar   0x42             	MOVAR	_cur_r3c4_status
00011a   3901     xorai   0x1              	XORAI	0x01
00011b   e587     jbset   0x187, 0x2       	JBSET	PFLAG,2
00011c   a123     goto    0x123            	GOTO	_00250_DS_
                                           ;	.line	354; "MC32F7361.c"	tmp = 0x00AA;
00011d   3caa     movai   0xaa             	MOVAI	0xaa
00011e   5633     movra   0x33             	MOVRA	_main_tmp_262144_57
00011f   7634     clrr    0x34             	CLRR	(_main_tmp_262144_57 + 1)
                                           ;	.line	355; "MC32F7361.c"	cur_r3c4_status = R3C4_STATUS_3;
000120   3c02     movai   0x2              	MOVAI	0x02
000121   5642     movra   0x42             	MOVRA	_cur_r3c4_status
000122   a12b     goto    0x12b            	GOTO	_00254_DS_
                                           _00250_DS_
                                           ;	.line	357; "MC32F7361.c"	else if (cur_r3c4_status == R3C4_STATUS_3)
000123   5842     movar   0x42             	MOVAR	_cur_r3c4_status
000124   3902     xorai   0x2              	XORAI	0x02
000125   e587     jbset   0x187, 0x2       	JBSET	PFLAG,2
000126   a12b     goto    0x12b            	GOTO	_00254_DS_
                                           ;	.line	359; "MC32F7361.c"	tmp = 0x00CC;
000127   3ccc     movai   0xcc             	MOVAI	0xcc
000128   5633     movra   0x33             	MOVRA	_main_tmp_262144_57
000129   7634     clrr    0x34             	CLRR	(_main_tmp_262144_57 + 1)
                                           ;	.line	360; "MC32F7361.c"	cur_r3c4_status = R3C4_STATUS_1;
00012a   7642     clrr    0x42             	CLRR	_cur_r3c4_status
                                           _00254_DS_
                                           ;	.line	366; "MC32F7361.c"	send_cmd_16bit(0x0C00);
00012b   3c00     movai   0                	MOVAI	0x00
00012c   5606     movra   0x6              	MOVRA	STK00
00012d   3c0c     movai   0xc              	MOVAI	0x0c
00012e   8288     call    0x288            	CALL	_send_cmd_16bit
                                           ;	.line	367; "MC32F7361.c"	send_cmd_16bit(tmp);
00012f   5833     movar   0x33             	MOVAR	_main_tmp_262144_57
000130   5606     movra   0x6              	MOVRA	STK00
000131   5834     movar   0x34             	MOVAR	(_main_tmp_262144_57 + 1)
000132   8288     call    0x288            	CALL	_send_cmd_16bit
000133   a1f9     goto    0x1f9            	GOTO	_00296_DS_
                                           _00286_DS_
                                           ;	.line	369; "MC32F7361.c"	else if (ir_data == IR_KEY_R4C4_FADE)
000134   5846     movar   0x46             	MOVAR	_ir_data
000135   39b2     xorai   0xb2             	XORAI	0xb2
000136   e587     jbset   0x187, 0x2       	JBSET	PFLAG,2
000137   a139     goto    0x139            	GOTO	_00476_DS_
000138   a1f9     goto    0x1f9            	GOTO	_00296_DS_
                                           _00476_DS_
                                           ;	.line	412; "MC32F7361.c"	else if (ir_data == IR_KEY_R5C4_JUMP)
000139   3c00     movai   0                	MOVAI	0x00
00013a   5c46     orar    0x46             	ORAR	_ir_data
00013b   f587     jbclr   0x187, 0x2       	JBCLR	PFLAG,2
00013c   a1f9     goto    0x1f9            	GOTO	_00296_DS_
                                           ;	.line	443; "MC32F7361.c"	else if (ir_data == IR_KEY_R6C4_ASYN_FADE)
00013d   5846     movar   0x46             	MOVAR	_ir_data
00013e   3958     xorai   0x58             	XORAI	0x58
00013f   e587     jbset   0x187, 0x2       	JBSET	PFLAG,2
000140   a142     goto    0x142            	GOTO	_00477_DS_
000141   a1f9     goto    0x1f9            	GOTO	_00296_DS_
                                           _00477_DS_
                                           ;	.line	484; "MC32F7361.c"	else if (ir_data == IR_KEY_R7C1_IN_WAVES)
000142   5846     movar   0x46             	MOVAR	_ir_data
000143   3938     xorai   0x38             	XORAI	0x38
000144   e587     jbset   0x187, 0x2       	JBSET	PFLAG,2
000145   a147     goto    0x147            	GOTO	_00478_DS_
000146   a1f9     goto    0x1f9            	GOTO	_00296_DS_
                                           _00478_DS_
                                           ;	.line	525; "MC32F7361.c"	else if (ir_data == IR_KEY_R7C2_STROBE)
000147   5846     movar   0x46             	MOVAR	_ir_data
000148   3928     xorai   0x28             	XORAI	0x28
000149   e587     jbset   0x187, 0x2       	JBSET	PFLAG,2
00014a   a14c     goto    0x14c            	GOTO	_00479_DS_
00014b   a1f9     goto    0x1f9            	GOTO	_00296_DS_
                                           _00479_DS_
                                           ;	.line	566; "MC32F7361.c"	else if (ir_data == IR_KEY_R7C4_ASYN_JUMP)
00014c   5846     movar   0x46             	MOVAR	_ir_data
00014d   3930     xorai   0x30             	XORAI	0x30
00014e   e587     jbset   0x187, 0x2       	JBSET	PFLAG,2
00014f   a151     goto    0x151            	GOTO	_00480_DS_
000150   a1f9     goto    0x1f9            	GOTO	_00296_DS_
                                           _00480_DS_
                                           ;	.line	613; "MC32F7361.c"	if (IR_KEY_AUTO == ir_data) // AUTO 
000151   5846     movar   0x46             	MOVAR	_ir_data
000152   3980     xorai   0x80             	XORAI	0x80
000153   e587     jbset   0x187, 0x2       	JBSET	PFLAG,2
000154   a156     goto    0x156            	GOTO	_00481_DS_
000155   a15d     goto    0x15d            	GOTO	_00349_DS_
                                           _00481_DS_
                                           ;	.line	625; "MC32F7361.c"	else if (IR_KEY_R7C3_TWINKLE == ir_data) // R7C3 TWINKLE 
000156   5846     movar   0x46             	MOVAR	_ir_data
000157   39f0     xorai   0xf0             	XORAI	0xf0
000158   e587     jbset   0x187, 0x2       	JBSET	PFLAG,2
000159   a15b     goto    0x15b            	GOTO	_00482_DS_
00015a   a15d     goto    0x15d            	GOTO	_00349_DS_
                                           _00482_DS_
                                           ;	.line	640; "MC32F7361.c"	cur_led_status = CUR_LED_STATUS_SINGLE_COLOR;
00015b   3c02     movai   0x2              	MOVAI	0x02
00015c   5641     movra   0x41             	MOVRA	_cur_led_status
                                           _00349_DS_
                                           ;	.line	644; "MC32F7361.c"	for (i = 0; i < sizeof(table_irkey) / sizeof(table_irkey[0]); i++)
00015d   7629     clrr    0x29             	CLRR	r0x1019
                                           _00326_DS_
                                           ;	.line	646; "MC32F7361.c"	if (table_irkey[i][0] == ir_data)
00015e   3c05     movai   0x5              	MOVAI	0x05
00015f   5606     movra   0x6              	MOVRA	STK00
000160   5829     movar   0x29             	MOVAR	r0x1019
000161   83d8     call    0x3d8            	CALL	__mulchar
000162   562a     movra   0x2a             	MOVRA	r0x101A
000163   582a     movar   0x2a             	MOVAR	r0x101A
000164   3f50     addai   0x50             	ADDAI	(_table_irkey + 0)
000165   562b     movra   0x2b             	MOVRA	r0x101B
000166   3c03     movai   0x3              	MOVAI	high (_table_irkey + 0)
000167   f187     jbclr   0x187, 0         	JBCLR	PFLAG,0
000168   3f01     addai   0x1              	ADDAI	0x01
000169   562c     movra   0x2c             	MOVRA	r0x101C
00016a   582b     movar   0x2b             	MOVAR	r0x101B
00016b   5605     movra   0x5              	MOVRA	STK01
00016c   582c     movar   0x2c             	MOVAR	r0x101C
00016d   5606     movra   0x6              	MOVRA	STK00
00016e   3c80     movai   0x80             	MOVAI	0x80
00016f   83aa     call    0x3aa            	CALL	__gptrget1
000170   562d     movra   0x2d             	MOVRA	r0x101D
000171   5846     movar   0x46             	MOVAR	_ir_data
000172   402d     xorar   0x2d             	XORAR	r0x101D
000173   e587     jbset   0x187, 0x2       	JBSET	PFLAG,2
000174   a1f4     goto    0x1f4            	GOTO	_00327_DS_
                                           ;	.line	648; "MC32F7361.c"	send_cmd_16bit(0x0C00); // 
000175   3c00     movai   0                	MOVAI	0x00
000176   5606     movra   0x6              	MOVRA	STK00
000177   3c0c     movai   0xc              	MOVAI	0x0c
000178   8288     call    0x288            	CALL	_send_cmd_16bit
                                           ;	.line	649; "MC32F7361.c"	tmp = ((u16)table_irkey[i][1] << 8) + (u16)table_irkey[i][2];
000179   582a     movar   0x2a             	MOVAR	r0x101A
00017a   3f50     addai   0x50             	ADDAI	(_table_irkey + 0)
00017b   562a     movra   0x2a             	MOVRA	r0x101A
00017c   3c03     movai   0x3              	MOVAI	high (_table_irkey + 0)
00017d   f187     jbclr   0x187, 0         	JBCLR	PFLAG,0
00017e   3f01     addai   0x1              	ADDAI	0x01
00017f   562b     movra   0x2b             	MOVRA	r0x101B
000180   3c01     movai   0x1              	MOVAI	0x01
000181   7c2a     addar   0x2a             	ADDAR	r0x101A
000182   562c     movra   0x2c             	MOVRA	r0x101C
000183   762d     clrr    0x2d             	CLRR	r0x101D
000184   522d     rlr     0x2d             	RLR	r0x101D
000185   582b     movar   0x2b             	MOVAR	r0x101B
000186   7e2d     addra   0x2d             	ADDRA	r0x101D
000187   582c     movar   0x2c             	MOVAR	r0x101C
000188   5605     movra   0x5              	MOVRA	STK01
000189   582d     movar   0x2d             	MOVAR	r0x101D
00018a   5606     movra   0x6              	MOVRA	STK00
00018b   3c80     movai   0x80             	MOVAI	0x80
00018c   83aa     call    0x3aa            	CALL	__gptrget1
00018d   562e     movra   0x2e             	MOVRA	r0x101E
00018e   582e     movar   0x2e             	MOVAR	r0x101E
00018f   562f     movra   0x2f             	MOVRA	r0x101F
000190   562c     movra   0x2c             	MOVRA	r0x101C
000191   762d     clrr    0x2d             	CLRR	r0x101D
                                           ;;107	MOVAR	r0x101C
000192   762e     clrr    0x2e             	CLRR	r0x101E
000193   3c02     movai   0x2              	MOVAI	0x02
000194   7c2a     addar   0x2a             	ADDAR	r0x101A
000195   562c     movra   0x2c             	MOVRA	r0x101C
000196   762d     clrr    0x2d             	CLRR	r0x101D
000197   522d     rlr     0x2d             	RLR	r0x101D
000198   582b     movar   0x2b             	MOVAR	r0x101B
000199   7e2d     addra   0x2d             	ADDRA	r0x101D
00019a   582c     movar   0x2c             	MOVAR	r0x101C
00019b   5605     movra   0x5              	MOVRA	STK01
00019c   582d     movar   0x2d             	MOVAR	r0x101D
00019d   5606     movra   0x6              	MOVRA	STK00
00019e   3c80     movai   0x80             	MOVAI	0x80
00019f   83aa     call    0x3aa            	CALL	__gptrget1
0001a0   562c     movra   0x2c             	MOVRA	r0x101C
0001a1   5630     movra   0x30             	MOVRA	r0x1020
                                           ;;106	MOVAR	r0x1020
0001a2   762d     clrr    0x2d             	CLRR	r0x101D
0001a3   582c     movar   0x2c             	MOVAR	r0x101C
0001a4   7c2e     addar   0x2e             	ADDAR	r0x101E
0001a5   562c     movra   0x2c             	MOVRA	r0x101C
0001a6   582f     movar   0x2f             	MOVAR	r0x101F
0001a7   f187     jbclr   0x187, 0         	JBCLR	PFLAG,0
0001a8   602f     jzar    0x2f             	JZAR	r0x101F
0001a9   7e2d     addra   0x2d             	ADDRA	r0x101D
                                           ;	.line	650; "MC32F7361.c"	send_cmd_16bit(tmp);
0001aa   582c     movar   0x2c             	MOVAR	r0x101C
0001ab   5606     movra   0x6              	MOVRA	STK00
0001ac   582d     movar   0x2d             	MOVAR	r0x101D
0001ad   8288     call    0x288            	CALL	_send_cmd_16bit
                                           ;	.line	651; "MC32F7361.c"	if (table_irkey[i][3] != UNUSE_VAL && table_irkey[i][4] != UNUSE_VAL)
0001ae   3c03     movai   0x3              	MOVAI	0x03
0001af   7c2a     addar   0x2a             	ADDAR	r0x101A
0001b0   562e     movra   0x2e             	MOVRA	r0x101E
0001b1   762f     clrr    0x2f             	CLRR	r0x101F
0001b2   522f     rlr     0x2f             	RLR	r0x101F
0001b3   582b     movar   0x2b             	MOVAR	r0x101B
0001b4   7e2f     addra   0x2f             	ADDRA	r0x101F
0001b5   582e     movar   0x2e             	MOVAR	r0x101E
0001b6   5605     movra   0x5              	MOVRA	STK01
0001b7   582f     movar   0x2f             	MOVAR	r0x101F
0001b8   5606     movra   0x6              	MOVRA	STK00
0001b9   3c80     movai   0x80             	MOVAI	0x80
0001ba   83aa     call    0x3aa            	CALL	__gptrget1
0001bb   5630     movra   0x30             	MOVRA	r0x1020
0001bc   5830     movar   0x30             	MOVAR	r0x1020
0001bd   39ff     xorai   0xff             	XORAI	0xff
0001be   e587     jbset   0x187, 0x2       	JBSET	PFLAG,2
0001bf   a1c1     goto    0x1c1            	GOTO	_00483_DS_
0001c0   a1f9     goto    0x1f9            	GOTO	_00296_DS_
                                           _00483_DS_
0001c1   3c04     movai   0x4              	MOVAI	0x04
0001c2   7e2a     addra   0x2a             	ADDRA	r0x101A
0001c3   f187     jbclr   0x187, 0         	JBCLR	PFLAG,0
0001c4   662b     incr    0x2b             	INCR	r0x101B
0001c5   582a     movar   0x2a             	MOVAR	r0x101A
0001c6   5605     movra   0x5              	MOVRA	STK01
0001c7   582b     movar   0x2b             	MOVAR	r0x101B
0001c8   5606     movra   0x6              	MOVRA	STK00
0001c9   3c80     movai   0x80             	MOVAI	0x80
0001ca   83aa     call    0x3aa            	CALL	__gptrget1
0001cb   5630     movra   0x30             	MOVRA	r0x1020
0001cc   5830     movar   0x30             	MOVAR	r0x1020
0001cd   39ff     xorai   0xff             	XORAI	0xff
0001ce   e587     jbset   0x187, 0x2       	JBSET	PFLAG,2
0001cf   a1d1     goto    0x1d1            	GOTO	_00484_DS_
0001d0   a1f9     goto    0x1f9            	GOTO	_00296_DS_
                                           _00484_DS_
                                           ;	.line	653; "MC32F7361.c"	send_cmd_16bit(tmp); // 4 * 16bit 2 * 16bit
0001d1   582c     movar   0x2c             	MOVAR	r0x101C
0001d2   5606     movra   0x6              	MOVRA	STK00
0001d3   582d     movar   0x2d             	MOVAR	r0x101D
0001d4   8288     call    0x288            	CALL	_send_cmd_16bit
                                           ;	.line	654; "MC32F7361.c"	tmp = ((u16)table_irkey[i][3] << 8) + (u16)table_irkey[i][4];
0001d5   582e     movar   0x2e             	MOVAR	r0x101E
0001d6   5605     movra   0x5              	MOVRA	STK01
0001d7   582f     movar   0x2f             	MOVAR	r0x101F
0001d8   5606     movra   0x6              	MOVRA	STK00
0001d9   3c80     movai   0x80             	MOVAI	0x80
0001da   83aa     call    0x3aa            	CALL	__gptrget1
0001db   562d     movra   0x2d             	MOVRA	r0x101D
0001dc   562e     movra   0x2e             	MOVRA	r0x101E
0001dd   562c     movra   0x2c             	MOVRA	r0x101C
                                           ;;104	MOVAR	r0x101C
0001de   762f     clrr    0x2f             	CLRR	r0x101F
                                           ;;105	MOVAR	r0x101E
0001df   762c     clrr    0x2c             	CLRR	r0x101C
0001e0   582a     movar   0x2a             	MOVAR	r0x101A
0001e1   5605     movra   0x5              	MOVRA	STK01
0001e2   582b     movar   0x2b             	MOVAR	r0x101B
0001e3   5606     movra   0x6              	MOVRA	STK00
0001e4   3c80     movai   0x80             	MOVAI	0x80
0001e5   83aa     call    0x3aa            	CALL	__gptrget1
0001e6   562e     movra   0x2e             	MOVRA	r0x101E
                                           ;;103	MOVAR	r0x101E
0001e7   762b     clrr    0x2b             	CLRR	r0x101B
                                           ;;102	MOVAR	r0x101A
0001e8   582e     movar   0x2e             	MOVAR	r0x101E
0001e9   562a     movra   0x2a             	MOVRA	r0x101A
0001ea   7e2c     addra   0x2c             	ADDRA	r0x101C
0001eb   3c00     movai   0                	MOVAI	0x00
0001ec   f187     jbclr   0x187, 0         	JBCLR	PFLAG,0
0001ed   602b     jzar    0x2b             	JZAR	r0x101B
0001ee   7e2d     addra   0x2d             	ADDRA	r0x101D
                                           ;	.line	655; "MC32F7361.c"	send_cmd_16bit(tmp);
0001ef   582c     movar   0x2c             	MOVAR	r0x101C
0001f0   5606     movra   0x6              	MOVRA	STK00
0001f1   582d     movar   0x2d             	MOVAR	r0x101D
0001f2   8288     call    0x288            	CALL	_send_cmd_16bit
                                           ;	.line	657; "MC32F7361.c"	break;
0001f3   a1f9     goto    0x1f9            	GOTO	_00296_DS_
                                           _00327_DS_
                                           ;	.line	644; "MC32F7361.c"	for (i = 0; i < sizeof(table_irkey) / sizeof(table_irkey[0]); i++)
0001f4   6629     incr    0x29             	INCR	r0x1019
                                           ;;unsigned compare: left < lit(0x12=18), size=1
0001f5   3c12     movai   0x12             	MOVAI	0x12
0001f6   4829     rsubar  0x29             	RSUBAR	r0x1019
0001f7   e187     jbset   0x187, 0         	JBSET	PFLAG,0
0001f8   a15e     goto    0x15e            	GOTO	_00326_DS_
                                           ;;genSkipc:3291: created from rifx:013B5EFC
                                           _00296_DS_
                                           ;	.line	662; "MC32F7361.c"	ir_data = 0;
0001f9   7646     clrr    0x46             	CLRR	_ir_data
                                           ;	.line	663; "MC32F7361.c"	flag_is_recved_data = 0;
0001fa   d045     bclr    0x45, 0          	BCLR	_flag1,0
                                           _00298_DS_
                                           ;	.line	666; "MC32F7361.c"	if (CUR_LED_STATUS_AUTO == cur_led_status) //  AUTO 
0001fb   5841     movar   0x41             	MOVAR	_cur_led_status
0001fc   3901     xorai   0x1              	XORAI	0x01
0001fd   e587     jbset   0x187, 0x2       	JBSET	PFLAG,2
0001fe   a200     goto    0x200            	GOTO	_00486_DS_
0001ff   a0d3     goto    0xd3             	GOTO	_00324_DS_
                                           _00486_DS_
                                           ;	.line	988; "MC32F7361.c"	else if (CUR_LED_STATUS_R4C4_FADE == cur_led_status) //  fade 
000200   5841     movar   0x41             	MOVAR	_cur_led_status
000201   3904     xorai   0x4              	XORAI	0x04
000202   e587     jbset   0x187, 0x2       	JBSET	PFLAG,2
000203   a205     goto    0x205            	GOTO	_00487_DS_
000204   a0d3     goto    0xd3             	GOTO	_00324_DS_
                                           _00487_DS_
                                           ;	.line	1116; "MC32F7361.c"	else if (CUR_LED_STATUS_R5C4_JUMP == cur_led_status) //  JUMP 
000205   5841     movar   0x41             	MOVAR	_cur_led_status
000206   3905     xorai   0x5              	XORAI	0x05
000207   e587     jbset   0x187, 0x2       	JBSET	PFLAG,2
000208   a20a     goto    0x20a            	GOTO	_00488_DS_
000209   a0d3     goto    0xd3             	GOTO	_00324_DS_
                                           _00488_DS_
                                           ;	.line	1199; "MC32F7361.c"	else if (CUR_LED_STATUS_R6C4_ASYN_FADE == cur_led_status) //  asyn_fade 
00020a   5841     movar   0x41             	MOVAR	_cur_led_status
00020b   3906     xorai   0x6              	XORAI	0x06
00020c   e587     jbset   0x187, 0x2       	JBSET	PFLAG,2
00020d   a20f     goto    0x20f            	GOTO	_00489_DS_
00020e   a0d3     goto    0xd3             	GOTO	_00324_DS_
                                           _00489_DS_
                                           ;	.line	1312; "MC32F7361.c"	else if (CUR_LED_STATUS_R7C1_IN_WAVES == cur_led_status) //  in_waves 
00020f   5841     movar   0x41             	MOVAR	_cur_led_status
000210   3907     xorai   0x7              	XORAI	0x07
000211   e587     jbset   0x187, 0x2       	JBSET	PFLAG,2
000212   a214     goto    0x214            	GOTO	_00490_DS_
000213   a0d3     goto    0xd3             	GOTO	_00324_DS_
                                           _00490_DS_
                                           ;	.line	1436; "MC32F7361.c"	else if (CUR_LED_STATUS_R7C2_STROBE == cur_led_status) //  strobe 
000214   5841     movar   0x41             	MOVAR	_cur_led_status
000215   3908     xorai   0x8              	XORAI	0x08
000216   e587     jbset   0x187, 0x2       	JBSET	PFLAG,2
000217   a219     goto    0x219            	GOTO	_00491_DS_
000218   a0d3     goto    0xd3             	GOTO	_00324_DS_
                                           _00491_DS_
                                           ;	.line	1545; "MC32F7361.c"	else if (CUR_LED_STATUS_R7C3_TWINKLE == cur_led_status) //  twinkle 
000219   5841     movar   0x41             	MOVAR	_cur_led_status
00021a   3909     xorai   0x9              	XORAI	0x09
00021b   e587     jbset   0x187, 0x2       	JBSET	PFLAG,2
00021c   a21e     goto    0x21e            	GOTO	_00492_DS_
00021d   a0d3     goto    0xd3             	GOTO	_00324_DS_
                                           _00492_DS_
                                           ;	.line	1647; "MC32F7361.c"	else if (CUR_LED_STATUS_R7C4_ASYN_JUMP == cur_led_status) //  asyn_jump 
00021e   5841     movar   0x41             	MOVAR	_cur_led_status
00021f   390a     xorai   0xa              	XORAI	0x0a
000220   e587     jbset   0x187, 0x2       	JBSET	PFLAG,2
000221   a223     goto    0x223            	GOTO	_00493_DS_
000222   a0d3     goto    0xd3             	GOTO	_00324_DS_
                                           _00493_DS_
                                           ;	.line	1760; "MC32F7361.c"	flag_is_press_speed = 0;
000223   7640     clrr    0x40             	CLRR	_flag_is_press_speed
000224   a0d3     goto    0xd3             	GOTO	_00324_DS_
                                           ;	.line	1764; "MC32F7361.c"	}
000225   000c     return                   	RETURN	
                                           ; exit point of _main
                                           
                                           ;***
                                           ;  pBlock Stats: dbName = C
                                           ;***
                                           ;entry:  _Sys_Init	;Function start
                                           ; 2 exit points
                                           ;has an exit
                                           ;functions called:
                                           ;   _CLR_RAM
                                           ;   _IO_Init
                                           ;   _TIMER2_INT_Init
                                           ;   _TIMER3_INT_Init
                                           ;   _CLR_RAM
                                           ;   _IO_Init
                                           ;   _TIMER2_INT_Init
                                           ;   _TIMER3_INT_Init
                                           ;; Starting pCode block
                                           _Sys_Init	;Function start
                                           ; 2 exit points
                                           ;	.line	243; "MC32F7361.c"	GIE = 0;
000226   df88     bclr    0x188, 0x7       	BCLR	_MCRbits,7
                                           ;	.line	244; "MC32F7361.c"	CLR_RAM();
000227   8251     call    0x251            	CALL	_CLR_RAM
                                           ;	.line	245; "MC32F7361.c"	IO_Init();
000228   823c     call    0x23c            	CALL	_IO_Init
                                           ;	.line	248; "MC32F7361.c"	TIMER2_INT_Init();
000229   8233     call    0x233            	CALL	_TIMER2_INT_Init
                                           ;	.line	249; "MC32F7361.c"	TIMER3_INT_Init();
00022a   822d     call    0x22d            	CALL	_TIMER3_INT_Init
                                           ;	.line	250; "MC32F7361.c"	GIE = 1;
00022b   cf88     bset    0x188, 0x7       	BSET	_MCRbits,7
                                           ;	.line	251; "MC32F7361.c"	}
00022c   000c     return                   	RETURN	
                                           ; exit point of _Sys_Init
                                           
                                           ;***
                                           ;  pBlock Stats: dbName = C
                                           ;***
                                           ;entry:  _TIMER3_INT_Init	;Function start
                                           ; 2 exit points
                                           ;has an exit
                                           ;; Starting pCode block
                                           _TIMER3_INT_Init	;Function start
                                           ; 2 exit points
                                           ;	.line	231; "MC32F7361.c"	T3LOAD = 135 - 1;                               // 1ms
00022d   3c86     movai   0x86             	MOVAI	0x86
00022e   57a6     movra   0x1a6            	MOVRA	_T3LOAD
                                           ;	.line	232; "MC32F7361.c"	T3CR = (0x01 << 7) | (0x01 << 2) | (0x01 << 1); // FCPU64
00022f   3c86     movai   0x86             	MOVAI	0x86
000230   57a4     movra   0x1a4            	MOVRA	_T3CR
                                           ;	.line	233; "MC32F7361.c"	T3IE = 1;
000231   cf8a     bset    0x18a, 0x7       	BSET	_INTEbits,7
                                           ;	.line	234; "MC32F7361.c"	}
000232   000c     return                   	RETURN	
                                           ; exit point of _TIMER3_INT_Init
                                           
                                           ;***
                                           ;  pBlock Stats: dbName = C
                                           ;***
                                           ;entry:  _TIMER2_INT_Init	;Function start
                                           ; 2 exit points
                                           ;has an exit
                                           ;; Starting pCode block
                                           _TIMER2_INT_Init	;Function start
                                           ; 2 exit points
                                           ;	.line	222; "MC32F7361.c"	T2CR = DEF_SET_BIT0 | DEF_SET_BIT1; // CPU,8
000233   3c03     movai   0x3              	MOVAI	0x03
000234   57a0     movra   0x1a0            	MOVRA	_T2CR
                                           ;	.line	223; "MC32F7361.c"	T2CNT = 100 - 1;
000235   3c63     movai   0x63             	MOVAI	0x63
000236   57a1     movra   0x1a1            	MOVRA	_T2CNT
                                           ;	.line	224; "MC32F7361.c"	T2LOAD = 100 - 1; // 100us
000237   3c63     movai   0x63             	MOVAI	0x63
000238   57a2     movra   0x1a2            	MOVRA	_T2LOAD
                                           ;	.line	225; "MC32F7361.c"	T2EN = 1;
000239   cfa0     bset    0x1a0, 0x7       	BSET	_T2CRbits,7
                                           ;	.line	226; "MC32F7361.c"	T2IE = 1;
00023a   cb8a     bset    0x18a, 0x5       	BSET	_INTEbits,5
                                           ;	.line	227; "MC32F7361.c"	}
00023b   000c     return                   	RETURN	
                                           ; exit point of _TIMER2_INT_Init
                                           
                                           ;***
                                           ;  pBlock Stats: dbName = C
                                           ;***
                                           ;entry:  _IO_Init	;Function start
                                           ; 2 exit points
                                           ;has an exit
                                           ;; Starting pCode block
                                           _IO_Init	;Function start
                                           ; 2 exit points
                                           ;	.line	193; "MC32F7361.c"	IOP0 = 0x00;   // io
00023c   7790     clrr    0x190            	CLRR	_IOP0
                                           ;	.line	194; "MC32F7361.c"	OEP0 = 0x3F;   // io 1:out  0:in
00023d   3c3f     movai   0x3f             	MOVAI	0x3f
00023e   5791     movra   0x191            	MOVRA	_OEP0
                                           ;	.line	195; "MC32F7361.c"	PUP0 = 0x00;   // io   1:enable  0:disable
00023f   7792     clrr    0x192            	CLRR	_PUP0
                                           ;	.line	196; "MC32F7361.c"	PDP0 = 0x00;   // io   1:enable  0:disable
000240   7793     clrr    0x193            	CLRR	_PDP0
                                           ;	.line	197; "MC32F7361.c"	P0ADCR = 0x00; // io  1:  0:io
000241   77b6     clrr    0x1b6            	CLRR	_P0ADCR
                                           ;	.line	199; "MC32F7361.c"	IOP1 = 0x00;   // io
000242   7794     clrr    0x194            	CLRR	_IOP1
                                           ;	.line	200; "MC32F7361.c"	OEP1 = 0xFF;   // io 1:out  0:in
000243   3cff     movai   0xff             	MOVAI	0xff
000244   5795     movra   0x195            	MOVRA	_OEP1
                                           ;	.line	201; "MC32F7361.c"	PUP1 = 0x00;   // io   1:enable  0:disable
000245   7796     clrr    0x196            	CLRR	_PUP1
                                           ;	.line	202; "MC32F7361.c"	PDP1 = 0x00;   // io   1:enable  0:disable
000246   7797     clrr    0x197            	CLRR	_PDP1
                                           ;	.line	203; "MC32F7361.c"	P1ADCR = 0x00; // io  1:  0:io
000247   77b7     clrr    0x1b7            	CLRR	_P1ADCR
                                           ;	.line	205; "MC32F7361.c"	IOP2 = 0x00; // io
000248   77b8     clrr    0x1b8            	CLRR	_IOP2
                                           ;	.line	206; "MC32F7361.c"	OEP2 = 0x0F; // io 1:out  0:in
000249   3c0f     movai   0xf              	MOVAI	0x0f
00024a   57b9     movra   0x1b9            	MOVRA	_OEP2
                                           ;	.line	207; "MC32F7361.c"	PUP2 = 0x00; // io   1:enable  0:disable
00024b   77ba     clrr    0x1ba            	CLRR	_PUP2
                                           ;	.line	208; "MC32F7361.c"	PDP2 = 0x00; // io   1:enable  0:disablea
00024c   77bb     clrr    0x1bb            	CLRR	_PDP2
                                           ;	.line	210; "MC32F7361.c"	PMOD = 0x00;  // P00P01P13 io
00024d   77bc     clrr    0x1bc            	CLRR	_PMOD
                                           ;	.line	211; "MC32F7361.c"	DRVCR = 0x80; // 
00024e   3c80     movai   0x80             	MOVAI	0x80
00024f   578c     movra   0x18c            	MOVRA	_DRVCR
                                           ;	.line	212; "MC32F7361.c"	}
000250   000c     return                   	RETURN	
                                           ; exit point of _IO_Init
                                           
                                           ;***
                                           ;  pBlock Stats: dbName = C
                                           ;***
                                           ;entry:  _CLR_RAM	;Function start
                                           ; 2 exit points
                                           ;has an exit
                                           ;; Starting pCode block
                                           _CLR_RAM	;Function start
                                           ; 2 exit points
                                           ;	.line	178; "MC32F7361.c"	for (FSR0 = 0; FSR0 < 0xff; FSR0++)
000251   7784     clrr    0x184            	CLRR	_FSR0
                                           ;;unsigned compare: left < lit(0xFF=255), size=1
                                           _00226_DS_
000252   3cff     movai   0xff             	MOVAI	0xff
000253   4984     rsubar  0x184            	RSUBAR	_FSR0
000254   f187     jbclr   0x187, 0         	JBCLR	PFLAG,0
000255   a259     goto    0x259            	GOTO	_00224_DS_
                                           ;;genSkipc:3291: created from rifx:013B5EFC
                                           ;	.line	180; "MC32F7361.c"	INDF0 = 0x00;
000256   7780     clrr    0x180            	CLRR	_INDF0
                                           ;	.line	178; "MC32F7361.c"	for (FSR0 = 0; FSR0 < 0xff; FSR0++)
000257   6784     incr    0x184            	INCR	_FSR0
000258   a252     goto    0x252            	GOTO	_00226_DS_
                                           _00224_DS_
                                           ;	.line	182; "MC32F7361.c"	FSR0 = 0xFF;
000259   3cff     movai   0xff             	MOVAI	0xff
00025a   5784     movra   0x184            	MOVRA	_FSR0
                                           ;	.line	183; "MC32F7361.c"	INDF0 = 0x00;
00025b   7780     clrr    0x180            	CLRR	_INDF0
                                           ;	.line	184; "MC32F7361.c"	}
00025c   000c     return                   	RETURN	
                                           ; exit point of _CLR_RAM
                                           
                                           ;***
                                           ;  pBlock Stats: dbName = C
                                           ;***
                                           ;entry:  _send_cmd_16bit_without_delay	;Function start
                                           ; 2 exit points
                                           ;has an exit
                                           ;functions called:
                                           ;   _delay_100us
                                           ;   _delay_ms
                                           ;   _delay_1_4ms
                                           ;   _delay_100us
                                           ;   _delay_100us
                                           ;   _delay_ms
                                           ;   _delay_1_4ms
                                           ;   _delay_100us
                                           ;7 compiler assigned registers:
                                           ;   r0x1021
                                           ;   STK00
                                           ;   r0x1022
                                           ;   r0x1023
                                           ;   r0x1024
                                           ;   r0x1025
                                           ;   r0x1026
                                           ;; Starting pCode block
                                           _send_cmd_16bit_without_delay	;Function start
                                           ; 2 exit points
                                           ;	.line	140; "MC32F7361.c"	void send_cmd_16bit_without_delay(const u16 data)
00025d   5624     movra   0x24             	MOVRA	r0x1021
00025e   5806     movar   0x6              	MOVAR	STK00
00025f   5623     movra   0x23             	MOVRA	r0x1022
                                           ;	.line	143; "MC32F7361.c"	if (0 == flag_is_dev_open)
000260   f245     jbclr   0x45, 0x1        	JBCLR	_flag1,1
000261   a263     goto    0x263            	GOTO	_00203_DS_
                                           ;	.line	145; "MC32F7361.c"	return;
000262   a287     goto    0x287            	GOTO	_00199_DS_
                                           _00203_DS_
                                           ;	.line	149; "MC32F7361.c"	for (i = 0; i < 16; i++)
000263   7625     clrr    0x25             	CLRR	r0x1023
                                           _00197_DS_
                                           ;	.line	151; "MC32F7361.c"	LED_CTL_PIN = 0;
000264   d5b8     bclr    0x1b8, 0x2       	BCLR	_IOP2bits,2
                                           ;	.line	152; "MC32F7361.c"	delay_100us();
000265   8324     call    0x324            	CALL	_delay_100us
                                           ;	.line	153; "MC32F7361.c"	LED_CTL_PIN = 1;
000266   c5b8     bset    0x1b8, 0x2       	BSET	_IOP2bits,2
                                           ;	.line	154; "MC32F7361.c"	if ((data >> (15 - i)) & 0x01) // 1
000267   5825     movar   0x25             	MOVAR	r0x1023
000268   3a0f     isubai  0xf              	ISUBAI	0x0f
000269   5626     movra   0x26             	MOVRA	r0x1024
00026a   5824     movar   0x24             	MOVAR	r0x1021
00026b   5628     movra   0x28             	MOVRA	r0x1025
00026c   5823     movar   0x23             	MOVAR	r0x1022
00026d   5627     movra   0x27             	MOVRA	r0x1026
00026e   5826     movar   0x26             	MOVAR	r0x1024
00026f   3a00     isubai  0                	ISUBAI	0x00
000270   f587     jbclr   0x187, 0x2       	JBCLR	PFLAG,2
000271   a277     goto    0x277            	GOTO	_00219_DS_
                                           _00218_DS_
000272   4e28     rrr     0x28             	RRR	r0x1025
000273   4e27     rrr     0x27             	RRR	r0x1026
000274   3f01     addai   0x1              	ADDAI	0x01
000275   e187     jbset   0x187, 0         	JBSET	PFLAG,0
000276   a272     goto    0x272            	GOTO	_00218_DS_
                                           _00219_DS_
000277   e027     jbset   0x27, 0          	JBSET	r0x1026,0
000278   a27e     goto    0x27e            	GOTO	_00194_DS_
                                           ;	.line	156; "MC32F7361.c"	delay_ms(3);
000279   3c03     movai   0x3              	MOVAI	0x03
00027a   5606     movra   0x6              	MOVRA	STK00
00027b   3c00     movai   0                	MOVAI	0x00
00027c   8330     call    0x330            	CALL	_delay_ms
00027d   a27f     goto    0x27f            	GOTO	_00198_DS_
                                           _00194_DS_
                                           ;	.line	160; "MC32F7361.c"	delay_1_4ms();
00027e   830d     call    0x30d            	CALL	_delay_1_4ms
                                           _00198_DS_
                                           ;	.line	149; "MC32F7361.c"	for (i = 0; i < 16; i++)
00027f   6625     incr    0x25             	INCR	r0x1023
                                           ;;unsigned compare: left < lit(0x10=16), size=1
000280   3c10     movai   0x10             	MOVAI	0x10
000281   4825     rsubar  0x25             	RSUBAR	r0x1023
000282   e187     jbset   0x187, 0         	JBSET	PFLAG,0
000283   a264     goto    0x264            	GOTO	_00197_DS_
                                           ;;genSkipc:3291: created from rifx:013B5EFC
                                           ;	.line	164; "MC32F7361.c"	LED_CTL_PIN = 0;
000284   d5b8     bclr    0x1b8, 0x2       	BCLR	_IOP2bits,2
                                           ;	.line	165; "MC32F7361.c"	delay_100us();
000285   8324     call    0x324            	CALL	_delay_100us
                                           ;	.line	166; "MC32F7361.c"	LED_CTL_PIN = 1;
000286   c5b8     bset    0x1b8, 0x2       	BSET	_IOP2bits,2
                                           _00199_DS_
                                           ;	.line	168; "MC32F7361.c"	}
000287   000c     return                   	RETURN	
                                           ; exit point of _send_cmd_16bit_without_delay
                                           
                                           ;***
                                           ;  pBlock Stats: dbName = C
                                           ;***
                                           ;entry:  _send_cmd_16bit	;Function start
                                           ; 2 exit points
                                           ;has an exit
                                           ;functions called:
                                           ;   _delay_100us
                                           ;   _delay_ms
                                           ;   _delay_1_4ms
                                           ;   _delay_100us
                                           ;   _delay_ms
                                           ;   _delay_100us
                                           ;   _delay_ms
                                           ;   _delay_1_4ms
                                           ;   _delay_100us
                                           ;   _delay_ms
                                           ;7 compiler assigned registers:
                                           ;   r0x1013
                                           ;   STK00
                                           ;   r0x1014
                                           ;   r0x1015
                                           ;   r0x1016
                                           ;   r0x1017
                                           ;   r0x1018
                                           ;; Starting pCode block
                                           _send_cmd_16bit	;Function start
                                           ; 2 exit points
                                           ;	.line	108; "MC32F7361.c"	void send_cmd_16bit(const u16 data)
000288   561e     movra   0x1e             	MOVRA	r0x1013
000289   5806     movar   0x6              	MOVAR	STK00
00028a   561d     movra   0x1d             	MOVRA	r0x1014
                                           ;	.line	111; "MC32F7361.c"	if (0 == flag_is_dev_open)
00028b   f245     jbclr   0x45, 0x1        	JBCLR	_flag1,1
00028c   a28e     goto    0x28e            	GOTO	_00170_DS_
                                           ;	.line	113; "MC32F7361.c"	return;
00028d   a2b6     goto    0x2b6            	GOTO	_00166_DS_
                                           _00170_DS_
                                           ;	.line	117; "MC32F7361.c"	for (i = 0; i < 16; i++)
00028e   761f     clrr    0x1f             	CLRR	r0x1015
                                           _00164_DS_
                                           ;	.line	119; "MC32F7361.c"	LED_CTL_PIN = 0;
00028f   d5b8     bclr    0x1b8, 0x2       	BCLR	_IOP2bits,2
                                           ;	.line	120; "MC32F7361.c"	delay_100us();
000290   8324     call    0x324            	CALL	_delay_100us
                                           ;	.line	121; "MC32F7361.c"	LED_CTL_PIN = 1;
000291   c5b8     bset    0x1b8, 0x2       	BSET	_IOP2bits,2
                                           ;	.line	122; "MC32F7361.c"	if ((data >> (15 - i)) & 0x01) // 1
000292   581f     movar   0x1f             	MOVAR	r0x1015
000293   3a0f     isubai  0xf              	ISUBAI	0x0f
000294   5620     movra   0x20             	MOVRA	r0x1016
000295   581e     movar   0x1e             	MOVAR	r0x1013
000296   5622     movra   0x22             	MOVRA	r0x1017
000297   581d     movar   0x1d             	MOVAR	r0x1014
000298   5621     movra   0x21             	MOVRA	r0x1018
000299   5820     movar   0x20             	MOVAR	r0x1016
00029a   3a00     isubai  0                	ISUBAI	0x00
00029b   f587     jbclr   0x187, 0x2       	JBCLR	PFLAG,2
00029c   a2a2     goto    0x2a2            	GOTO	_00186_DS_
                                           _00185_DS_
00029d   4e22     rrr     0x22             	RRR	r0x1017
00029e   4e21     rrr     0x21             	RRR	r0x1018
00029f   3f01     addai   0x1              	ADDAI	0x01
0002a0   e187     jbset   0x187, 0         	JBSET	PFLAG,0
0002a1   a29d     goto    0x29d            	GOTO	_00185_DS_
                                           _00186_DS_
0002a2   e021     jbset   0x21, 0          	JBSET	r0x1018,0
0002a3   a2a9     goto    0x2a9            	GOTO	_00161_DS_
                                           ;	.line	124; "MC32F7361.c"	delay_ms(3);
0002a4   3c03     movai   0x3              	MOVAI	0x03
0002a5   5606     movra   0x6              	MOVRA	STK00
0002a6   3c00     movai   0                	MOVAI	0x00
0002a7   8330     call    0x330            	CALL	_delay_ms
0002a8   a2aa     goto    0x2aa            	GOTO	_00165_DS_
                                           _00161_DS_
                                           ;	.line	128; "MC32F7361.c"	delay_1_4ms();
0002a9   830d     call    0x30d            	CALL	_delay_1_4ms
                                           _00165_DS_
                                           ;	.line	117; "MC32F7361.c"	for (i = 0; i < 16; i++)
0002aa   661f     incr    0x1f             	INCR	r0x1015
                                           ;;unsigned compare: left < lit(0x10=16), size=1
0002ab   3c10     movai   0x10             	MOVAI	0x10
0002ac   481f     rsubar  0x1f             	RSUBAR	r0x1015
0002ad   e187     jbset   0x187, 0         	JBSET	PFLAG,0
0002ae   a28f     goto    0x28f            	GOTO	_00164_DS_
                                           ;;genSkipc:3291: created from rifx:013B5EFC
                                           ;	.line	132; "MC32F7361.c"	LED_CTL_PIN = 0;
0002af   d5b8     bclr    0x1b8, 0x2       	BCLR	_IOP2bits,2
                                           ;	.line	133; "MC32F7361.c"	delay_100us();
0002b0   8324     call    0x324            	CALL	_delay_100us
                                           ;	.line	134; "MC32F7361.c"	LED_CTL_PIN = 1;
0002b1   c5b8     bset    0x1b8, 0x2       	BSET	_IOP2bits,2
                                           ;	.line	135; "MC32F7361.c"	delay_ms(33);
0002b2   3c21     movai   0x21             	MOVAI	0x21
0002b3   5606     movra   0x6              	MOVRA	STK00
0002b4   3c00     movai   0                	MOVAI	0x00
0002b5   8330     call    0x330            	CALL	_delay_ms
                                           _00166_DS_
                                           ;	.line	137; "MC32F7361.c"	}
0002b6   000c     return                   	RETURN	
                                           ; exit point of _send_cmd_16bit
                                           
                                           ;***
                                           ;  pBlock Stats: dbName = C
                                           ;***
                                           ;entry:  _EEPROM_Write_Data	;Function start
                                           ; 2 exit points
                                           ;has an exit
                                           ;functions called:
                                           ;   __gptrget2
                                           ;   _EEPROM_Write_Byte
                                           ;   __gptrget2
                                           ;   _EEPROM_Write_Byte
                                           ;12 compiler assigned registers:
                                           ;   r0x102B
                                           ;   STK00
                                           ;   r0x102C
                                           ;   STK01
                                           ;   r0x102D
                                           ;   STK02
                                           ;   r0x102E
                                           ;   STK03
                                           ;   r0x102F
                                           ;   r0x1030
                                           ;   r0x1031
                                           ;   r0x1032
                                           ;; Starting pCode block
                                           _EEPROM_Write_Data	;Function start
                                           ; 2 exit points
                                           ;	.line	98; "MC32F7361.c"	void EEPROM_Write_Data(u8 addr, u16 *data, u8 len)
0002b7   5615     movra   0x15             	MOVRA	r0x102B
0002b8   5806     movar   0x6              	MOVAR	STK00
0002b9   5618     movra   0x18             	MOVRA	r0x102C
0002ba   5805     movar   0x5              	MOVAR	STK01
0002bb   5617     movra   0x17             	MOVRA	r0x102D
0002bc   5804     movar   0x4              	MOVAR	STK02
0002bd   5616     movra   0x16             	MOVRA	r0x102E
0002be   5803     movar   0x3              	MOVAR	STK03
0002bf   5619     movra   0x19             	MOVRA	r0x102F
                                           _00150_DS_
                                           ;	.line	100; "MC32F7361.c"	while (len)
0002c0   3c00     movai   0                	MOVAI	0x00
0002c1   5c19     orar    0x19             	ORAR	r0x102F
0002c2   f587     jbclr   0x187, 0x2       	JBCLR	PFLAG,2
0002c3   a2de     goto    0x2de            	GOTO	_00153_DS_
                                           ;	.line	102; "MC32F7361.c"	EEPROM_Write_Byte(addr++, *data++);
0002c4   5815     movar   0x15             	MOVAR	r0x102B
0002c5   561a     movra   0x1a             	MOVRA	r0x1030
0002c6   6615     incr    0x15             	INCR	r0x102B
0002c7   5816     movar   0x16             	MOVAR	r0x102E
0002c8   5605     movra   0x5              	MOVRA	STK01
0002c9   5817     movar   0x17             	MOVAR	r0x102D
0002ca   5606     movra   0x6              	MOVRA	STK00
0002cb   5818     movar   0x18             	MOVAR	r0x102C
0002cc   83bc     call    0x3bc            	CALL	__gptrget2
0002cd   561c     movra   0x1c             	MOVRA	r0x1031
0002ce   5806     movar   0x6              	MOVAR	STK00
0002cf   561b     movra   0x1b             	MOVRA	r0x1032
0002d0   3c02     movai   0x2              	MOVAI	0x02
0002d1   7e16     addra   0x16             	ADDRA	r0x102E
0002d2   f187     jbclr   0x187, 0         	JBCLR	PFLAG,0
0002d3   6617     incr    0x17             	INCR	r0x102D
0002d4   f587     jbclr   0x187, 0x2       	JBCLR	PFLAG,2
0002d5   6618     incr    0x18             	INCR	r0x102C
0002d6   581b     movar   0x1b             	MOVAR	r0x1032
0002d7   5605     movra   0x5              	MOVRA	STK01
0002d8   581c     movar   0x1c             	MOVAR	r0x1031
0002d9   5606     movra   0x6              	MOVRA	STK00
0002da   581a     movar   0x1a             	MOVAR	r0x1030
0002db   82f6     call    0x2f6            	CALL	_EEPROM_Write_Byte
                                           ;	.line	103; "MC32F7361.c"	len--;
0002dc   6e19     decr    0x19             	DECR	r0x102F
0002dd   a2c0     goto    0x2c0            	GOTO	_00150_DS_
                                           _00153_DS_
                                           ;	.line	105; "MC32F7361.c"	}
0002de   000c     return                   	RETURN	
                                           ; exit point of _EEPROM_Write_Data
                                           
                                           ;***
                                           ;  pBlock Stats: dbName = C
                                           ;***
                                           ;entry:  _EEPROM_Read_Byte	;Function start
                                           ; 2 exit points
                                           ;has an exit
                                           ;5 compiler assigned registers:
                                           ;   r0x1033
                                           ;   r0x1034
                                           ;   r0x1035
                                           ;   r0x1036
                                           ;   STK00
                                           ;; Starting pCode block
                                           _EEPROM_Read_Byte	;Function start
                                           ; 2 exit points
                                           ;	.line	78; "MC32F7361.c"	uint16_t EEPROM_Read_Byte(u8 addr)
0002df   57c5     movra   0x1c5            	MOVRA	_EEAR
                                           ;	.line	82; "MC32F7361.c"	EECR = 0x02; //  EE 
0002e0   3c02     movai   0x2              	MOVAI	0x02
0002e1   57c3     movra   0x1c3            	MOVRA	_EECR
                                           ;	.line	83; "MC32F7361.c"	Nop();
0002e2   0000     nop                      	nop	
                                           ;	.line	84; "MC32F7361.c"	Nop();
0002e3   0000     nop                      	nop	
                                           _00145_DS_
                                           ;	.line	85; "MC32F7361.c"	while (EEREAD) //  EE 
0002e4   f3c3     jbclr   0x1c3, 0x1       	JBCLR	_EECRbits,1
0002e5   a2e4     goto    0x2e4            	GOTO	_00145_DS_
                                           ;	.line	89; "MC32F7361.c"	EEDR = (EEDRH << 8) | EEDRL;
0002e6   59c6     movar   0x1c6            	MOVAR	_EEDRH
0002e7   5614     movra   0x14             	MOVRA	r0x1035
0002e8   5611     movra   0x11             	MOVRA	r0x1033
0002e9   7612     clrr    0x12             	CLRR	r0x1034
                                           ;;101	MOVAR	r0x1033
0002ea   7613     clrr    0x13             	CLRR	r0x1036
0002eb   59c7     movar   0x1c7            	MOVAR	_EEDRL
0002ec   5611     movra   0x11             	MOVRA	r0x1033
0002ed   7612     clrr    0x12             	CLRR	r0x1034
0002ee   5811     movar   0x11             	MOVAR	r0x1033
0002ef   5e13     orra    0x13             	ORRA	r0x1036
0002f0   3c00     movai   0                	MOVAI	0x00
0002f1   5e14     orra    0x14             	ORRA	r0x1035
                                           ;	.line	90; "MC32F7361.c"	return EEDR;
0002f2   5813     movar   0x13             	MOVAR	r0x1036
0002f3   5606     movra   0x6              	MOVRA	STK00
0002f4   5814     movar   0x14             	MOVAR	r0x1035
                                           ;	.line	91; "MC32F7361.c"	}
0002f5   000c     return                   	RETURN	
                                           ; exit point of _EEPROM_Read_Byte
                                           
                                           ;***
                                           ;  pBlock Stats: dbName = C
                                           ;***
                                           ;entry:  _EEPROM_Write_Byte	;Function start
                                           ; 2 exit points
                                           ;has an exit
                                           ;6 compiler assigned registers:
                                           ;   STK00
                                           ;   r0x1027
                                           ;   STK01
                                           ;   r0x1028
                                           ;   r0x1029
                                           ;   r0x102A
                                           ;; Starting pCode block
                                           _EEPROM_Write_Byte	;Function start
                                           ; 2 exit points
                                           ;	.line	54; "MC32F7361.c"	void EEPROM_Write_Byte(uint8_t addr, uint16_t data)
0002f6   57c5     movra   0x1c5            	MOVRA	_EEAR
0002f7   5806     movar   0x6              	MOVAR	STK00
0002f8   5610     movra   0x10             	MOVRA	r0x1029
                                           ;;1	MOVRA	r0x1027
0002f9   5805     movar   0x5              	MOVAR	STK01
0002fa   560f     movra   0xf              	MOVRA	r0x1028
                                           ;	.line	56; "MC32F7361.c"	HFEN = 1;
0002fb   c1ae     bset    0x1ae, 0         	BSET	_OSCMRbits,0
                                           ;;99	MOVAR	r0x1027
                                           ;;1	CLRR	r0x102A
                                           ;	.line	58; "MC32F7361.c"	EEDRH = (data >> 8) & 0xff;
0002fc   5810     movar   0x10             	MOVAR	r0x1029
0002fd   57c6     movra   0x1c6            	MOVRA	_EEDRH
                                           ;	.line	59; "MC32F7361.c"	EEDRL = data & 0xff;
0002fe   580f     movar   0xf              	MOVAR	r0x1028
0002ff   57c7     movra   0x1c7            	MOVRA	_EEDRL
                                           ;	.line	60; "MC32F7361.c"	GIE = 0;
000300   df88     bclr    0x188, 0x7       	BCLR	_MCRbits,7
                                           ;	.line	61; "MC32F7361.c"	EEPR = 0x5A;
000301   3c5a     movai   0x5a             	MOVAI	0x5a
000302   57c4     movra   0x1c4            	MOVRA	_EEPR
                                           ;	.line	62; "MC32F7361.c"	EEPR = 0xA5; // 
000303   3ca5     movai   0xa5             	MOVAI	0xa5
000304   57c4     movra   0x1c4            	MOVRA	_EEPR
                                           ;	.line	63; "MC32F7361.c"	EECR = 0x01; // EEPROM  
000305   3c01     movai   0x1              	MOVAI	0x01
000306   57c3     movra   0x1c3            	MOVRA	_EECR
                                           ;	.line	64; "MC32F7361.c"	Nop();
000307   0000     nop                      	nop	
                                           ;	.line	65; "MC32F7361.c"	Nop();
000308   0000     nop                      	nop	
                                           _00140_DS_
                                           ;	.line	66; "MC32F7361.c"	while (EEWRITE) //  EE 
000309   f1c3     jbclr   0x1c3, 0         	JBCLR	_EECRbits,0
00030a   a309     goto    0x309            	GOTO	_00140_DS_
                                           ;	.line	70; "MC32F7361.c"	GIE = 1;
00030b   cf88     bset    0x188, 0x7       	BSET	_MCRbits,7
                                           ;	.line	71; "MC32F7361.c"	}
00030c   000c     return                   	RETURN	
                                           ; exit point of _EEPROM_Write_Byte
                                           
                                           ;***
                                           ;  pBlock Stats: dbName = C
                                           ;***
                                           ;entry:  _delay_1_4ms	;Function start
                                           ; 2 exit points
                                           ;has an exit
                                           ;functions called:
                                           ;   _delay_100us
                                           ;   _delay_100us
                                           ;2 compiler assigned registers:
                                           ;   r0x100F
                                           ;   r0x1010
                                           ;; Starting pCode block
                                           _delay_1_4ms	;Function start
                                           ; 2 exit points
                                           ;	.line	42; "MC32F7361.c"	for (i = 0; i < 14; i++)
00030d   3c0e     movai   0xe              	MOVAI	0x0e
00030e   5609     movra   0x9              	MOVRA	r0x100F
                                           _00135_DS_
                                           ;	.line	44; "MC32F7361.c"	delay_100us();
00030f   8324     call    0x324            	CALL	_delay_100us
000310   6c09     decar   0x9              	DECAR	r0x100F
000311   5609     movra   0x9              	MOVRA	r0x100F
000312   560a     movra   0xa              	MOVRA	r0x1010
                                           ;;100	MOVAR	r0x1010
                                           ;	.line	42; "MC32F7361.c"	for (i = 0; i < 14; i++)
000313   3c00     movai   0                	MOVAI	0x00
000314   5c0a     orar    0xa              	ORAR	r0x1010
000315   e587     jbset   0x187, 0x2       	JBSET	PFLAG,2
000316   a30f     goto    0x30f            	GOTO	_00135_DS_
                                           ;	.line	46; "MC32F7361.c"	}
000317   000c     return                   	RETURN	
                                           ; exit point of _delay_1_4ms
                                           
                                           ;***
                                           ;  pBlock Stats: dbName = C
                                           ;***
                                           ;entry:  _delay_200us	;Function start
                                           ; 2 exit points
                                           ;has an exit
                                           ;2 compiler assigned registers:
                                           ;   r0x1037
                                           ;   r0x1038
                                           ;; Starting pCode block
                                           _delay_200us	;Function start
                                           ; 2 exit points
                                           ;	.line	32; "MC32F7361.c"	while (i--)
000318   3c96     movai   0x96             	MOVAI	0x96
000319   560d     movra   0xd              	MOVRA	r0x1037
                                           _00124_DS_
00031a   580d     movar   0xd              	MOVAR	r0x1037
00031b   560e     movra   0xe              	MOVRA	r0x1038
00031c   6e0d     decr    0xd              	DECR	r0x1037
00031d   3c00     movai   0                	MOVAI	0x00
00031e   5c0e     orar    0xe              	ORAR	r0x1038
00031f   f587     jbclr   0x187, 0x2       	JBCLR	PFLAG,2
000320   a323     goto    0x323            	GOTO	_00127_DS_
                                           ;	.line	34; "MC32F7361.c"	Nop();
000321   0000     nop                      	nop	
000322   a31a     goto    0x31a            	GOTO	_00124_DS_
                                           _00127_DS_
                                           ;	.line	36; "MC32F7361.c"	}
000323   000c     return                   	RETURN	
                                           ; exit point of _delay_200us
                                           
                                           ;***
                                           ;  pBlock Stats: dbName = C
                                           ;***
                                           ;entry:  _delay_100us	;Function start
                                           ; 2 exit points
                                           ;has an exit
                                           ;2 compiler assigned registers:
                                           ;   r0x100D
                                           ;   r0x100E
                                           ;; Starting pCode block
                                           _delay_100us	;Function start
                                           ; 2 exit points
                                           ;	.line	22; "MC32F7361.c"	while (i--)
000324   3c4a     movai   0x4a             	MOVAI	0x4a
000325   5608     movra   0x8              	MOVRA	r0x100D
                                           _00116_DS_
000326   5808     movar   0x8              	MOVAR	r0x100D
000327   5607     movra   0x7              	MOVRA	r0x100E
000328   6e08     decr    0x8              	DECR	r0x100D
000329   3c00     movai   0                	MOVAI	0x00
00032a   5c07     orar    0x7              	ORAR	r0x100E
00032b   f587     jbclr   0x187, 0x2       	JBCLR	PFLAG,2
00032c   a32f     goto    0x32f            	GOTO	_00119_DS_
                                           ;	.line	24; "MC32F7361.c"	Nop();
00032d   0000     nop                      	nop	
00032e   a326     goto    0x326            	GOTO	_00116_DS_
                                           _00119_DS_
                                           ;	.line	26; "MC32F7361.c"	}
00032f   000c     return                   	RETURN	
                                           ; exit point of _delay_100us
                                           
                                           ;***
                                           ;  pBlock Stats: dbName = C
                                           ;***
                                           ;entry:  _delay_ms	;Function start
                                           ; 2 exit points
                                           ;has an exit
                                           ;7 compiler assigned registers:
                                           ;   r0x100D
                                           ;   STK00
                                           ;   r0x100E
                                           ;   r0x100F
                                           ;   r0x1010
                                           ;   r0x1011
                                           ;   r0x1012
                                           ;; Starting pCode block
                                           _delay_ms	;Function start
                                           ; 2 exit points
                                           ;	.line	657; "user.h"	void delay_ms(u16 xms)
000330   5608     movra   0x8              	MOVRA	r0x100D
000331   5806     movar   0x6              	MOVAR	STK00
000332   5607     movra   0x7              	MOVRA	r0x100E
                                           _00108_DS_
                                           ;	.line	659; "user.h"	while (xms)
000333   5807     movar   0x7              	MOVAR	r0x100E
000334   5c08     orar    0x8              	ORAR	r0x100D
000335   f587     jbclr   0x187, 0x2       	JBCLR	PFLAG,2
000336   a34f     goto    0x34f            	GOTO	_00111_DS_
                                           ;	.line	662; "user.h"	while (i--)
000337   3c05     movai   0x5              	MOVAI	0x05
000338   5609     movra   0x9              	MOVRA	r0x100F
000339   3c02     movai   0x2              	MOVAI	0x02
00033a   560a     movra   0xa              	MOVRA	r0x1010
                                           _00105_DS_
00033b   5809     movar   0x9              	MOVAR	r0x100F
00033c   560b     movra   0xb              	MOVRA	r0x1011
00033d   580a     movar   0xa              	MOVAR	r0x1010
00033e   560c     movra   0xc              	MOVRA	r0x1012
00033f   3cff     movai   0xff             	MOVAI	0xff
000340   7e09     addra   0x9              	ADDRA	r0x100F
000341   e187     jbset   0x187, 0         	JBSET	PFLAG,0
000342   6e0a     decr    0xa              	DECR	r0x1010
000343   580b     movar   0xb              	MOVAR	r0x1011
000344   5c0c     orar    0xc              	ORAR	r0x1012
000345   f587     jbclr   0x187, 0x2       	JBCLR	PFLAG,2
000346   a349     goto    0x349            	GOTO	_00107_DS_
                                           ;	.line	664; "user.h"	Nop();
000347   0000     nop                      	nop	
000348   a33b     goto    0x33b            	GOTO	_00105_DS_
                                           _00107_DS_
                                           ;	.line	666; "user.h"	xms--; //  --while()
000349   3cff     movai   0xff             	MOVAI	0xff
00034a   7e07     addra   0x7              	ADDRA	r0x100E
00034b   e187     jbset   0x187, 0         	JBSET	PFLAG,0
00034c   6e08     decr    0x8              	DECR	r0x100D
                                           ;	.line	670; "user.h"	__endasm;
                                           	;
00034d   000e     clrwdt                   	clrwdt;
                                           	
00034e   a333     goto    0x333            	GOTO	_00108_DS_
                                           _00111_DS_
                                           ;	.line	672; "user.h"	}
00034f   000c     return                   	RETURN	
                                           ; exit point of _delay_ms
                                           
                                           
                                           ;	code size estimation:
                                           ;	  825+    0 =   825 instructions ( 1650 byte)
                                           
                                           	end
                                           ;--------------------------------------------------------
                                           ; File Created by SN-SDCC : SinoMCU ANSI-C Compiler
                                           ; Version 2.0.0 (Dec 11 2019) (MINGW32)
                                           ; This file was generated Thu Mar 20 17:08:56 2025
                                           ;--------------------------------------------------------
                                           ; MC32 port for the RISC core
                                           ;--------------------------------------------------------
                                           ;	.file	"MC32F7361.c"
                                           	list	p=7361
                                           	radix dec
                                           	include "7361.inc"
                                           ;--------------------------------------------------------
                                           ; external declarations
                                           ;--------------------------------------------------------
                                           	extern	_INDF0bits
                                           	extern	_INDF1bits
                                           	extern	_INDF2bits
                                           	extern	_HIBYTEbits
                                           	extern	_FSR0bits
                                           	extern	_FSR1bits
                                           	extern	_PCLbits
                                           	extern	_PFLAGbits
                                           	extern	_MCRbits
                                           	extern	_INDF3bits
                                           	extern	_INTEbits
                                           	extern	_INTFbits
                                           	extern	_DRVCRbits
                                           	extern	_P0KBCRbits
                                           	extern	_P1KBCRbits
                                           	extern	_P2KBCRbits
                                           	extern	_IOP0bits
                                           	extern	_OEP0bits
                                           	extern	_PUP0bits
                                           	extern	_PDP0bits
                                           	extern	_IOP1bits
                                           	extern	_OEP1bits
                                           	extern	_PUP1bits
                                           	extern	_PDP1bits
                                           	extern	_T0CRbits
                                           	extern	_T0CNTbits
                                           	extern	_T0LOADbits
                                           	extern	_T0DATAbits
                                           	extern	_T1CRbits
                                           	extern	_T1CNTbits
                                           	extern	_T1LOADbits
                                           	extern	_T1DATAbits
                                           	extern	_T2CRbits
                                           	extern	_T2CNTbits
                                           	extern	_T2LOADbits
                                           	extern	_T2DATAbits
                                           	extern	_T3CRbits
                                           	extern	_T3CNTbits
                                           	extern	_T3LOADbits
                                           	extern	_PWM0DRbits
                                           	extern	_PWM1DRbits
                                           	extern	_PWM2DRbits
                                           	extern	_PWMCR0bits
                                           	extern	_PWMCR1bits
                                           	extern	_OSCMRbits
                                           	extern	_LVDCRbits
                                           	extern	_ADCR0bits
                                           	extern	_ADCR1bits
                                           	extern	_ADCR2bits
                                           	extern	_OSADJCRbits
                                           	extern	_ADRHbits
                                           	extern	_ADRLbits
                                           	extern	_P0ADCRbits
                                           	extern	_P1ADCRbits
                                           	extern	_IOP2bits
                                           	extern	_OEP2bits
                                           	extern	_PUP2bits
                                           	extern	_PDP2bits
                                           	extern	_PMODbits
                                           	extern	_PWMCR3bits
                                           	extern	_PWMCR2bits
                                           	extern	_PFRCCRbits
                                           	extern	_PFRCCALbits
                                           	extern	_EECRbits
                                           	extern	_EEPRbits
                                           	extern	_EEARbits
                                           	extern	_EEDRHbits
                                           	extern	_EEDRLbits
                                           	extern	_DBGCRbits
                                           	extern	_DBGPRbits
                                           	extern	_HIRCCALbits
                                           	extern	_INDF0
                                           	extern	_INDF1
                                           	extern	_INDF2
                                           	extern	_HIBYTE
                                           	extern	_FSR0
                                           	extern	_FSR1
                                           	extern	_PCL
                                           	extern	_PFLAG
                                           	extern	_MCR
                                           	extern	_INDF3
                                           	extern	_INTE
                                           	extern	_INTF
                                           	extern	_DRVCR
                                           	extern	_P0KBCR
                                           	extern	_P1KBCR
                                           	extern	_P2KBCR
                                           	extern	_IOP0
                                           	extern	_OEP0
                                           	extern	_PUP0
                                           	extern	_PDP0
                                           	extern	_IOP1
                                           	extern	_OEP1
                                           	extern	_PUP1
                                           	extern	_PDP1
                                           	extern	_T0CR
                                           	extern	_T0CNT
                                           	extern	_T0LOAD
                                           	extern	_T0DATA
                                           	extern	_T1CR
                                           	extern	_T1CNT
                                           	extern	_T1LOAD
                                           	extern	_T1DATA
                                           	extern	_T2CR
                                           	extern	_T2CNT
                                           	extern	_T2LOAD
                                           	extern	_T2DATA
                                           	extern	_T3CR
                                           	extern	_T3CNT
                                           	extern	_T3LOAD
                                           	extern	_PWM0DR
                                           	extern	_PWM1DR
                                           	extern	_PWM2DR
                                           	extern	_PWMCR0
                                           	extern	_PWMCR1
                                           	extern	_OSCMR
                                           	extern	_LVDCR
                                           	extern	_ADCR0
                                           	extern	_ADCR1
                                           	extern	_ADCR2
                                           	extern	_OSADJCR
                                           	extern	_ADRH
                                           	extern	_ADRL
                                           	extern	_P0ADCR
                                           	extern	_P1ADCR
                                           	extern	_IOP2
                                           	extern	_OEP2
                                           	extern	_PUP2
                                           	extern	_PDP2
                                           	extern	_PMOD
                                           	extern	_PWMCR3
                                           	extern	_PWMCR2
                                           	extern	_PFRCCR
                                           	extern	_PFRCCAL
                                           	extern	_EECR
                                           	extern	_EEPR
                                           	extern	_EEAR
                                           	extern	_EEDRH
                                           	extern	_EEDRL
                                           	extern	_DBGCR
                                           	extern	_DBGPR
                                           	extern	_HIRCCAL
                                           	extern	__gptrget2
                                           	extern	__mulchar
                                           	extern	__gptrget1
                                           ;--------------------------------------------------------
                                           ; global declarations
                                           ;--------------------------------------------------------
                                           	global	_delay_ms
                                           	global	_delay_100us
                                           	global	_delay_200us
                                           	global	_delay_1_4ms
                                           	global	_EEPROM_Write_Byte
                                           	global	_EEPROM_Read_Byte
                                           	global	_EEPROM_Write_Data
                                           	global	_send_cmd_16bit
                                           	global	_send_cmd_16bit_without_delay
                                           	global	_CLR_RAM
                                           	global	_IO_Init
                                           	global	_TIMER2_INT_Init
                                           	global	_TIMER3_INT_Init
                                           	global	_Sys_Init
                                           	global	_main
                                           	global	_int_isr
                                           	global	_flag_is_press_speed
                                           	global	_cur_led_status
                                           	global	_cur_r3c4_status
                                           	global	_abuf
                                           	global	_statusbuf
                                           	global	_flag1
                                           	global	_ir_data
                                           	global	_table_irkey
                                           
                                           	global STK06
                                           	global STK05
                                           	global STK04
                                           	global STK03
                                           	global STK02
                                           	global STK01
                                           	global STK00
                                           
                                           sharebank udata_ovr 0x0000
                                           STK06	res 1
                                           STK05	res 1
                                           STK04	res 1
                                           STK03	res 1
                                           STK02	res 1
                                           STK01	res 1
                                           STK00	res 1
                                           
                                           ;--------------------------------------------------------
                                           ; global definitions
                                           ;--------------------------------------------------------
                                           UD_MC32F7361_0	udata
                                           _flag_is_press_speed	res	1
                                           
                                           UD_MC32F7361_1	udata
                                           _cur_led_status	res	1
                                           
                                           UD_MC32F7361_2	udata
                                           _cur_r3c4_status	res	1
                                           
                                           UD_MC32F7361_3	udata
                                           _abuf	res	1
                                           
                                           UD_MC32F7361_4	udata
                                           _statusbuf	res	1
                                           
                                           UD_MC32F7361_5	udata
                                           _flag1	res	1
                                           
                                           UD_MC32F7361_6	udata
                                           _ir_data	res	1
                                           
                                           ;--------------------------------------------------------
                                           ; absolute symbol definitions
                                           ;--------------------------------------------------------
                                           ;--------------------------------------------------------
                                           ; compiler-defined variables
                                           ;--------------------------------------------------------
                                           UDL_MC32F7361_0	udata
                                           r0x100E	res	1
                                           r0x100D	res	1
                                           r0x100F	res	1
                                           r0x1010	res	1
                                           r0x1011	res	1
                                           r0x1012	res	1
                                           r0x1037	res	1
                                           r0x1038	res	1
                                           r0x1028	res	1
                                           r0x1029	res	1
                                           r0x1033	res	1
                                           r0x1034	res	1
                                           r0x1036	res	1
                                           r0x1035	res	1
                                           r0x102B	res	1
                                           r0x102E	res	1
                                           r0x102D	res	1
                                           r0x102C	res	1
                                           r0x102F	res	1
                                           r0x1030	res	1
                                           r0x1032	res	1
                                           r0x1031	res	1
                                           r0x1014	res	1
                                           r0x1013	res	1
                                           r0x1015	res	1
                                           r0x1016	res	1
                                           r0x1018	res	1
                                           r0x1017	res	1
                                           r0x1022	res	1
                                           r0x1021	res	1
                                           r0x1023	res	1
                                           r0x1024	res	1
                                           r0x1026	res	1
                                           r0x1025	res	1
                                           r0x1019	res	1
                                           r0x101A	res	1
                                           r0x101B	res	1
                                           r0x101C	res	1
                                           r0x101D	res	1
                                           r0x101E	res	1
                                           r0x101F	res	1
                                           r0x1020	res	1
                                           r0x1039	res	1
                                           r0x103A	res	1
                                           _main_tmp_262144_57	res	2
                                           _int_isr_ir_level_cnt_196608_87	res	2
                                           _int_isr_ir_fliter_196608_87	res	1
                                           _int_isr___ir_data_196608_87	res	1
                                           _int_isr_ir_long_press_cnt_196608_87	res	2
                                           ;--------------------------------------------------------
                                           ; initialized data
                                           ;--------------------------------------------------------
                                           
                                           ID_MC32F7361_0	code
                                           _table_irkey
                                           	dw 0x80
                                           	dw 0x96
                                           	dw 0x45
                                           	dw 0x0f
                                           	dw 0x11
                                           	dw 0x90
                                           	dw 0x00
                                           	dw 0x11
                                           	dw 0xff
                                           	dw 0xff
                                           	dw 0xb8
                                           	dw 0x00
                                           	dw 0x22
                                           	dw 0xff
                                           	dw 0xff
                                           	dw 0xf8
                                           	dw 0x00
                                           	dw 0x44
                                           	dw 0xff
                                           	dw 0xff
                                           	dw 0xb0
                                           	dw 0x96
                                           	dw 0x45
                                           	dw 0x10
                                           	dw 0x77
                                           	dw 0x98
                                           	dw 0x9f
                                           	dw 0x00
                                           	dw 0x10
                                           	dw 0x33
                                           	dw 0xd8
                                           	dw 0x90
                                           	dw 0xf1
                                           	dw 0x10
                                           	dw 0x66
                                           	dw 0x88
                                           	dw 0x93
                                           	dw 0x0f
                                           	dw 0x10
                                           	dw 0x55
                                           	dw 0xe8
                                           	dw 0x9f
                                           	dw 0x10
                                           	dw 0x10
                                           	dw 0x33
                                           	dw 0x48
                                           	dw 0x90
                                           	dw 0xf8
                                           	dw 0x10
                                           	dw 0x66
                                           	dw 0x68
                                           	dw 0x98
                                           	dw 0x0f
                                           	dw 0x10
                                           	dw 0x55
                                           	dw 0x02
                                           	dw 0x9f
                                           	dw 0x30
                                           	dw 0x10
                                           	dw 0x33
                                           	dw 0x32
                                           	dw 0x90
                                           	dw 0xfc
                                           	dw 0x10
                                           	dw 0x66
                                           	dw 0x20
                                           	dw 0x9f
                                           	dw 0x0f
                                           	dw 0x10
                                           	dw 0x55
                                           	dw 0x50
                                           	dw 0x9f
                                           	dw 0xf0
                                           	dw 0x10
                                           	dw 0x33
                                           	dw 0x78
                                           	dw 0x90
                                           	dw 0xff
                                           	dw 0x10
                                           	dw 0x66
                                           	dw 0x70
                                           	dw 0x9f
                                           	dw 0x03
                                           	dw 0x10
                                           	dw 0x55
                                           	dw 0xf0
                                           	dw 0x96
                                           	dw 0x45
                                           	dw 0x00
                                           	dw 0xee
                                           
                                           
                                           ;@Allocation info for local variables in function 'delay_ms'
                                           ;@delay_ms delay_ms                  Allocated to registers ;size:2
                                           ;@delay_ms INDF0bits                 Allocated to registers ;size:1
                                           ;@delay_ms INDF1bits                 Allocated to registers ;size:1
                                           ;@delay_ms INDF2bits                 Allocated to registers ;size:1
                                           ;@delay_ms HIBYTEbits                Allocated to registers ;size:1
                                           ;@delay_ms FSR0bits                  Allocated to registers ;size:1
                                           ;@delay_ms FSR1bits                  Allocated to registers ;size:1
                                           ;@delay_ms PCLbits                   Allocated to registers ;size:1
                                           ;@delay_ms PFLAGbits                 Allocated to registers ;size:1
                                           ;@delay_ms MCRbits                   Allocated to registers ;size:1
                                           ;@delay_ms INDF3bits                 Allocated to registers ;size:1
                                           ;@delay_ms INTEbits                  Allocated to registers ;size:1
                                           ;@delay_ms INTFbits                  Allocated to registers ;size:1
                                           ;@delay_ms DRVCRbits                 Allocated to registers ;size:1
                                           ;@delay_ms P0KBCRbits                Allocated to registers ;size:1
                                           ;@delay_ms P1KBCRbits                Allocated to registers ;size:1
                                           ;@delay_ms P2KBCRbits                Allocated to registers ;size:1
                                           ;@delay_ms IOP0bits                  Allocated to registers ;size:1
                                           ;@delay_ms OEP0bits                  Allocated to registers ;size:1
                                           ;@delay_ms PUP0bits                  Allocated to registers ;size:1
                                           ;@delay_ms PDP0bits                  Allocated to registers ;size:1
                                           ;@delay_ms IOP1bits                  Allocated to registers ;size:1
                                           ;@delay_ms OEP1bits                  Allocated to registers ;size:1
                                           ;@delay_ms PUP1bits                  Allocated to registers ;size:1
                                           ;@delay_ms PDP1bits                  Allocated to registers ;size:1
                                           ;@delay_ms T0CRbits                  Allocated to registers ;size:1
                                           ;@delay_ms T0CNTbits                 Allocated to registers ;size:1
                                           ;@delay_ms T0LOADbits                Allocated to registers ;size:1
                                           ;@delay_ms T0DATAbits                Allocated to registers ;size:1
                                           ;@delay_ms T1CRbits                  Allocated to registers ;size:1
                                           ;@delay_ms T1CNTbits                 Allocated to registers ;size:1
                                           ;@delay_ms T1LOADbits                Allocated to registers ;size:1
                                           ;@delay_ms T1DATAbits                Allocated to registers ;size:1
                                           ;@delay_ms T2CRbits                  Allocated to registers ;size:1
                                           ;@delay_ms T2CNTbits                 Allocated to registers ;size:1
                                           ;@delay_ms T2LOADbits                Allocated to registers ;size:1
                                           ;@delay_ms T2DATAbits                Allocated to registers ;size:1
                                           ;@delay_ms T3CRbits                  Allocated to registers ;size:1
                                           ;@delay_ms T3CNTbits                 Allocated to registers ;size:1
                                           ;@delay_ms T3LOADbits                Allocated to registers ;size:1
                                           ;@delay_ms PWM0DRbits                Allocated to registers ;size:1
                                           ;@delay_ms PWM1DRbits                Allocated to registers ;size:1
                                           ;@delay_ms PWM2DRbits                Allocated to registers ;size:1
                                           ;@delay_ms PWMCR0bits                Allocated to registers ;size:1
                                           ;@delay_ms PWMCR1bits                Allocated to registers ;size:1
                                           ;@delay_ms OSCMRbits                 Allocated to registers ;size:1
                                           ;@delay_ms LVDCRbits                 Allocated to registers ;size:1
                                           ;@delay_ms ADCR0bits                 Allocated to registers ;size:1
                                           ;@delay_ms ADCR1bits                 Allocated to registers ;size:1
                                           ;@delay_ms ADCR2bits                 Allocated to registers ;size:1
                                           ;@delay_ms OSADJCRbits               Allocated to registers ;size:1
                                           ;@delay_ms ADRHbits                  Allocated to registers ;size:1
                                           ;@delay_ms ADRLbits                  Allocated to registers ;size:1
                                           ;@delay_ms P0ADCRbits                Allocated to registers ;size:1
                                           ;@delay_ms P1ADCRbits                Allocated to registers ;size:1
                                           ;@delay_ms IOP2bits                  Allocated to registers ;size:1
                                           ;@delay_ms OEP2bits                  Allocated to registers ;size:1
                                           ;@delay_ms PUP2bits                  Allocated to registers ;size:1
                                           ;@delay_ms PDP2bits                  Allocated to registers ;size:1
                                           ;@delay_ms PMODbits                  Allocated to registers ;size:1
                                           ;@delay_ms PWMCR3bits                Allocated to registers ;size:1
                                           ;@delay_ms PWMCR2bits                Allocated to registers ;size:1
                                           ;@delay_ms PFRCCRbits                Allocated to registers ;size:1
                                           ;@delay_ms PFRCCALbits               Allocated to registers ;size:1
                                           ;@delay_ms EECRbits                  Allocated to registers ;size:1
                                           ;@delay_ms EEPRbits                  Allocated to registers ;size:1
                                           ;@delay_ms EEARbits                  Allocated to registers ;size:1
                                           ;@delay_ms EEDRHbits                 Allocated to registers ;size:1
                                           ;@delay_ms EEDRLbits                 Allocated to registers ;size:1
                                           ;@delay_ms DBGCRbits                 Allocated to registers ;size:1
                                           ;@delay_ms DBGPRbits                 Allocated to registers ;size:1
                                           ;@delay_ms HIRCCALbits               Allocated to registers ;size:1
                                           ;@delay_ms flag_is_press_speed       Allocated to registers ;size:1
                                           ;@delay_ms cur_led_status            Allocated to registers ;size:1
                                           ;@delay_ms cur_r3c4_status           Allocated to registers ;size:1
                                           ;@delay_ms abuf                      Allocated to registers ;size:1
                                           ;@delay_ms statusbuf                 Allocated to registers ;size:1
                                           ;@delay_ms flag1                     Allocated to registers ;size:1
                                           ;@delay_ms ir_data                   Allocated to registers ;size:1
                                           ;@delay_ms xms                       Allocated to registers ;size:2
                                           ;@delay_ms i                         Allocated to registers r0x100F r0x1010 ;size:2
                                           ;@delay_ms INDF0                     Allocated to registers ;size:1
                                           ;@delay_ms INDF1                     Allocated to registers ;size:1
                                           ;@delay_ms INDF2                     Allocated to registers ;size:1
                                           ;@delay_ms HIBYTE                    Allocated to registers ;size:1
                                           ;@delay_ms FSR0                      Allocated to registers ;size:1
                                           ;@delay_ms FSR1                      Allocated to registers ;size:1
                                           ;@delay_ms PCL                       Allocated to registers ;size:1
                                           ;@delay_ms PFLAG                     Allocated to registers ;size:1
                                           ;@delay_ms MCR                       Allocated to registers ;size:1
                                           ;@delay_ms INDF3                     Allocated to registers ;size:1
                                           ;@delay_ms INTE                      Allocated to registers ;size:1
                                           ;@delay_ms INTF                      Allocated to registers ;size:1
                                           ;@delay_ms DRVCR                     Allocated to registers ;size:1
                                           ;@delay_ms P0KBCR                    Allocated to registers ;size:1
                                           ;@delay_ms P1KBCR                    Allocated to registers ;size:1
                                           ;@delay_ms P2KBCR                    Allocated to registers ;size:1
                                           ;@delay_ms IOP0                      Allocated to registers ;size:1
                                           ;@delay_ms OEP0                      Allocated to registers ;size:1
                                           ;@delay_ms PUP0                      Allocated to registers ;size:1
                                           ;@delay_ms PDP0                      Allocated to registers ;size:1
                                           ;@delay_ms IOP1                      Allocated to registers ;size:1
                                           ;@delay_ms OEP1                      Allocated to registers ;size:1
                                           ;@delay_ms PUP1                      Allocated to registers ;size:1
                                           ;@delay_ms PDP1                      Allocated to registers ;size:1
                                           ;@delay_ms T0CR                      Allocated to registers ;size:1
                                           ;@delay_ms T0CNT                     Allocated to registers ;size:1
                                           ;@delay_ms T0LOAD                    Allocated to registers ;size:1
                                           ;@delay_ms T0DATA                    Allocated to registers ;size:1
                                           ;@delay_ms T1CR                      Allocated to registers ;size:1
                                           ;@delay_ms T1CNT                     Allocated to registers ;size:1
                                           ;@delay_ms T1LOAD                    Allocated to registers ;size:1
                                           ;@delay_ms T1DATA                    Allocated to registers ;size:1
                                           ;@delay_ms T2CR                      Allocated to registers ;size:1
                                           ;@delay_ms T2CNT                     Allocated to registers ;size:1
                                           ;@delay_ms T2LOAD                    Allocated to registers ;size:1
                                           ;@delay_ms T2DATA                    Allocated to registers ;size:1
                                           ;@delay_ms T3CR                      Allocated to registers ;size:1
                                           ;@delay_ms T3CNT                     Allocated to registers ;size:1
                                           ;@delay_ms T3LOAD                    Allocated to registers ;size:1
                                           ;@delay_ms PWM0DR                    Allocated to registers ;size:1
                                           ;@delay_ms PWM1DR                    Allocated to registers ;size:1
                                           ;@delay_ms PWM2DR                    Allocated to registers ;size:1
                                           ;@delay_ms PWMCR0                    Allocated to registers ;size:1
                                           ;@delay_ms PWMCR1                    Allocated to registers ;size:1
                                           ;@delay_ms OSCMR                     Allocated to registers ;size:1
                                           ;@delay_ms LVDCR                     Allocated to registers ;size:1
                                           ;@delay_ms ADCR0                     Allocated to registers ;size:1
                                           ;@delay_ms ADCR1                     Allocated to registers ;size:1
                                           ;@delay_ms ADCR2                     Allocated to registers ;size:1
                                           ;@delay_ms OSADJCR                   Allocated to registers ;size:1
                                           ;@delay_ms ADRH                      Allocated to registers ;size:1
                                           ;@delay_ms ADRL                      Allocated to registers ;size:1
                                           ;@delay_ms P0ADCR                    Allocated to registers ;size:1
                                           ;@delay_ms P1ADCR                    Allocated to registers ;size:1
                                           ;@delay_ms IOP2                      Allocated to registers ;size:1
                                           ;@delay_ms OEP2                      Allocated to registers ;size:1
                                           ;@delay_ms PUP2                      Allocated to registers ;size:1
                                           ;@delay_ms PDP2                      Allocated to registers ;size:1
                                           ;@delay_ms PMOD                      Allocated to registers ;size:1
                                           ;@delay_ms PWMCR3                    Allocated to registers ;size:1
                                           ;@delay_ms PWMCR2                    Allocated to registers ;size:1
                                           ;@delay_ms PFRCCR                    Allocated to registers ;size:1
                                           ;@delay_ms PFRCCAL                   Allocated to registers ;size:1
                                           ;@delay_ms EECR                      Allocated to registers ;size:1
                                           ;@delay_ms EEPR                      Allocated to registers ;size:1
                                           ;@delay_ms EEAR                      Allocated to registers ;size:1
                                           ;@delay_ms EEDRH                     Allocated to registers ;size:1
                                           ;@delay_ms EEDRL                     Allocated to registers ;size:1
                                           ;@delay_ms DBGCR                     Allocated to registers ;size:1
                                           ;@delay_ms DBGPR                     Allocated to registers ;size:1
                                           ;@delay_ms HIRCCAL                   Allocated to registers ;size:1
                                           ;@end Allocation info for local variables in function 'delay_ms';
                                           ;@Allocation info for local variables in function 'delay_100us'
                                           ;@delay_100us i                         Allocated to registers r0x100D ;size:1
                                           ;@end Allocation info for local variables in function 'delay_100us';
                                           ;@Allocation info for local variables in function 'delay_200us'
                                           ;@delay_200us i                         Allocated to registers r0x1037 ;size:1
                                           ;@end Allocation info for local variables in function 'delay_200us';
                                           ;@Allocation info for local variables in function 'delay_1_4ms'
                                           ;@delay_1_4ms i                         Allocated to registers r0x100F ;size:1
                                           ;@end Allocation info for local variables in function 'delay_1_4ms';
                                           ;@Allocation info for local variables in function 'EEPROM_Write_Byte'
                                           ;@EEPROM_Write_Byte data                      Allocated to registers r0x1028 r0x1027 ;size:2
                                           ;@EEPROM_Write_Byte addr                      Allocated to registers ;size:1
                                           ;@end Allocation info for local variables in function 'EEPROM_Write_Byte';
                                           ;@Allocation info for local variables in function 'EEPROM_Read_Byte'
                                           ;@EEPROM_Read_Byte addr                      Allocated to registers ;size:1
                                           ;@EEPROM_Read_Byte EEDR                      Allocated to registers r0x1036 r0x1035 ;size:2
                                           ;@end Allocation info for local variables in function 'EEPROM_Read_Byte';
                                           ;@Allocation info for local variables in function 'EEPROM_Write_Data'
                                           ;@EEPROM_Write_Data len                       Allocated to registers ;size:1
                                           ;@EEPROM_Write_Data data                      Allocated to registers ;size:3
                                           ;@EEPROM_Write_Data addr                      Allocated to registers ;size:1
                                           ;@end Allocation info for local variables in function 'EEPROM_Write_Data';
                                           ;@Allocation info for local variables in function 'send_cmd_16bit'
                                           ;@send_cmd_16bit data                      Allocated to registers r0x1014 r0x1013 ;size:2
                                           ;@send_cmd_16bit i                         Allocated to registers r0x1015 ;size:1
                                           ;@end Allocation info for local variables in function 'send_cmd_16bit';
                                           ;@Allocation info for local variables in function 'send_cmd_16bit_without_delay'
                                           ;@send_cmd_16bit_without_delay data                      Allocated to registers r0x1022 r0x1021 ;size:2
                                           ;@send_cmd_16bit_without_delay i                         Allocated to registers r0x1023 ;size:1
                                           ;@end Allocation info for local variables in function 'send_cmd_16bit_without_delay';
                                           ;@Allocation info for local variables in function 'CLR_RAM'
                                           ;@end Allocation info for local variables in function 'CLR_RAM';
                                           ;@Allocation info for local variables in function 'IO_Init'
                                           ;@end Allocation info for local variables in function 'IO_Init';
                                           ;@Allocation info for local variables in function 'TIMER2_INT_Init'
                                           ;@end Allocation info for local variables in function 'TIMER2_INT_Init';
                                           ;@Allocation info for local variables in function 'TIMER3_INT_Init'
                                           ;@end Allocation info for local variables in function 'TIMER3_INT_Init';
                                           ;@Allocation info for local variables in function 'Sys_Init'
                                           ;@end Allocation info for local variables in function 'Sys_Init';
                                           ;@Allocation info for local variables in function 'main'
                                           ;@main tmp                       Allocated to registers ;size:2
                                           ;@main i                         Allocated to registers r0x1019 ;size:1
                                           ;@main tmp                       Allocated to registers r0x101C r0x101D ;size:2
                                           ;@end Allocation info for local variables in function 'main';
                                           ;@Allocation info for local variables in function 'int_isr'
                                           ;@int_isr ir_fliter                 Allocated to registers ;size:1
                                           ;@int_isr ir_level_cnt              Allocated to registers ;size:2
                                           ;@int_isr __ir_data                 Allocated to registers ;size:1
                                           ;@int_isr ir_long_press_cnt         Allocated to registers ;size:2
                                           ;@end Allocation info for local variables in function 'int_isr';
                                           
                                           ;--------------------------------------------------------
                                           ; overlayable items in internal ram 
                                           ;--------------------------------------------------------
                                           ;	udata_ovr
                                           ;--------------------------------------------------------
                                           ; reset vector 
                                           ;--------------------------------------------------------
                                           STARTUP	code 0x0000
                                           	goto	_main
                                           ;--------------------------------------------------------
                                           ; interrupt and initialization code
                                           ;--------------------------------------------------------
                                           c_interrupt	code	0x8
                                           __sdcc_interrupt
                                           ;***
                                           ;  pBlock Stats: dbName = I
                                           ;***
                                           ;entry:  _int_isr	;Function start
                                           ; 0 exit points
                                           ;2 compiler assigned registers:
                                           ;   r0x1039
                                           ;   r0x103A
                                           ;; Starting pCode block
                                           _int_isr	;Function start
                                           ; 0 exit points
                                           ;	.line	1777; "MC32F7361.c"	__endasm;
                                           	;
                                           	movra	_abuf;
                                           	swapar	_PFLAG;
                                           	movra	_statusbuf;
                                           	
                                           ;	.line	1791; "MC32F7361.c"	if (T2IF & T2IE)
                                           	CLRR	r0x1039
                                           	JBCLR	_INTFbits,5
                                           	INCR	r0x1039
                                           	CLRR	r0x103A
                                           	JBCLR	_INTEbits,5
                                           	INCR	r0x103A
                                           	MOVAR	r0x103A
                                           	ANDRA	r0x1039
                                           	MOVAI	0x00
                                           	ORAR	r0x1039
                                           	JBCLR	PFLAG,2
                                           	GOTO	_00536_DS_
                                           ;	.line	1793; "MC32F7361.c"	T2IF = 0;
                                           	BCLR	_INTFbits,5
                                           ;	.line	1802; "MC32F7361.c"	ir_level_cnt++;
                                           	INCR	_int_isr_ir_level_cnt_196608_87
                                           	JBCLR	PFLAG,2
                                           	INCR	(_int_isr_ir_level_cnt_196608_87 + 1)
                                           ;	.line	1804; "MC32F7361.c"	ir_fliter <<= 1;
                                           	MOVAR	_int_isr_ir_fliter_196608_87
                                           	MOVRA	r0x1039
                                           	BCLR	PFLAG,0
                                           	RLAR	r0x1039
                                           	MOVRA	_int_isr_ir_fliter_196608_87
                                           ;	.line	1805; "MC32F7361.c"	if (IR_RECV_PIN)
                                           	JBSET	_IOP2bits,1
                                           	GOTO	_00499_DS_
                                           ;	.line	1807; "MC32F7361.c"	ir_fliter |= 1;
                                           	BSET	_int_isr_ir_fliter_196608_87,0
                                           _00499_DS_
                                           ;	.line	1809; "MC32F7361.c"	ir_fliter &= 0x07;
                                           	MOVAI	0x07
                                           	ANDRA	_int_isr_ir_fliter_196608_87
                                           ;	.line	1811; "MC32F7361.c"	if (ir_fliter == 0x07)
                                           	MOVAR	_int_isr_ir_fliter_196608_87
                                           	XORAI	0x07
                                           	JBSET	PFLAG,2
                                           	GOTO	_00503_DS_
                                           ;	.line	1812; "MC32F7361.c"	filter_level = 1;
                                           	BSET	_flag1,3
                                           	GOTO	_00504_DS_
                                           _00503_DS_
                                           ;	.line	1813; "MC32F7361.c"	else if (ir_fliter == 0x00)
                                           	MOVAI	0x00
                                           	ORAR	_int_isr_ir_fliter_196608_87
                                           	JBSET	PFLAG,2
                                           	GOTO	_00504_DS_
                                           ;	.line	1814; "MC32F7361.c"	filter_level = 0;
                                           	BCLR	_flag1,3
                                           _00504_DS_
                                           ;	.line	1816; "MC32F7361.c"	if (filter_level)
                                           	JBSET	_flag1,3
                                           	GOTO	_00533_DS_
                                           ;	.line	1818; "MC32F7361.c"	last_level_in_ir_pin = 1; // 
                                           	BSET	_flag1,2
                                           ;;swapping arguments (AOP_TYPEs 1/3)
                                           ;;unsigned compare: left >= lit(0x4B1=1201), size=2
                                           ;	.line	1821; "MC32F7361.c"	if (ir_level_cnt > 1200) // (120000us,120ms)
                                           	MOVAI	0x04
                                           	RSUBAR	(_int_isr_ir_level_cnt_196608_87 + 1)
                                           	JBSET	PFLAG,2
                                           	GOTO	_00658_DS_
                                           	MOVAI	0xb1
                                           	RSUBAR	_int_isr_ir_level_cnt_196608_87
                                           _00658_DS_
                                           	JBSET	PFLAG,0
                                           	GOTO	_00536_DS_
                                           ;;genSkipc:3291: created from rifx:013B5EFC
                                           ;	.line	1824; "MC32F7361.c"	if (__ir_data != 0) // (__ir_data)
                                           	MOVAI	0x00
                                           	ORAR	_int_isr___ir_data_196608_87
                                           	JBCLR	PFLAG,2
                                           	GOTO	_00508_DS_
                                           ;	.line	1833; "MC32F7361.c"	if (0 == flag_is_recved_data)
                                           	JBCLR	_flag1,0
                                           	GOTO	_00508_DS_
                                           ;	.line	1835; "MC32F7361.c"	ir_data = ~__ir_data;
                                           	COMAR	_int_isr___ir_data_196608_87
                                           	MOVRA	_ir_data
                                           ;	.line	1836; "MC32F7361.c"	__ir_data = 0;
                                           	CLRR	_int_isr___ir_data_196608_87
                                           ;	.line	1837; "MC32F7361.c"	flag_is_recved_data = 1;
                                           	BSET	_flag1,0
                                           _00508_DS_
                                           ;	.line	1841; "MC32F7361.c"	flag_is_recv_ir_repeat_code = 0; // 
                                           	BCLR	_flag1,4
                                           	GOTO	_00536_DS_
                                           _00533_DS_
                                           ;	.line	1846; "MC32F7361.c"	if (last_level_in_ir_pin)
                                           	JBSET	_flag1,2
                                           	GOTO	_00531_DS_
                                           ;;swapping arguments (AOP_TYPEs 1/3)
                                           ;;unsigned compare: left >= lit(0x9=9), size=2
                                           ;	.line	1849; "MC32F7361.c"	if (ir_level_cnt <= 8) // 800us
                                           	MOVAI	0x00
                                           	RSUBAR	(_int_isr_ir_level_cnt_196608_87 + 1)
                                           	JBSET	PFLAG,2
                                           	GOTO	_00659_DS_
                                           	MOVAI	0x09
                                           	RSUBAR	_int_isr_ir_level_cnt_196608_87
                                           _00659_DS_
                                           	JBSET	PFLAG,0
                                           	GOTO	_00529_DS_
                                           ;;genSkipc:3291: created from rifx:013B5EFC
                                           ;;swapping arguments (AOP_TYPEs 1/3)
                                           ;;unsigned compare: left >= lit(0x13=19), size=2
                                           ;	.line	1854; "MC32F7361.c"	else if (ir_level_cnt <= 18) // 1800us,0
                                           	MOVAI	0x00
                                           	RSUBAR	(_int_isr_ir_level_cnt_196608_87 + 1)
                                           	JBSET	PFLAG,2
                                           	GOTO	_00660_DS_
                                           	MOVAI	0x13
                                           	RSUBAR	_int_isr_ir_level_cnt_196608_87
                                           _00660_DS_
                                           	JBCLR	PFLAG,0
                                           	GOTO	_00525_DS_
                                           ;;genSkipc:3291: created from rifx:013B5EFC
                                           ;	.line	1856; "MC32F7361.c"	__ir_data <<= 1;
                                           	MOVAR	_int_isr___ir_data_196608_87
                                           	MOVRA	r0x1039
                                           	BCLR	PFLAG,0
                                           	RLAR	r0x1039
                                           	MOVRA	_int_isr___ir_data_196608_87
                                           	GOTO	_00529_DS_
                                           ;;swapping arguments (AOP_TYPEs 1/3)
                                           ;;unsigned compare: left >= lit(0x1B=27), size=2
                                           _00525_DS_
                                           ;	.line	1861; "MC32F7361.c"	else if (ir_level_cnt <= 26) // 2600us,1
                                           	MOVAI	0x00
                                           	RSUBAR	(_int_isr_ir_level_cnt_196608_87 + 1)
                                           	JBSET	PFLAG,2
                                           	GOTO	_00661_DS_
                                           	MOVAI	0x1b
                                           	RSUBAR	_int_isr_ir_level_cnt_196608_87
                                           _00661_DS_
                                           	JBCLR	PFLAG,0
                                           	GOTO	_00522_DS_
                                           ;;genSkipc:3291: created from rifx:013B5EFC
                                           ;	.line	1863; "MC32F7361.c"	__ir_data <<= 1;
                                           	MOVAR	_int_isr___ir_data_196608_87
                                           	MOVRA	r0x1039
                                           	BCLR	PFLAG,0
                                           	RLAR	r0x1039
                                           	MOVRA	_int_isr___ir_data_196608_87
                                           ;	.line	1864; "MC32F7361.c"	__ir_data |= 0x01;
                                           	BSET	_int_isr___ir_data_196608_87,0
                                           	GOTO	_00529_DS_
                                           ;;swapping arguments (AOP_TYPEs 1/3)
                                           ;;unsigned compare: left >= lit(0x97=151), size=2
                                           _00522_DS_
                                           ;	.line	1868; "MC32F7361.c"	else if (ir_level_cnt <= 150) // 15000us,
                                           	MOVAI	0x00
                                           	RSUBAR	(_int_isr_ir_level_cnt_196608_87 + 1)
                                           	JBSET	PFLAG,2
                                           	GOTO	_00662_DS_
                                           	MOVAI	0x97
                                           	RSUBAR	_int_isr_ir_level_cnt_196608_87
                                           _00662_DS_
                                           	JBSET	PFLAG,0
                                           	GOTO	_00529_DS_
                                           ;;genSkipc:3291: created from rifx:013B5EFC
                                           ;;swapping arguments (AOP_TYPEs 1/3)
                                           ;;unsigned compare: left >= lit(0x1A5=421), size=2
                                           ;	.line	1873; "MC32F7361.c"	else if (ir_level_cnt <= 420) // 42ms,
                                           	MOVAI	0x01
                                           	RSUBAR	(_int_isr_ir_level_cnt_196608_87 + 1)
                                           	JBSET	PFLAG,2
                                           	GOTO	_00663_DS_
                                           	MOVAI	0xa5
                                           	RSUBAR	_int_isr_ir_level_cnt_196608_87
                                           _00663_DS_
                                           	JBCLR	PFLAG,0
                                           	GOTO	_00516_DS_
                                           ;;genSkipc:3291: created from rifx:013B5EFC
                                           ;	.line	1884; "MC32F7361.c"	if (0 == flag_is_recved_data)
                                           	JBCLR	_flag1,0
                                           	GOTO	_00529_DS_
                                           ;	.line	1886; "MC32F7361.c"	ir_data = ~__ir_data;
                                           	COMAR	_int_isr___ir_data_196608_87
                                           	MOVRA	_ir_data
                                           ;	.line	1887; "MC32F7361.c"	__ir_data = 0;
                                           	CLRR	_int_isr___ir_data_196608_87
                                           ;	.line	1888; "MC32F7361.c"	flag_is_recved_data = 1;
                                           	BSET	_flag1,0
                                           ;	.line	1889; "MC32F7361.c"	flag_is_recv_ir_repeat_code = 1; //
                                           	BSET	_flag1,4
                                           ;	.line	1890; "MC32F7361.c"	ir_long_press_cnt = 0;
                                           	CLRR	_int_isr_ir_long_press_cnt_196608_87
                                           	CLRR	(_int_isr_ir_long_press_cnt_196608_87 + 1)
                                           	GOTO	_00529_DS_
                                           ;;swapping arguments (AOP_TYPEs 1/3)
                                           ;;unsigned compare: left >= lit(0x4B1=1201), size=2
                                           _00516_DS_
                                           ;	.line	1894; "MC32F7361.c"	else if (ir_level_cnt <= 1200) // 120000,120ms,
                                           	MOVAI	0x04
                                           	RSUBAR	(_int_isr_ir_level_cnt_196608_87 + 1)
                                           	JBSET	PFLAG,2
                                           	GOTO	_00664_DS_
                                           	MOVAI	0xb1
                                           	RSUBAR	_int_isr_ir_level_cnt_196608_87
                                           _00664_DS_
                                           	JBCLR	PFLAG,0
                                           	GOTO	_00529_DS_
                                           ;;genSkipc:3291: created from rifx:013B5EFC
                                           ;	.line	1896; "MC32F7361.c"	ir_long_press_cnt++;
                                           	INCR	_int_isr_ir_long_press_cnt_196608_87
                                           	JBCLR	PFLAG,2
                                           	INCR	(_int_isr_ir_long_press_cnt_196608_87 + 1)
                                           _00529_DS_
                                           ;	.line	1902; "MC32F7361.c"	ir_level_cnt = 0;
                                           	CLRR	_int_isr_ir_level_cnt_196608_87
                                           	CLRR	(_int_isr_ir_level_cnt_196608_87 + 1)
                                           _00531_DS_
                                           ;	.line	1905; "MC32F7361.c"	last_level_in_ir_pin = 0; // 
                                           	BCLR	_flag1,2
                                           _00536_DS_
                                           ;	.line	1910; "MC32F7361.c"	if (T3IF & T3IE)
                                           	CLRR	r0x1039
                                           	JBCLR	_INTFbits,7
                                           	INCR	r0x1039
                                           	CLRR	r0x103A
                                           	JBCLR	_INTEbits,7
                                           	INCR	r0x103A
                                           	MOVAR	r0x103A
                                           	ANDRA	r0x1039
                                           	MOVAI	0x00
                                           	ORAR	r0x1039
                                           	JBCLR	PFLAG,2
                                           	GOTO	_00559_DS_
                                           ;	.line	1912; "MC32F7361.c"	T3IF = 0;
                                           	BCLR	_INTFbits,7
                                           ;	.line	1915; "MC32F7361.c"	if (CUR_LED_STATUS_AUTO == cur_led_status) // AUTO
                                           	MOVAR	_cur_led_status
                                           	XORAI	0x01
                                           	JBSET	PFLAG,2
                                           	GOTO	_00665_DS_
                                           	GOTO	_00559_DS_
                                           _00665_DS_
                                           ;	.line	1933; "MC32F7361.c"	else if (CUR_LED_STATUS_R4C4_FADE == cur_led_status) //  fade 
                                           	MOVAR	_cur_led_status
                                           	XORAI	0x04
                                           	JBSET	PFLAG,2
                                           	GOTO	_00666_DS_
                                           	GOTO	_00559_DS_
                                           _00666_DS_
                                           ;	.line	1951; "MC32F7361.c"	else if (CUR_LED_STATUS_R5C4_JUMP == cur_led_status) //  jump 
                                           	MOVAR	_cur_led_status
                                           	XORAI	0x05
                                           	JBSET	PFLAG,2
                                           	GOTO	_00667_DS_
                                           	GOTO	_00559_DS_
                                           _00667_DS_
                                           ;	.line	1969; "MC32F7361.c"	else if (CUR_LED_STATUS_R6C4_ASYN_FADE == cur_led_status) //  asyn_fade 
                                           	MOVAR	_cur_led_status
                                           	XORAI	0x06
                                           	JBSET	PFLAG,2
                                           	GOTO	_00668_DS_
                                           	GOTO	_00559_DS_
                                           _00668_DS_
                                           ;	.line	1987; "MC32F7361.c"	else if (CUR_LED_STATUS_R7C1_IN_WAVES == cur_led_status) //  in_waves 
                                           	MOVAR	_cur_led_status
                                           	XORAI	0x07
                                           	JBSET	PFLAG,2
                                           	GOTO	_00669_DS_
                                           	GOTO	_00559_DS_
                                           _00669_DS_
                                           ;	.line	2005; "MC32F7361.c"	else if (CUR_LED_STATUS_R7C2_STROBE == cur_led_status) //  strobe 
                                           	MOVAR	_cur_led_status
                                           	XORAI	0x08
                                           	JBSET	PFLAG,2
                                           	GOTO	_00670_DS_
                                           	GOTO	_00559_DS_
                                           _00670_DS_
                                           ;	.line	2023; "MC32F7361.c"	else if (CUR_LED_STATUS_R7C3_TWINKLE == cur_led_status) //  twinkle 
                                           	MOVAR	_cur_led_status
                                           	XORAI	0x09
                                           	JBSET	PFLAG,2
                                           	GOTO	_00559_DS_
                                           	GOTO	_00559_DS_
                                           _00671_DS_
                                           _00559_DS_
                                           ;	.line	2065; "MC32F7361.c"	__endasm;
                                           	;
                                           	swapar	_statusbuf;
                                           	movra	_PFLAG;
                                           	swapr	_abuf;
                                           	swapar	_abuf;
                                           	
                                           END_OF_INTERRUPT
                                           ;	.line	2066; "MC32F7361.c"	}
                                           	RETIE	
                                           
                                           ;--------------------------------------------------------
                                           ; code
                                           ;--------------------------------------------------------
                                           code_MC32F7361	code
                                           ;***
                                           ;  pBlock Stats: dbName = M
                                           ;***
                                           ;entry:  _main	;Function start
                                           ; 2 exit points
                                           ;has an exit
                                           ;functions called:
                                           ;   _Sys_Init
                                           ;   _delay_ms
                                           ;   _delay_ms
                                           ;   _delay_100us
                                           ;   _delay_100us
                                           ;   _delay_ms
                                           ;   _delay_100us
                                           ;   _delay_100us
                                           ;   _delay_ms
                                           ;   _delay_100us
                                           ;   _delay_100us
                                           ;   _delay_ms
                                           ;   _delay_100us
                                           ;   _delay_100us
                                           ;   _delay_ms
                                           ;   _send_cmd_16bit
                                           ;   _send_cmd_16bit
                                           ;   __mulchar
                                           ;   __gptrget1
                                           ;   _send_cmd_16bit
                                           ;   __gptrget1
                                           ;   __gptrget1
                                           ;   _send_cmd_16bit
                                           ;   __gptrget1
                                           ;   __gptrget1
                                           ;   _send_cmd_16bit
                                           ;   __gptrget1
                                           ;   __gptrget1
                                           ;   _send_cmd_16bit
                                           ;   _Sys_Init
                                           ;   _delay_ms
                                           ;   _delay_ms
                                           ;   _delay_100us
                                           ;   _delay_100us
                                           ;   _delay_ms
                                           ;   _delay_100us
                                           ;   _delay_100us
                                           ;   _delay_ms
                                           ;   _delay_100us
                                           ;   _delay_100us
                                           ;   _delay_ms
                                           ;   _delay_100us
                                           ;   _delay_100us
                                           ;   _delay_ms
                                           ;   _send_cmd_16bit
                                           ;   _send_cmd_16bit
                                           ;   __mulchar
                                           ;   __gptrget1
                                           ;   _send_cmd_16bit
                                           ;   __gptrget1
                                           ;   __gptrget1
                                           ;   _send_cmd_16bit
                                           ;   __gptrget1
                                           ;   __gptrget1
                                           ;   _send_cmd_16bit
                                           ;   __gptrget1
                                           ;   __gptrget1
                                           ;   _send_cmd_16bit
                                           ;10 compiler assigned registers:
                                           ;   STK00
                                           ;   r0x1019
                                           ;   r0x101A
                                           ;   r0x101B
                                           ;   r0x101C
                                           ;   STK01
                                           ;   r0x101D
                                           ;   r0x101E
                                           ;   r0x101F
                                           ;   r0x1020
                                           ;; Starting pCode block
                                           _main	;Function start
                                           ; 2 exit points
                                           ;	.line	261; "MC32F7361.c"	Sys_Init();
                                           	CALL	_Sys_Init
                                           ;	.line	262; "MC32F7361.c"	delay_ms(1); // 
                                           	MOVAI	0x01
                                           	MOVRA	STK00
                                           	MOVAI	0x00
                                           	CALL	_delay_ms
                                           ;	.line	267; "MC32F7361.c"	P21PU = 1;
                                           	BSET	_PUP2bits,1
                                           ;	.line	268; "MC32F7361.c"	P21OE = 0;
                                           	BCLR	_OEP2bits,1
                                           ;	.line	283; "MC32F7361.c"	flag_is_dev_open = 1;
                                           	BSET	_flag1,1
                                           _00324_DS_
                                           ;	.line	290; "MC32F7361.c"	if (flag_is_recved_data)
                                           	JBSET	_flag1,0
                                           	GOTO	_00298_DS_
                                           ;	.line	292; "MC32F7361.c"	if (ir_data == IR_KEY_ON) // ON 
                                           	MOVAR	_ir_data
                                           	XORAI	0x08
                                           	JBSET	PFLAG,2
                                           	GOTO	_00295_DS_
                                           ;	.line	296; "MC32F7361.c"	LED_CTL_PIN = 1;
                                           	BSET	_IOP2bits,2
                                           ;	.line	297; "MC32F7361.c"	delay_ms(2);
                                           	MOVAI	0x02
                                           	MOVRA	STK00
                                           	MOVAI	0x00
                                           	CALL	_delay_ms
                                           ;	.line	298; "MC32F7361.c"	LED_CTL_PIN = 0;
                                           	BCLR	_IOP2bits,2
                                           ;	.line	299; "MC32F7361.c"	delay_100us();
                                           	CALL	_delay_100us
                                           ;	.line	300; "MC32F7361.c"	delay_100us();
                                           	CALL	_delay_100us
                                           ;	.line	301; "MC32F7361.c"	LED_CTL_PIN = 1;
                                           	BSET	_IOP2bits,2
                                           ;	.line	302; "MC32F7361.c"	delay_ms(3);
                                           	MOVAI	0x03
                                           	MOVRA	STK00
                                           	MOVAI	0x00
                                           	CALL	_delay_ms
                                           ;	.line	303; "MC32F7361.c"	LED_CTL_PIN = 0;
                                           	BCLR	_IOP2bits,2
                                           ;	.line	304; "MC32F7361.c"	delay_100us();
                                           	CALL	_delay_100us
                                           ;	.line	305; "MC32F7361.c"	delay_100us();
                                           	CALL	_delay_100us
                                           ;	.line	306; "MC32F7361.c"	LED_CTL_PIN = 1;
                                           	BSET	_IOP2bits,2
                                           ;	.line	307; "MC32F7361.c"	delay_ms(4);
                                           	MOVAI	0x04
                                           	MOVRA	STK00
                                           	MOVAI	0x00
                                           	CALL	_delay_ms
                                           ;	.line	308; "MC32F7361.c"	LED_CTL_PIN = 0;
                                           	BCLR	_IOP2bits,2
                                           ;	.line	309; "MC32F7361.c"	delay_100us();
                                           	CALL	_delay_100us
                                           ;	.line	310; "MC32F7361.c"	delay_100us();
                                           	CALL	_delay_100us
                                           ;	.line	311; "MC32F7361.c"	LED_CTL_PIN = 1;
                                           	BSET	_IOP2bits,2
                                           ;	.line	312; "MC32F7361.c"	delay_ms(5);
                                           	MOVAI	0x05
                                           	MOVRA	STK00
                                           	MOVAI	0x00
                                           	CALL	_delay_ms
                                           ;	.line	313; "MC32F7361.c"	LED_CTL_PIN = 0;
                                           	BCLR	_IOP2bits,2
                                           ;	.line	314; "MC32F7361.c"	delay_100us();
                                           	CALL	_delay_100us
                                           ;	.line	315; "MC32F7361.c"	delay_100us();
                                           	CALL	_delay_100us
                                           ;	.line	316; "MC32F7361.c"	LED_CTL_PIN = 1;
                                           	BSET	_IOP2bits,2
                                           ;	.line	317; "MC32F7361.c"	delay_ms(51);
                                           	MOVAI	0x33
                                           	MOVRA	STK00
                                           	MOVAI	0x00
                                           	CALL	_delay_ms
                                           	GOTO	_00296_DS_
                                           _00295_DS_
                                           ;	.line	326; "MC32F7361.c"	else if (ir_data == IR_KEY_OFF) // OFF 
                                           	MOVAR	_ir_data
                                           	XORAI	0xc0
                                           	JBSET	PFLAG,2
                                           	GOTO	_00475_DS_
                                           	GOTO	_00296_DS_
                                           _00475_DS_
                                           ;	.line	339; "MC32F7361.c"	else if (ir_data == IR_KEY_SPEED) // SPEED 
                                           	MOVAR	_ir_data
                                           	XORAI	0x60
                                           	JBSET	PFLAG,2
                                           	GOTO	_00289_DS_
                                           ;	.line	342; "MC32F7361.c"	flag_is_press_speed = 1;
                                           	MOVAI	0x01
                                           	MOVRA	_flag_is_press_speed
                                           	GOTO	_00296_DS_
                                           _00289_DS_
                                           ;	.line	344; "MC32F7361.c"	else if (ir_data == IR_KEY_R3C4) // R3C4
                                           	MOVAR	_ir_data
                                           	XORAI	0xa8
                                           	JBSET	PFLAG,2
                                           	GOTO	_00286_DS_
                                           ;	.line	347; "MC32F7361.c"	if (cur_r3c4_status == R3C4_STATUS_1)
                                           	MOVAI	0x00
                                           	ORAR	_cur_r3c4_status
                                           	JBSET	PFLAG,2
                                           	GOTO	_00253_DS_
                                           ;	.line	349; "MC32F7361.c"	tmp = 0x00EE;
                                           	MOVAI	0xee
                                           	MOVRA	_main_tmp_262144_57
                                           	CLRR	(_main_tmp_262144_57 + 1)
                                           ;	.line	350; "MC32F7361.c"	cur_r3c4_status = R3C4_STATUS_2;
                                           	MOVAI	0x01
                                           	MOVRA	_cur_r3c4_status
                                           	GOTO	_00254_DS_
                                           _00253_DS_
                                           ;	.line	352; "MC32F7361.c"	else if (cur_r3c4_status == R3C4_STATUS_2)
                                           	MOVAR	_cur_r3c4_status
                                           	XORAI	0x01
                                           	JBSET	PFLAG,2
                                           	GOTO	_00250_DS_
                                           ;	.line	354; "MC32F7361.c"	tmp = 0x00AA;
                                           	MOVAI	0xaa
                                           	MOVRA	_main_tmp_262144_57
                                           	CLRR	(_main_tmp_262144_57 + 1)
                                           ;	.line	355; "MC32F7361.c"	cur_r3c4_status = R3C4_STATUS_3;
                                           	MOVAI	0x02
                                           	MOVRA	_cur_r3c4_status
                                           	GOTO	_00254_DS_
                                           _00250_DS_
                                           ;	.line	357; "MC32F7361.c"	else if (cur_r3c4_status == R3C4_STATUS_3)
                                           	MOVAR	_cur_r3c4_status
                                           	XORAI	0x02
                                           	JBSET	PFLAG,2
                                           	GOTO	_00254_DS_
                                           ;	.line	359; "MC32F7361.c"	tmp = 0x00CC;
                                           	MOVAI	0xcc
                                           	MOVRA	_main_tmp_262144_57
                                           	CLRR	(_main_tmp_262144_57 + 1)
                                           ;	.line	360; "MC32F7361.c"	cur_r3c4_status = R3C4_STATUS_1;
                                           	CLRR	_cur_r3c4_status
                                           _00254_DS_
                                           ;	.line	366; "MC32F7361.c"	send_cmd_16bit(0x0C00);
                                           	MOVAI	0x00
                                           	MOVRA	STK00
                                           	MOVAI	0x0c
                                           	CALL	_send_cmd_16bit
                                           ;	.line	367; "MC32F7361.c"	send_cmd_16bit(tmp);
                                           	MOVAR	_main_tmp_262144_57
                                           	MOVRA	STK00
                                           	MOVAR	(_main_tmp_262144_57 + 1)
                                           	CALL	_send_cmd_16bit
                                           	GOTO	_00296_DS_
                                           _00286_DS_
                                           ;	.line	369; "MC32F7361.c"	else if (ir_data == IR_KEY_R4C4_FADE)
                                           	MOVAR	_ir_data
                                           	XORAI	0xb2
                                           	JBSET	PFLAG,2
                                           	GOTO	_00476_DS_
                                           	GOTO	_00296_DS_
                                           _00476_DS_
                                           ;	.line	412; "MC32F7361.c"	else if (ir_data == IR_KEY_R5C4_JUMP)
                                           	MOVAI	0x00
                                           	ORAR	_ir_data
                                           	JBCLR	PFLAG,2
                                           	GOTO	_00296_DS_
                                           ;	.line	443; "MC32F7361.c"	else if (ir_data == IR_KEY_R6C4_ASYN_FADE)
                                           	MOVAR	_ir_data
                                           	XORAI	0x58
                                           	JBSET	PFLAG,2
                                           	GOTO	_00477_DS_
                                           	GOTO	_00296_DS_
                                           _00477_DS_
                                           ;	.line	484; "MC32F7361.c"	else if (ir_data == IR_KEY_R7C1_IN_WAVES)
                                           	MOVAR	_ir_data
                                           	XORAI	0x38
                                           	JBSET	PFLAG,2
                                           	GOTO	_00478_DS_
                                           	GOTO	_00296_DS_
                                           _00478_DS_
                                           ;	.line	525; "MC32F7361.c"	else if (ir_data == IR_KEY_R7C2_STROBE)
                                           	MOVAR	_ir_data
                                           	XORAI	0x28
                                           	JBSET	PFLAG,2
                                           	GOTO	_00479_DS_
                                           	GOTO	_00296_DS_
                                           _00479_DS_
                                           ;	.line	566; "MC32F7361.c"	else if (ir_data == IR_KEY_R7C4_ASYN_JUMP)
                                           	MOVAR	_ir_data
                                           	XORAI	0x30
                                           	JBSET	PFLAG,2
                                           	GOTO	_00480_DS_
                                           	GOTO	_00296_DS_
                                           _00480_DS_
                                           ;	.line	613; "MC32F7361.c"	if (IR_KEY_AUTO == ir_data) // AUTO 
                                           	MOVAR	_ir_data
                                           	XORAI	0x80
                                           	JBSET	PFLAG,2
                                           	GOTO	_00481_DS_
                                           	GOTO	_00349_DS_
                                           _00481_DS_
                                           ;	.line	625; "MC32F7361.c"	else if (IR_KEY_R7C3_TWINKLE == ir_data) // R7C3 TWINKLE 
                                           	MOVAR	_ir_data
                                           	XORAI	0xf0
                                           	JBSET	PFLAG,2
                                           	GOTO	_00482_DS_
                                           	GOTO	_00349_DS_
                                           _00482_DS_
                                           ;	.line	640; "MC32F7361.c"	cur_led_status = CUR_LED_STATUS_SINGLE_COLOR;
                                           	MOVAI	0x02
                                           	MOVRA	_cur_led_status
                                           _00349_DS_
                                           ;	.line	644; "MC32F7361.c"	for (i = 0; i < sizeof(table_irkey) / sizeof(table_irkey[0]); i++)
                                           	CLRR	r0x1019
                                           _00326_DS_
                                           ;	.line	646; "MC32F7361.c"	if (table_irkey[i][0] == ir_data)
                                           	MOVAI	0x05
                                           	MOVRA	STK00
                                           	MOVAR	r0x1019
                                           	CALL	__mulchar
                                           	MOVRA	r0x101A
                                           	MOVAR	r0x101A
                                           	ADDAI	(_table_irkey + 0)
                                           	MOVRA	r0x101B
                                           	MOVAI	high (_table_irkey + 0)
                                           	JBCLR	PFLAG,0
                                           	ADDAI	0x01
                                           	MOVRA	r0x101C
                                           	MOVAR	r0x101B
                                           	MOVRA	STK01
                                           	MOVAR	r0x101C
                                           	MOVRA	STK00
                                           	MOVAI	0x80
                                           	CALL	__gptrget1
                                           	MOVRA	r0x101D
                                           	MOVAR	_ir_data
                                           	XORAR	r0x101D
                                           	JBSET	PFLAG,2
                                           	GOTO	_00327_DS_
                                           ;	.line	648; "MC32F7361.c"	send_cmd_16bit(0x0C00); // 
                                           	MOVAI	0x00
                                           	MOVRA	STK00
                                           	MOVAI	0x0c
                                           	CALL	_send_cmd_16bit
                                           ;	.line	649; "MC32F7361.c"	tmp = ((u16)table_irkey[i][1] << 8) + (u16)table_irkey[i][2];
                                           	MOVAR	r0x101A
                                           	ADDAI	(_table_irkey + 0)
                                           	MOVRA	r0x101A
                                           	MOVAI	high (_table_irkey + 0)
                                           	JBCLR	PFLAG,0
                                           	ADDAI	0x01
                                           	MOVRA	r0x101B
                                           	MOVAI	0x01
                                           	ADDAR	r0x101A
                                           	MOVRA	r0x101C
                                           	CLRR	r0x101D
                                           	RLR	r0x101D
                                           	MOVAR	r0x101B
                                           	ADDRA	r0x101D
                                           	MOVAR	r0x101C
                                           	MOVRA	STK01
                                           	MOVAR	r0x101D
                                           	MOVRA	STK00
                                           	MOVAI	0x80
                                           	CALL	__gptrget1
                                           	MOVRA	r0x101E
                                           	MOVAR	r0x101E
                                           	MOVRA	r0x101F
                                           	MOVRA	r0x101C
                                           	CLRR	r0x101D
                                           ;;107	MOVAR	r0x101C
                                           	CLRR	r0x101E
                                           	MOVAI	0x02
                                           	ADDAR	r0x101A
                                           	MOVRA	r0x101C
                                           	CLRR	r0x101D
                                           	RLR	r0x101D
                                           	MOVAR	r0x101B
                                           	ADDRA	r0x101D
                                           	MOVAR	r0x101C
                                           	MOVRA	STK01
                                           	MOVAR	r0x101D
                                           	MOVRA	STK00
                                           	MOVAI	0x80
                                           	CALL	__gptrget1
                                           	MOVRA	r0x101C
                                           	MOVRA	r0x1020
                                           ;;106	MOVAR	r0x1020
                                           	CLRR	r0x101D
                                           	MOVAR	r0x101C
                                           	ADDAR	r0x101E
                                           	MOVRA	r0x101C
                                           	MOVAR	r0x101F
                                           	JBCLR	PFLAG,0
                                           	JZAR	r0x101F
                                           	ADDRA	r0x101D
                                           ;	.line	650; "MC32F7361.c"	send_cmd_16bit(tmp);
                                           	MOVAR	r0x101C
                                           	MOVRA	STK00
                                           	MOVAR	r0x101D
                                           	CALL	_send_cmd_16bit
                                           ;	.line	651; "MC32F7361.c"	if (table_irkey[i][3] != UNUSE_VAL && table_irkey[i][4] != UNUSE_VAL)
                                           	MOVAI	0x03
                                           	ADDAR	r0x101A
                                           	MOVRA	r0x101E
                                           	CLRR	r0x101F
                                           	RLR	r0x101F
                                           	MOVAR	r0x101B
                                           	ADDRA	r0x101F
                                           	MOVAR	r0x101E
                                           	MOVRA	STK01
                                           	MOVAR	r0x101F
                                           	MOVRA	STK00
                                           	MOVAI	0x80
                                           	CALL	__gptrget1
                                           	MOVRA	r0x1020
                                           	MOVAR	r0x1020
                                           	XORAI	0xff
                                           	JBSET	PFLAG,2
                                           	GOTO	_00483_DS_
                                           	GOTO	_00296_DS_
                                           _00483_DS_
                                           	MOVAI	0x04
                                           	ADDRA	r0x101A
                                           	JBCLR	PFLAG,0
                                           	INCR	r0x101B
                                           	MOVAR	r0x101A
                                           	MOVRA	STK01
                                           	MOVAR	r0x101B
                                           	MOVRA	STK00
                                           	MOVAI	0x80
                                           	CALL	__gptrget1
                                           	MOVRA	r0x1020
                                           	MOVAR	r0x1020
                                           	XORAI	0xff
                                           	JBSET	PFLAG,2
                                           	GOTO	_00484_DS_
                                           	GOTO	_00296_DS_
                                           _00484_DS_
                                           ;	.line	653; "MC32F7361.c"	send_cmd_16bit(tmp); // 4 * 16bit 2 * 16bit
                                           	MOVAR	r0x101C
                                           	MOVRA	STK00
                                           	MOVAR	r0x101D
                                           	CALL	_send_cmd_16bit
                                           ;	.line	654; "MC32F7361.c"	tmp = ((u16)table_irkey[i][3] << 8) + (u16)table_irkey[i][4];
                                           	MOVAR	r0x101E
                                           	MOVRA	STK01
                                           	MOVAR	r0x101F
                                           	MOVRA	STK00
                                           	MOVAI	0x80
                                           	CALL	__gptrget1
                                           	MOVRA	r0x101D
                                           	MOVRA	r0x101E
                                           	MOVRA	r0x101C
                                           ;;104	MOVAR	r0x101C
                                           	CLRR	r0x101F
                                           ;;105	MOVAR	r0x101E
                                           	CLRR	r0x101C
                                           	MOVAR	r0x101A
                                           	MOVRA	STK01
                                           	MOVAR	r0x101B
                                           	MOVRA	STK00
                                           	MOVAI	0x80
                                           	CALL	__gptrget1
                                           	MOVRA	r0x101E
                                           ;;103	MOVAR	r0x101E
                                           	CLRR	r0x101B
                                           ;;102	MOVAR	r0x101A
                                           	MOVAR	r0x101E
                                           	MOVRA	r0x101A
                                           	ADDRA	r0x101C
                                           	MOVAI	0x00
                                           	JBCLR	PFLAG,0
                                           	JZAR	r0x101B
                                           	ADDRA	r0x101D
                                           ;	.line	655; "MC32F7361.c"	send_cmd_16bit(tmp);
                                           	MOVAR	r0x101C
                                           	MOVRA	STK00
                                           	MOVAR	r0x101D
                                           	CALL	_send_cmd_16bit
                                           ;	.line	657; "MC32F7361.c"	break;
                                           	GOTO	_00296_DS_
                                           _00327_DS_
                                           ;	.line	644; "MC32F7361.c"	for (i = 0; i < sizeof(table_irkey) / sizeof(table_irkey[0]); i++)
                                           	INCR	r0x1019
                                           ;;unsigned compare: left < lit(0x12=18), size=1
                                           	MOVAI	0x12
                                           	RSUBAR	r0x1019
                                           	JBSET	PFLAG,0
                                           	GOTO	_00326_DS_
                                           ;;genSkipc:3291: created from rifx:013B5EFC
                                           _00296_DS_
                                           ;	.line	662; "MC32F7361.c"	ir_data = 0;
                                           	CLRR	_ir_data
                                           ;	.line	663; "MC32F7361.c"	flag_is_recved_data = 0;
                                           	BCLR	_flag1,0
                                           _00298_DS_
                                           ;	.line	666; "MC32F7361.c"	if (CUR_LED_STATUS_AUTO == cur_led_status) //  AUTO 
                                           	MOVAR	_cur_led_status
                                           	XORAI	0x01
                                           	JBSET	PFLAG,2
                                           	GOTO	_00486_DS_
                                           	GOTO	_00324_DS_
                                           _00486_DS_
                                           ;	.line	988; "MC32F7361.c"	else if (CUR_LED_STATUS_R4C4_FADE == cur_led_status) //  fade 
                                           	MOVAR	_cur_led_status
                                           	XORAI	0x04
                                           	JBSET	PFLAG,2
                                           	GOTO	_00487_DS_
                                           	GOTO	_00324_DS_
                                           _00487_DS_
                                           ;	.line	1116; "MC32F7361.c"	else if (CUR_LED_STATUS_R5C4_JUMP == cur_led_status) //  JUMP 
                                           	MOVAR	_cur_led_status
                                           	XORAI	0x05
                                           	JBSET	PFLAG,2
                                           	GOTO	_00488_DS_
                                           	GOTO	_00324_DS_
                                           _00488_DS_
                                           ;	.line	1199; "MC32F7361.c"	else if (CUR_LED_STATUS_R6C4_ASYN_FADE == cur_led_status) //  asyn_fade 
                                           	MOVAR	_cur_led_status
                                           	XORAI	0x06
                                           	JBSET	PFLAG,2
                                           	GOTO	_00489_DS_
                                           	GOTO	_00324_DS_
                                           _00489_DS_
                                           ;	.line	1312; "MC32F7361.c"	else if (CUR_LED_STATUS_R7C1_IN_WAVES == cur_led_status) //  in_waves 
                                           	MOVAR	_cur_led_status
                                           	XORAI	0x07
                                           	JBSET	PFLAG,2
                                           	GOTO	_00490_DS_
                                           	GOTO	_00324_DS_
                                           _00490_DS_
                                           ;	.line	1436; "MC32F7361.c"	else if (CUR_LED_STATUS_R7C2_STROBE == cur_led_status) //  strobe 
                                           	MOVAR	_cur_led_status
                                           	XORAI	0x08
                                           	JBSET	PFLAG,2
                                           	GOTO	_00491_DS_
                                           	GOTO	_00324_DS_
                                           _00491_DS_
                                           ;	.line	1545; "MC32F7361.c"	else if (CUR_LED_STATUS_R7C3_TWINKLE == cur_led_status) //  twinkle 
                                           	MOVAR	_cur_led_status
                                           	XORAI	0x09
                                           	JBSET	PFLAG,2
                                           	GOTO	_00492_DS_
                                           	GOTO	_00324_DS_
                                           _00492_DS_
                                           ;	.line	1647; "MC32F7361.c"	else if (CUR_LED_STATUS_R7C4_ASYN_JUMP == cur_led_status) //  asyn_jump 
                                           	MOVAR	_cur_led_status
                                           	XORAI	0x0a
                                           	JBSET	PFLAG,2
                                           	GOTO	_00493_DS_
                                           	GOTO	_00324_DS_
                                           _00493_DS_
                                           ;	.line	1760; "MC32F7361.c"	flag_is_press_speed = 0;
                                           	CLRR	_flag_is_press_speed
                                           	GOTO	_00324_DS_
                                           ;	.line	1764; "MC32F7361.c"	}
                                           	RETURN	
                                           ; exit point of _main
                                           
                                           ;***
                                           ;  pBlock Stats: dbName = C
                                           ;***
                                           ;entry:  _Sys_Init	;Function start
                                           ; 2 exit points
                                           ;has an exit
                                           ;functions called:
                                           ;   _CLR_RAM
                                           ;   _IO_Init
                                           ;   _TIMER2_INT_Init
                                           ;   _TIMER3_INT_Init
                                           ;   _CLR_RAM
                                           ;   _IO_Init
                                           ;   _TIMER2_INT_Init
                                           ;   _TIMER3_INT_Init
                                           ;; Starting pCode block
                                           _Sys_Init	;Function start
                                           ; 2 exit points
                                           ;	.line	243; "MC32F7361.c"	GIE = 0;
                                           	BCLR	_MCRbits,7
                                           ;	.line	244; "MC32F7361.c"	CLR_RAM();
                                           	CALL	_CLR_RAM
                                           ;	.line	245; "MC32F7361.c"	IO_Init();
                                           	CALL	_IO_Init
                                           ;	.line	248; "MC32F7361.c"	TIMER2_INT_Init();
                                           	CALL	_TIMER2_INT_Init
                                           ;	.line	249; "MC32F7361.c"	TIMER3_INT_Init();
                                           	CALL	_TIMER3_INT_Init
                                           ;	.line	250; "MC32F7361.c"	GIE = 1;
                                           	BSET	_MCRbits,7
                                           ;	.line	251; "MC32F7361.c"	}
                                           	RETURN	
                                           ; exit point of _Sys_Init
                                           
                                           ;***
                                           ;  pBlock Stats: dbName = C
                                           ;***
                                           ;entry:  _TIMER3_INT_Init	;Function start
                                           ; 2 exit points
                                           ;has an exit
                                           ;; Starting pCode block
                                           _TIMER3_INT_Init	;Function start
                                           ; 2 exit points
                                           ;	.line	231; "MC32F7361.c"	T3LOAD = 135 - 1;                               // 1ms
                                           	MOVAI	0x86
                                           	MOVRA	_T3LOAD
                                           ;	.line	232; "MC32F7361.c"	T3CR = (0x01 << 7) | (0x01 << 2) | (0x01 << 1); // FCPU64
                                           	MOVAI	0x86
                                           	MOVRA	_T3CR
                                           ;	.line	233; "MC32F7361.c"	T3IE = 1;
                                           	BSET	_INTEbits,7
                                           ;	.line	234; "MC32F7361.c"	}
                                           	RETURN	
                                           ; exit point of _TIMER3_INT_Init
                                           
                                           ;***
                                           ;  pBlock Stats: dbName = C
                                           ;***
                                           ;entry:  _TIMER2_INT_Init	;Function start
                                           ; 2 exit points
                                           ;has an exit
                                           ;; Starting pCode block
                                           _TIMER2_INT_Init	;Function start
                                           ; 2 exit points
                                           ;	.line	222; "MC32F7361.c"	T2CR = DEF_SET_BIT0 | DEF_SET_BIT1; // CPU,8
                                           	MOVAI	0x03
                                           	MOVRA	_T2CR
                                           ;	.line	223; "MC32F7361.c"	T2CNT = 100 - 1;
                                           	MOVAI	0x63
                                           	MOVRA	_T2CNT
                                           ;	.line	224; "MC32F7361.c"	T2LOAD = 100 - 1; // 100us
                                           	MOVAI	0x63
                                           	MOVRA	_T2LOAD
                                           ;	.line	225; "MC32F7361.c"	T2EN = 1;
                                           	BSET	_T2CRbits,7
                                           ;	.line	226; "MC32F7361.c"	T2IE = 1;
                                           	BSET	_INTEbits,5
                                           ;	.line	227; "MC32F7361.c"	}
                                           	RETURN	
                                           ; exit point of _TIMER2_INT_Init
                                           
                                           ;***
                                           ;  pBlock Stats: dbName = C
                                           ;***
                                           ;entry:  _IO_Init	;Function start
                                           ; 2 exit points
                                           ;has an exit
                                           ;; Starting pCode block
                                           _IO_Init	;Function start
                                           ; 2 exit points
                                           ;	.line	193; "MC32F7361.c"	IOP0 = 0x00;   // io
                                           	CLRR	_IOP0
                                           ;	.line	194; "MC32F7361.c"	OEP0 = 0x3F;   // io 1:out  0:in
                                           	MOVAI	0x3f
                                           	MOVRA	_OEP0
                                           ;	.line	195; "MC32F7361.c"	PUP0 = 0x00;   // io   1:enable  0:disable
                                           	CLRR	_PUP0
                                           ;	.line	196; "MC32F7361.c"	PDP0 = 0x00;   // io   1:enable  0:disable
                                           	CLRR	_PDP0
                                           ;	.line	197; "MC32F7361.c"	P0ADCR = 0x00; // io  1:  0:io
                                           	CLRR	_P0ADCR
                                           ;	.line	199; "MC32F7361.c"	IOP1 = 0x00;   // io
                                           	CLRR	_IOP1
                                           ;	.line	200; "MC32F7361.c"	OEP1 = 0xFF;   // io 1:out  0:in
                                           	MOVAI	0xff
                                           	MOVRA	_OEP1
                                           ;	.line	201; "MC32F7361.c"	PUP1 = 0x00;   // io   1:enable  0:disable
                                           	CLRR	_PUP1
                                           ;	.line	202; "MC32F7361.c"	PDP1 = 0x00;   // io   1:enable  0:disable
                                           	CLRR	_PDP1
                                           ;	.line	203; "MC32F7361.c"	P1ADCR = 0x00; // io  1:  0:io
                                           	CLRR	_P1ADCR
                                           ;	.line	205; "MC32F7361.c"	IOP2 = 0x00; // io
                                           	CLRR	_IOP2
                                           ;	.line	206; "MC32F7361.c"	OEP2 = 0x0F; // io 1:out  0:in
                                           	MOVAI	0x0f
                                           	MOVRA	_OEP2
                                           ;	.line	207; "MC32F7361.c"	PUP2 = 0x00; // io   1:enable  0:disable
                                           	CLRR	_PUP2
                                           ;	.line	208; "MC32F7361.c"	PDP2 = 0x00; // io   1:enable  0:disablea
                                           	CLRR	_PDP2
                                           ;	.line	210; "MC32F7361.c"	PMOD = 0x00;  // P00P01P13 io
                                           	CLRR	_PMOD
                                           ;	.line	211; "MC32F7361.c"	DRVCR = 0x80; // 
                                           	MOVAI	0x80
                                           	MOVRA	_DRVCR
                                           ;	.line	212; "MC32F7361.c"	}
                                           	RETURN	
                                           ; exit point of _IO_Init
                                           
                                           ;***
                                           ;  pBlock Stats: dbName = C
                                           ;***
                                           ;entry:  _CLR_RAM	;Function start
                                           ; 2 exit points
                                           ;has an exit
                                           ;; Starting pCode block
                                           _CLR_RAM	;Function start
                                           ; 2 exit points
                                           ;	.line	178; "MC32F7361.c"	for (FSR0 = 0; FSR0 < 0xff; FSR0++)
                                           	CLRR	_FSR0
                                           ;;unsigned compare: left < lit(0xFF=255), size=1
                                           _00226_DS_
                                           	MOVAI	0xff
                                           	RSUBAR	_FSR0
                                           	JBCLR	PFLAG,0
                                           	GOTO	_00224_DS_
                                           ;;genSkipc:3291: created from rifx:013B5EFC
                                           ;	.line	180; "MC32F7361.c"	INDF0 = 0x00;
                                           	CLRR	_INDF0
                                           ;	.line	178; "MC32F7361.c"	for (FSR0 = 0; FSR0 < 0xff; FSR0++)
                                           	INCR	_FSR0
                                           	GOTO	_00226_DS_
                                           _00224_DS_
                                           ;	.line	182; "MC32F7361.c"	FSR0 = 0xFF;
                                           	MOVAI	0xff
                                           	MOVRA	_FSR0
                                           ;	.line	183; "MC32F7361.c"	INDF0 = 0x00;
                                           	CLRR	_INDF0
                                           ;	.line	184; "MC32F7361.c"	}
                                           	RETURN	
                                           ; exit point of _CLR_RAM
                                           
                                           ;***
                                           ;  pBlock Stats: dbName = C
                                           ;***
                                           ;entry:  _send_cmd_16bit_without_delay	;Function start
                                           ; 2 exit points
                                           ;has an exit
                                           ;functions called:
                                           ;   _delay_100us
                                           ;   _delay_ms
                                           ;   _delay_1_4ms
                                           ;   _delay_100us
                                           ;   _delay_100us
                                           ;   _delay_ms
                                           ;   _delay_1_4ms
                                           ;   _delay_100us
                                           ;7 compiler assigned registers:
                                           ;   r0x1021
                                           ;   STK00
                                           ;   r0x1022
                                           ;   r0x1023
                                           ;   r0x1024
                                           ;   r0x1025
                                           ;   r0x1026
                                           ;; Starting pCode block
                                           _send_cmd_16bit_without_delay	;Function start
                                           ; 2 exit points
                                           ;	.line	140; "MC32F7361.c"	void send_cmd_16bit_without_delay(const u16 data)
                                           	MOVRA	r0x1021
                                           	MOVAR	STK00
                                           	MOVRA	r0x1022
                                           ;	.line	143; "MC32F7361.c"	if (0 == flag_is_dev_open)
                                           	JBCLR	_flag1,1
                                           	GOTO	_00203_DS_
                                           ;	.line	145; "MC32F7361.c"	return;
                                           	GOTO	_00199_DS_
                                           _00203_DS_
                                           ;	.line	149; "MC32F7361.c"	for (i = 0; i < 16; i++)
                                           	CLRR	r0x1023
                                           _00197_DS_
                                           ;	.line	151; "MC32F7361.c"	LED_CTL_PIN = 0;
                                           	BCLR	_IOP2bits,2
                                           ;	.line	152; "MC32F7361.c"	delay_100us();
                                           	CALL	_delay_100us
                                           ;	.line	153; "MC32F7361.c"	LED_CTL_PIN = 1;
                                           	BSET	_IOP2bits,2
                                           ;	.line	154; "MC32F7361.c"	if ((data >> (15 - i)) & 0x01) // 1
                                           	MOVAR	r0x1023
                                           	ISUBAI	0x0f
                                           	MOVRA	r0x1024
                                           	MOVAR	r0x1021
                                           	MOVRA	r0x1025
                                           	MOVAR	r0x1022
                                           	MOVRA	r0x1026
                                           	MOVAR	r0x1024
                                           	ISUBAI	0x00
                                           	JBCLR	PFLAG,2
                                           	GOTO	_00219_DS_
                                           _00218_DS_
                                           	RRR	r0x1025
                                           	RRR	r0x1026
                                           	ADDAI	0x01
                                           	JBSET	PFLAG,0
                                           	GOTO	_00218_DS_
                                           _00219_DS_
                                           	JBSET	r0x1026,0
                                           	GOTO	_00194_DS_
                                           ;	.line	156; "MC32F7361.c"	delay_ms(3);
                                           	MOVAI	0x03
                                           	MOVRA	STK00
                                           	MOVAI	0x00
                                           	CALL	_delay_ms
                                           	GOTO	_00198_DS_
                                           _00194_DS_
                                           ;	.line	160; "MC32F7361.c"	delay_1_4ms();
                                           	CALL	_delay_1_4ms
                                           _00198_DS_
                                           ;	.line	149; "MC32F7361.c"	for (i = 0; i < 16; i++)
                                           	INCR	r0x1023
                                           ;;unsigned compare: left < lit(0x10=16), size=1
                                           	MOVAI	0x10
                                           	RSUBAR	r0x1023
                                           	JBSET	PFLAG,0
                                           	GOTO	_00197_DS_
                                           ;;genSkipc:3291: created from rifx:013B5EFC
                                           ;	.line	164; "MC32F7361.c"	LED_CTL_PIN = 0;
                                           	BCLR	_IOP2bits,2
                                           ;	.line	165; "MC32F7361.c"	delay_100us();
                                           	CALL	_delay_100us
                                           ;	.line	166; "MC32F7361.c"	LED_CTL_PIN = 1;
                                           	BSET	_IOP2bits,2
                                           _00199_DS_
                                           ;	.line	168; "MC32F7361.c"	}
                                           	RETURN	
                                           ; exit point of _send_cmd_16bit_without_delay
                                           
                                           ;***
                                           ;  pBlock Stats: dbName = C
                                           ;***
                                           ;entry:  _send_cmd_16bit	;Function start
                                           ; 2 exit points
                                           ;has an exit
                                           ;functions called:
                                           ;   _delay_100us
                                           ;   _delay_ms
                                           ;   _delay_1_4ms
                                           ;   _delay_100us
                                           ;   _delay_ms
                                           ;   _delay_100us
                                           ;   _delay_ms
                                           ;   _delay_1_4ms
                                           ;   _delay_100us
                                           ;   _delay_ms
                                           ;7 compiler assigned registers:
                                           ;   r0x1013
                                           ;   STK00
                                           ;   r0x1014
                                           ;   r0x1015
                                           ;   r0x1016
                                           ;   r0x1017
                                           ;   r0x1018
                                           ;; Starting pCode block
                                           _send_cmd_16bit	;Function start
                                           ; 2 exit points
                                           ;	.line	108; "MC32F7361.c"	void send_cmd_16bit(const u16 data)
                                           	MOVRA	r0x1013
                                           	MOVAR	STK00
                                           	MOVRA	r0x1014
                                           ;	.line	111; "MC32F7361.c"	if (0 == flag_is_dev_open)
                                           	JBCLR	_flag1,1
                                           	GOTO	_00170_DS_
                                           ;	.line	113; "MC32F7361.c"	return;
                                           	GOTO	_00166_DS_
                                           _00170_DS_
                                           ;	.line	117; "MC32F7361.c"	for (i = 0; i < 16; i++)
                                           	CLRR	r0x1015
                                           _00164_DS_
                                           ;	.line	119; "MC32F7361.c"	LED_CTL_PIN = 0;
                                           	BCLR	_IOP2bits,2
                                           ;	.line	120; "MC32F7361.c"	delay_100us();
                                           	CALL	_delay_100us
                                           ;	.line	121; "MC32F7361.c"	LED_CTL_PIN = 1;
                                           	BSET	_IOP2bits,2
                                           ;	.line	122; "MC32F7361.c"	if ((data >> (15 - i)) & 0x01) // 1
                                           	MOVAR	r0x1015
                                           	ISUBAI	0x0f
                                           	MOVRA	r0x1016
                                           	MOVAR	r0x1013
                                           	MOVRA	r0x1017
                                           	MOVAR	r0x1014
                                           	MOVRA	r0x1018
                                           	MOVAR	r0x1016
                                           	ISUBAI	0x00
                                           	JBCLR	PFLAG,2
                                           	GOTO	_00186_DS_
                                           _00185_DS_
                                           	RRR	r0x1017
                                           	RRR	r0x1018
                                           	ADDAI	0x01
                                           	JBSET	PFLAG,0
                                           	GOTO	_00185_DS_
                                           _00186_DS_
                                           	JBSET	r0x1018,0
                                           	GOTO	_00161_DS_
                                           ;	.line	124; "MC32F7361.c"	delay_ms(3);
                                           	MOVAI	0x03
                                           	MOVRA	STK00
                                           	MOVAI	0x00
                                           	CALL	_delay_ms
                                           	GOTO	_00165_DS_
                                           _00161_DS_
                                           ;	.line	128; "MC32F7361.c"	delay_1_4ms();
                                           	CALL	_delay_1_4ms
                                           _00165_DS_
                                           ;	.line	117; "MC32F7361.c"	for (i = 0; i < 16; i++)
                                           	INCR	r0x1015
                                           ;;unsigned compare: left < lit(0x10=16), size=1
                                           	MOVAI	0x10
                                           	RSUBAR	r0x1015
                                           	JBSET	PFLAG,0
                                           	GOTO	_00164_DS_
                                           ;;genSkipc:3291: created from rifx:013B5EFC
                                           ;	.line	132; "MC32F7361.c"	LED_CTL_PIN = 0;
                                           	BCLR	_IOP2bits,2
                                           ;	.line	133; "MC32F7361.c"	delay_100us();
                                           	CALL	_delay_100us
                                           ;	.line	134; "MC32F7361.c"	LED_CTL_PIN = 1;
                                           	BSET	_IOP2bits,2
                                           ;	.line	135; "MC32F7361.c"	delay_ms(33);
                                           	MOVAI	0x21
                                           	MOVRA	STK00
                                           	MOVAI	0x00
                                           	CALL	_delay_ms
                                           _00166_DS_
                                           ;	.line	137; "MC32F7361.c"	}
                                           	RETURN	
                                           ; exit point of _send_cmd_16bit
                                           
                                           ;***
                                           ;  pBlock Stats: dbName = C
                                           ;***
                                           ;entry:  _EEPROM_Write_Data	;Function start
                                           ; 2 exit points
                                           ;has an exit
                                           ;functions called:
                                           ;   __gptrget2
                                           ;   _EEPROM_Write_Byte
                                           ;   __gptrget2
                                           ;   _EEPROM_Write_Byte
                                           ;12 compiler assigned registers:
                                           ;   r0x102B
                                           ;   STK00
                                           ;   r0x102C
                                           ;   STK01
                                           ;   r0x102D
                                           ;   STK02
                                           ;   r0x102E
                                           ;   STK03
                                           ;   r0x102F
                                           ;   r0x1030
                                           ;   r0x1031
                                           ;   r0x1032
                                           ;; Starting pCode block
                                           _EEPROM_Write_Data	;Function start
                                           ; 2 exit points
                                           ;	.line	98; "MC32F7361.c"	void EEPROM_Write_Data(u8 addr, u16 *data, u8 len)
                                           	MOVRA	r0x102B
                                           	MOVAR	STK00
                                           	MOVRA	r0x102C
                                           	MOVAR	STK01
                                           	MOVRA	r0x102D
                                           	MOVAR	STK02
                                           	MOVRA	r0x102E
                                           	MOVAR	STK03
                                           	MOVRA	r0x102F
                                           _00150_DS_
                                           ;	.line	100; "MC32F7361.c"	while (len)
                                           	MOVAI	0x00
                                           	ORAR	r0x102F
                                           	JBCLR	PFLAG,2
                                           	GOTO	_00153_DS_
                                           ;	.line	102; "MC32F7361.c"	EEPROM_Write_Byte(addr++, *data++);
                                           	MOVAR	r0x102B
                                           	MOVRA	r0x1030
                                           	INCR	r0x102B
                                           	MOVAR	r0x102E
                                           	MOVRA	STK01
                                           	MOVAR	r0x102D
                                           	MOVRA	STK00
                                           	MOVAR	r0x102C
                                           	CALL	__gptrget2
                                           	MOVRA	r0x1031
                                           	MOVAR	STK00
                                           	MOVRA	r0x1032
                                           	MOVAI	0x02
                                           	ADDRA	r0x102E
                                           	JBCLR	PFLAG,0
                                           	INCR	r0x102D
                                           	JBCLR	PFLAG,2
                                           	INCR	r0x102C
                                           	MOVAR	r0x1032
                                           	MOVRA	STK01
                                           	MOVAR	r0x1031
                                           	MOVRA	STK00
                                           	MOVAR	r0x1030
                                           	CALL	_EEPROM_Write_Byte
                                           ;	.line	103; "MC32F7361.c"	len--;
                                           	DECR	r0x102F
                                           	GOTO	_00150_DS_
                                           _00153_DS_
                                           ;	.line	105; "MC32F7361.c"	}
                                           	RETURN	
                                           ; exit point of _EEPROM_Write_Data
                                           
                                           ;***
                                           ;  pBlock Stats: dbName = C
                                           ;***
                                           ;entry:  _EEPROM_Read_Byte	;Function start
                                           ; 2 exit points
                                           ;has an exit
                                           ;5 compiler assigned registers:
                                           ;   r0x1033
                                           ;   r0x1034
                                           ;   r0x1035
                                           ;   r0x1036
                                           ;   STK00
                                           ;; Starting pCode block
                                           _EEPROM_Read_Byte	;Function start
                                           ; 2 exit points
                                           ;	.line	78; "MC32F7361.c"	uint16_t EEPROM_Read_Byte(u8 addr)
                                           	MOVRA	_EEAR
                                           ;	.line	82; "MC32F7361.c"	EECR = 0x02; //  EE 
                                           	MOVAI	0x02
                                           	MOVRA	_EECR
                                           ;	.line	83; "MC32F7361.c"	Nop();
                                           	nop	
                                           ;	.line	84; "MC32F7361.c"	Nop();
                                           	nop	
                                           _00145_DS_
                                           ;	.line	85; "MC32F7361.c"	while (EEREAD) //  EE 
                                           	JBCLR	_EECRbits,1
                                           	GOTO	_00145_DS_
                                           ;	.line	89; "MC32F7361.c"	EEDR = (EEDRH << 8) | EEDRL;
                                           	MOVAR	_EEDRH
                                           	MOVRA	r0x1035
                                           	MOVRA	r0x1033
                                           	CLRR	r0x1034
                                           ;;101	MOVAR	r0x1033
                                           	CLRR	r0x1036
                                           	MOVAR	_EEDRL
                                           	MOVRA	r0x1033
                                           	CLRR	r0x1034
                                           	MOVAR	r0x1033
                                           	ORRA	r0x1036
                                           	MOVAI	0x00
                                           	ORRA	r0x1035
                                           ;	.line	90; "MC32F7361.c"	return EEDR;
                                           	MOVAR	r0x1036
                                           	MOVRA	STK00
                                           	MOVAR	r0x1035
                                           ;	.line	91; "MC32F7361.c"	}
                                           	RETURN	
                                           ; exit point of _EEPROM_Read_Byte
                                           
                                           ;***
                                           ;  pBlock Stats: dbName = C
                                           ;***
                                           ;entry:  _EEPROM_Write_Byte	;Function start
                                           ; 2 exit points
                                           ;has an exit
                                           ;6 compiler assigned registers:
                                           ;   STK00
                                           ;   r0x1027
                                           ;   STK01
                                           ;   r0x1028
                                           ;   r0x1029
                                           ;   r0x102A
                                           ;; Starting pCode block
                                           _EEPROM_Write_Byte	;Function start
                                           ; 2 exit points
                                           ;	.line	54; "MC32F7361.c"	void EEPROM_Write_Byte(uint8_t addr, uint16_t data)
                                           	MOVRA	_EEAR
                                           	MOVAR	STK00
                                           	MOVRA	r0x1029
                                           ;;1	MOVRA	r0x1027
                                           	MOVAR	STK01
                                           	MOVRA	r0x1028
                                           ;	.line	56; "MC32F7361.c"	HFEN = 1;
                                           	BSET	_OSCMRbits,0
                                           ;;99	MOVAR	r0x1027
                                           ;;1	CLRR	r0x102A
                                           ;	.line	58; "MC32F7361.c"	EEDRH = (data >> 8) & 0xff;
                                           	MOVAR	r0x1029
                                           	MOVRA	_EEDRH
                                           ;	.line	59; "MC32F7361.c"	EEDRL = data & 0xff;
                                           	MOVAR	r0x1028
                                           	MOVRA	_EEDRL
                                           ;	.line	60; "MC32F7361.c"	GIE = 0;
                                           	BCLR	_MCRbits,7
                                           ;	.line	61; "MC32F7361.c"	EEPR = 0x5A;
                                           	MOVAI	0x5a
                                           	MOVRA	_EEPR
                                           ;	.line	62; "MC32F7361.c"	EEPR = 0xA5; // 
                                           	MOVAI	0xa5
                                           	MOVRA	_EEPR
                                           ;	.line	63; "MC32F7361.c"	EECR = 0x01; // EEPROM  
                                           	MOVAI	0x01
                                           	MOVRA	_EECR
                                           ;	.line	64; "MC32F7361.c"	Nop();
                                           	nop	
                                           ;	.line	65; "MC32F7361.c"	Nop();
                                           	nop	
                                           _00140_DS_
                                           ;	.line	66; "MC32F7361.c"	while (EEWRITE) //  EE 
                                           	JBCLR	_EECRbits,0
                                           	GOTO	_00140_DS_
                                           ;	.line	70; "MC32F7361.c"	GIE = 1;
                                           	BSET	_MCRbits,7
                                           ;	.line	71; "MC32F7361.c"	}
                                           	RETURN	
                                           ; exit point of _EEPROM_Write_Byte
                                           
                                           ;***
                                           ;  pBlock Stats: dbName = C
                                           ;***
                                           ;entry:  _delay_1_4ms	;Function start
                                           ; 2 exit points
                                           ;has an exit
                                           ;functions called:
                                           ;   _delay_100us
                                           ;   _delay_100us
                                           ;2 compiler assigned registers:
                                           ;   r0x100F
                                           ;   r0x1010
                                           ;; Starting pCode block
                                           _delay_1_4ms	;Function start
                                           ; 2 exit points
                                           ;	.line	42; "MC32F7361.c"	for (i = 0; i < 14; i++)
                                           	MOVAI	0x0e
                                           	MOVRA	r0x100F
                                           _00135_DS_
                                           ;	.line	44; "MC32F7361.c"	delay_100us();
                                           	CALL	_delay_100us
                                           	DECAR	r0x100F
                                           	MOVRA	r0x100F
                                           	MOVRA	r0x1010
                                           ;;100	MOVAR	r0x1010
                                           ;	.line	42; "MC32F7361.c"	for (i = 0; i < 14; i++)
                                           	MOVAI	0x00
                                           	ORAR	r0x1010
                                           	JBSET	PFLAG,2
                                           	GOTO	_00135_DS_
                                           ;	.line	46; "MC32F7361.c"	}
                                           	RETURN	
                                           ; exit point of _delay_1_4ms
                                           
                                           ;***
                                           ;  pBlock Stats: dbName = C
                                           ;***
                                           ;entry:  _delay_200us	;Function start
                                           ; 2 exit points
                                           ;has an exit
                                           ;2 compiler assigned registers:
                                           ;   r0x1037
                                           ;   r0x1038
                                           ;; Starting pCode block
                                           _delay_200us	;Function start
                                           ; 2 exit points
                                           ;	.line	32; "MC32F7361.c"	while (i--)
                                           	MOVAI	0x96
                                           	MOVRA	r0x1037
                                           _00124_DS_
                                           	MOVAR	r0x1037
                                           	MOVRA	r0x1038
                                           	DECR	r0x1037
                                           	MOVAI	0x00
                                           	ORAR	r0x1038
                                           	JBCLR	PFLAG,2
                                           	GOTO	_00127_DS_
                                           ;	.line	34; "MC32F7361.c"	Nop();
                                           	nop	
                                           	GOTO	_00124_DS_
                                           _00127_DS_
                                           ;	.line	36; "MC32F7361.c"	}
                                           	RETURN	
                                           ; exit point of _delay_200us
                                           
                                           ;***
                                           ;  pBlock Stats: dbName = C
                                           ;***
                                           ;entry:  _delay_100us	;Function start
                                           ; 2 exit points
                                           ;has an exit
                                           ;2 compiler assigned registers:
                                           ;   r0x100D
                                           ;   r0x100E
                                           ;; Starting pCode block
                                           _delay_100us	;Function start
                                           ; 2 exit points
                                           ;	.line	22; "MC32F7361.c"	while (i--)
                                           	MOVAI	0x4a
                                           	MOVRA	r0x100D
                                           _00116_DS_
                                           	MOVAR	r0x100D
                                           	MOVRA	r0x100E
                                           	DECR	r0x100D
                                           	MOVAI	0x00
                                           	ORAR	r0x100E
                                           	JBCLR	PFLAG,2
                                           	GOTO	_00119_DS_
                                           ;	.line	24; "MC32F7361.c"	Nop();
                                           	nop	
                                           	GOTO	_00116_DS_
                                           _00119_DS_
                                           ;	.line	26; "MC32F7361.c"	}
                                           	RETURN	
                                           ; exit point of _delay_100us
                                           
                                           ;***
                                           ;  pBlock Stats: dbName = C
                                           ;***
                                           ;entry:  _delay_ms	;Function start
                                           ; 2 exit points
                                           ;has an exit
                                           ;7 compiler assigned registers:
                                           ;   r0x100D
                                           ;   STK00
                                           ;   r0x100E
                                           ;   r0x100F
                                           ;   r0x1010
                                           ;   r0x1011
                                           ;   r0x1012
                                           ;; Starting pCode block
                                           _delay_ms	;Function start
                                           ; 2 exit points
                                           ;	.line	657; "user.h"	void delay_ms(u16 xms)
                                           	MOVRA	r0x100D
                                           	MOVAR	STK00
                                           	MOVRA	r0x100E
                                           _00108_DS_
                                           ;	.line	659; "user.h"	while (xms)
                                           	MOVAR	r0x100E
                                           	ORAR	r0x100D
                                           	JBCLR	PFLAG,2
                                           	GOTO	_00111_DS_
                                           ;	.line	662; "user.h"	while (i--)
                                           	MOVAI	0x05
                                           	MOVRA	r0x100F
                                           	MOVAI	0x02
                                           	MOVRA	r0x1010
                                           _00105_DS_
                                           	MOVAR	r0x100F
                                           	MOVRA	r0x1011
                                           	MOVAR	r0x1010
                                           	MOVRA	r0x1012
                                           	MOVAI	0xff
                                           	ADDRA	r0x100F
                                           	JBSET	PFLAG,0
                                           	DECR	r0x1010
                                           	MOVAR	r0x1011
                                           	ORAR	r0x1012
                                           	JBCLR	PFLAG,2
                                           	GOTO	_00107_DS_
                                           ;	.line	664; "user.h"	Nop();
                                           	nop	
                                           	GOTO	_00105_DS_
                                           _00107_DS_
                                           ;	.line	666; "user.h"	xms--; //  --while()
                                           	MOVAI	0xff
                                           	ADDRA	r0x100E
                                           	JBSET	PFLAG,0
                                           	DECR	r0x100D
                                           ;	.line	670; "user.h"	__endasm;
                                           	;
                                           	clrwdt;
                                           	
                                           	GOTO	_00108_DS_
                                           _00111_DS_
                                           ;	.line	672; "user.h"	}
                                           	RETURN	
                                           ; exit point of _delay_ms
                                           
                                           
                                           ;	code size estimation:
                                           ;	  825+    0 =   825 instructions ( 1650 byte)
                                           
                                           	end


MEMORY USAGE MAP ('X' = Used,  '-' = Unused)

0000 : XX-------------- XXXXXXXXXXXXXXXX XXXXXXXXXXXXXXXX XXXXXXXXXXXXXXXX
0040 : XXXXXXXXXXXXXXXX XXXXXXXXXXXXXXXX XXXXXXXXXXXXXXXX XXXXXXXXXXXXXXXX
0080 : XXXXXXXXXXXXXXXX XXXXXXXXXXXXXXXX XXXXXXXXXXXXXXXX XXXXXXXXXXXXXXXX
00C0 : XXXXXXXXXXXXXXXX XXXXXXXXXXXXXXXX XXXXXXXXXXXXXXXX XXXXXXXXXXXXXXXX
0100 : XXXXXXXXXXXXXXXX XXXXXXXXXXXXXXXX XXXXXXXXXXXXXXXX XXXXXXXXXXXXXXXX
0140 : XXXXXXXXXXXXXXXX XXXXXXXXXXXXXXXX XXXXXXXXXXXXXXXX XXXXXXXXXXXXXXXX
0180 : XXXXXXXXXXXXXXXX XXXXXXXXXXXXXXXX XXXXXXXXXXXXXXXX XXXXXXXXXXXXXXXX
01C0 : XXXXXXXXXXXXXXXX XXXXXXXXXXXXXXXX XXXXXXXXXXXXXXXX XXXXXXXXXXXXXXXX
0200 : XXXXXXXXXXXXXXXX XXXXXXXXXXXXXXXX XXXXXXXXXXXXXXXX XXXXXXXXXXXXXXXX
0240 : XXXXXXXXXXXXXXXX XXXXXXXXXXXXXXXX XXXXXXXXXXXXXXXX XXXXXXXXXXXXXXXX
0280 : XXXXXXXXXXXXXXXX XXXXXXXXXXXXXXXX XXXXXXXXXXXXXXXX XXXXXXXXXXXXXXXX
02C0 : XXXXXXXXXXXXXXXX XXXXXXXXXXXXXXXX XXXXXXXXXXXXXXXX XXXXXXXXXXXXXXXX
0300 : XXXXXXXXXXXXXXXX XXXXXXXXXXXXXXXX XXXXXXXXXXXXXXXX XXXXXXXXXXXXXXXX
0340 : XXXXXXXXXXXXXXXX XXXXXXXXXXXXXXXX XXXXXXXXXXXXXXXX XXXXXXXXXXXXXXXX
0380 : XXXXXXXXXXXXXXXX XXXXXXXXXXXXXXXX XXXXXXXXXXXXXXXX XXXXXXXXXXXXXXXX
03C0 : XXXXXXXXXXXXXXXX XXXXXXXXXXXXXXXX XXXXXXXXXXXXXXXX XXXXXXXXXXXXXXXX
0400 : XXXXXXXXXXXXXXXX XXXXXXXXXXXXXXXX XXXXXXXXXXXXXXXX XXXXXXXXXXXXXXXX
0440 : XXXXXXXXXXXXXXXX XXXXXXXXXXXXXXXX XXXXXXXXXXXXXXXX XXXXXXXXXXXXXXXX
0480 : XXXXXXXXXXXXXXXX XXXXXXXXXXXXXXXX XXXXXXXXXXXXXXXX XXXXXXXXXXXXXXXX
04C0 : XXXXXXXXXXXXXXXX XXXXXXXXXXXXXXXX XXXXXXXXXXXXXXXX XXXXXXXXXXXXXXXX
0500 : XXXXXXXXXXXXXXXX XXXXXXXXXXXXXXXX XXXXXXXXXXXXXXXX XXXXXXXXXXXXXXXX
0540 : XXXXXXXXXXXXXXXX XXXXXXXXXXXXXXXX XXXXXXXXXXXXXXXX XXXXXXXXXXXXXXXX
0580 : XXXXXXXXXXXXXXXX XXXXXXXXXXXXXXXX XXXXXXXXXXXXXXXX XXXXXXXXXXXXXXXX
05C0 : XXXXXXXXXXXXXXXX XXXXXXXXXXXXXXXX XXXXXXXXXXXXXXXX XXXXXXXXXXXXXXXX
0600 : XXXXXXXXXXXXXXXX XXXXXXXXXXXXXXXX XXXXXXXXXXXXXXXX XXXXXXXXXXXXXXXX
0640 : XXXXXXXXXXXXXXXX XXXXXXXXXXXXXXXX XXXXXXXXXXXXXXXX XXXXXXXXXXXXXXXX
0680 : XXXXXXXXXXXXXXXX XXXXXXXXXXXXXXXX XXXXXXXXXXXXXXXX XXXXXXXXXXXXXXXX
06C0 : XXXXXXXXXXXXXXXX XXXXXXXXXXXXXXXX XXXXXXXXXXXXXXXX XXXXXXXXXXXXXXXX
0700 : XXXXXXXXXXXXXXXX XXXXXXXXXXXXXXXX XXXXXXXXXXXXXXXX XXXXXXXXXXXXXXXX
0740 : XXXXXXXXXXXXXXXX XXXXXXXXXXXXXXXX XXXXXXXXXXXXXXXX XXXXXXXXXXXXXXXX
0780 : XXXXXXXXXXXXXXXX XXXXXXXXXXXXXXXX XXXXXXXXXXXXXXXX XXXXXXXXXXXXXXXX
07C0 : XXXXXXXXXXXXXXXX XXXXXXXXXXXXXX-- ---------------- ----------------

All other memory blocks unused.

Program Memory Words Used:  1000

